ARM GAS  /tmp/ccyzLfXl.s 			page 1


   1              		.syntax unified
   2              		.cpu cortex-m4
   3              		.eabi_attribute 27, 1
   4              		.eabi_attribute 28, 1
   5              		.fpu fpv4-sp-d16
   6              		.eabi_attribute 20, 1
   7              		.eabi_attribute 21, 1
   8              		.eabi_attribute 23, 3
   9              		.eabi_attribute 24, 1
  10              		.eabi_attribute 25, 1
  11              		.eabi_attribute 26, 1
  12              		.eabi_attribute 30, 2
  13              		.eabi_attribute 34, 1
  14              		.eabi_attribute 18, 4
  15              		.thumb
  16              		.file	"app.c"
  17              		.text
  18              	.Ltext0:
  19              		.cfi_sections	.debug_frame
  20              		.section	.text.app_get_configuration,"ax",%progbits
  21              		.align	2
  22              		.p2align 4,,15
  23              		.global	app_get_configuration
  24              		.thumb
  25              		.thumb_func
  26              		.type	app_get_configuration, %function
  27              	app_get_configuration:
  28              	.LFB257:
  29              		.file 1 "applications/app.c"
  30              		.loc 1 84 0
  31              		.cfi_startproc
  32              		@ args = 0, pretend = 0, frame = 0
  33              		@ frame_needed = 0, uses_anonymous_args = 0
  34              		@ link register save eliminated.
  35              		.loc 1 86 0
  36 0000 0048     		ldr	r0, .L2
  37 0002 7047     		bx	lr
  38              	.L3:
  39              		.align	2
  40              	.L2:
  41 0004 00000000 		.word	.LANCHOR0
  42              		.cfi_endproc
  43              	.LFE257:
  44              		.size	app_get_configuration, .-app_get_configuration
  45              		.section	.text.app_set_configuration,"ax",%progbits
  46              		.align	2
  47              		.p2align 4,,15
  48              		.global	app_set_configuration
  49              		.thumb
  50              		.thumb_func
  51              		.type	app_set_configuration, %function
  52              	app_set_configuration:
  53              	.LFB258:
  54              		.loc 1 95 0
  55              		.cfi_startproc
  56              		@ args = 0, pretend = 0, frame = 0
  57              		@ frame_needed = 0, uses_anonymous_args = 0
ARM GAS  /tmp/ccyzLfXl.s 			page 2


  58              	.LVL0:
  59 0000 38B5     		push	{r3, r4, r5, lr}
  60              		.cfi_def_cfa_offset 16
  61              		.cfi_offset 3, -16
  62              		.cfi_offset 4, -12
  63              		.cfi_offset 5, -8
  64              		.cfi_offset 14, -4
  65              		.loc 1 96 0
  66 0002 104C     		ldr	r4, .L6
  67 0004 4FF48072 		mov	r2, #256
  68              		.loc 1 95 0
  69 0008 0146     		mov	r1, r0
  70              		.loc 1 97 0
  71 000a 04F1C405 		add	r5, r4, #196
  72              		.loc 1 96 0
  73 000e 2046     		mov	r0, r4
  74              	.LVL1:
  75 0010 FFF7FEFF 		bl	memcpy
  76              	.LVL2:
  77              		.loc 1 97 0
  78 0014 2946     		mov	r1, r5
  79 0016 04F11800 		add	r0, r4, #24
  80 001a FFF7FEFF 		bl	app_ppm_configure
  81              	.LVL3:
  82              		.loc 1 98 0
  83 001e 04F15400 		add	r0, r4, #84
  84 0022 FFF7FEFF 		bl	app_adc_configure
  85              	.LVL4:
  86              		.loc 1 99 0
  87 0026 D4F88000 		ldr	r0, [r4, #128]
  88 002a FFF7FEFF 		bl	app_uartcomm_configure
  89              	.LVL5:
  90              		.loc 1 100 0
  91 002e 04F18400 		add	r0, r4, #132
  92 0032 2946     		mov	r1, r5
  93 0034 FFF7FEFF 		bl	app_nunchuk_configure
  94              	.LVL6:
  95              		.loc 1 101 0
  96 0038 04F1B800 		add	r0, r4, #184
  97              		.loc 1 102 0
  98 003c BDE83840 		pop	{r3, r4, r5, lr}
  99              		.cfi_restore 14
 100              		.cfi_restore 5
 101              		.cfi_restore 4
 102              		.cfi_restore 3
 103              		.cfi_def_cfa_offset 0
 104              		.loc 1 101 0
 105 0040 FFF7FEBF 		b	rfhelp_update_conf
 106              	.LVL7:
 107              	.L7:
 108              		.align	2
 109              	.L6:
 110 0044 00000000 		.word	.LANCHOR0
 111              		.cfi_endproc
 112              	.LFE258:
 113              		.size	app_set_configuration, .-app_set_configuration
 114              		.section	.text.app_init,"ax",%progbits
ARM GAS  /tmp/ccyzLfXl.s 			page 3


 115              		.align	2
 116              		.p2align 4,,15
 117              		.global	app_init
 118              		.thumb
 119              		.thumb_func
 120              		.type	app_init, %function
 121              	app_init:
 122              	.LFB256:
 123              		.loc 1 34 0
 124              		.cfi_startproc
 125              		@ args = 0, pretend = 0, frame = 0
 126              		@ frame_needed = 0, uses_anonymous_args = 0
 127              	.LVL8:
 128 0000 08B5     		push	{r3, lr}
 129              		.cfi_def_cfa_offset 8
 130              		.cfi_offset 3, -8
 131              		.cfi_offset 14, -4
 132              		.loc 1 35 0
 133 0002 FFF7FEFF 		bl	app_set_configuration
 134              	.LVL9:
 135              		.loc 1 37 0
 136 0006 1B4B     		ldr	r3, .L20
 137 0008 1B7D     		ldrb	r3, [r3, #20]	@ zero_extendqisi2
 138 000a 013B     		subs	r3, r3, #1
 139 000c 062B     		cmp	r3, #6
 140 000e 2FD8     		bhi	.L8
 141 0010 DFE803F0 		tbb	[pc, r3]
 142              	.L11:
 143 0014 0A       		.byte	(.L10-.L11)/2
 144 0015 0E       		.byte	(.L12-.L11)/2
 145 0016 13       		.byte	(.L13-.L11)/2
 146 0017 19       		.byte	(.L14-.L11)/2
 147 0018 21       		.byte	(.L15-.L11)/2
 148 0019 2A       		.byte	(.L16-.L11)/2
 149 001a 04       		.byte	(.L17-.L11)/2
 150 001b 00       		.p2align 1
 151              	.L17:
 152              		.loc 1 68 0
 153 001c FFF7FEFF 		bl	nrf_driver_init
 154              	.LVL10:
 155              		.loc 1 82 0
 156 0020 BDE80840 		pop	{r3, lr}
 157              		.cfi_remember_state
 158              		.cfi_restore 14
 159              		.cfi_restore 3
 160              		.cfi_def_cfa_offset 0
 161              		.loc 1 69 0
 162 0024 FFF7FEBF 		b	rfhelp_restart
 163              	.LVL11:
 164              	.L10:
 165              		.cfi_restore_state
 166              		.loc 1 82 0
 167 0028 BDE80840 		pop	{r3, lr}
 168              		.cfi_remember_state
 169              		.cfi_restore 14
 170              		.cfi_restore 3
 171              		.cfi_def_cfa_offset 0
ARM GAS  /tmp/ccyzLfXl.s 			page 4


 172              		.loc 1 39 0
 173 002c FFF7FEBF 		b	app_ppm_start
 174              	.LVL12:
 175              	.L12:
 176              		.cfi_restore_state
 177              		.loc 1 43 0
 178 0030 0120     		movs	r0, #1
 179              		.loc 1 82 0
 180 0032 BDE80840 		pop	{r3, lr}
 181              		.cfi_remember_state
 182              		.cfi_restore 14
 183              		.cfi_restore 3
 184              		.cfi_def_cfa_offset 0
 185              		.loc 1 43 0
 186 0036 FFF7FEBF 		b	app_adc_start
 187              	.LVL13:
 188              	.L13:
 189              		.cfi_restore_state
 190              		.loc 1 47 0
 191 003a FFF7FEFF 		bl	hw_stop_i2c
 192              	.LVL14:
 193              		.loc 1 82 0
 194 003e BDE80840 		pop	{r3, lr}
 195              		.cfi_remember_state
 196              		.cfi_restore 14
 197              		.cfi_restore 3
 198              		.cfi_def_cfa_offset 0
 199              		.loc 1 48 0
 200 0042 FFF7FEBF 		b	app_uartcomm_start
 201              	.LVL15:
 202              	.L14:
 203              		.cfi_restore_state
 204              		.loc 1 52 0
 205 0046 FFF7FEFF 		bl	hw_stop_i2c
 206              	.LVL16:
 207              		.loc 1 53 0
 208 004a FFF7FEFF 		bl	app_ppm_start
 209              	.LVL17:
 210              		.loc 1 82 0
 211 004e BDE80840 		pop	{r3, lr}
 212              		.cfi_remember_state
 213              		.cfi_restore 14
 214              		.cfi_restore 3
 215              		.cfi_def_cfa_offset 0
 216              		.loc 1 54 0
 217 0052 FFF7FEBF 		b	app_uartcomm_start
 218              	.LVL18:
 219              	.L15:
 220              		.cfi_restore_state
 221              		.loc 1 58 0
 222 0056 FFF7FEFF 		bl	hw_stop_i2c
 223              	.LVL19:
 224              		.loc 1 59 0
 225 005a 0020     		movs	r0, #0
 226 005c FFF7FEFF 		bl	app_adc_start
 227              	.LVL20:
 228              		.loc 1 82 0
ARM GAS  /tmp/ccyzLfXl.s 			page 5


 229 0060 BDE80840 		pop	{r3, lr}
 230              		.cfi_remember_state
 231              		.cfi_restore 14
 232              		.cfi_restore 3
 233              		.cfi_def_cfa_offset 0
 234              		.loc 1 60 0
 235 0064 FFF7FEBF 		b	app_uartcomm_start
 236              	.LVL21:
 237              	.L16:
 238              		.cfi_restore_state
 239              		.loc 1 82 0
 240 0068 BDE80840 		pop	{r3, lr}
 241              		.cfi_restore 14
 242              		.cfi_restore 3
 243              		.cfi_def_cfa_offset 0
 244              		.loc 1 64 0
 245 006c FFF7FEBF 		b	app_nunchuk_start
 246              	.LVL22:
 247              	.L8:
 248 0070 08BD     		pop	{r3, pc}
 249              	.L21:
 250 0072 00BF     		.align	2
 251              	.L20:
 252 0074 00000000 		.word	.LANCHOR0
 253              		.cfi_endproc
 254              	.LFE256:
 255              		.size	app_init, .-app_init
 256              		.section	.bss.appconf,"aw",%nobits
 257              		.align	2
 258              		.set	.LANCHOR0,. + 0
 259              		.type	appconf, %object
 260              		.size	appconf, 256
 261              	appconf:
 262 0000 00000000 		.space	256
 262      00000000 
 262      00000000 
 262      00000000 
 262      00000000 
 263              		.text
 264              	.Letext0:
 265              		.file 2 "/usr/arm-none-eabi/include/machine/_default_types.h"
 266              		.file 3 "/usr/arm-none-eabi/include/sys/_stdint.h"
 267              		.file 4 "/usr/lib/gcc/arm-none-eabi/4.9.3/include/stddef.h"
 268              		.file 5 "ChibiOS_3.0.2/os/rt/ports/ARMCMx/compilers/GCC/chtypes.h"
 269              		.file 6 "ChibiOS_3.0.2/os/rt/include/chsystypes.h"
 270              		.file 7 "ChibiOS_3.0.2/os/rt/include/chschd.h"
 271              		.file 8 "ChibiOS_3.0.2/os/rt/ports/ARMCMx/chcore.h"
 272              		.file 9 "ChibiOS_3.0.2/os/rt/ports/ARMCMx/chcore_v7m.h"
 273              		.file 10 "ChibiOS_3.0.2/os/rt/include/chtm.h"
 274              		.file 11 "ChibiOS_3.0.2/os/rt/include/chsem.h"
 275              		.file 12 "ChibiOS_3.0.2/os/rt/include/chmtx.h"
 276              		.file 13 "./datatypes.h"
 277              		.file 14 "applications/app.h"
 278              		.file 15 "nrf/rfhelp.h"
 279              		.file 16 "nrf/nrf_driver.h"
 280              		.file 17 "hwconf/hw.h"
 281              		.file 18 "ChibiOS_3.0.2/os/ext/CMSIS/include/core_cm4.h"
ARM GAS  /tmp/ccyzLfXl.s 			page 6

