ARM GAS  /tmp/cco7fTDX.s 			page 1


   1              		.syntax unified
   2              		.cpu cortex-m4
   3              		.eabi_attribute 27, 1
   4              		.eabi_attribute 28, 1
   5              		.fpu fpv4-sp-d16
   6              		.eabi_attribute 20, 1
   7              		.eabi_attribute 21, 1
   8              		.eabi_attribute 23, 3
   9              		.eabi_attribute 24, 1
  10              		.eabi_attribute 25, 1
  11              		.eabi_attribute 26, 1
  12              		.eabi_attribute 30, 2
  13              		.eabi_attribute 34, 1
  14              		.eabi_attribute 18, 4
  15              		.thumb
  16              		.file	"app_adc.c"
  17              		.text
  18              	.Ltext0:
  19              		.cfi_sections	.debug_frame
  20              		.section	.text.adc_thread,"ax",%progbits
  21              		.align	2
  22              		.p2align 4,,15
  23              		.thumb
  24              		.thumb_func
  25              		.type	adc_thread, %function
  26              	adc_thread:
  27              	.LFB262:
  28              		.file 1 "applications/app_adc.c"
  29              		.loc 1 83 0
  30              		.cfi_startproc
  31              		@ args = 0, pretend = 0, frame = 16
  32              		@ frame_needed = 0, uses_anonymous_args = 0
  33              	.LVL0:
  34 0000 2DE9F04F 		push	{r4, r5, r6, r7, r8, r9, r10, fp, lr}
  35              		.cfi_def_cfa_offset 36
  36              		.cfi_offset 4, -36
  37              		.cfi_offset 5, -32
  38              		.cfi_offset 6, -28
  39              		.cfi_offset 7, -24
  40              		.cfi_offset 8, -20
  41              		.cfi_offset 9, -16
  42              		.cfi_offset 10, -12
  43              		.cfi_offset 11, -8
  44              		.cfi_offset 14, -4
  45              	.LBB56:
  46              	.LBB57:
  47              		.file 2 "ChibiOS_3.0.2/os/rt/include/chregistry.h"
  48              		.loc 2 135 0
  49 0004 D24B     		ldr	r3, .L222
  50 0006 D349     		ldr	r1, .L222+4
  51 0008 9A69     		ldr	r2, [r3, #24]
  52              	.LBE57:
  53              	.LBE56:
  54              		.loc 1 89 0
  55 000a D34B     		ldr	r3, .L222+8
  56              		.loc 1 83 0
  57 000c 2DED088B 		fstmfdd	sp!, {d8, d9, d10, d11}
ARM GAS  /tmp/cco7fTDX.s 			page 2


  58              		.cfi_def_cfa_offset 68
  59              		.cfi_offset 80, -68
  60              		.cfi_offset 81, -64
  61              		.cfi_offset 82, -60
  62              		.cfi_offset 83, -56
  63              		.cfi_offset 84, -52
  64              		.cfi_offset 85, -48
  65              		.cfi_offset 86, -44
  66              		.cfi_offset 87, -40
  67              		.loc 1 89 0
  68 0010 1B78     		ldrb	r3, [r3]	@ zero_extendqisi2
  69              	.LBB59:
  70              	.LBB58:
  71              		.loc 2 135 0
  72 0012 9161     		str	r1, [r2, #24]
  73              	.LBE58:
  74              	.LBE59:
  75              		.loc 1 83 0
  76 0014 85B0     		sub	sp, sp, #20
  77              		.cfi_def_cfa_offset 88
  78              		.loc 1 89 0
  79 0016 002B     		cmp	r3, #0
  80 0018 00F0BD84 		beq	.L2
  81              		.loc 1 90 0
  82 001c CF48     		ldr	r0, .L222+12
  83              	.LVL1:
  84 001e 4021     		movs	r1, #64
  85 0020 2022     		movs	r2, #32
  86 0022 FFF7FEFF 		bl	_pal_lld_setgroupmode
  87              	.LVL2:
  88              		.loc 1 91 0
  89 0026 CD48     		ldr	r0, .L222+12
  90 0028 8021     		movs	r1, #128
  91 002a 2022     		movs	r2, #32
  92 002c FFF7FEFF 		bl	_pal_lld_setgroupmode
  93              	.LVL3:
  94              	.L3:
  95 0030 DFF87CA3 		ldr	r10, .L222+96
  96 0034 DFF870B3 		ldr	fp, .L222+88
  97 0038 C94E     		ldr	r6, .L222+16
  98 003a DFF84483 		ldr	r8, .L222+48
  99              	.LBB60:
 100              		.loc 1 108 0
 101 003e DFEDC99A 		flds	s19, .L222+20
 102              		.loc 1 113 0
 103 0042 9FEDC98A 		flds	s16, .L222+24
 104              	.LBB61:
 105              	.LBB62:
 106              	.LBB63:
 107              		.loc 1 397 0
 108 0046 DFEDC98A 		flds	s17, .L222+28
 109 004a 9FEDC99A 		flds	s18, .L222+32
 110              	.L4:
 111              	.LBE63:
 112              	.LBE62:
 113              	.LBE61:
 114              		.loc 1 98 0
ARM GAS  /tmp/cco7fTDX.s 			page 3


 115 004e DAF82830 		ldr	r3, [r10, #40]
 116 0052 42F21075 		movw	r5, #10000
 117 0056 B5FBF3F5 		udiv	r5, r5, r3
 118              	.LVL4:
 119              		.loc 1 102 0
 120 005a 002D     		cmp	r5, #0
 121 005c 08BF     		it	eq
 122 005e 0125     		moveq	r5, #1
 123              	.LVL5:
 124              		.loc 1 104 0
 125 0060 2846     		mov	r0, r5
 126 0062 FFF7FEFF 		bl	chThdSleep
 127              	.LVL6:
 128              		.loc 1 107 0
 129 0066 FFF7FEFF 		bl	mc_interface_get_fault
 130              	.LVL7:
 131 006a 08B1     		cbz	r0, .L6
 132              		.loc 1 108 0
 133 006c CBED009A 		fsts	s19, [fp]
 134              	.L6:
 135              		.loc 1 112 0
 136 0070 B38A     		ldrh	r3, [r6, #20]
 137              		.loc 1 114 0
 138 0072 9FEDC07A 		flds	s14, .L222+36
 139              		.loc 1 112 0
 140 0076 9BB2     		uxth	r3, r3
 141 0078 07EE903A 		fmsr	s15, r3	@ int
 142 007c B8EE670A 		fuitos	s0, s15
 143              		.loc 1 116 0
 144 0080 BD4B     		ldr	r3, .L222+40
 145              		.loc 1 113 0
 146 0082 80EE080A 		fdivs	s0, s0, s16
 147              		.loc 1 114 0
 148 0086 20EE070A 		fmuls	s0, s0, s14
 149              		.loc 1 116 0
 150 008a 83ED000A 		fsts	s0, [r3]
 151              		.loc 1 119 0
 152 008e 9AF81030 		ldrb	r3, [r10, #16]	@ zero_extendqisi2
 153              		.loc 1 114 0
 154 0092 8DED020A 		fsts	s0, [sp, #8]
 155              		.loc 1 119 0
 156 0096 03B3     		cbz	r3, .L7
 157              	.LBB76:
 158              		.loc 1 123 0
 159 0098 D8F80030 		ldr	r3, [r8]
 160 009c B748     		ldr	r0, .L222+44
 161 009e B849     		ldr	r1, .L222+48
 162              	.LBE76:
 163              		.loc 1 102 0
 164 00a0 DFEDB07A 		flds	s15, .L222+20
 165              	.LBB78:
 166              		.loc 1 123 0
 167 00a4 5A1C     		adds	r2, r3, #1
 168              		.loc 1 124 0
 169 00a6 042A     		cmp	r2, #4
 170              		.loc 1 123 0
 171 00a8 00EB8303 		add	r3, r0, r3, lsl #2
ARM GAS  /tmp/cco7fTDX.s 			page 4


 172 00ac 83ED000A 		fsts	s0, [r3]
 173              		.loc 1 125 0
 174 00b0 C8BF     		it	gt
 175 00b2 0023     		movgt	r3, #0
 176              		.loc 1 123 0
 177 00b4 C8F80020 		str	r2, [r8]
 178              		.loc 1 125 0
 179 00b8 C8BF     		it	gt
 180 00ba 0B60     		strgt	r3, [r1]
 181              	.LVL8:
 182 00bc AF4B     		ldr	r3, .L222+44
 183 00be 03F11402 		add	r2, r3, #20
 184              	.LVL9:
 185              	.L9:
 186              	.LBB77:
 187              		.loc 1 130 0 discriminator 3
 188 00c2 B3EC017A 		fldmias	r3!, {s14}
 189              		.loc 1 129 0 discriminator 3
 190 00c6 9342     		cmp	r3, r2
 191              		.loc 1 130 0 discriminator 3
 192 00c8 77EE877A 		fadds	s15, s15, s14
 193              		.loc 1 129 0 discriminator 3
 194 00cc F9D1     		bne	.L9
 195              	.LBE77:
 196              		.loc 1 132 0
 197 00ce B1EE040A 		fconsts	s0, #20
 198 00d2 87EE800A 		fdivs	s0, s15, s0
 199 00d6 8DED020A 		fsts	s0, [sp, #8]
 200              	.L7:
 201              	.LBE78:
 202              		.loc 1 136 0
 203 00da DAED020A 		flds	s1, [r10, #8]
 204 00de DFEDA11A 		flds	s3, .L222+20
 205 00e2 9AED031A 		flds	s2, [r10, #12]
 206 00e6 B7EE002A 		fconsts	s4, #112
 207 00ea FFF7FEFF 		bl	utils_map
 208              	.LVL10:
 209              		.loc 1 137 0
 210 00ee 02A8     		add	r0, sp, #8
 211              		.loc 1 136 0
 212 00f0 8DED020A 		fsts	s0, [sp, #8]
 213              		.loc 1 137 0
 214 00f4 F7EE000A 		fconsts	s1, #112
 215 00f8 9FED9A0A 		flds	s0, .L222+20
 216 00fc FFF7FEFF 		bl	utils_truncate_number
 217              	.LVL11:
 218              		.loc 1 140 0
 219 0100 9AF81430 		ldrb	r3, [r10, #20]	@ zero_extendqisi2
 220              		.loc 1 141 0
 221 0104 DDED027A 		flds	s15, [sp, #8]
 222              		.loc 1 140 0
 223 0108 2BB1     		cbz	r3, .L11
 224              		.loc 1 141 0
 225 010a B7EE007A 		fconsts	s14, #112
 226 010e 77EE677A 		fsubs	s15, s14, s15
 227 0112 CDED027A 		fsts	s15, [sp, #8]
 228              	.L11:
ARM GAS  /tmp/cco7fTDX.s 			page 5


 229              		.loc 1 144 0
 230 0116 9B4B     		ldr	r3, .L222+52
 231              		.loc 1 150 0
 232 0118 9FED967A 		flds	s14, .L222+36
 233              		.loc 1 144 0
 234 011c C3ED007A 		fsts	s15, [r3]
 235              		.loc 1 148 0
 236 0120 F389     		ldrh	r3, [r6, #14]
 237 0122 9BB2     		uxth	r3, r3
 238 0124 07EE903A 		fmsr	s15, r3	@ int
 239 0128 B8EE670A 		fuitos	s0, s15
 240              		.loc 1 155 0
 241 012c 964B     		ldr	r3, .L222+56
 242              		.loc 1 149 0
 243 012e 80EE080A 		fdivs	s0, s0, s16
 244              		.loc 1 150 0
 245 0132 20EE070A 		fmuls	s0, s0, s14
 246              		.loc 1 155 0
 247 0136 83ED000A 		fsts	s0, [r3]
 248              		.loc 1 158 0
 249 013a 9AF81030 		ldrb	r3, [r10, #16]	@ zero_extendqisi2
 250              		.loc 1 150 0
 251 013e 8DED030A 		fsts	s0, [sp, #12]
 252              		.loc 1 158 0
 253 0142 FBB1     		cbz	r3, .L12
 254              	.LBB79:
 255              		.loc 1 162 0
 256 0144 914B     		ldr	r3, .L222+60
 257 0146 9248     		ldr	r0, .L222+64
 258 0148 1B68     		ldr	r3, [r3]
 259 014a 9049     		ldr	r1, .L222+60
 260              	.LBE79:
 261              		.loc 1 102 0
 262 014c DFED857A 		flds	s15, .L222+20
 263              	.LBB81:
 264              		.loc 1 162 0
 265 0150 5A1C     		adds	r2, r3, #1
 266              		.loc 1 163 0
 267 0152 042A     		cmp	r2, #4
 268              		.loc 1 162 0
 269 0154 00EB8303 		add	r3, r0, r3, lsl #2
 270 0158 83ED000A 		fsts	s0, [r3]
 271              		.loc 1 164 0
 272 015c C8BF     		it	gt
 273 015e 0023     		movgt	r3, #0
 274              		.loc 1 162 0
 275 0160 0A60     		str	r2, [r1]
 276              		.loc 1 164 0
 277 0162 C8BF     		it	gt
 278 0164 0B60     		strgt	r3, [r1]
 279              	.LVL12:
 280 0166 8A4B     		ldr	r3, .L222+64
 281 0168 03F11402 		add	r2, r3, #20
 282              	.LVL13:
 283              	.L14:
 284              	.LBB80:
 285              		.loc 1 169 0 discriminator 3
ARM GAS  /tmp/cco7fTDX.s 			page 6


 286 016c B3EC017A 		fldmias	r3!, {s14}
 287              		.loc 1 168 0 discriminator 3
 288 0170 9342     		cmp	r3, r2
 289              		.loc 1 169 0 discriminator 3
 290 0172 77EE877A 		fadds	s15, s15, s14
 291              		.loc 1 168 0 discriminator 3
 292 0176 F9D1     		bne	.L14
 293              	.LBE80:
 294              		.loc 1 171 0
 295 0178 B1EE040A 		fconsts	s0, #20
 296 017c 87EE800A 		fdivs	s0, s15, s0
 297 0180 8DED030A 		fsts	s0, [sp, #12]
 298              	.L12:
 299              	.LBE81:
 300              		.loc 1 175 0
 301 0184 DAED020A 		flds	s1, [r10, #8]
 302 0188 DFED761A 		flds	s3, .L222+20
 303 018c 9AED031A 		flds	s2, [r10, #12]
 304 0190 B7EE002A 		fconsts	s4, #112
 305 0194 FFF7FEFF 		bl	utils_map
 306              	.LVL14:
 307              		.loc 1 176 0
 308 0198 03A8     		add	r0, sp, #12
 309              		.loc 1 175 0
 310 019a 8DED030A 		fsts	s0, [sp, #12]
 311              		.loc 1 176 0
 312 019e F7EE000A 		fconsts	s1, #112
 313 01a2 9FED700A 		flds	s0, .L222+20
 314 01a6 FFF7FEFF 		bl	utils_truncate_number
 315              	.LVL15:
 316              		.loc 1 179 0
 317 01aa 9AF81430 		ldrb	r3, [r10, #20]	@ zero_extendqisi2
 318              		.loc 1 180 0
 319 01ae DDED037A 		flds	s15, [sp, #12]
 320              		.loc 1 179 0
 321 01b2 2BB1     		cbz	r3, .L16
 322              		.loc 1 180 0
 323 01b4 B7EE007A 		fconsts	s14, #112
 324 01b8 77EE677A 		fsubs	s15, s14, s15
 325 01bc CDED037A 		fsts	s15, [sp, #12]
 326              	.L16:
 327              		.loc 1 183 0
 328 01c0 744B     		ldr	r3, .L222+68
 329 01c2 C3ED007A 		fsts	s15, [r3]
 330              	.LVL16:
 331              		.loc 1 189 0
 332 01c6 644B     		ldr	r3, .L222+8
 333 01c8 1B78     		ldrb	r3, [r3]	@ zero_extendqisi2
 334 01ca 03F0FF02 		and	r2, r3, #255
 335 01ce 002B     		cmp	r3, #0
 336 01d0 00F0FF80 		beq	.L17
 337              		.loc 1 190 0
 338 01d4 614B     		ldr	r3, .L222+12
 339 01d6 1C69     		ldr	r4, [r3, #16]
 340              		.loc 1 191 0
 341 01d8 9AF81230 		ldrb	r3, [r10, #18]	@ zero_extendqisi2
 342              		.loc 1 190 0
ARM GAS  /tmp/cco7fTDX.s 			page 7


 343 01dc C4F38014 		ubfx	r4, r4, #6, #1
 344 01e0 84F00104 		eor	r4, r4, #1
 345              	.LVL17:
 346              		.loc 1 191 0
 347 01e4 0BB1     		cbz	r3, .L18
 348              		.loc 1 192 0
 349 01e6 84F00104 		eor	r4, r4, #1
 350              	.LVL18:
 351              	.L18:
 352              		.loc 1 194 0
 353 01ea 5C4B     		ldr	r3, .L222+12
 354 01ec 1A69     		ldr	r2, [r3, #16]
 355              		.loc 1 195 0
 356 01ee 9AF81330 		ldrb	r3, [r10, #19]	@ zero_extendqisi2
 357              		.loc 1 194 0
 358 01f2 C2F3C012 		ubfx	r2, r2, #7, #1
 359 01f6 82F00102 		eor	r2, r2, #1
 360              	.LVL19:
 361              		.loc 1 195 0
 362 01fa 0BB1     		cbz	r3, .L19
 363              		.loc 1 196 0
 364 01fc 82F00102 		eor	r2, r2, #1
 365              	.LVL20:
 366              	.L19:
 367              		.loc 1 215 0
 368 0200 9AF80030 		ldrb	r3, [r10]	@ zero_extendqisi2
 369 0204 023B     		subs	r3, r3, #2
 370 0206 DBB2     		uxtb	r3, r3
 371 0208 072B     		cmp	r3, #7
 372 020a 17D8     		bhi	.L22
 373 020c 0121     		movs	r1, #1
 374 020e 01FA03F3 		lsl	r3, r1, r3
 375 0212 13F08A0F 		tst	r3, #138
 376 0216 40F06881 		bne	.L23
 377 021a 13F0450F 		tst	r3, #69
 378 021e 40F0C182 		bne	.L24
 379 0222 DA06     		lsls	r2, r3, #27
 380              	.LVL21:
 381 0224 0AD5     		bpl	.L22
 382              		.loc 1 225 0
 383 0226 9FED5C7A 		flds	s14, .L222+72
 384 022a F4EEC77A 		fcmpes	s15, s14
 385 022e F1EE10FA 		fmstat
 386 0232 03DD     		ble	.L22
 387              	.L211:
 388              		.loc 1 236 0
 389 0234 F1EE677A 		fnegs	s15, s15
 390 0238 CDED027A 		fsts	s15, [sp, #8]
 391              	.L22:
 392              		.loc 1 245 0
 393 023c 9AED010A 		flds	s0, [r10, #4]
 394 0240 02A8     		add	r0, sp, #8
 395 0242 F7EE000A 		fconsts	s1, #112
 396 0246 FFF7FEFF 		bl	utils_deadband
 397              	.LVL22:
 398              		.loc 1 250 0
 399 024a FFF7FEFF 		bl	mc_interface_get_configuration
ARM GAS  /tmp/cco7fTDX.s 			page 8


 400              	.LVL23:
 401              		.loc 1 254 0
 402 024e 9AF80030 		ldrb	r3, [r10]	@ zero_extendqisi2
 403 0252 013B     		subs	r3, r3, #1
 404 0254 DBB2     		uxtb	r3, r3
 405 0256 082B     		cmp	r3, #8
 406              		.loc 1 250 0
 407 0258 8146     		mov	r9, r0
 408              	.LVL24:
 409 025a 3FF6F8AE 		bhi	.L4
 410 025e 0122     		movs	r2, #1
 411 0260 02FA03F3 		lsl	r3, r2, r3
 412 0264 13F4E071 		ands	r1, r3, #448
 413 0268 40F04581 		bne	.L28
 414 026c 13F0380F 		tst	r3, #56
 415 0270 40F07182 		bne	.L29
 416 0274 5B07     		lsls	r3, r3, #29
 417 0276 3FF4EAAE 		beq	.L4
 418              	.LVL25:
 419              		.loc 1 259 0
 420 027a DDED027A 		flds	s15, [sp, #8]
 421              		.loc 1 265 0
 422 027e 9FED477A 		flds	s14, .L222+76
 423              		.loc 1 259 0
 424 0282 F5EEC07A 		fcmpezs	s15
 425 0286 F1EE10FA 		fmstat
 426              		.loc 1 262 0
 427 028a B6BF     		itet	lt
 428 028c 90ED02AA 		fldslt	s20, [r0, #8]
 429              		.loc 1 260 0
 430 0290 90ED01AA 		fldsge	s20, [r0, #4]
 431              		.loc 1 262 0
 432 0294 B0EECAAA 		fabsslt	s20, s20
 433 0298 27EE8AAA 		fmuls	s20, s15, s20
 434              	.LVL26:
 435              		.loc 1 265 0
 436 029c F0EEE77A 		fabss	s15, s15
 437 02a0 F4EEC77A 		fcmpes	s15, s14
 438 02a4 F1EE10FA 		fmstat
 439 02a8 40F12083 		bpl	.L205
 440              		.loc 1 266 0
 441 02ac 07EE905A 		fmsr	s15, r5	@ int
 442 02b0 9FED3B7A 		flds	s14, .L222+80
 443 02b4 F8EEE76A 		fsitos	s13, s15
 444 02b8 DBED007A 		flds	s15, [fp]
 445 02bc 26EE877A 		fmuls	s14, s13, s14
 446              		.loc 1 251 0
 447 02c0 0027     		movs	r7, #0
 448              		.loc 1 266 0
 449 02c2 87EE287A 		fdivs	s14, s14, s17
 450              		.loc 1 249 0
 451 02c6 0197     		str	r7, [sp, #4]
 452              		.loc 1 258 0
 453 02c8 0125     		movs	r5, #1
 454              	.LVL27:
 455              		.loc 1 266 0
 456 02ca 77EE277A 		fadds	s15, s14, s15
ARM GAS  /tmp/cco7fTDX.s 			page 9


 457 02ce CBED007A 		fsts	s15, [fp]
 458              	.LVL28:
 459              	.L33:
 460              		.loc 1 304 0
 461 02d2 9BED007A 		flds	s14, [fp]
 462 02d6 DFED337A 		flds	s15, .L222+84
 463 02da 334B     		ldr	r3, .L222+88
 464 02dc B4EEE77A 		fcmpes	s14, s15
 465 02e0 F1EE10FA 		fmstat
 466 02e4 40F1A080 		bpl	.L43
 467              		.loc 1 304 0 is_stmt 0 discriminator 1
 468 02e8 9AF81120 		ldrb	r2, [r10, #17]	@ zero_extendqisi2
 469 02ec 002A     		cmp	r2, #0
 470 02ee 00F09B80 		beq	.L43
 471              	.LBB82:
 472              		.loc 1 306 0 is_stmt 1
 473 02f2 2E4A     		ldr	r2, .L222+92
 474 02f4 93ED007A 		flds	s14, [r3]
 475 02f8 1268     		ldr	r2, [r2]
 476 02fa 0092     		str	r2, [sp]
 477 02fc 07EE902A 		fmsr	s15, r2	@ int
 478 0300 F8EEE77A 		fsitos	s15, s15
 479 0304 F4EE477A 		fcmps	s15, s14
 480 0308 F1EE10FA 		fmstat
 481              		.loc 1 307 0
 482 030c 08BF     		it	eq
 483 030e C3ED009A 		fstseq	s19, [r3]
 484              		.loc 1 309 0
 485 0312 DBED007A 		flds	s15, [fp]
 486 0316 254B     		ldr	r3, .L222+92
 487 0318 FDEEE77A 		ftosizs	s15, s15
 488 031c C3ED007A 		fsts	s15, [r3]	@ int
 489              		.loc 1 310 0
 490 0320 FFF7FEFF 		bl	timeout_get_brake_current
 491              	.LVL29:
 492 0324 FFF7FEFF 		bl	mc_interface_set_brake_current
 493              	.LVL30:
 494              		.loc 1 312 0
 495 0328 9AF82030 		ldrb	r3, [r10, #32]	@ zero_extendqisi2
 496 032c 002B     		cmp	r3, #0
 497 032e 3FF48EAE 		beq	.L4
 498 0332 0024     		movs	r4, #0
 499              	.LVL31:
 500              	.L48:
 501              	.LBB83:
 502              	.LBB84:
 503              		.loc 1 314 0
 504 0334 2046     		mov	r0, r4
 505 0336 FFF7FEFF 		bl	comm_can_get_status_msg_index
 506              	.LVL32:
 507              		.loc 1 316 0
 508 033a 0568     		ldr	r5, [r0]
 509 033c 002D     		cmp	r5, #0
 510              	.LBE84:
 511              		.loc 1 313 0
 512 033e 04F10104 		add	r4, r4, #1
 513              	.LVL33:
ARM GAS  /tmp/cco7fTDX.s 			page 10


 514              	.LBB91:
 515              		.loc 1 316 0
 516 0342 43DB     		blt	.L46
 517              	.LBB85:
 518              	.LBB86:
 519              	.LBB87:
 520              	.LBB88:
 521              		.file 3 "ChibiOS_3.0.2/os/rt/include/chvt.h"
 522              		.loc 3 231 0 discriminator 1
 523 0344 024B     		ldr	r3, .L222
 524              	.LBE88:
 525              	.LBE87:
 526              		.loc 3 267 0 discriminator 1
 527 0346 4268     		ldr	r2, [r0, #4]
 528              	.LBB90:
 529              	.LBB89:
 530              		.loc 3 231 0 discriminator 1
 531 0348 9B6A     		ldr	r3, [r3, #40]
 532              	.LBE89:
 533              	.LBE90:
 534              		.loc 3 267 0 discriminator 1
 535 034a 9B1A     		subs	r3, r3, r2
 536 034c 32E0     		b	.L223
 537              	.L224:
 538 034e 00BF     		.align	2
 539              	.L222:
 540 0350 00000000 		.word	ch
 541 0354 00000000 		.word	.LC0
 542 0358 00000000 		.word	.LANCHOR0
 543 035c 00080240 		.word	1073874944
 544 0360 00000000 		.word	ADC_Value
 545 0364 00000000 		.word	0
 546 0368 00F07F45 		.word	1166012416
 547 036c 00401C46 		.word	1176256512
 548 0370 CDCCCC3D 		.word	1036831949
 549 0374 33335340 		.word	1079194419
 550 0378 00000000 		.word	.LANCHOR3
 551 037c 00000000 		.word	.LANCHOR5
 552 0380 00000000 		.word	.LANCHOR4
 553 0384 00000000 		.word	.LANCHOR6
 554 0388 00000000 		.word	.LANCHOR7
 555 038c 00000000 		.word	.LANCHOR8
 556 0390 00000000 		.word	.LANCHOR9
 557 0394 00000000 		.word	.LANCHOR10
 558 0398 0AD7233C 		.word	1008981770
 559 039c 6F12833A 		.word	981668463
 560 03a0 00007A44 		.word	1148846080
 561 03a4 0000FA43 		.word	1140457472
 562 03a8 00000000 		.word	.LANCHOR2
 563 03ac 00000000 		.word	.LANCHOR11
 564 03b0 00000000 		.word	.LANCHOR1
 565              	.L223:
 566 03b4 07EE903A 		fmsr	s15, r3	@ int
 567              	.LBE86:
 568              	.LBE85:
 569              		.loc 1 316 0 discriminator 1
 570 03b8 F8EE677A 		fuitos	s15, s15
ARM GAS  /tmp/cco7fTDX.s 			page 11


 571 03bc C7EEA87A 		fdivs	s15, s15, s17
 572 03c0 F4EEC97A 		fcmpes	s15, s18
 573 03c4 F1EE10FA 		fmstat
 574 03c8 00F12A82 		bmi	.L214
 575              	.LVL34:
 576              	.L46:
 577              	.LBE91:
 578              		.loc 1 313 0 discriminator 2
 579 03cc 032C     		cmp	r4, #3
 580 03ce B1D1     		bne	.L48
 581 03d0 3DE6     		b	.L4
 582              	.LVL35:
 583              	.L17:
 584              	.LBE83:
 585              	.LBE82:
 586              		.loc 1 200 0
 587 03d2 9AF80010 		ldrb	r1, [r10]	@ zero_extendqisi2
 588 03d6 C94B     		ldr	r3, .L225
 589 03d8 0329     		cmp	r1, #3
 590 03da 14D0     		beq	.L20
 591              		.loc 1 201 0 discriminator 1
 592 03dc 1978     		ldrb	r1, [r3]	@ zero_extendqisi2
 593              		.loc 1 200 0 discriminator 1
 594 03de 0529     		cmp	r1, #5
 595 03e0 11D0     		beq	.L20
 596              		.loc 1 202 0
 597 03e2 1978     		ldrb	r1, [r3]	@ zero_extendqisi2
 598              		.loc 1 201 0
 599 03e4 0929     		cmp	r1, #9
 600 03e6 0ED0     		beq	.L20
 601              		.loc 1 208 0
 602 03e8 C549     		ldr	r1, .L225+4
 603 03ea 0C69     		ldr	r4, [r1, #16]
 604              		.loc 1 209 0
 605 03ec 9B7C     		ldrb	r3, [r3, #18]	@ zero_extendqisi2
 606              		.loc 1 208 0
 607 03ee C4F34014 		ubfx	r4, r4, #5, #1
 608 03f2 84F00104 		eor	r4, r4, #1
 609              	.LVL36:
 610              		.loc 1 209 0
 611 03f6 03F0FF01 		and	r1, r3, #255
 612 03fa 002B     		cmp	r3, #0
 613 03fc 00F0DD81 		beq	.L107
 614              		.loc 1 210 0
 615 0400 84F00104 		eor	r4, r4, #1
 616              	.LVL37:
 617 0404 FCE6     		b	.L19
 618              	.LVL38:
 619              	.L20:
 620              		.loc 1 203 0
 621 0406 BE4B     		ldr	r3, .L225+4
 622 0408 1A69     		ldr	r2, [r3, #16]
 623              		.loc 1 204 0
 624 040a 9AF81330 		ldrb	r3, [r10, #19]	@ zero_extendqisi2
 625              		.loc 1 203 0
 626 040e C2F34012 		ubfx	r2, r2, #5, #1
 627 0412 82F00102 		eor	r2, r2, #1
ARM GAS  /tmp/cco7fTDX.s 			page 12


 628              	.LVL39:
 629              		.loc 1 204 0
 630 0416 03F0FF04 		and	r4, r3, #255
 631 041a 002B     		cmp	r3, #0
 632 041c 3FF4F0AE 		beq	.L19
 633              		.loc 1 205 0
 634 0420 82F00102 		eor	r2, r2, #1
 635              	.LVL40:
 636              		.loc 1 187 0
 637 0424 0024     		movs	r4, #0
 638 0426 EBE6     		b	.L19
 639              	.LVL41:
 640              	.L43:
 641              		.loc 1 326 0
 642 0428 FFF7FEFF 		bl	timeout_reset
 643              	.LVL42:
 644              		.loc 1 334 0
 645 042c B54B     		ldr	r3, .L225+8
 646 042e 1B68     		ldr	r3, [r3]
 647 0430 0093     		str	r3, [sp]
 648 0432 5A1C     		adds	r2, r3, #1
 649 0434 B34B     		ldr	r3, .L225+8
 650 0436 1A60     		str	r2, [r3]
 651 0438 FFF7FEFF 		bl	mc_interface_get_rpm
 652              	.LVL43:
 653              		.loc 1 335 0
 654 043c B14B     		ldr	r3, .L225+8
 655              		.loc 1 334 0
 656 043e B249     		ldr	r1, .L225+12
 657              		.loc 1 335 0
 658 0440 1A68     		ldr	r2, [r3]
 659              		.loc 1 334 0
 660 0442 009B     		ldr	r3, [sp]
 661              		.loc 1 335 0
 662 0444 072A     		cmp	r2, #7
 663              		.loc 1 334 0
 664 0446 01EB8303 		add	r3, r1, r3, lsl #2
 665 044a 83ED000A 		fsts	s0, [r3]
 666              		.loc 1 335 0
 667 044e 02DD     		ble	.L49
 668              		.loc 1 336 0
 669 0450 AC4A     		ldr	r2, .L225+8
 670 0452 0023     		movs	r3, #0
 671 0454 1360     		str	r3, [r2]
 672              	.L49:
 673              	.LVL44:
 674 0456 AC4B     		ldr	r3, .L225+12
 675              		.loc 1 339 0
 676 0458 DFEDB17A 		flds	s15, .L225+36
 677 045c 03F12002 		add	r2, r3, #32
 678              	.LVL45:
 679              	.L50:
 680              	.LBB94:
 681              		.loc 1 341 0 discriminator 3
 682 0460 B3EC017A 		fldmias	r3!, {s14}
 683              		.loc 1 340 0 discriminator 3
 684 0464 9342     		cmp	r3, r2
ARM GAS  /tmp/cco7fTDX.s 			page 13


 685              		.loc 1 341 0 discriminator 3
 686 0466 77EE877A 		fadds	s15, s15, s14
 687              	.LVL46:
 688              		.loc 1 340 0 discriminator 3
 689 046a F9D1     		bne	.L50
 690              	.LVL47:
 691              	.LBE94:
 692              		.loc 1 345 0
 693 046c 002D     		cmp	r5, #0
 694 046e 72D0     		beq	.L51
 695              		.loc 1 345 0 is_stmt 0 discriminator 1
 696 0470 002C     		cmp	r4, #0
 697 0472 70D0     		beq	.L51
 698              		.loc 1 345 0 discriminator 2
 699 0474 9DED027A 		flds	s14, [sp, #8]
 700 0478 DFEDAA6A 		flds	s13, .L225+40
 701 047c B0EEC77A 		fabss	s14, s14
 702 0480 B4EEE67A 		fcmpes	s14, s13
 703 0484 F1EE10FA 		fmstat
 704 0488 65D5     		bpl	.L51
 705              	.LBB95:
 706              		.loc 1 348 0 is_stmt 1
 707 048a A04B     		ldr	r3, .L225+16
 708 048c 9F4A     		ldr	r2, .L225+16
 709 048e 1B78     		ldrb	r3, [r3]	@ zero_extendqisi2
 710 0490 002B     		cmp	r3, #0
 711 0492 00F02F82 		beq	.L53
 712 0496 9E4B     		ldr	r3, .L225+20
 713 0498 93ED000A 		flds	s0, [r3]
 714              	.LVL48:
 715              	.L54:
 716              		.loc 1 353 0
 717 049c FFF7FEFF 		bl	mc_interface_set_pid_speed
 718              	.LVL49:
 719              		.loc 1 356 0
 720 04a0 9AF82030 		ldrb	r3, [r10, #32]	@ zero_extendqisi2
 721 04a4 002B     		cmp	r3, #0
 722 04a6 3FF4D2AD 		beq	.L4
 723              	.LBB96:
 724              		.loc 1 357 0
 725 04aa FFF7FEFF 		bl	mc_interface_get_duty_cycle_now
 726              	.LVL50:
 727              	.LBB97:
 728              		.loc 1 359 0
 729 04ae 0024     		movs	r4, #0
 730              	.LVL51:
 731              	.LBE97:
 732              		.loc 1 357 0
 733 04b0 B0EE40AA 		fcpys	s20, s0
 734              	.LVL52:
 735              	.L57:
 736              	.LBB107:
 737              	.LBB98:
 738              		.loc 1 360 0
 739 04b4 2046     		mov	r0, r4
 740 04b6 FFF7FEFF 		bl	comm_can_get_status_msg_index
 741              	.LVL53:
ARM GAS  /tmp/cco7fTDX.s 			page 14


 742              		.loc 1 362 0
 743 04ba 0268     		ldr	r2, [r0]
 744 04bc 002A     		cmp	r2, #0
 745              	.LBE98:
 746              		.loc 1 359 0
 747 04be 04F10104 		add	r4, r4, #1
 748              	.LVL54:
 749              	.LBB105:
 750              		.loc 1 362 0
 751 04c2 0FDB     		blt	.L55
 752              	.LBB99:
 753              	.LBB100:
 754              	.LBB101:
 755              	.LBB102:
 756              		.loc 3 231 0 discriminator 1
 757 04c4 934B     		ldr	r3, .L225+24
 758              	.LBE102:
 759              	.LBE101:
 760              		.loc 3 267 0 discriminator 1
 761 04c6 4168     		ldr	r1, [r0, #4]
 762              	.LBB104:
 763              	.LBB103:
 764              		.loc 3 231 0 discriminator 1
 765 04c8 9B6A     		ldr	r3, [r3, #40]
 766              	.LBE103:
 767              	.LBE104:
 768              		.loc 3 267 0 discriminator 1
 769 04ca 5B1A     		subs	r3, r3, r1
 770 04cc 07EE903A 		fmsr	s15, r3	@ int
 771              	.LBE100:
 772              	.LBE99:
 773              		.loc 1 362 0 discriminator 1
 774 04d0 F8EE677A 		fuitos	s15, s15
 775 04d4 C7EEA87A 		fdivs	s15, s15, s17
 776 04d8 F4EEC97A 		fcmpes	s15, s18
 777 04dc F1EE10FA 		fmstat
 778 04e0 00F15382 		bmi	.L215
 779              	.LVL55:
 780              	.L55:
 781              	.LBE105:
 782              		.loc 1 359 0 discriminator 2
 783 04e4 032C     		cmp	r4, #3
 784 04e6 E5D1     		bne	.L57
 785 04e8 B1E5     		b	.L4
 786              	.LVL56:
 787              	.L23:
 788              	.LBE107:
 789              	.LBE96:
 790              	.LBE95:
 791              		.loc 1 235 0
 792 04ea 002A     		cmp	r2, #0
 793 04ec 3FF4A6AE 		beq	.L22
 794              		.loc 1 236 0
 795 04f0 DDED027A 		flds	s15, [sp, #8]
 796 04f4 9EE6     		b	.L211
 797              	.LVL57:
 798              	.L28:
ARM GAS  /tmp/cco7fTDX.s 			page 15


 799              		.loc 1 289 0
 800 04f6 9DED020A 		flds	s0, [sp, #8]
 801 04fa DFED8A7A 		flds	s15, .L225+40
 802 04fe B0EEC07A 		fabss	s14, s0
 803 0502 B4EEE77A 		fcmpes	s14, s15
 804 0506 F1EE10FA 		fmstat
 805 050a 0FD5     		bpl	.L39
 806              		.loc 1 290 0
 807 050c 07EE905A 		fmsr	s15, r5	@ int
 808 0510 F8EEE76A 		fsitos	s13, s15
 809 0514 DFED847A 		flds	s15, .L225+44
 810 0518 9BED007A 		flds	s14, [fp]
 811 051c 66EEA77A 		fmuls	s15, s13, s15
 812 0520 C7EEA87A 		fdivs	s15, s15, s17
 813 0524 77EE877A 		fadds	s15, s15, s14
 814 0528 CBED007A 		fsts	s15, [fp]
 815              	.L39:
 816              		.loc 1 293 0
 817 052c 9BED007A 		flds	s14, [fp]
 818 0530 DFED797A 		flds	s15, .L225+28
 819 0534 B4EEE77A 		fcmpes	s14, s15
 820 0538 F1EE10FA 		fmstat
 821 053c 40F1F680 		bpl	.L41
 822              		.loc 1 293 0 is_stmt 0 discriminator 1
 823 0540 9AF81130 		ldrb	r3, [r10, #17]	@ zero_extendqisi2
 824 0544 002B     		cmp	r3, #0
 825 0546 00F0F180 		beq	.L41
 826              		.loc 1 251 0 is_stmt 1
 827 054a 0027     		movs	r7, #0
 828              		.loc 1 247 0
 829 054c 9FED74AA 		flds	s20, .L225+36
 830              		.loc 1 249 0
 831 0550 0197     		str	r7, [sp, #4]
 832              		.loc 1 248 0
 833 0552 3D46     		mov	r5, r7
 834              	.LVL58:
 835 0554 BDE6     		b	.L33
 836              	.LVL59:
 837              	.L51:
 838              		.loc 1 371 0
 839 0556 6D4B     		ldr	r3, .L225+16
 840 0558 0024     		movs	r4, #0
 841              	.LVL60:
 842 055a 1C70     		strb	r4, [r3]
 843              		.loc 1 374 0
 844 055c FFF7FEFF 		bl	mc_interface_get_rpm
 845              	.LVL61:
 846              		.loc 1 376 0
 847 0560 9AF82030 		ldrb	r3, [r10, #32]	@ zero_extendqisi2
 848              		.loc 1 374 0
 849 0564 B0EE40BA 		fcpys	s22, s0
 850              	.LVL62:
 851 0568 F0EE40AA 		fcpys	s21, s0
 852              		.loc 1 376 0
 853 056c 2BB3     		cbz	r3, .L58
 854              	.LVL63:
 855              	.L62:
ARM GAS  /tmp/cco7fTDX.s 			page 16


 856              	.LBB110:
 857              	.LBB111:
 858              		.loc 1 378 0
 859 056e 2046     		mov	r0, r4
 860 0570 FFF7FEFF 		bl	comm_can_get_status_msg_index
 861              	.LVL64:
 862              		.loc 1 380 0
 863 0574 0368     		ldr	r3, [r0]
 864 0576 002B     		cmp	r3, #0
 865              	.LBE111:
 866              		.loc 1 377 0
 867 0578 04F10104 		add	r4, r4, #1
 868              	.LVL65:
 869              	.LBB120:
 870              		.loc 1 380 0
 871 057c 1BDB     		blt	.L59
 872              	.LBB112:
 873              	.LBB113:
 874              	.LBB114:
 875              	.LBB115:
 876              		.loc 3 231 0 discriminator 1
 877 057e 654B     		ldr	r3, .L225+24
 878              	.LBE115:
 879              	.LBE114:
 880              		.loc 3 267 0 discriminator 1
 881 0580 4268     		ldr	r2, [r0, #4]
 882              	.LBB117:
 883              	.LBB116:
 884              		.loc 3 231 0 discriminator 1
 885 0582 9B6A     		ldr	r3, [r3, #40]
 886              	.LBE116:
 887              	.LBE117:
 888              		.loc 3 267 0 discriminator 1
 889 0584 9B1A     		subs	r3, r3, r2
 890 0586 07EE903A 		fmsr	s15, r3	@ int
 891              	.LBE113:
 892              	.LBE112:
 893              		.loc 1 380 0 discriminator 1
 894 058a F8EE677A 		fuitos	s15, s15
 895              	.LBB118:
 896              		.loc 1 383 0 discriminator 1
 897 058e B0EEEA7A 		fabss	s14, s21
 898              	.LBE118:
 899              		.loc 1 380 0 discriminator 1
 900 0592 C7EEA87A 		fdivs	s15, s15, s17
 901 0596 F4EEC97A 		fcmpes	s15, s18
 902 059a F1EE10FA 		fmstat
 903 059e 0AD5     		bpl	.L59
 904              	.LBB119:
 905              		.loc 1 381 0
 906 05a0 D0ED027A 		flds	s15, [r0, #8]
 907              	.LVL66:
 908              		.loc 1 383 0
 909 05a4 F0EEE76A 		fabss	s13, s15
 910              		.loc 1 384 0
 911 05a8 F4EE476A 		fcmps	s13, s14
 912 05ac F1EE10FA 		fmstat
ARM GAS  /tmp/cco7fTDX.s 			page 17


 913 05b0 48BF     		it	mi
 914 05b2 F0EE67AA 		fcpysmi	s21, s15
 915              	.LVL67:
 916              	.L59:
 917              	.LBE119:
 918              	.LBE120:
 919              		.loc 1 377 0 discriminator 2
 920 05b6 032C     		cmp	r4, #3
 921 05b8 D9D1     		bne	.L62
 922              	.LVL68:
 923              	.L58:
 924              	.LBE110:
 925              		.loc 1 391 0
 926 05ba 1FB1     		cbz	r7, .L66
 927              		.loc 1 391 0 is_stmt 0 discriminator 1
 928 05bc 9AF82030 		ldrb	r3, [r10, #32]	@ zero_extendqisi2
 929 05c0 002B     		cmp	r3, #0
 930 05c2 7AD1     		bne	.L216
 931              	.L66:
 932              		.loc 1 403 0 is_stmt 1
 933 05c4 002D     		cmp	r5, #0
 934 05c6 3FF442AD 		beq	.L4
 935              		.loc 1 404 0
 936 05ca 019B     		ldr	r3, [sp, #4]
 937 05cc 002B     		cmp	r3, #0
 938 05ce 40F06981 		bne	.L217
 939              	.LBB121:
 940              		.loc 1 417 0
 941 05d2 DAED077A 		flds	s15, [r10, #28]
 942 05d6 F4EEE7AA 		fcmpes	s21, s15
 943 05da F1EE10FA 		fmstat
 944 05de 40F3F180 		ble	.L75
 945              		.loc 1 417 0 is_stmt 0 discriminator 1
 946 05e2 B5EEC0AA 		fcmpezs	s20
 947 05e6 F1EE10FA 		fmstat
 948 05ea 40F3EB80 		ble	.L75
 949              	.L212:
 950              		.loc 1 422 0 is_stmt 1
 951 05ee 99ED45AA 		flds	s20, [r9, #276]
 952              	.LVL69:
 953              	.L78:
 954              		.loc 1 442 0
 955 05f2 9AF82030 		ldrb	r3, [r10, #32]	@ zero_extendqisi2
 956              		.loc 1 433 0
 957 05f6 B5EEC0AA 		fcmpezs	s20
 958 05fa F1EE10FA 		fmstat
 959 05fe 00F10481 		bmi	.L218
 960              	.L208:
 961              		.loc 1 442 0
 962 0602 002B     		cmp	r3, #0
 963 0604 00F01281 		beq	.L102
 964              		.loc 1 432 0
 965 0608 0024     		movs	r4, #0
 966              	.LVL70:
 967              	.L104:
 968              	.LBB122:
 969              	.LBB123:
ARM GAS  /tmp/cco7fTDX.s 			page 18


 970              		.loc 1 447 0 discriminator 1
 971 060a 3C4D     		ldr	r5, .L225
 972              	.LVL71:
 973              	.LBE123:
 974              	.LBE122:
 975              		.loc 1 432 0 discriminator 1
 976 060c F0EE4ABA 		fcpys	s23, s20
 977 0610 0027     		movs	r7, #0
 978              	.LVL72:
 979              	.L99:
 980              	.LBB135:
 981              	.LBB132:
 982              		.loc 1 444 0
 983 0612 3846     		mov	r0, r7
 984 0614 FFF7FEFF 		bl	comm_can_get_status_msg_index
 985              	.LVL73:
 986              		.loc 1 446 0
 987 0618 0168     		ldr	r1, [r0]
 988 061a 0029     		cmp	r1, #0
 989 061c 3ADB     		blt	.L90
 990              	.LVL74:
 991              	.LBB124:
 992              	.LBB125:
 993              	.LBB126:
 994              	.LBB127:
 995              		.loc 3 231 0 discriminator 1
 996 061e 3D4B     		ldr	r3, .L225+24
 997              	.LBE127:
 998              	.LBE126:
 999              		.loc 3 267 0 discriminator 1
 1000 0620 4268     		ldr	r2, [r0, #4]
 1001              	.LBB129:
 1002              	.LBB128:
 1003              		.loc 3 231 0 discriminator 1
 1004 0622 9B6A     		ldr	r3, [r3, #40]
 1005              	.LBE128:
 1006              	.LBE129:
 1007              		.loc 3 267 0 discriminator 1
 1008 0624 9B1A     		subs	r3, r3, r2
 1009 0626 07EE903A 		fmsr	s15, r3	@ int
 1010              	.LBE125:
 1011              	.LBE124:
 1012              		.loc 1 446 0 discriminator 1
 1013 062a F8EE677A 		fuitos	s15, s15
 1014 062e C7EEA87A 		fdivs	s15, s15, s17
 1015 0632 F4EEC97A 		fcmpes	s15, s18
 1016 0636 F1EE10FA 		fmstat
 1017 063a 2BD5     		bpl	.L90
 1018              		.loc 1 447 0
 1019 063c 9AF82130 		ldrb	r3, [r10, #33]	@ zero_extendqisi2
 1020 0640 002B     		cmp	r3, #0
 1021 0642 00F04F81 		beq	.L92
 1022              	.LBB130:
 1023              		.loc 1 448 0
 1024 0646 90ED020A 		flds	s0, [r0, #8]
 1025              	.LVL75:
 1026 064a 0090     		str	r0, [sp]
ARM GAS  /tmp/cco7fTDX.s 			page 19


 1027              		.loc 1 454 0
 1028 064c 95ED091A 		flds	s2, [r5, #36]
 1029 0650 DFED330A 		flds	s1, .L225+36
 1030              		.loc 1 449 0
 1031 0654 002C     		cmp	r4, #0
 1032 0656 00F05981 		beq	.L93
 1033              		.loc 1 450 0
 1034 065a B1EE400A 		fnegs	s0, s0
 1035              	.LVL76:
 1036              		.loc 1 454 0
 1037 065e 30EE6A0A 		fsubs	s0, s0, s21
 1038              	.LVL77:
 1039 0662 B0EE602A 		fcpys	s4, s1
 1040 0666 F0EE4A1A 		fcpys	s3, s20
 1041 066a FFF7FEFF 		bl	utils_map
 1042              	.LVL78:
 1043              		.loc 1 455 0
 1044 066e D9ED457A 		flds	s15, [r9, #276]
 1045 0672 0098     		ldr	r0, [sp]
 1046 0674 F4EEC07A 		fcmpes	s15, s0
 1047 0678 F1EE10FA 		fmstat
 1048              		.loc 1 454 0
 1049 067c F0EE40BA 		fcpys	s23, s0
 1050              	.LVL79:
 1051 0680 0168     		ldr	r1, [r0]
 1052              		.loc 1 455 0
 1053 0682 40F33081 		ble	.L97
 1054 0686 9FED250A 		flds	s0, .L225+32
 1055              	.LVL80:
 1056              		.loc 1 456 0
 1057 068a DFED25BA 		flds	s23, .L225+36
 1058              	.LVL81:
 1059              	.L96:
 1060              	.LBE130:
 1061              		.loc 1 461 0
 1062 068e C8B2     		uxtb	r0, r1
 1063 0690 FFF7FEFF 		bl	comm_can_set_current
 1064              	.LVL82:
 1065              	.L90:
 1066              	.LBE132:
 1067              		.loc 1 443 0 discriminator 2
 1068 0694 0137     		adds	r7, r7, #1
 1069              	.LVL83:
 1070 0696 032F     		cmp	r7, #3
 1071 0698 BBD1     		bne	.L99
 1072              	.LBE135:
 1073              		.loc 1 468 0
 1074 069a 9AF82130 		ldrb	r3, [r10, #33]	@ zero_extendqisi2
 1075 069e 174A     		ldr	r2, .L225
 1076 06a0 002B     		cmp	r3, #0
 1077 06a2 40F05A81 		bne	.L219
 1078              	.LBB136:
 1079 06a6 B0EE6BAA 		fcpys	s20, s23
 1080              	.LVL84:
 1081              	.L100:
 1082              	.LBE136:
 1083              		.loc 1 477 0
ARM GAS  /tmp/cco7fTDX.s 			page 20


 1084 06aa 002C     		cmp	r4, #0
 1085 06ac 00F0BE80 		beq	.L102
 1086              	.LVL85:
 1087              	.L89:
 1088              		.loc 1 478 0
 1089 06b0 B1EE4A0A 		fnegs	s0, s20
 1090 06b4 FFF7FEFF 		bl	mc_interface_set_current
 1091              	.LVL86:
 1092 06b8 C9E4     		b	.L4
 1093              	.LVL87:
 1094              	.L216:
 1095              	.LBE121:
 1096              	.LBB140:
 1097              		.loc 1 392 0
 1098 06ba FFF7FEFF 		bl	mc_interface_get_duty_cycle_now
 1099              	.LVL88:
 1100              	.LBB73:
 1101              		.loc 1 394 0
 1102 06be 0024     		movs	r4, #0
 1103              	.LBE73:
 1104              		.loc 1 392 0
 1105 06c0 F0EE40BA 		fcpys	s23, s0
 1106              	.LVL89:
 1107              	.L69:
 1108              	.LBB74:
 1109              	.LBB70:
 1110              		.loc 1 395 0
 1111 06c4 2046     		mov	r0, r4
 1112 06c6 FFF7FEFF 		bl	comm_can_get_status_msg_index
 1113              	.LVL90:
 1114              		.loc 1 397 0
 1115 06ca 0268     		ldr	r2, [r0]
 1116 06cc 002A     		cmp	r2, #0
 1117              	.LBE70:
 1118              		.loc 1 394 0
 1119 06ce 04F10104 		add	r4, r4, #1
 1120              	.LVL91:
 1121              	.LBB71:
 1122              		.loc 1 397 0
 1123 06d2 0FDB     		blt	.L67
 1124              	.LBB64:
 1125              	.LBB65:
 1126              	.LBB66:
 1127              	.LBB67:
 1128              		.loc 3 231 0 discriminator 1
 1129 06d4 0F4B     		ldr	r3, .L225+24
 1130              	.LBE67:
 1131              	.LBE66:
 1132              		.loc 3 267 0 discriminator 1
 1133 06d6 4168     		ldr	r1, [r0, #4]
 1134              	.LBB69:
 1135              	.LBB68:
 1136              		.loc 3 231 0 discriminator 1
 1137 06d8 9B6A     		ldr	r3, [r3, #40]
 1138              	.LBE68:
 1139              	.LBE69:
 1140              		.loc 3 267 0 discriminator 1
ARM GAS  /tmp/cco7fTDX.s 			page 21


 1141 06da 5B1A     		subs	r3, r3, r1
 1142 06dc 07EE903A 		fmsr	s15, r3	@ int
 1143              	.LBE65:
 1144              	.LBE64:
 1145              		.loc 1 397 0 discriminator 1
 1146 06e0 F8EE677A 		fuitos	s15, s15
 1147 06e4 C7EEA87A 		fdivs	s15, s15, s17
 1148 06e8 F4EEC97A 		fcmpes	s15, s18
 1149 06ec F1EE10FA 		fmstat
 1150 06f0 00F12D81 		bmi	.L220
 1151              	.LVL92:
 1152              	.L67:
 1153              	.LBE71:
 1154              		.loc 1 394 0 discriminator 2
 1155 06f4 032C     		cmp	r4, #3
 1156 06f6 E5D1     		bne	.L69
 1157 06f8 64E7     		b	.L66
 1158              	.L226:
 1159 06fa 00BF     		.align	2
 1160              	.L225:
 1161 06fc 00000000 		.word	.LANCHOR1
 1162 0700 00040240 		.word	1073873920
 1163 0704 00000000 		.word	.LANCHOR12
 1164 0708 00000000 		.word	.LANCHOR13
 1165 070c 00000000 		.word	.LANCHOR14
 1166 0710 00000000 		.word	.LANCHOR15
 1167 0714 00000000 		.word	ch
 1168 0718 0000FA43 		.word	1140457472
 1169 071c 00000080 		.word	-2147483648
 1170 0720 00000000 		.word	0
 1171 0724 6F12833A 		.word	981668463
 1172 0728 00007A44 		.word	1148846080
 1173              	.LVL93:
 1174              	.L41:
 1175              	.LBE74:
 1176              	.LBE140:
 1177              		.loc 1 294 0
 1178 072c D9ED141A 		flds	s3, [r9, #80]
 1179 0730 99ED142A 		flds	s4, [r9, #80]
 1180              		.loc 1 247 0
 1181 0734 1FED06AA 		flds	s20, .L225+36
 1182              		.loc 1 294 0
 1183 0738 F1EE611A 		fnegs	s3, s3
 1184 073c FFEE000A 		fconsts	s1, #240
 1185 0740 B7EE001A 		fconsts	s2, #112
 1186 0744 FFF7FEFF 		bl	utils_map
 1187              	.LVL94:
 1188              		.loc 1 249 0
 1189 0748 0023     		movs	r3, #0
 1190 074a 1D46     		mov	r5, r3
 1191              	.LVL95:
 1192 074c 0193     		str	r3, [sp, #4]
 1193              		.loc 1 295 0
 1194 074e 0127     		movs	r7, #1
 1195              		.loc 1 294 0
 1196 0750 FFF7FEFF 		bl	mc_interface_set_duty
 1197              	.LVL96:
ARM GAS  /tmp/cco7fTDX.s 			page 22


 1198 0754 BDE5     		b	.L33
 1199              	.LVL97:
 1200              	.L29:
 1201              		.loc 1 274 0
 1202 0756 DDED027A 		flds	s15, [sp, #8]
 1203 075a F5EEC07A 		fcmpezs	s15
 1204 075e F1EE10FA 		fmstat
 1205 0762 C0F29780 		blt	.L206
 1206              		.loc 1 275 0
 1207 0766 90ED01AA 		flds	s20, [r0, #4]
 1208              		.loc 1 249 0
 1209 076a 0191     		str	r1, [sp, #4]
 1210              		.loc 1 275 0
 1211 076c 27EE8AAA 		fmuls	s20, s15, s20
 1212              	.LVL98:
 1213              	.L37:
 1214              		.loc 1 281 0
 1215 0770 1FED147A 		flds	s14, .L225+40
 1216 0774 F4EEC77A 		fcmpes	s15, s14
 1217 0778 F1EE10FA 		fmstat
 1218 077c 1FD5     		bpl	.L207
 1219              		.loc 1 282 0
 1220 077e 07EE905A 		fmsr	s15, r5	@ int
 1221 0782 1FED177A 		flds	s14, .L225+44
 1222 0786 F8EEE76A 		fsitos	s13, s15
 1223 078a DBED007A 		flds	s15, [fp]
 1224 078e 26EE877A 		fmuls	s14, s13, s14
 1225              		.loc 1 251 0
 1226 0792 0027     		movs	r7, #0
 1227              		.loc 1 282 0
 1228 0794 87EE287A 		fdivs	s14, s14, s17
 1229              		.loc 1 273 0
 1230 0798 0125     		movs	r5, #1
 1231              	.LVL99:
 1232              		.loc 1 282 0
 1233 079a 77EE277A 		fadds	s15, s14, s15
 1234 079e CBED007A 		fsts	s15, [fp]
 1235 07a2 96E5     		b	.L33
 1236              	.LVL100:
 1237              	.L24:
 1238              		.loc 1 221 0
 1239 07a4 DDED026A 		flds	s13, [sp, #8]
 1240 07a8 B0EE007A 		fconsts	s14, #0
 1241 07ac FFEE007A 		fconsts	s15, #240
 1242 07b0 E6EE877A 		vfma.f32	s15, s13, s14
 1243 07b4 CDED027A 		fsts	s15, [sp, #8]
 1244              		.loc 1 222 0
 1245 07b8 40E5     		b	.L22
 1246              	.LVL101:
 1247              	.L107:
 1248              		.loc 1 188 0
 1249 07ba 0A46     		mov	r2, r1
 1250 07bc 20E5     		b	.L19
 1251              	.LVL102:
 1252              	.L207:
 1253              		.loc 1 251 0
 1254 07be 0027     		movs	r7, #0
ARM GAS  /tmp/cco7fTDX.s 			page 23


 1255              		.loc 1 273 0
 1256 07c0 0125     		movs	r5, #1
 1257              	.LVL103:
 1258 07c2 86E5     		b	.L33
 1259              	.LVL104:
 1260              	.L75:
 1261              	.LBB141:
 1262              		.loc 1 419 0
 1263 07c4 DAED067A 		flds	s15, [r10, #24]
 1264 07c8 764B     		ldr	r3, .L227
 1265 07ca F4EEE7AA 		fcmpes	s21, s15
 1266 07ce F1EE10FA 		fmstat
 1267 07d2 30DD     		ble	.L79
 1268              		.loc 1 419 0 is_stmt 0 discriminator 1
 1269 07d4 B5EEC0AA 		fcmpezs	s20
 1270 07d8 F1EE10FA 		fmstat
 1271 07dc 2BDD     		ble	.L79
 1272              		.loc 1 420 0 is_stmt 1
 1273 07de D3ED060A 		flds	s1, [r3, #24]
 1274 07e2 93ED071A 		flds	s2, [r3, #28]
 1275 07e6 99ED452A 		flds	s4, [r9, #276]
 1276 07ea F0EE4A1A 		fcpys	s3, s20
 1277 07ee B0EE6A0A 		fcpys	s0, s21
 1278 07f2 FFF7FEFF 		bl	utils_map
 1279              	.LVL105:
 1280 07f6 B0EE40AA 		fcpys	s20, s0
 1281              	.LVL106:
 1282              		.loc 1 433 0
 1283 07fa B5EEC0AA 		fcmpezs	s20
 1284 07fe F1EE10FA 		fmstat
 1285              		.loc 1 442 0
 1286 0802 9AF82030 		ldrb	r3, [r10, #32]	@ zero_extendqisi2
 1287              		.loc 1 433 0
 1288 0806 7FF5FCAE 		bpl	.L208
 1289              	.LVL107:
 1290              	.L218:
 1291              		.loc 1 435 0
 1292 080a B1EE4AAA 		fnegs	s20, s20
 1293              	.LVL108:
 1294              		.loc 1 442 0
 1295 080e 002B     		cmp	r3, #0
 1296 0810 3FF44EAF 		beq	.L89
 1297              		.loc 1 437 0
 1298 0814 B1EE4BBA 		fnegs	s22, s22
 1299              	.LVL109:
 1300              		.loc 1 438 0
 1301 0818 F1EE6AAA 		fnegs	s21, s21
 1302              	.LVL110:
 1303              		.loc 1 434 0
 1304 081c 0124     		movs	r4, #1
 1305 081e F4E6     		b	.L104
 1306              	.LVL111:
 1307              	.L214:
 1308              	.LBE141:
 1309              	.LBB142:
 1310              	.LBB93:
 1311              	.LBB92:
ARM GAS  /tmp/cco7fTDX.s 			page 24


 1312              		.loc 1 317 0
 1313 0820 FFF7FEFF 		bl	timeout_get_brake_current
 1314              	.LVL112:
 1315 0824 E8B2     		uxtb	r0, r5
 1316 0826 FFF7FEFF 		bl	comm_can_set_current_brake
 1317              	.LVL113:
 1318 082a CFE5     		b	.L46
 1319              	.LVL114:
 1320              	.L102:
 1321              	.LBE92:
 1322              	.LBE93:
 1323              	.LBE142:
 1324              	.LBB143:
 1325              		.loc 1 480 0
 1326 082c B0EE4A0A 		fcpys	s0, s20
 1327 0830 FFF7FEFF 		bl	mc_interface_set_current
 1328              	.LVL115:
 1329 0834 0BE4     		b	.L4
 1330              	.LVL116:
 1331              	.L79:
 1332              		.loc 1 421 0
 1333 0836 DAED077A 		flds	s15, [r10, #28]
 1334 083a F1EE677A 		fnegs	s15, s15
 1335 083e F4EEE7AA 		fcmpes	s21, s15
 1336 0842 F1EE10FA 		fmstat
 1337 0846 05D5     		bpl	.L82
 1338              		.loc 1 421 0 is_stmt 0 discriminator 1
 1339 0848 B5EEC0AA 		fcmpezs	s20
 1340 084c F1EE10FA 		fmstat
 1341 0850 3FF5CDAE 		bmi	.L212
 1342              	.L82:
 1343              		.loc 1 423 0 is_stmt 1
 1344 0854 DAED067A 		flds	s15, [r10, #24]
 1345 0858 524B     		ldr	r3, .L227
 1346 085a F1EE677A 		fnegs	s15, s15
 1347 085e F4EEE7AA 		fcmpes	s21, s15
 1348 0862 F1EE10FA 		fmstat
 1349 0866 7FF5C4AE 		bpl	.L78
 1350              		.loc 1 423 0 is_stmt 0 discriminator 1
 1351 086a B5EEC0AA 		fcmpezs	s20
 1352 086e F1EE10FA 		fmstat
 1353 0872 7FF5BEAE 		bpl	.L78
 1354              	.LVL117:
 1355              		.loc 1 426 0 is_stmt 1
 1356 0876 D3ED060A 		flds	s1, [r3, #24]
 1357 087a 93ED071A 		flds	s2, [r3, #28]
 1358 087e 99ED452A 		flds	s4, [r9, #276]
 1359 0882 F1EE4A1A 		fnegs	s3, s20
 1360              	.LVL118:
 1361 0886 B1EE6A0A 		fnegs	s0, s21
 1362              	.LVL119:
 1363 088a FFF7FEFF 		bl	utils_map
 1364              	.LVL120:
 1365              		.loc 1 427 0
 1366 088e B1EE40AA 		fnegs	s20, s0
 1367              	.LVL121:
 1368 0892 AEE6     		b	.L78
ARM GAS  /tmp/cco7fTDX.s 			page 25


 1369              	.LVL122:
 1370              	.L206:
 1371              	.LBE143:
 1372              		.loc 1 277 0
 1373 0894 90ED02AA 		flds	s20, [r0, #8]
 1374              		.loc 1 278 0
 1375 0898 0192     		str	r2, [sp, #4]
 1376              		.loc 1 277 0
 1377 089a 27EE8AAA 		fmuls	s20, s15, s20
 1378 089e B0EECAAA 		fabss	s20, s20
 1379              	.LVL123:
 1380 08a2 65E7     		b	.L37
 1381              	.LVL124:
 1382              	.L217:
 1383              		.loc 1 405 0
 1384 08a4 B0EE4A0A 		fcpys	s0, s20
 1385 08a8 FFF7FEFF 		bl	mc_interface_set_brake_current
 1386              	.LVL125:
 1387              	.LBB144:
 1388              		.loc 1 408 0
 1389 08ac 0024     		movs	r4, #0
 1390              	.LVL126:
 1391              	.L74:
 1392              	.LBB145:
 1393              		.loc 1 409 0
 1394 08ae 2046     		mov	r0, r4
 1395 08b0 FFF7FEFF 		bl	comm_can_get_status_msg_index
 1396              	.LVL127:
 1397              		.loc 1 411 0
 1398 08b4 0268     		ldr	r2, [r0]
 1399 08b6 002A     		cmp	r2, #0
 1400              	.LBE145:
 1401              		.loc 1 408 0
 1402 08b8 04F10104 		add	r4, r4, #1
 1403              	.LVL128:
 1404              	.LBB152:
 1405              		.loc 1 411 0
 1406 08bc 0EDB     		blt	.L72
 1407              	.LBB146:
 1408              	.LBB147:
 1409              	.LBB148:
 1410              	.LBB149:
 1411              		.loc 3 231 0 discriminator 1
 1412 08be 3A4B     		ldr	r3, .L227+4
 1413              	.LBE149:
 1414              	.LBE148:
 1415              		.loc 3 267 0 discriminator 1
 1416 08c0 4168     		ldr	r1, [r0, #4]
 1417              	.LBB151:
 1418              	.LBB150:
 1419              		.loc 3 231 0 discriminator 1
 1420 08c2 9B6A     		ldr	r3, [r3, #40]
 1421              	.LBE150:
 1422              	.LBE151:
 1423              		.loc 3 267 0 discriminator 1
 1424 08c4 5B1A     		subs	r3, r3, r1
 1425 08c6 07EE903A 		fmsr	s15, r3	@ int
ARM GAS  /tmp/cco7fTDX.s 			page 26


 1426              	.LBE147:
 1427              	.LBE146:
 1428              		.loc 1 411 0 discriminator 1
 1429 08ca F8EE677A 		fuitos	s15, s15
 1430 08ce C7EEA87A 		fdivs	s15, s15, s17
 1431 08d2 F4EEC97A 		fcmpes	s15, s18
 1432 08d6 F1EE10FA 		fmstat
 1433 08da 32D4     		bmi	.L221
 1434              	.LVL129:
 1435              	.L72:
 1436              	.LBE152:
 1437              		.loc 1 408 0 discriminator 2
 1438 08dc 032C     		cmp	r4, #3
 1439 08de E6D1     		bne	.L74
 1440 08e0 FFF7B5BB 		b	.L4
 1441              	.LVL130:
 1442              	.L92:
 1443              	.LBE144:
 1444              	.LBB154:
 1445              	.LBB137:
 1446              	.LBB133:
 1447              		.loc 1 460 0
 1448 08e4 3CB3     		cbz	r4, .L98
 1449              	.LVL131:
 1450              	.L97:
 1451 08e6 B1EE6B0A 		fnegs	s0, s23
 1452 08ea D0E6     		b	.L96
 1453              	.LVL132:
 1454              	.L205:
 1455              	.LBE133:
 1456              	.LBE137:
 1457              	.LBE154:
 1458              		.loc 1 251 0
 1459 08ec 0027     		movs	r7, #0
 1460              		.loc 1 249 0
 1461 08ee 0197     		str	r7, [sp, #4]
 1462              		.loc 1 258 0
 1463 08f0 0125     		movs	r5, #1
 1464              	.LVL133:
 1465 08f2 EEE4     		b	.L33
 1466              	.LVL134:
 1467              	.L53:
 1468              		.loc 1 343 0
 1469 08f4 B4EE007A 		fconsts	s14, #64
 1470 08f8 67EE877A 		fmuls	s15, s15, s14
 1471              	.LVL135:
 1472              	.LBB155:
 1473              		.loc 1 350 0
 1474 08fc 2B49     		ldr	r1, .L227+8
 1475              		.loc 1 349 0
 1476 08fe 0123     		movs	r3, #1
 1477              		.loc 1 350 0
 1478 0900 B0EE670A 		fcpys	s0, s15
 1479 0904 C1ED007A 		fsts	s15, [r1]
 1480              		.loc 1 349 0
 1481 0908 1370     		strb	r3, [r2]
 1482 090a C7E5     		b	.L54
ARM GAS  /tmp/cco7fTDX.s 			page 27


 1483              	.LVL136:
 1484              	.L93:
 1485              	.LBE155:
 1486              	.LBB156:
 1487              	.LBB138:
 1488              	.LBB134:
 1489              	.LBB131:
 1490              		.loc 1 454 0
 1491 090c 30EE6A0A 		fsubs	s0, s0, s21
 1492              	.LVL137:
 1493 0910 B0EE602A 		fcpys	s4, s1
 1494 0914 F0EE4A1A 		fcpys	s3, s20
 1495 0918 FFF7FEFF 		bl	utils_map
 1496              	.LVL138:
 1497              		.loc 1 455 0
 1498 091c D9ED457A 		flds	s15, [r9, #276]
 1499 0920 0098     		ldr	r0, [sp]
 1500 0922 B4EEE70A 		fcmpes	s0, s15
 1501 0926 F1EE10FA 		fmstat
 1502              		.loc 1 454 0
 1503 092a F0EE40BA 		fcpys	s23, s0
 1504              	.LVL139:
 1505 092e 0168     		ldr	r1, [r0]
 1506              		.loc 1 456 0
 1507 0930 48BF     		it	mi
 1508 0932 DFED1FBA 		fldsmi	s23, .L227+12
 1509              	.LVL140:
 1510              	.L98:
 1511              	.LBE131:
 1512              		.loc 1 463 0
 1513 0936 C8B2     		uxtb	r0, r1
 1514 0938 B0EE6B0A 		fcpys	s0, s23
 1515 093c FFF7FEFF 		bl	comm_can_set_current
 1516              	.LVL141:
 1517 0940 A8E6     		b	.L90
 1518              	.LVL142:
 1519              	.L221:
 1520              	.LBE134:
 1521              	.LBE138:
 1522              	.LBE156:
 1523              	.LBB157:
 1524              	.LBB153:
 1525              		.loc 1 412 0
 1526 0942 D0B2     		uxtb	r0, r2
 1527              	.LVL143:
 1528 0944 B0EE4A0A 		fcpys	s0, s20
 1529 0948 FFF7FEFF 		bl	comm_can_set_current_brake
 1530              	.LVL144:
 1531 094c C6E7     		b	.L72
 1532              	.LVL145:
 1533              	.L220:
 1534              	.LBE153:
 1535              	.LBE157:
 1536              	.LBB158:
 1537              	.LBB75:
 1538              	.LBB72:
 1539              		.loc 1 398 0
ARM GAS  /tmp/cco7fTDX.s 			page 28


 1540 094e D0B2     		uxtb	r0, r2
 1541              	.LVL146:
 1542 0950 B0EE6B0A 		fcpys	s0, s23
 1543 0954 FFF7FEFF 		bl	comm_can_set_duty
 1544              	.LVL147:
 1545 0958 CCE6     		b	.L67
 1546              	.LVL148:
 1547              	.L219:
 1548              	.LBE72:
 1549              	.LBE75:
 1550              	.LBE158:
 1551              	.LBB159:
 1552              	.LBB139:
 1553              		.loc 1 470 0
 1554 095a DFED150A 		flds	s1, .L227+12
 1555 095e 92ED091A 		flds	s2, [r2, #36]
 1556 0962 F0EE4A1A 		fcpys	s3, s20
 1557 0966 3BEE6A0A 		fsubs	s0, s22, s21
 1558              	.LVL149:
 1559 096a B0EE602A 		fcpys	s4, s1
 1560 096e FFF7FEFF 		bl	utils_map
 1561              	.LVL150:
 1562              		.loc 1 471 0
 1563 0972 D9ED457A 		flds	s15, [r9, #276]
 1564              		.loc 1 472 0
 1565 0976 B4EE670A 		fcmps	s0, s15
 1566              		.loc 1 470 0
 1567 097a B0EE40AA 		fcpys	s20, s0
 1568              	.LVL151:
 1569              		.loc 1 472 0
 1570 097e F1EE10FA 		fmstat
 1571 0982 48BF     		it	mi
 1572 0984 B0EE69AA 		fcpysmi	s20, s19
 1573 0988 8FE6     		b	.L100
 1574              	.LVL152:
 1575              	.L215:
 1576              	.LBE139:
 1577              	.LBE159:
 1578              	.LBB160:
 1579              	.LBB109:
 1580              	.LBB108:
 1581              	.LBB106:
 1582              		.loc 1 363 0
 1583 098a D0B2     		uxtb	r0, r2
 1584              	.LVL153:
 1585 098c B0EE4A0A 		fcpys	s0, s20
 1586 0990 FFF7FEFF 		bl	comm_can_set_duty
 1587              	.LVL154:
 1588 0994 A6E5     		b	.L55
 1589              	.LVL155:
 1590              	.L2:
 1591              	.LBE106:
 1592              	.LBE108:
 1593              	.LBE109:
 1594              	.LBE160:
 1595              	.LBE60:
 1596              		.loc 1 93 0
ARM GAS  /tmp/cco7fTDX.s 			page 29


 1597 0996 2021     		movs	r1, #32
 1598 0998 0A46     		mov	r2, r1
 1599 099a 0648     		ldr	r0, .L227+16
 1600              	.LVL156:
 1601 099c FFF7FEFF 		bl	_pal_lld_setgroupmode
 1602              	.LVL157:
 1603 09a0 FFF746BB 		b	.L3
 1604              	.L228:
 1605              		.align	2
 1606              	.L227:
 1607 09a4 00000000 		.word	.LANCHOR1
 1608 09a8 00000000 		.word	ch
 1609 09ac 00000000 		.word	.LANCHOR15
 1610 09b0 00000000 		.word	0
 1611 09b4 00040240 		.word	1073873920
 1612              		.cfi_endproc
 1613              	.LFE262:
 1614              		.size	adc_thread, .-adc_thread
 1615              		.section	.text.app_adc_configure,"ax",%progbits
 1616              		.align	2
 1617              		.p2align 4,,15
 1618              		.global	app_adc_configure
 1619              		.thumb
 1620              		.thumb_func
 1621              		.type	app_adc_configure, %function
 1622              	app_adc_configure:
 1623              	.LFB256:
 1624              		.loc 1 56 0
 1625              		.cfi_startproc
 1626              		@ args = 0, pretend = 0, frame = 0
 1627              		@ frame_needed = 0, uses_anonymous_args = 0
 1628              		@ link register save eliminated.
 1629              	.LVL158:
 1630 0000 F0B4     		push	{r4, r5, r6, r7}
 1631              		.cfi_def_cfa_offset 16
 1632              		.cfi_offset 4, -16
 1633              		.cfi_offset 5, -12
 1634              		.cfi_offset 6, -8
 1635              		.cfi_offset 7, -4
 1636              		.loc 1 57 0
 1637 0002 0546     		mov	r5, r0
 1638 0004 0FCD     		ldmia	r5!, {r0, r1, r2, r3}
 1639              	.LVL159:
 1640 0006 064C     		ldr	r4, .L231
 1641              		.loc 1 58 0
 1642 0008 064E     		ldr	r6, .L231+4
 1643              		.loc 1 57 0
 1644 000a 0FC4     		stmia	r4!, {r0, r1, r2, r3}
 1645 000c 0FCD     		ldmia	r5!, {r0, r1, r2, r3}
 1646              	.LVL160:
 1647 000e 0FC4     		stmia	r4!, {r0, r1, r2, r3}
 1648 0010 95E80700 		ldmia	r5, {r0, r1, r2}
 1649              		.loc 1 58 0
 1650 0014 0027     		movs	r7, #0
 1651              		.loc 1 57 0
 1652 0016 84E80700 		stmia	r4, {r0, r1, r2}
 1653              		.loc 1 58 0
ARM GAS  /tmp/cco7fTDX.s 			page 30


 1654 001a 3760     		str	r7, [r6]	@ float
 1655              		.loc 1 59 0
 1656 001c F0BC     		pop	{r4, r5, r6, r7}
 1657              		.cfi_restore 7
 1658              		.cfi_restore 6
 1659              		.cfi_restore 5
 1660              		.cfi_restore 4
 1661              		.cfi_def_cfa_offset 0
 1662              	.LVL161:
 1663 001e 7047     		bx	lr
 1664              	.L232:
 1665              		.align	2
 1666              	.L231:
 1667 0020 00000000 		.word	.LANCHOR1
 1668 0024 00000000 		.word	.LANCHOR2
 1669              		.cfi_endproc
 1670              	.LFE256:
 1671              		.size	app_adc_configure, .-app_adc_configure
 1672              		.section	.text.app_adc_start,"ax",%progbits
 1673              		.align	2
 1674              		.p2align 4,,15
 1675              		.global	app_adc_start
 1676              		.thumb
 1677              		.thumb_func
 1678              		.type	app_adc_start, %function
 1679              	app_adc_start:
 1680              	.LFB257:
 1681              		.loc 1 61 0
 1682              		.cfi_startproc
 1683              		@ args = 0, pretend = 0, frame = 0
 1684              		@ frame_needed = 0, uses_anonymous_args = 0
 1685              	.LVL162:
 1686 0000 10B5     		push	{r4, lr}
 1687              		.cfi_def_cfa_offset 8
 1688              		.cfi_offset 4, -8
 1689              		.cfi_offset 14, -4
 1690              		.loc 1 62 0
 1691 0002 074A     		ldr	r2, .L235
 1692              		.loc 1 63 0
 1693 0004 074B     		ldr	r3, .L235+4
 1694              		.loc 1 61 0
 1695 0006 82B0     		sub	sp, sp, #8
 1696              		.cfi_def_cfa_offset 16
 1697              		.loc 1 61 0
 1698 0008 0146     		mov	r1, r0
 1699              		.loc 1 63 0
 1700 000a 0024     		movs	r4, #0
 1701 000c 0094     		str	r4, [sp]
 1702 000e 0648     		ldr	r0, .L235+8
 1703              	.LVL163:
 1704              		.loc 1 62 0
 1705 0010 1170     		strb	r1, [r2]
 1706              		.loc 1 63 0
 1707 0012 4FF4B361 		mov	r1, #1432
 1708 0016 4022     		movs	r2, #64
 1709 0018 FFF7FEFF 		bl	chThdCreateStatic
 1710              	.LVL164:
ARM GAS  /tmp/cco7fTDX.s 			page 31


 1711              		.loc 1 64 0
 1712 001c 02B0     		add	sp, sp, #8
 1713              		.cfi_def_cfa_offset 8
 1714              		@ sp needed
 1715 001e 10BD     		pop	{r4, pc}
 1716              	.L236:
 1717              		.align	2
 1718              	.L235:
 1719 0020 00000000 		.word	.LANCHOR0
 1720 0024 00000000 		.word	adc_thread
 1721 0028 00000000 		.word	.LANCHOR16
 1722              		.cfi_endproc
 1723              	.LFE257:
 1724              		.size	app_adc_start, .-app_adc_start
 1725              		.section	.text.app_adc_get_decoded_level,"ax",%progbits
 1726              		.align	2
 1727              		.p2align 4,,15
 1728              		.global	app_adc_get_decoded_level
 1729              		.thumb
 1730              		.thumb_func
 1731              		.type	app_adc_get_decoded_level, %function
 1732              	app_adc_get_decoded_level:
 1733              	.LFB258:
 1734              		.loc 1 66 0
 1735              		.cfi_startproc
 1736              		@ args = 0, pretend = 0, frame = 0
 1737              		@ frame_needed = 0, uses_anonymous_args = 0
 1738              		@ link register save eliminated.
 1739              		.loc 1 67 0
 1740 0000 014B     		ldr	r3, .L238
 1741 0002 93ED000A 		flds	s0, [r3]
 1742              		.loc 1 68 0
 1743 0006 7047     		bx	lr
 1744              	.L239:
 1745              		.align	2
 1746              	.L238:
 1747 0008 00000000 		.word	.LANCHOR6
 1748              		.cfi_endproc
 1749              	.LFE258:
 1750              		.size	app_adc_get_decoded_level, .-app_adc_get_decoded_level
 1751              		.section	.text.app_adc_get_voltage,"ax",%progbits
 1752              		.align	2
 1753              		.p2align 4,,15
 1754              		.global	app_adc_get_voltage
 1755              		.thumb
 1756              		.thumb_func
 1757              		.type	app_adc_get_voltage, %function
 1758              	app_adc_get_voltage:
 1759              	.LFB259:
 1760              		.loc 1 70 0
 1761              		.cfi_startproc
 1762              		@ args = 0, pretend = 0, frame = 0
 1763              		@ frame_needed = 0, uses_anonymous_args = 0
 1764              		@ link register save eliminated.
 1765              		.loc 1 71 0
 1766 0000 014B     		ldr	r3, .L241
 1767 0002 93ED000A 		flds	s0, [r3]
ARM GAS  /tmp/cco7fTDX.s 			page 32


 1768              		.loc 1 72 0
 1769 0006 7047     		bx	lr
 1770              	.L242:
 1771              		.align	2
 1772              	.L241:
 1773 0008 00000000 		.word	.LANCHOR3
 1774              		.cfi_endproc
 1775              	.LFE259:
 1776              		.size	app_adc_get_voltage, .-app_adc_get_voltage
 1777              		.section	.text.app_adc_get_decoded_level2,"ax",%progbits
 1778              		.align	2
 1779              		.p2align 4,,15
 1780              		.global	app_adc_get_decoded_level2
 1781              		.thumb
 1782              		.thumb_func
 1783              		.type	app_adc_get_decoded_level2, %function
 1784              	app_adc_get_decoded_level2:
 1785              	.LFB260:
 1786              		.loc 1 74 0
 1787              		.cfi_startproc
 1788              		@ args = 0, pretend = 0, frame = 0
 1789              		@ frame_needed = 0, uses_anonymous_args = 0
 1790              		@ link register save eliminated.
 1791              		.loc 1 75 0
 1792 0000 014B     		ldr	r3, .L244
 1793 0002 93ED000A 		flds	s0, [r3]
 1794              		.loc 1 76 0
 1795 0006 7047     		bx	lr
 1796              	.L245:
 1797              		.align	2
 1798              	.L244:
 1799 0008 00000000 		.word	.LANCHOR10
 1800              		.cfi_endproc
 1801              	.LFE260:
 1802              		.size	app_adc_get_decoded_level2, .-app_adc_get_decoded_level2
 1803              		.section	.text.app_adc_get_voltage2,"ax",%progbits
 1804              		.align	2
 1805              		.p2align 4,,15
 1806              		.global	app_adc_get_voltage2
 1807              		.thumb
 1808              		.thumb_func
 1809              		.type	app_adc_get_voltage2, %function
 1810              	app_adc_get_voltage2:
 1811              	.LFB261:
 1812              		.loc 1 78 0
 1813              		.cfi_startproc
 1814              		@ args = 0, pretend = 0, frame = 0
 1815              		@ frame_needed = 0, uses_anonymous_args = 0
 1816              		@ link register save eliminated.
 1817              		.loc 1 79 0
 1818 0000 014B     		ldr	r3, .L247
 1819 0002 93ED000A 		flds	s0, [r3]
 1820              		.loc 1 80 0
 1821 0006 7047     		bx	lr
 1822              	.L248:
 1823              		.align	2
 1824              	.L247:
ARM GAS  /tmp/cco7fTDX.s 			page 33


 1825 0008 00000000 		.word	.LANCHOR7
 1826              		.cfi_endproc
 1827              	.LFE261:
 1828              		.size	app_adc_get_voltage2, .-app_adc_get_voltage2
 1829              		.section	.bss.filter_ptr2.10068,"aw",%nobits
 1830              		.align	2
 1831              		.set	.LANCHOR8,. + 0
 1832              		.type	filter_ptr2.10068, %object
 1833              		.size	filter_ptr2.10068, 4
 1834              	filter_ptr2.10068:
 1835 0000 00000000 		.space	4
 1836              		.section	.bss.pulses_without_power_before.10101,"aw",%nobits
 1837              		.align	2
 1838              		.set	.LANCHOR11,. + 0
 1839              		.type	pulses_without_power_before.10101, %object
 1840              		.size	pulses_without_power_before.10101, 4
 1841              	pulses_without_power_before.10101:
 1842 0000 00000000 		.space	4
 1843              		.section	.bss.read_voltage2,"aw",%nobits
 1844              		.align	2
 1845              		.set	.LANCHOR7,. + 0
 1846              		.type	read_voltage2, %object
 1847              		.size	read_voltage2, 4
 1848              	read_voltage2:
 1849 0000 00000000 		.space	4
 1850              		.section	.bss.was_pid.10107,"aw",%nobits
 1851              		.set	.LANCHOR14,. + 0
 1852              		.type	was_pid.10107, %object
 1853              		.size	was_pid.10107, 1
 1854              	was_pid.10107:
 1855 0000 00       		.space	1
 1856              		.section	.bss.read_voltage,"aw",%nobits
 1857              		.align	2
 1858              		.set	.LANCHOR3,. + 0
 1859              		.type	read_voltage, %object
 1860              		.size	read_voltage, 4
 1861              	read_voltage:
 1862 0000 00000000 		.space	4
 1863              		.section	.bss.ms_without_power,"aw",%nobits
 1864              		.align	2
 1865              		.set	.LANCHOR2,. + 0
 1866              		.type	ms_without_power, %object
 1867              		.size	ms_without_power, 4
 1868              	ms_without_power:
 1869 0000 00000000 		.space	4
 1870              		.section	.bss.pid_rpm.10115,"aw",%nobits
 1871              		.align	2
 1872              		.set	.LANCHOR15,. + 0
 1873              		.type	pid_rpm.10115, %object
 1874              		.size	pid_rpm.10115, 4
 1875              	pid_rpm.10115:
 1876 0000 00000000 		.space	4
 1877              		.section	.bss.filter_buffer2.10067,"aw",%nobits
 1878              		.align	2
 1879              		.set	.LANCHOR9,. + 0
 1880              		.type	filter_buffer2.10067, %object
 1881              		.size	filter_buffer2.10067, 20
ARM GAS  /tmp/cco7fTDX.s 			page 34


 1882              	filter_buffer2.10067:
 1883 0000 00000000 		.space	20
 1883      00000000 
 1883      00000000 
 1883      00000000 
 1883      00000000 
 1884              		.section	.bss.decoded_level2,"aw",%nobits
 1885              		.align	2
 1886              		.set	.LANCHOR10,. + 0
 1887              		.type	decoded_level2, %object
 1888              		.size	decoded_level2, 4
 1889              	decoded_level2:
 1890 0000 00000000 		.space	4
 1891              		.section	.rodata.str1.4,"aMS",%progbits,1
 1892              		.align	2
 1893              	.LC0:
 1894 0000 4150505F 		.ascii	"APP_ADC\000"
 1894      41444300 
 1895              		.section	.bss.filter_ptr.10061,"aw",%nobits
 1896              		.align	2
 1897              		.set	.LANCHOR4,. + 0
 1898              		.type	filter_ptr.10061, %object
 1899              		.size	filter_ptr.10061, 4
 1900              	filter_ptr.10061:
 1901 0000 00000000 		.space	4
 1902              		.section	.bss.config,"aw",%nobits
 1903              		.align	2
 1904              		.set	.LANCHOR1,. + 0
 1905              		.type	config, %object
 1906              		.size	config, 44
 1907              	config:
 1908 0000 00000000 		.space	44
 1908      00000000 
 1908      00000000 
 1908      00000000 
 1908      00000000 
 1909              		.section	.bss.filter_buffer.10060,"aw",%nobits
 1910              		.align	2
 1911              		.set	.LANCHOR5,. + 0
 1912              		.type	filter_buffer.10060, %object
 1913              		.size	filter_buffer.10060, 20
 1914              	filter_buffer.10060:
 1915 0000 00000000 		.space	20
 1915      00000000 
 1915      00000000 
 1915      00000000 
 1915      00000000 
 1916              		.section	.bss.use_rx_tx_as_buttons,"aw",%nobits
 1917              		.set	.LANCHOR0,. + 0
 1918              		.type	use_rx_tx_as_buttons, %object
 1919              		.size	use_rx_tx_as_buttons, 1
 1920              	use_rx_tx_as_buttons:
 1921 0000 00       		.space	1
 1922              		.section	.bss.filter_buffer.10108,"aw",%nobits
 1923              		.align	2
 1924              		.set	.LANCHOR13,. + 0
 1925              		.type	filter_buffer.10108, %object
ARM GAS  /tmp/cco7fTDX.s 			page 35


 1926              		.size	filter_buffer.10108, 32
 1927              	filter_buffer.10108:
 1928 0000 00000000 		.space	32
 1928      00000000 
 1928      00000000 
 1928      00000000 
 1928      00000000 
 1929              		.section	.bss.filter_ptr.10109,"aw",%nobits
 1930              		.align	2
 1931              		.set	.LANCHOR12,. + 0
 1932              		.type	filter_ptr.10109, %object
 1933              		.size	filter_ptr.10109, 4
 1934              	filter_ptr.10109:
 1935 0000 00000000 		.space	4
 1936              		.section	.bss.decoded_level,"aw",%nobits
 1937              		.align	2
 1938              		.set	.LANCHOR6,. + 0
 1939              		.type	decoded_level, %object
 1940              		.size	decoded_level, 4
 1941              	decoded_level:
 1942 0000 00000000 		.space	4
 1943              		.section	.bss.adc_thread_wa,"aw",%nobits
 1944              		.align	3
 1945              		.set	.LANCHOR16,. + 0
 1946              		.type	adc_thread_wa, %object
 1947              		.size	adc_thread_wa, 1432
 1948              	adc_thread_wa:
 1949 0000 00000000 		.space	1432
 1949      00000000 
 1949      00000000 
 1949      00000000 
 1949      00000000 
 1950              		.text
 1951              	.Letext0:
 1952              		.file 4 "/usr/arm-none-eabi/include/machine/_default_types.h"
 1953              		.file 5 "/usr/arm-none-eabi/include/sys/_stdint.h"
 1954              		.file 6 "/usr/lib/gcc/arm-none-eabi/4.9.3/include/stddef.h"
 1955              		.file 7 "ChibiOS_3.0.2/os/rt/ports/ARMCMx/compilers/GCC/chtypes.h"
 1956              		.file 8 "ChibiOS_3.0.2/os/rt/include/chsystypes.h"
 1957              		.file 9 "ChibiOS_3.0.2/os/rt/include/chschd.h"
 1958              		.file 10 "ChibiOS_3.0.2/os/rt/ports/ARMCMx/chcore.h"
 1959              		.file 11 "ChibiOS_3.0.2/os/rt/ports/ARMCMx/chcore_v7m.h"
 1960              		.file 12 "ChibiOS_3.0.2/os/rt/include/chtm.h"
 1961              		.file 13 "ChibiOS_3.0.2/os/rt/include/chsem.h"
 1962              		.file 14 "ChibiOS_3.0.2/os/rt/include/chmtx.h"
 1963              		.file 15 "ChibiOS_3.0.2/os/rt/include/chthreads.h"
 1964              		.file 16 "./datatypes.h"
 1965              		.file 17 "ChibiOS_3.0.2/os/hal/ports/STM32/LLD/GPIOv2/pal_lld.h"
 1966              		.file 18 "ChibiOS_3.0.2/os/ext/CMSIS/include/core_cm4.h"
 1967              		.file 19 "./mc_interface.h"
 1968              		.file 20 "./timeout.h"
 1969              		.file 21 "./comm_can.h"
 1970              		.file 22 "./utils.h"