ARM GAS  /tmp/ccQW88Gz.s 			page 1


   1              		.syntax unified
   2              		.cpu cortex-m4
   3              		.eabi_attribute 27, 1
   4              		.eabi_attribute 28, 1
   5              		.fpu fpv4-sp-d16
   6              		.eabi_attribute 20, 1
   7              		.eabi_attribute 21, 1
   8              		.eabi_attribute 23, 3
   9              		.eabi_attribute 24, 1
  10              		.eabi_attribute 25, 1
  11              		.eabi_attribute 26, 1
  12              		.eabi_attribute 30, 2
  13              		.eabi_attribute 34, 1
  14              		.eabi_attribute 18, 4
  15              		.thumb
  16              		.file	"app_ppm.c"
  17              		.text
  18              	.Ltext0:
  19              		.cfi_sections	.debug_frame
  20              		.section	.text.servodec_func,"ax",%progbits
  21              		.align	2
  22              		.p2align 4,,15
  23              		.thumb
  24              		.thumb_func
  25              		.type	servodec_func, %function
  26              	servodec_func:
  27              	.LFB259:
  28              		.file 1 "applications/app_ppm.c"
  29              		.loc 1 163 0
  30              		.cfi_startproc
  31              		@ args = 0, pretend = 0, frame = 0
  32              		@ frame_needed = 0, uses_anonymous_args = 0
  33              	.LVL0:
  34 0000 08B5     		push	{r3, lr}
  35              		.cfi_def_cfa_offset 8
  36              		.cfi_offset 3, -8
  37              		.cfi_offset 14, -4
  38              	.LBB119:
  39              	.LBB120:
  40              	.LBB121:
  41              	.LBB122:
  42              	.LBB123:
  43              		.file 2 "ChibiOS_3.0.2/os/ext/CMSIS/include/core_cmFunc.h"
  44              		.loc 2 546 0
  45 0002 2023     		movs	r3, #32
  46              	@ 546 "ChibiOS_3.0.2/os/ext/CMSIS/include/core_cmFunc.h" 1
  47 0004 83F31188 		MSR basepri, r3
  48              	@ 0 "" 2
  49              		.thumb
  50              	.LBE123:
  51              	.LBE122:
  52              	.LBE121:
  53              	.LBE120:
  54              	.LBE119:
  55              		.loc 1 165 0
  56 0008 FFF7FEFF 		bl	timeout_reset
  57              	.LVL1:
ARM GAS  /tmp/ccQW88Gz.s 			page 2


  58              		.loc 1 166 0
  59 000c 044B     		ldr	r3, .L3
  60 000e 0121     		movs	r1, #1
  61 0010 1868     		ldr	r0, [r3]
  62 0012 FFF7FEFF 		bl	chEvtSignalI
  63              	.LVL2:
  64              	.LBB124:
  65              	.LBB125:
  66              	.LBB126:
  67              	.LBB127:
  68              	.LBB128:
  69              		.loc 2 546 0
  70 0016 0023     		movs	r3, #0
  71              	@ 546 "ChibiOS_3.0.2/os/ext/CMSIS/include/core_cmFunc.h" 1
  72 0018 83F31188 		MSR basepri, r3
  73              	@ 0 "" 2
  74              		.thumb
  75 001c 08BD     		pop	{r3, pc}
  76              	.L4:
  77 001e 00BF     		.align	2
  78              	.L3:
  79 0020 00000000 		.word	.LANCHOR0
  80              	.LBE128:
  81              	.LBE127:
  82              	.LBE126:
  83              	.LBE125:
  84              	.LBE124:
  85              		.cfi_endproc
  86              	.LFE259:
  87              		.size	servodec_func, .-servodec_func
  88              		.section	.text.update,"ax",%progbits
  89              		.align	2
  90              		.p2align 4,,15
  91              		.thumb
  92              		.thumb_func
  93              		.type	update, %function
  94              	update:
  95              	.LFB260:
  96              		.loc 1 170 0
  97              		.cfi_startproc
  98              		@ args = 0, pretend = 0, frame = 0
  99              		@ frame_needed = 0, uses_anonymous_args = 0
 100              	.LVL3:
 101 0000 10B5     		push	{r4, lr}
 102              		.cfi_def_cfa_offset 8
 103              		.cfi_offset 4, -8
 104              		.cfi_offset 14, -4
 105              	.LBB143:
 106              	.LBB144:
 107              	.LBB145:
 108              	.LBB146:
 109              	.LBB147:
 110              		.loc 2 546 0
 111 0002 2023     		movs	r3, #32
 112              	.LBE147:
 113              	.LBE146:
 114              	.LBE145:
ARM GAS  /tmp/ccQW88Gz.s 			page 3


 115              	.LBE144:
 116              	.LBE143:
 117              		.loc 1 170 0
 118 0004 0446     		mov	r4, r0
 119              	.LBB152:
 120              	.LBB151:
 121              	.LBB150:
 122              	.LBB149:
 123              	.LBB148:
 124              		.loc 2 546 0
 125              	@ 546 "ChibiOS_3.0.2/os/ext/CMSIS/include/core_cmFunc.h" 1
 126 0006 83F31188 		MSR basepri, r3
 127              	@ 0 "" 2
 128              	.LVL4:
 129              		.thumb
 130 000a 0A48     		ldr	r0, .L12
 131              	.LVL5:
 132              	.LBE148:
 133              	.LBE149:
 134              	.LBE150:
 135              	.LBE151:
 136              	.LBE152:
 137              	.LBB153:
 138              	.LBB154:
 139              	.LBB155:
 140              	.LBB156:
 141              		.file 3 "ChibiOS_3.0.2/os/rt/include/chvt.h"
 142              		.loc 3 376 0
 143 000c C368     		ldr	r3, [r0, #12]
 144 000e 0BB1     		cbz	r3, .L6
 145              		.loc 3 377 0
 146 0010 FFF7FEFF 		bl	chVTDoResetI
 147              	.LVL6:
 148              	.L6:
 149              	.LBE156:
 150              	.LBE155:
 151              		.loc 3 424 0
 152 0014 2346     		mov	r3, r4
 153 0016 084A     		ldr	r2, .L12+4
 154 0018 0648     		ldr	r0, .L12
 155 001a 1421     		movs	r1, #20
 156 001c FFF7FEFF 		bl	chVTDoSetI
 157              	.LVL7:
 158              	.LBE154:
 159              	.LBE153:
 160              		.loc 1 173 0
 161 0020 064B     		ldr	r3, .L12+8
 162 0022 0121     		movs	r1, #1
 163 0024 1868     		ldr	r0, [r3]
 164 0026 FFF7FEFF 		bl	chEvtSignalI
 165              	.LVL8:
 166              	.LBB157:
 167              	.LBB158:
 168              	.LBB159:
 169              	.LBB160:
 170              	.LBB161:
 171              		.loc 2 546 0
ARM GAS  /tmp/ccQW88Gz.s 			page 4


 172 002a 0023     		movs	r3, #0
 173              	@ 546 "ChibiOS_3.0.2/os/ext/CMSIS/include/core_cmFunc.h" 1
 174 002c 83F31188 		MSR basepri, r3
 175              	@ 0 "" 2
 176              		.thumb
 177 0030 10BD     		pop	{r4, pc}
 178              	.LVL9:
 179              	.L13:
 180 0032 00BF     		.align	2
 181              	.L12:
 182 0034 00000000 		.word	.LANCHOR1
 183 0038 00000000 		.word	update
 184 003c 00000000 		.word	.LANCHOR0
 185              	.LBE161:
 186              	.LBE160:
 187              	.LBE159:
 188              	.LBE158:
 189              	.LBE157:
 190              		.cfi_endproc
 191              	.LFE260:
 192              		.size	update, .-update
 193              		.section	.text.calculate_throttle_curve_ppm,"ax",%progbits
 194              		.align	2
 195              		.p2align 4,,15
 196              		.global	calculate_throttle_curve_ppm
 197              		.thumb
 198              		.thumb_func
 199              		.type	calculate_throttle_curve_ppm, %function
 200              	calculate_throttle_curve_ppm:
 201              	.LFB256:
 202              		.loc 1 80 0
 203              		.cfi_startproc
 204              		@ args = 0, pretend = 0, frame = 24
 205              		@ frame_needed = 0, uses_anonymous_args = 0
 206              		@ link register save eliminated.
 207              	.LVL10:
 208 0000 70B4     		push	{r4, r5, r6}
 209              		.cfi_def_cfa_offset 12
 210              		.cfi_offset 4, -12
 211              		.cfi_offset 5, -8
 212              		.cfi_offset 6, -4
 213              		.loc 1 83 0
 214 0002 D0ED014A 		flds	s9, [r0, #4]
 215 0006 F4EEE04A 		fcmpes	s9, s1
 216 000a F1EE10FA 		fmstat
 217              		.loc 1 80 0
 218 000e 87B0     		sub	sp, sp, #28
 219              		.cfi_def_cfa_offset 40
 220              		.loc 1 83 0
 221 0010 47DD     		ble	.L37
 222              		.loc 1 84 0
 223 0012 D1ED017A 		flds	s15, [r1, #4]
 224 0016 C7EEA47A 		fdivs	s15, s15, s9
 225 001a 67EEA04A 		fmuls	s9, s15, s1
 226              	.LVL11:
 227              	.L17:
 228 001e 01F11404 		add	r4, r1, #20
ARM GAS  /tmp/ccQW88Gz.s 			page 5


 229 0022 01AB     		add	r3, sp, #4
 230              	.LVL12:
 231              	.L24:
 232              	.LBB162:
 233              		.loc 1 96 0 discriminator 3
 234 0024 51F8042B 		ldr	r2, [r1], #4	@ float
 235 0028 43F8042B 		str	r2, [r3], #4	@ float
 236 002c A142     		cmp	r1, r4
 237 002e F9D1     		bne	.L24
 238 0030 00F11006 		add	r6, r0, #16
 239              		.loc 1 96 0 is_stmt 0
 240 0034 0125     		movs	r5, #1
 241 0036 1430     		adds	r0, r0, #20
 242              	.LVL13:
 243              	.L25:
 244 0038 06AB     		add	r3, sp, #24
 245 003a 0446     		mov	r4, r0
 246              	.LBE162:
 247              		.loc 1 80 0 is_stmt 1
 248 003c 3146     		mov	r1, r6
 249 003e 0422     		movs	r2, #4
 250              	.LVL14:
 251              	.L26:
 252              	.LBB163:
 253              	.LBB164:
 254              		.loc 1 100 0 discriminator 3
 255 0040 74ED016A 		fldmdbs	r4!, {s13}
 256 0044 31ED016A 		fldmdbs	r1!, {s12}
 257 0048 13ED027A 		flds	s14, [r3, #-8]
 258 004c 53ED015A 		flds	s11, [r3, #-4]
 259 0050 043B     		subs	r3, r3, #4
 260 0052 70EEE67A 		fsubs	s15, s1, s13
 261 0056 30EEC65A 		fsubs	s10, s1, s12
 262 005a 67EE677A 		fnmuls	s15, s14, s15
 263 005e 76EEC66A 		fsubs	s13, s13, s12
 264 0062 E5EE257A 		vfma.f32	s15, s10, s11
 265 0066 013A     		subs	r2, r2, #1
 266              	.LVL15:
 267              		.loc 1 99 0 discriminator 3
 268 0068 AA42     		cmp	r2, r5
 269              		.loc 1 100 0 discriminator 3
 270 006a C7EEA67A 		fdivs	s15, s15, s13
 271 006e C3ED007A 		fsts	s15, [r3]
 272              	.LVL16:
 273              		.loc 1 99 0 discriminator 3
 274 0072 E5DA     		bge	.L26
 275              	.LBE164:
 276              		.loc 1 98 0 discriminator 2
 277 0074 0135     		adds	r5, r5, #1
 278              	.LVL17:
 279 0076 052D     		cmp	r5, #5
 280 0078 A6F10406 		sub	r6, r6, #4
 281 007c DCD1     		bne	.L25
 282              	.LBE163:
 283              		.loc 1 102 0
 284 007e 9DED057A 		flds	s14, [sp, #20]
 285 0082 77EE647A 		fsubs	s15, s14, s9
ARM GAS  /tmp/ccQW88Gz.s 			page 6


 286              		.loc 1 105 0
 287 0086 F7EE006A 		fconsts	s13, #112
 288              		.loc 1 102 0
 289 008a A7EEC07A 		vfms.f32	s14, s15, s0
 290              	.LVL18:
 291              		.loc 1 105 0
 292 008e B4EEE67A 		fcmpes	s14, s13
 293 0092 F1EE10FA 		fmstat
 294 0096 3BDD     		ble	.L42
 295 0098 B0EE660A 		fcpys	s0, s13
 296              	.LVL19:
 297              		.loc 1 109 0
 298 009c 07B0     		add	sp, sp, #28
 299              		.cfi_remember_state
 300              		.cfi_def_cfa_offset 12
 301              		@ sp needed
 302 009e 70BC     		pop	{r4, r5, r6}
 303              		.cfi_restore 6
 304              		.cfi_restore 5
 305              		.cfi_restore 4
 306              		.cfi_def_cfa_offset 0
 307              	.LVL20:
 308 00a0 7047     		bx	lr
 309              	.LVL21:
 310              	.L37:
 311              		.cfi_restore_state
 312              		.loc 1 85 0
 313 00a2 90ED037A 		flds	s14, [r0, #12]
 314 00a6 F4EEC70A 		fcmpes	s1, s14
 315 00aa F1EE10FA 		fmstat
 316 00ae 12DD     		ble	.L38
 317              		.loc 1 86 0
 318 00b0 D1ED037A 		flds	s15, [r1, #12]
 319 00b4 D1ED046A 		flds	s13, [r1, #16]
 320 00b8 90ED046A 		flds	s12, [r0, #16]
 321 00bc 76EEE76A 		fsubs	s13, s13, s15
 322 00c0 36EE476A 		fsubs	s12, s12, s14
 323 00c4 30EEC77A 		fsubs	s14, s1, s14
 324 00c8 C6EE866A 		fdivs	s13, s13, s12
 325 00cc E6EE877A 		vfma.f32	s15, s13, s14
 326 00d0 F0EE674A 		fcpys	s9, s15
 327              	.LVL22:
 328 00d4 A3E7     		b	.L17
 329              	.LVL23:
 330              	.L38:
 331              		.loc 1 87 0
 332 00d6 D0ED026A 		flds	s13, [r0, #8]
 333 00da F4EEE60A 		fcmpes	s1, s13
 334 00de F1EE10FA 		fmstat
 335 00e2 23DC     		bgt	.L43
 336              		.loc 1 89 0
 337 00e4 F4EEE04A 		fcmpes	s9, s1
 338 00e8 F1EE10FA 		fmstat
 339 00ec 2FD5     		bpl	.L40
 340              		.loc 1 90 0
 341 00ee 91ED017A 		flds	s14, [r1, #4]
 342 00f2 91ED026A 		flds	s12, [r1, #8]
ARM GAS  /tmp/ccQW88Gz.s 			page 7


 343 00f6 76EEE46A 		fsubs	s13, s13, s9
 344 00fa 36EE476A 		fsubs	s12, s12, s14
 345 00fe 70EEE47A 		fsubs	s15, s1, s9
 346 0102 C6EE266A 		fdivs	s13, s12, s13
 347 0106 A6EEA77A 		vfma.f32	s14, s13, s15
 348 010a F0EE474A 		fcpys	s9, s14
 349              	.LVL24:
 350 010e 86E7     		b	.L17
 351              	.LVL25:
 352              	.L42:
 353              		.loc 1 108 0
 354 0110 B5EEC07A 		fcmpezs	s14
 355 0114 DFED0F6A 		flds	s13, .L44
 356 0118 F1EE10FA 		fmstat
 357 011c 54BF     		ite	pl
 358 011e B0EE470A 		fcpyspl	s0, s14
 359 0122 B0EE660A 		fcpysmi	s0, s13
 360              	.LVL26:
 361              		.loc 1 109 0
 362 0126 07B0     		add	sp, sp, #28
 363              		.cfi_remember_state
 364              		.cfi_def_cfa_offset 12
 365              		@ sp needed
 366 0128 70BC     		pop	{r4, r5, r6}
 367              		.cfi_restore 4
 368              		.cfi_restore 5
 369              		.cfi_restore 6
 370              		.cfi_def_cfa_offset 0
 371              	.LVL27:
 372 012a 7047     		bx	lr
 373              	.LVL28:
 374              	.L43:
 375              		.cfi_restore_state
 376              		.loc 1 88 0
 377 012c D1ED027A 		flds	s15, [r1, #8]
 378 0130 91ED036A 		flds	s12, [r1, #12]
 379 0134 37EE667A 		fsubs	s14, s14, s13
 380 0138 36EE676A 		fsubs	s12, s12, s15
 381 013c 70EEE66A 		fsubs	s13, s1, s13
 382 0140 86EE077A 		fdivs	s14, s12, s14
 383 0144 E7EE267A 		vfma.f32	s15, s14, s13
 384 0148 F0EE674A 		fcpys	s9, s15
 385              	.LVL29:
 386 014c 67E7     		b	.L17
 387              	.LVL30:
 388              	.L40:
 389              		.loc 1 92 0
 390 014e D1ED014A 		flds	s9, [r1, #4]
 391              	.LVL31:
 392 0152 64E7     		b	.L17
 393              	.L45:
 394              		.align	2
 395              	.L44:
 396 0154 00000000 		.word	0
 397              		.cfi_endproc
 398              	.LFE256:
 399              		.size	calculate_throttle_curve_ppm, .-calculate_throttle_curve_ppm
ARM GAS  /tmp/ccQW88Gz.s 			page 8


 400              		.section	.text.ppm_thread,"ax",%progbits
 401              		.align	2
 402              		.p2align 4,,15
 403              		.thumb
 404              		.thumb_func
 405              		.type	ppm_thread, %function
 406              	ppm_thread:
 407              	.LFB261:
 408              		.loc 1 177 0
 409              		.cfi_startproc
 410              		@ args = 0, pretend = 0, frame = 16
 411              		@ frame_needed = 0, uses_anonymous_args = 0
 412              	.LVL32:
 413 0000 2DE9F04F 		push	{r4, r5, r6, r7, r8, r9, r10, fp, lr}
 414              		.cfi_def_cfa_offset 36
 415              		.cfi_offset 4, -36
 416              		.cfi_offset 5, -32
 417              		.cfi_offset 6, -28
 418              		.cfi_offset 7, -24
 419              		.cfi_offset 8, -20
 420              		.cfi_offset 9, -16
 421              		.cfi_offset 10, -12
 422              		.cfi_offset 11, -8
 423              		.cfi_offset 14, -4
 424              	.LBB165:
 425              	.LBB166:
 426              		.file 4 "ChibiOS_3.0.2/os/rt/include/chregistry.h"
 427              		.loc 4 135 0
 428 0004 DFF8F482 		ldr	r8, .L310+88
 429              	.LBE166:
 430              	.LBE165:
 431              		.loc 1 183 0
 432 0008 A64D     		ldr	r5, .L310
 433              	.LBB170:
 434              	.LBB167:
 435              		.loc 4 135 0
 436 000a D8F81830 		ldr	r3, [r8, #24]
 437              	.LBE167:
 438              	.LBE170:
 439              		.loc 1 181 0
 440 000e A64A     		ldr	r2, .L310+4
 441              	.LBB171:
 442              	.LBB168:
 443              		.loc 4 135 0
 444 0010 A649     		ldr	r1, .L310+8
 445              	.LBE168:
 446              	.LBE171:
 447              		.loc 1 183 0
 448 0012 95ED030A 		flds	s0, [r5, #12]
 449 0016 D5ED0A0A 		flds	s1, [r5, #40]
 450 001a 95ED041A 		flds	s2, [r5, #16]
 451 001e 287D     		ldrb	r0, [r5, #20]	@ zero_extendqisi2
 452              	.LVL33:
 453 0020 A34C     		ldr	r4, .L310+12
 454 0022 DFF8C8A2 		ldr	r10, .L310+72
 455 0026 DFF8D892 		ldr	r9, .L310+92
 456              		.loc 1 177 0
ARM GAS  /tmp/ccQW88Gz.s 			page 9


 457 002a 2DED0A8B 		fstmfdd	sp!, {d8, d9, d10, d11, d12}
 458              		.cfi_def_cfa_offset 76
 459              		.cfi_offset 80, -76
 460              		.cfi_offset 81, -72
 461              		.cfi_offset 82, -68
 462              		.cfi_offset 83, -64
 463              		.cfi_offset 84, -60
 464              		.cfi_offset 85, -56
 465              		.cfi_offset 86, -52
 466              		.cfi_offset 87, -48
 467              		.cfi_offset 88, -44
 468              		.cfi_offset 89, -40
 469              	.LBB172:
 470              	.LBB169:
 471              		.loc 4 135 0
 472 002e 9961     		str	r1, [r3, #24]
 473              	.LBE169:
 474              	.LBE172:
 475              		.loc 1 177 0
 476 0030 85B0     		sub	sp, sp, #20
 477              		.cfi_def_cfa_offset 96
 478              		.loc 1 181 0
 479 0032 1360     		str	r3, [r2]
 480              		.loc 1 183 0
 481 0034 FFF7FEFF 		bl	servodec_set_pulse_options
 482              	.LVL34:
 483              		.loc 1 184 0
 484 0038 9E48     		ldr	r0, .L310+16
 485              	.LBB173:
 486              	.LBB174:
 487              	.LBB175:
 488              	.LBB176:
 489              		.loc 1 503 0
 490 003a 9FED9FAA 		flds	s20, .L310+20
 491 003e DFED9F9A 		flds	s19, .L310+24
 492              	.LBE176:
 493              	.LBE175:
 494              	.LBE174:
 495              		.loc 1 511 0
 496 0042 9FED9FBA 		flds	s22, .L310+28
 497              	.LBB187:
 498              		.loc 1 462 0
 499 0046 DFED9FAA 		flds	s21, .L310+32
 500              		.loc 1 436 0
 501 004a DFED9FBA 		flds	s23, .L310+36
 502              	.LBE187:
 503              	.LBE173:
 504              		.loc 1 184 0
 505 004e FFF7FEFF 		bl	servodec_init
 506              	.LVL35:
 507              		.loc 1 186 0
 508 0052 9E4B     		ldr	r3, .L310+40
 509 0054 0122     		movs	r2, #1
 510 0056 1A70     		strb	r2, [r3]
 511 0058 01E0     		b	.L47
 512              	.L50:
 513              	.LBB281:
ARM GAS  /tmp/ccQW88Gz.s 			page 10


 514              		.loc 1 193 0
 515 005a 0023     		movs	r3, #0
 516 005c 2360     		str	r3, [r4]
 517              	.L47:
 518              		.loc 1 189 0
 519 005e 0120     		movs	r0, #1
 520 0060 FFF7FEFF 		bl	chEvtWaitAny
 521              	.LVL36:
 522              		.loc 1 191 0
 523 0064 FFF7FEFF 		bl	timeout_has_timeout
 524              	.LVL37:
 525 0068 0028     		cmp	r0, #0
 526 006a F6D1     		bne	.L50
 527              		.loc 1 191 0 is_stmt 0 discriminator 1
 528 006c FFF7FEFF 		bl	servodec_get_time_since_update
 529              	.LVL38:
 530 0070 0646     		mov	r6, r0
 531 0072 FFF7FEFF 		bl	timeout_get_timeout_msec
 532              	.LVL39:
 533 0076 8642     		cmp	r6, r0
 534 0078 EFD8     		bhi	.L50
 535              		.loc 1 192 0 is_stmt 1 discriminator 2
 536 007a FFF7FEFF 		bl	mc_interface_get_fault
 537              	.LVL40:
 538              		.loc 1 191 0 discriminator 2
 539 007e 0028     		cmp	r0, #0
 540 0080 EBD1     		bne	.L50
 541              		.loc 1 197 0
 542 0082 FFF7FEFF 		bl	servodec_get_servo
 543              	.LVL41:
 544              		.loc 1 199 0
 545 0086 2B78     		ldrb	r3, [r5]	@ zero_extendqisi2
 546              		.loc 1 197 0
 547 0088 8DED030A 		fsts	s0, [sp, #12]
 548 008c 023B     		subs	r3, r3, #2
 549 008e DBB2     		uxtb	r3, r3
 550 0090 052B     		cmp	r3, #5
 551              		.loc 1 199 0
 552 0092 8449     		ldr	r1, .L310
 553 0094 06D8     		bhi	.L51
 554 0096 0122     		movs	r2, #1
 555 0098 02FA03F3 		lsl	r3, r2, r3
 556 009c 13F0290F 		tst	r3, #41
 557 00a0 40F01983 		bne	.L300
 558              	.L51:
 559              		.loc 1 210 0
 560 00a4 95ED020A 		flds	s0, [r5, #8]
 561 00a8 03A8     		add	r0, sp, #12
 562 00aa F7EE000A 		fconsts	s1, #112
 563 00ae FFF7FEFF 		bl	utils_deadband
 564              	.LVL42:
 565              		.loc 1 212 0
 566 00b2 874B     		ldr	r3, .L310+44
 567 00b4 864A     		ldr	r2, .L310+44
 568 00b6 1B78     		ldrb	r3, [r3]	@ zero_extendqisi2
 569 00b8 A3B1     		cbz	r3, .L52
 570              		.loc 1 212 0 is_stmt 0 discriminator 1
ARM GAS  /tmp/ccQW88Gz.s 			page 11


 571 00ba DDED030A 		flds	s1, [sp, #12]
 572 00be F5EE400A 		fcmpzs	s1
 573 00c2 F1EE10FA 		fmstat
 574 00c6 0DD0     		beq	.L52
 575              		.loc 1 213 0 is_stmt 1
 576 00c8 F5EEC00A 		fcmpezs	s1
 577 00cc F1EE10FA 		fmstat
 578 00d0 40F32F84 		ble	.L276
 579              		.loc 1 214 0
 580 00d4 92ED070A 		flds	s0, [r2, #28]
 581 00d8 7E48     		ldr	r0, .L310+48
 582 00da 7F49     		ldr	r1, .L310+52
 583 00dc FFF7FEFF 		bl	calculate_throttle_curve_ppm
 584              	.LVL43:
 585 00e0 8DED030A 		fsts	s0, [sp, #12]
 586              	.L52:
 587              	.LVL44:
 588              		.loc 1 226 0
 589 00e4 FFF7FEFF 		bl	mc_interface_get_configuration
 590              	.LVL45:
 591 00e8 8346     		mov	fp, r0
 592              	.LVL46:
 593              		.loc 1 230 0
 594 00ea FFF7FEFF 		bl	mc_interface_get_rpm
 595              	.LVL47:
 596              		.loc 1 233 0
 597 00ee 95F82030 		ldrb	r3, [r5, #32]	@ zero_extendqisi2
 598              		.loc 1 230 0
 599 00f2 F0EE408A 		fcpys	s17, s0
 600              	.LVL48:
 601              		.loc 1 233 0
 602 00f6 03F0FF07 		and	r7, r3, #255
 603 00fa 002B     		cmp	r3, #0
 604 00fc 00F0E882 		beq	.L181
 605 0100 0026     		movs	r6, #0
 606 0102 B0EE408A 		fcpys	s16, s0
 607 0106 3746     		mov	r7, r6
 608              	.LVL49:
 609              	.L60:
 610              	.LBB203:
 611              	.LBB204:
 612              		.loc 1 235 0
 613 0108 3046     		mov	r0, r6
 614 010a FFF7FEFF 		bl	comm_can_get_status_msg_index
 615              	.LVL50:
 616              		.loc 1 237 0
 617 010e 0368     		ldr	r3, [r0]
 618 0110 002B     		cmp	r3, #0
 619              	.LBE204:
 620              		.loc 1 234 0
 621 0112 06F10106 		add	r6, r6, #1
 622              	.LVL51:
 623              	.LBB211:
 624              		.loc 1 237 0
 625 0116 1FDB     		blt	.L56
 626              	.LBB205:
 627              	.LBB206:
ARM GAS  /tmp/ccQW88Gz.s 			page 12


 628              	.LBB207:
 629              	.LBB208:
 630              		.loc 3 231 0 discriminator 1
 631 0118 D8F82830 		ldr	r3, [r8, #40]
 632              	.LBE208:
 633              	.LBE207:
 634              		.loc 3 267 0 discriminator 1
 635 011c 4268     		ldr	r2, [r0, #4]
 636 011e 9B1A     		subs	r3, r3, r2
 637 0120 07EE903A 		fmsr	s15, r3	@ int
 638              	.LBE206:
 639              	.LBE205:
 640              		.loc 1 237 0 discriminator 1
 641 0124 F8EE677A 		fuitos	s15, s15
 642              	.LBB209:
 643              		.loc 1 240 0 discriminator 1
 644 0128 B0EEC87A 		fabss	s14, s16
 645              	.LBE209:
 646              		.loc 1 237 0 discriminator 1
 647 012c C7EE8A7A 		fdivs	s15, s15, s20
 648 0130 F4EEE97A 		fcmpes	s15, s19
 649 0134 F1EE10FA 		fmstat
 650 0138 0ED5     		bpl	.L56
 651              	.LBB210:
 652              		.loc 1 238 0
 653 013a D0ED027A 		flds	s15, [r0, #8]
 654              	.LVL52:
 655              		.loc 1 245 0
 656 013e 4369     		ldr	r3, [r0, #20]
 657              		.loc 1 240 0
 658 0140 F0EEE76A 		fabss	s13, s15
 659              		.loc 1 241 0
 660 0144 F4EE476A 		fcmps	s13, s14
 661 0148 F1EE10FA 		fmstat
 662 014c 48BF     		it	mi
 663 014e B0EE678A 		fcpysmi	s16, s15
 664              	.LVL53:
 665              		.loc 1 246 0
 666 0152 012B     		cmp	r3, #1
 667 0154 08BF     		it	eq
 668 0156 0127     		moveq	r7, #1
 669              	.LVL54:
 670              	.L56:
 671              	.LBE210:
 672              	.LBE211:
 673              		.loc 1 234 0 discriminator 2
 674 0158 032E     		cmp	r6, #3
 675 015a D5D1     		bne	.L60
 676              	.LVL55:
 677              	.L55:
 678              	.LBE203:
 679              		.loc 1 252 0
 680 015c 2B78     		ldrb	r3, [r5]	@ zero_extendqisi2
 681 015e 013B     		subs	r3, r3, #1
 682 0160 092B     		cmp	r3, #9
 683 0162 3FF67CAF 		bhi	.L47
 684 0166 DFE813F0 		tbh	[pc, r3, lsl #1]
ARM GAS  /tmp/ccQW88Gz.s 			page 13


 685              	.L62:
 686 016a 5701     		.2byte	(.L61-.L62)/2
 687 016c 5701     		.2byte	(.L61-.L62)/2
 688 016e B301     		.2byte	(.L63-.L62)/2
 689 0170 9901     		.2byte	(.L64-.L62)/2
 690 0172 9901     		.2byte	(.L64-.L62)/2
 691 0174 3D01     		.2byte	(.L65-.L62)/2
 692 0176 3D01     		.2byte	(.L65-.L62)/2
 693 0178 CD00     		.2byte	(.L66-.L62)/2
 694 017a 1F00     		.2byte	(.L67-.L62)/2
 695 017c 0A00     		.2byte	(.L68-.L62)/2
 696              		.p2align 1
 697              	.L68:
 698              	.LBB212:
 699              		.loc 1 436 0
 700 017e DDED037A 		flds	s15, [sp, #12]
 701 0182 F4EEEB7A 		fcmpes	s15, s23
 702 0186 F1EE10FA 		fmstat
 703 018a 07DA     		bge	.L124
 704              		.loc 1 436 0 is_stmt 0 discriminator 1
 705 018c 9FED537A 		flds	s14, .L310+56
 706 0190 F4EEC77A 		fcmpes	s15, s14
 707 0194 F1EE10FA 		fmstat
 708 0198 00F21684 		bhi	.L288
 709              	.L124:
 710              		.loc 1 437 0 is_stmt 1
 711 019c 0120     		movs	r0, #1
 712 019e FFF7FEFF 		bl	mc_interface_set_cruise_control_status
 713              	.LVL56:
 714              	.L127:
 715              		.loc 1 445 0
 716 01a2 FFF7FEFF 		bl	timeout_reset
 717              	.LVL57:
 718              		.loc 1 446 0
 719 01a6 5AE7     		b	.L47
 720              	.L67:
 721              	.LVL58:
 722              		.loc 1 366 0
 723 01a8 4D4B     		ldr	r3, .L310+60
 724 01aa 4E48     		ldr	r0, .L310+64
 725 01ac 1B68     		ldr	r3, [r3]
 726 01ae 4C49     		ldr	r1, .L310+60
 727 01b0 5A1C     		adds	r2, r3, #1
 728 01b2 00EB8303 		add	r3, r0, r3, lsl #2
 729 01b6 0A60     		str	r2, [r1]
 730 01b8 83ED008A 		fsts	s16, [r3]
 731              		.loc 1 367 0
 732 01bc 0B68     		ldr	r3, [r1]
 733 01be 072B     		cmp	r3, #7
 734 01c0 04DD     		ble	.L103
 735              		.loc 1 368 0
 736 01c2 0022     		movs	r2, #0
 737 01c4 0A60     		str	r2, [r1]
 738              		.loc 1 369 0
 739 01c6 484A     		ldr	r2, .L310+68
 740 01c8 0123     		movs	r3, #1
 741 01ca 1370     		strb	r3, [r2]
ARM GAS  /tmp/ccQW88Gz.s 			page 14


 742              	.L103:
 743              	.LVL59:
 744              		.loc 1 374 0
 745 01cc 464B     		ldr	r3, .L310+68
 746 01ce 1B78     		ldrb	r3, [r3]	@ zero_extendqisi2
 747 01d0 002B     		cmp	r3, #0
 748 01d2 00F0AB83 		beq	.L184
 749 01d6 DFED3A7A 		flds	s15, .L310+28
 750              		.loc 1 374 0 is_stmt 0 discriminator 3
 751 01da 0023     		movs	r3, #0
 752              	.LVL60:
 753              	.L105:
 754              	.LBB188:
 755              		.loc 1 376 0 is_stmt 1 discriminator 3
 756 01dc 414A     		ldr	r2, .L310+64
 757 01de 02EB8302 		add	r2, r2, r3, lsl #2
 758 01e2 92ED007A 		flds	s14, [r2]
 759              		.loc 1 375 0 discriminator 3
 760 01e6 0133     		adds	r3, r3, #1
 761              	.LVL61:
 762 01e8 082B     		cmp	r3, #8
 763              		.loc 1 376 0 discriminator 3
 764 01ea 77EE877A 		fadds	s15, s15, s14
 765              	.LVL62:
 766              		.loc 1 375 0 discriminator 3
 767 01ee F5D1     		bne	.L105
 768              	.LBE188:
 769              		.loc 1 378 0
 770 01f0 B4EE007A 		fconsts	s14, #64
 771 01f4 27EE877A 		fmuls	s14, s15, s14
 772              	.LVL63:
 773              	.L104:
 774              		.loc 1 381 0
 775 01f8 DDED037A 		flds	s15, [sp, #12]
 776 01fc F5EEC07A 		fcmpezs	s15
 777 0200 F1EE10FA 		fmstat
 778 0204 C0F2CE82 		blt	.L282
 779              		.loc 1 383 0
 780 0208 40F3B083 		ble	.L286
 781              		.loc 1 385 0
 782 020c DAED006A 		flds	s13, [r10]
 783 0210 364B     		ldr	r3, .L310+72
 784 0212 F5EE406A 		fcmpzs	s13
 785              		.loc 1 389 0
 786 0216 DFED366A 		flds	s13, .L310+76
 787              		.loc 1 385 0
 788 021a F1EE10FA 		fmstat
 789              		.loc 1 389 0
 790 021e B4EEE67A 		fcmpes	s14, s13
 791              		.loc 1 386 0
 792 0222 08BF     		it	eq
 793 0224 83ED007A 		fstseq	s14, [r3]
 794              		.loc 1 389 0
 795 0228 F1EE10FA 		fmstat
 796 022c 40F3A483 		ble	.L284
 797              	.LBB189:
 798              		.loc 1 390 0
ARM GAS  /tmp/ccQW88Gz.s 			page 15


 799 0230 DAED006A 		flds	s13, [r10]
 800              		.loc 1 391 0
 801 0234 9FED2F6A 		flds	s12, .L310+80
 802              		.loc 1 390 0
 803 0238 2C4B     		ldr	r3, .L310+72
 804 023a 76EEC76A 		fsubs	s13, s13, s14
 805              	.LVL64:
 806              		.loc 1 391 0
 807 023e F4EEC66A 		fcmpes	s13, s12
 808 0242 F1EE10FA 		fmstat
 809 0246 0BDC     		bgt	.L292
 810              		.loc 1 393 0
 811 0248 DFED2B5A 		flds	s11, .L310+84
 812 024c F4EEE56A 		fcmpes	s13, s11
 813 0250 F1EE10FA 		fmstat
 814 0254 0CDD     		ble	.L115
 815              		.loc 1 393 0 is_stmt 0 discriminator 1
 816 0256 B4EEC67A 		fcmpes	s14, s12
 817 025a F1EE10FA 		fmstat
 818 025e 07D5     		bpl	.L115
 819              	.L292:
 820              		.loc 1 394 0 is_stmt 1
 821 0260 D3ED006A 		flds	s13, [r3]
 822              	.LVL65:
 823 0264 B2EE047A 		fconsts	s14, #36
 824              	.LVL66:
 825 0268 36EEC77A 		fsubs	s14, s13, s14
 826 026c 83ED007A 		fsts	s14, [r3]
 827              	.L115:
 828              	.LBE189:
 829              		.loc 1 401 0
 830 0270 9AED007A 		flds	s14, [r10]
 831 0274 1D4B     		ldr	r3, .L310+72
 832 0276 B5EEC07A 		fcmpezs	s14
 833 027a F1EE10FA 		fmstat
 834 027e 40F37583 		ble	.L286
 835              		.loc 1 401 0 is_stmt 0 discriminator 1
 836 0282 D5ED016A 		flds	s13, [r5, #4]
 837 0286 93ED007A 		flds	s14, [r3]
 838 028a 064E     		ldr	r6, .L310
 839 028c F4EEC76A 		fcmpes	s13, s14
 840 0290 F1EE10FA 		fmstat
 841 0294 00F3A483 		bgt	.L301
 842              	.LBE212:
 843              		.loc 1 227 0 is_stmt 1
 844 0298 0023     		movs	r3, #0
 845              	.LBB213:
 846              		.loc 1 420 0
 847 029a 9FED099A 		flds	s18, .L310+28
 848              	.LBE213:
 849              		.loc 1 225 0
 850 029e 1E46     		mov	r6, r3
 851              	.LVL67:
 852              	.L299:
 853              	.LBB214:
 854              		.loc 1 364 0
 855 02a0 0127     		movs	r7, #1
ARM GAS  /tmp/ccQW88Gz.s 			page 16


 856              	.LVL68:
 857 02a2 6FE0     		b	.L108
 858              	.L311:
 859              		.align	2
 860              	.L310:
 861 02a4 00000000 		.word	.LANCHOR2
 862 02a8 00000000 		.word	.LANCHOR0
 863 02ac 00000000 		.word	.LC0
 864 02b0 00000000 		.word	.LANCHOR4
 865 02b4 00000000 		.word	servodec_func
 866 02b8 00401C46 		.word	1176256512
 867 02bc CDCCCC3D 		.word	1036831949
 868 02c0 00000000 		.word	0
 869 02c4 6F12833A 		.word	981668463
 870 02c8 9A99993E 		.word	1050253722
 871 02cc 00000000 		.word	.LANCHOR3
 872 02d0 00000000 		.word	.LANCHOR5
 873 02d4 00000000 		.word	.LANCHOR6
 874 02d8 00000000 		.word	.LANCHOR7
 875 02dc 9A9999BE 		.word	-1097229926
 876 02e0 00000000 		.word	.LANCHOR11
 877 02e4 00000000 		.word	.LANCHOR12
 878 02e8 00000000 		.word	.LANCHOR13
 879 02ec 00000000 		.word	.LANCHOR10
 880 02f0 00007A44 		.word	1148846080
 881 02f4 0080BB44 		.word	1153138688
 882 02f8 0000FA43 		.word	1140457472
 883 02fc 00000000 		.word	ch
 884 0300 00000000 		.word	.LANCHOR14
 885              	.LVL69:
 886              	.L66:
 887              		.loc 1 316 0
 888 0304 DDED037A 		flds	s15, [sp, #12]
 889 0308 F5EEC07A 		fcmpezs	s15
 890 030c F1EE10FA 		fmstat
 891 0310 C0F24882 		blt	.L282
 892              		.loc 1 318 0
 893 0314 002F     		cmp	r7, #0
 894 0316 00F0D582 		beq	.L90
 895              		.loc 1 318 0 is_stmt 0 discriminator 1
 896 031a F5EE407A 		fcmpzs	s15
 897 031e F1EE10FA 		fmstat
 898 0322 40F0CF82 		bne	.L90
 899              		.loc 1 320 0 is_stmt 1
 900 0326 9BED3E7A 		flds	s14, [fp, #248]
 901 032a B4EEC78A 		fcmpes	s16, s14
 902 032e F1EE10FA 		fmstat
 903 0332 40F33483 		ble	.L91
 904              		.loc 1 320 0 is_stmt 0 discriminator 1
 905 0336 95ED017A 		flds	s14, [r5, #4]
 906 033a B4EEC78A 		fcmpes	s16, s14
 907 033e F1EE10FA 		fmstat
 908 0342 40F12C83 		bpl	.L91
 909              	.LVL70:
 910              		.loc 1 321 0 is_stmt 1
 911 0346 DAED007A 		flds	s15, [r10]
 912 034a CA4B     		ldr	r3, .L312
ARM GAS  /tmp/ccQW88Gz.s 			page 17


 913              		.loc 1 326 0
 914 034c CA4A     		ldr	r2, .L312+4
 915              		.loc 1 321 0
 916 034e F5EE407A 		fcmpzs	s15
 917 0352 F1EE10FA 		fmstat
 918              		.loc 1 322 0
 919 0356 08BF     		it	eq
 920 0358 83ED008A 		fstseq	s16, [r3]
 921              		.loc 1 326 0
 922 035c 95F83030 		ldrb	r3, [r5, #48]	@ zero_extendqisi2
 923              		.loc 1 327 0
 924 0360 9AED000A 		flds	s0, [r10]
 925              		.loc 1 326 0
 926 0364 03F0FF06 		and	r6, r3, #255
 927 0368 002B     		cmp	r3, #0
 928 036a 00F06683 		beq	.L95
 929              		.loc 1 327 0
 930 036e D2ED0D0A 		flds	s1, [r2, #52]
 931              	.LBE214:
 932              		.loc 1 223 0
 933 0372 9FEDC49A 		flds	s18, .L312+16
 934              	.LBB215:
 935              		.loc 1 327 0
 936 0376 FFF7FEFF 		bl	mc_interface_set_pid_speed_and_watt
 937              	.LVL71:
 938              	.LBE215:
 939              		.loc 1 225 0
 940 037a 0026     		movs	r6, #0
 941 037c DDED037A 		flds	s15, [sp, #12]
 942              	.LBB216:
 943              		.loc 1 324 0
 944 0380 3746     		mov	r7, r6
 945              	.LVL72:
 946              		.loc 1 325 0
 947 0382 0123     		movs	r3, #1
 948              	.LVL73:
 949              	.L108:
 950              		.loc 1 430 0
 951 0384 F4EEEA7A 		fcmpes	s15, s21
 952 0388 F1EE10FA 		fmstat
 953 038c 02D5     		bpl	.L77
 954              		.loc 1 431 0
 955 038e 2268     		ldr	r2, [r4]
 956 0390 0132     		adds	r2, r2, #1
 957 0392 2260     		str	r2, [r4]
 958              	.LVL74:
 959              	.L77:
 960              	.LBE216:
 961              		.loc 1 477 0
 962 0394 BFEE007A 		fconsts	s14, #240
 963 0398 F4EE477A 		fcmps	s15, s14
 964 039c F1EE10FA 		fmstat
 965              		.loc 1 478 0
 966 03a0 0CBF     		ite	eq
 967 03a2 D9F80020 		ldreq	r2, [r9]
 968              		.loc 1 480 0
 969 03a6 D9F80010 		ldrne	r1, [r9]
ARM GAS  /tmp/ccQW88Gz.s 			page 18


 970              		.loc 1 487 0
 971 03aa B449     		ldr	r1, .L312+8
 972              		.loc 1 478 0
 973 03ac 0CBF     		ite	eq
 974 03ae 0132     		addeq	r2, r2, #1
 975              		.loc 1 484 0
 976 03b0 0022     		movne	r2, #0
 977 03b2 C9F80020 		str	r2, [r9]
 978              		.loc 1 487 0
 979 03b6 2268     		ldr	r2, [r4]
 980 03b8 312A     		cmp	r2, #49
 981 03ba 00F3C080 		bgt	.L136
 982              		.loc 1 487 0 is_stmt 0 discriminator 1
 983 03be 6A7D     		ldrb	r2, [r5, #21]	@ zero_extendqisi2
 984 03c0 002A     		cmp	r2, #0
 985 03c2 00F0BC80 		beq	.L136
 986              	.LBB217:
 987              		.loc 1 489 0 is_stmt 1
 988 03c6 AE4B     		ldr	r3, .L312+12
 989              	.LVL75:
 990 03c8 0A68     		ldr	r2, [r1]
 991 03ca 1B68     		ldr	r3, [r3]
 992 03cc 9A42     		cmp	r2, r3
 993              		.loc 1 490 0
 994 03ce 04BF     		itt	eq
 995 03d0 0023     		moveq	r3, #0
 996 03d2 0B60     		streq	r3, [r1]
 997              		.loc 1 492 0
 998 03d4 AA4A     		ldr	r2, .L312+12
 999 03d6 2368     		ldr	r3, [r4]
 1000 03d8 1360     		str	r3, [r2]
 1001              		.loc 1 493 0
 1002 03da FFF7FEFF 		bl	timeout_get_brake_current
 1003              	.LVL76:
 1004 03de FFF7FEFF 		bl	mc_interface_set_brake_current
 1005              	.LVL77:
 1006              		.loc 1 494 0
 1007 03e2 3CE6     		b	.L47
 1008              	.LVL78:
 1009              	.L65:
 1010              	.LBE217:
 1011              	.LBB218:
 1012              		.loc 1 462 0
 1013 03e4 DDED037A 		flds	s15, [sp, #12]
 1014 03e8 B0EEE77A 		fabss	s14, s15
 1015 03ec B4EEEA7A 		fcmpes	s14, s21
 1016 03f0 F1EE10FA 		fmstat
 1017 03f4 02D5     		bpl	.L131
 1018              		.loc 1 463 0
 1019 03f6 2368     		ldr	r3, [r4]
 1020 03f8 0133     		adds	r3, r3, #1
 1021 03fa 2360     		str	r3, [r4]
 1022              	.L131:
 1023              		.loc 1 466 0
 1024 03fc 2368     		ldr	r3, [r4]
 1025 03fe 312B     		cmp	r3, #49
 1026 0400 00F34082 		bgt	.L133
ARM GAS  /tmp/ccQW88Gz.s 			page 19


 1027              		.loc 1 466 0 is_stmt 0 discriminator 1
 1028 0404 6B7D     		ldrb	r3, [r5, #21]	@ zero_extendqisi2
 1029 0406 002B     		cmp	r3, #0
 1030 0408 00F03C82 		beq	.L133
 1031              	.LBE218:
 1032              		.loc 1 227 0 is_stmt 1
 1033 040c 0023     		movs	r3, #0
 1034              		.loc 1 223 0
 1035 040e 9FED9D9A 		flds	s18, .L312+16
 1036              		.loc 1 225 0
 1037 0412 1E46     		mov	r6, r3
 1038              		.loc 1 224 0
 1039 0414 1F46     		mov	r7, r3
 1040              	.LVL79:
 1041 0416 BDE7     		b	.L77
 1042              	.LVL80:
 1043              	.L61:
 1044              	.LBB219:
 1045              		.loc 1 256 0
 1046 0418 DDED037A 		flds	s15, [sp, #12]
 1047 041c F5EEC07A 		fcmpezs	s15
 1048 0420 F1EE10FA 		fmstat
 1049 0424 C0F2AB82 		blt	.L277
 1050              		.loc 1 258 0
 1051 0428 002F     		cmp	r7, #0
 1052 042a 00F03982 		beq	.L71
 1053              		.loc 1 258 0 is_stmt 0 discriminator 1
 1054 042e F5EE407A 		fcmpzs	s15
 1055 0432 F1EE10FA 		fmstat
 1056 0436 40F03382 		bne	.L71
 1057              		.loc 1 260 0 is_stmt 1
 1058 043a 9BED3E7A 		flds	s14, [fp, #248]
 1059 043e B4EEC78A 		fcmpes	s16, s14
 1060 0442 F1EE10FA 		fmstat
 1061 0446 40F3C482 		ble	.L72
 1062              		.loc 1 260 0 is_stmt 0 discriminator 1
 1063 044a 95ED017A 		flds	s14, [r5, #4]
 1064 044e B4EEC78A 		fcmpes	s16, s14
 1065 0452 F1EE10FA 		fmstat
 1066 0456 40F1BC82 		bpl	.L72
 1067              		.loc 1 261 0 is_stmt 1
 1068 045a DAED007A 		flds	s15, [r10]
 1069 045e 854B     		ldr	r3, .L312
 1070              	.LBE219:
 1071              		.loc 1 223 0
 1072 0460 9FED889A 		flds	s18, .L312+16
 1073              	.LBB220:
 1074              		.loc 1 261 0
 1075 0464 F5EE407A 		fcmpzs	s15
 1076 0468 F1EE10FA 		fmstat
 1077              		.loc 1 262 0
 1078 046c 08BF     		it	eq
 1079 046e 83ED008A 		fstseq	s16, [r3]
 1080              	.LVL81:
 1081              		.loc 1 266 0
 1082 0472 9AED000A 		flds	s0, [r10]
 1083 0476 FFF7FEFF 		bl	mc_interface_set_pid_speed
ARM GAS  /tmp/ccQW88Gz.s 			page 20


 1084              	.LVL82:
 1085 047a DDED037A 		flds	s15, [sp, #12]
 1086              		.loc 1 264 0
 1087 047e 0027     		movs	r7, #0
 1088              	.LVL83:
 1089              		.loc 1 265 0
 1090 0480 0123     		movs	r3, #1
 1091              	.LVL84:
 1092              	.L76:
 1093              		.loc 1 278 0
 1094 0482 B0EEE77A 		fabss	s14, s15
 1095 0486 B4EEEA7A 		fcmpes	s14, s21
 1096 048a F1EE10FA 		fmstat
 1097 048e 40F11782 		bpl	.L278
 1098              	.L308:
 1099              		.loc 1 279 0
 1100 0492 2268     		ldr	r2, [r4]
 1101 0494 0132     		adds	r2, r2, #1
 1102 0496 2260     		str	r2, [r4]
 1103              	.LBE220:
 1104              		.loc 1 225 0
 1105 0498 0026     		movs	r6, #0
 1106 049a 7BE7     		b	.L77
 1107              	.LVL85:
 1108              	.L64:
 1109              	.LBB221:
 1110              		.loc 1 450 0
 1111 049c DDED037A 		flds	s15, [sp, #12]
 1112 04a0 B0EEE77A 		fabss	s14, s15
 1113 04a4 B4EEEA7A 		fcmpes	s14, s21
 1114 04a8 F1EE10FA 		fmstat
 1115 04ac 02D5     		bpl	.L128
 1116              		.loc 1 451 0
 1117 04ae 2368     		ldr	r3, [r4]
 1118 04b0 0133     		adds	r3, r3, #1
 1119 04b2 2360     		str	r3, [r4]
 1120              	.L128:
 1121              		.loc 1 454 0
 1122 04b4 2368     		ldr	r3, [r4]
 1123 04b6 312B     		cmp	r3, #49
 1124 04b8 00F3CC81 		bgt	.L130
 1125              		.loc 1 454 0 is_stmt 0 discriminator 1
 1126 04bc 6B7D     		ldrb	r3, [r5, #21]	@ zero_extendqisi2
 1127 04be 002B     		cmp	r3, #0
 1128 04c0 00F0C881 		beq	.L130
 1129              	.LBE221:
 1130              		.loc 1 227 0 is_stmt 1
 1131 04c4 0023     		movs	r3, #0
 1132              		.loc 1 225 0
 1133 04c6 1E46     		mov	r6, r3
 1134              		.loc 1 224 0
 1135 04c8 1F46     		mov	r7, r3
 1136              	.LVL86:
 1137              		.loc 1 223 0
 1138 04ca 9FED6E9A 		flds	s18, .L312+16
 1139 04ce 61E7     		b	.L77
 1140              	.LVL87:
ARM GAS  /tmp/ccQW88Gz.s 			page 21


 1141              	.L63:
 1142              	.LBB222:
 1143              		.loc 1 286 0
 1144 04d0 DDED037A 		flds	s15, [sp, #12]
 1145 04d4 F5EEC07A 		fcmpezs	s15
 1146 04d8 F1EE10FA 		fmstat
 1147 04dc C0F26281 		blt	.L282
 1148              		.loc 1 288 0
 1149 04e0 002F     		cmp	r7, #0
 1150 04e2 00F01B82 		beq	.L81
 1151              		.loc 1 288 0 is_stmt 0 discriminator 1
 1152 04e6 F5EE407A 		fcmpzs	s15
 1153 04ea F1EE10FA 		fmstat
 1154 04ee 40F01582 		bne	.L81
 1155              		.loc 1 290 0 is_stmt 1
 1156 04f2 9BED3E7A 		flds	s14, [fp, #248]
 1157 04f6 B4EEC78A 		fcmpes	s16, s14
 1158 04fa F1EE10FA 		fmstat
 1159 04fe 40F34E82 		ble	.L91
 1160              		.loc 1 290 0 is_stmt 0 discriminator 1
 1161 0502 95ED017A 		flds	s14, [r5, #4]
 1162 0506 B4EEC78A 		fcmpes	s16, s14
 1163 050a F1EE10FA 		fmstat
 1164 050e 40F14682 		bpl	.L91
 1165              		.loc 1 291 0 is_stmt 1
 1166 0512 DAED007A 		flds	s15, [r10]
 1167 0516 574B     		ldr	r3, .L312
 1168              	.LBE222:
 1169              		.loc 1 223 0
 1170 0518 9FED5A9A 		flds	s18, .L312+16
 1171              	.LBB223:
 1172              		.loc 1 291 0
 1173 051c F5EE407A 		fcmpzs	s15
 1174 0520 F1EE10FA 		fmstat
 1175              		.loc 1 292 0
 1176 0524 08BF     		it	eq
 1177 0526 83ED008A 		fstseq	s16, [r3]
 1178              	.LVL88:
 1179              		.loc 1 296 0
 1180 052a 9AED000A 		flds	s0, [r10]
 1181              	.LBE223:
 1182              		.loc 1 225 0
 1183 052e 0026     		movs	r6, #0
 1184              	.LBB224:
 1185              		.loc 1 296 0
 1186 0530 FFF7FEFF 		bl	mc_interface_set_pid_speed
 1187              	.LVL89:
 1188              		.loc 1 294 0
 1189 0534 3746     		mov	r7, r6
 1190              	.LVL90:
 1191 0536 DDED037A 		flds	s15, [sp, #12]
 1192              		.loc 1 295 0
 1193 053a 0123     		movs	r3, #1
 1194              		.loc 1 296 0
 1195 053c 22E7     		b	.L108
 1196              	.LVL91:
 1197              	.L136:
ARM GAS  /tmp/ccQW88Gz.s 			page 22


 1198              	.LBE224:
 1199              		.loc 1 497 0
 1200 053e 1BB1     		cbz	r3, .L141
 1201              		.loc 1 497 0 is_stmt 0 discriminator 1
 1202 0540 95F82030 		ldrb	r3, [r5, #32]	@ zero_extendqisi2
 1203              	.LVL92:
 1204 0544 002B     		cmp	r3, #0
 1205 0546 72D1     		bne	.L302
 1206              	.LVL93:
 1207              	.L141:
 1208              		.loc 1 509 0 is_stmt 1
 1209 0548 002F     		cmp	r7, #0
 1210 054a 3FF488AD 		beq	.L47
 1211              		.loc 1 511 0
 1212 054e 8AED00BA 		fsts	s22, [r10]
 1213              		.loc 1 513 0
 1214 0552 002E     		cmp	r6, #0
 1215 0554 40F05F81 		bne	.L303
 1216              	.LBB225:
 1217              		.loc 1 526 0
 1218 0558 D5ED077A 		flds	s15, [r5, #28]
 1219 055c B4EEE78A 		fcmpes	s16, s15
 1220 0560 F1EE10FA 		fmstat
 1221 0564 40F3C780 		ble	.L150
 1222              		.loc 1 526 0 is_stmt 0 discriminator 1
 1223 0568 B5EEC09A 		fcmpezs	s18
 1224 056c F1EE10FA 		fmstat
 1225 0570 40F3C180 		ble	.L150
 1226              	.L296:
 1227              		.loc 1 531 0 is_stmt 1
 1228 0574 9BED459A 		flds	s18, [fp, #276]
 1229              	.LVL94:
 1230              	.L153:
 1231              		.loc 1 551 0
 1232 0578 95F82030 		ldrb	r3, [r5, #32]	@ zero_extendqisi2
 1233              		.loc 1 542 0
 1234 057c B5EEC09A 		fcmpezs	s18
 1235 0580 F1EE10FA 		fmstat
 1236 0584 00F1DA80 		bmi	.L304
 1237              	.L289:
 1238              		.loc 1 551 0
 1239 0588 002B     		cmp	r3, #0
 1240 058a 00F09C80 		beq	.L177
 1241              		.loc 1 541 0
 1242 058e 0027     		movs	r7, #0
 1243              	.LVL95:
 1244              	.L179:
 1245              		.loc 1 543 0 discriminator 1
 1246 0590 B0EE49CA 		fcpys	s24, s18
 1247 0594 0026     		movs	r6, #0
 1248              	.LVL96:
 1249              	.L173:
 1250              	.LBB226:
 1251              	.LBB227:
 1252              		.loc 1 553 0
 1253 0596 3046     		mov	r0, r6
 1254 0598 FFF7FEFF 		bl	comm_can_get_status_msg_index
ARM GAS  /tmp/ccQW88Gz.s 			page 23


 1255              	.LVL97:
 1256              		.loc 1 555 0
 1257 059c 0168     		ldr	r1, [r0]
 1258 059e 0029     		cmp	r1, #0
 1259 05a0 2CDB     		blt	.L165
 1260              	.LVL98:
 1261              	.LBB228:
 1262              	.LBB229:
 1263              	.LBB230:
 1264              	.LBB231:
 1265              		.loc 3 231 0 discriminator 1
 1266 05a2 D8F82830 		ldr	r3, [r8, #40]
 1267              	.LBE231:
 1268              	.LBE230:
 1269              		.loc 3 267 0 discriminator 1
 1270 05a6 4268     		ldr	r2, [r0, #4]
 1271 05a8 9B1A     		subs	r3, r3, r2
 1272 05aa 07EE903A 		fmsr	s15, r3	@ int
 1273              	.LBE229:
 1274              	.LBE228:
 1275              		.loc 1 555 0 discriminator 1
 1276 05ae F8EE677A 		fuitos	s15, s15
 1277 05b2 C7EE8A7A 		fdivs	s15, s15, s20
 1278 05b6 F4EEE97A 		fcmpes	s15, s19
 1279 05ba F1EE10FA 		fmstat
 1280 05be 1DD5     		bpl	.L165
 1281              		.loc 1 556 0
 1282 05c0 95F82120 		ldrb	r2, [r5, #33]	@ zero_extendqisi2
 1283 05c4 2C4B     		ldr	r3, .L312+4
 1284 05c6 002A     		cmp	r2, #0
 1285 05c8 00F0E380 		beq	.L167
 1286              	.LBB232:
 1287              		.loc 1 557 0
 1288 05cc D0ED027A 		flds	s15, [r0, #8]
 1289              	.LVL99:
 1290              		.loc 1 558 0
 1291 05d0 002F     		cmp	r7, #0
 1292 05d2 00F0EC81 		beq	.L168
 1293              	.LVL100:
 1294              		.loc 1 559 0
 1295 05d6 F1EE677A 		fnegs	s15, s15
 1296              	.LVL101:
 1297              		.loc 1 562 0
 1298 05da 77EEC87A 		fsubs	s15, s15, s16
 1299              	.LVL102:
 1300              		.loc 1 563 0
 1301 05de 93ED0B7A 		flds	s14, [r3, #44]
 1302 05e2 B4EEE77A 		fcmpes	s14, s15
 1303 05e6 F1EE10FA 		fmstat
 1304 05ea 00F1B280 		bmi	.L180
 1305 05ee B0EE49CA 		fcpys	s24, s18
 1306              	.LVL103:
 1307              	.L169:
 1308              	.LBE232:
 1309              		.loc 1 582 0
 1310 05f2 C8B2     		uxtb	r0, r1
 1311 05f4 B1EE4C0A 		fnegs	s0, s24
ARM GAS  /tmp/ccQW88Gz.s 			page 24


 1312 05f8 FFF7FEFF 		bl	comm_can_set_current
 1313              	.LVL104:
 1314              	.L165:
 1315              	.LBE227:
 1316              		.loc 1 552 0 discriminator 2
 1317 05fc 0136     		adds	r6, r6, #1
 1318              	.LVL105:
 1319 05fe 032E     		cmp	r6, #3
 1320 0600 C9D1     		bne	.L173
 1321              	.LBE226:
 1322              		.loc 1 589 0
 1323 0602 95F82120 		ldrb	r2, [r5, #33]	@ zero_extendqisi2
 1324 0606 1C4B     		ldr	r3, .L312+4
 1325 0608 002A     		cmp	r2, #0
 1326 060a 00F0AC81 		beq	.L192
 1327              	.LBB237:
 1328              		.loc 1 592 0
 1329 060e 38EEC88A 		fsubs	s16, s17, s16
 1330              	.LVL106:
 1331              		.loc 1 593 0
 1332 0612 D3ED0B7A 		flds	s15, [r3, #44]
 1333 0616 B4EEE78A 		fcmpes	s16, s15
 1334 061a F1EE10FA 		fmstat
 1335 061e 33DC     		bgt	.L305
 1336              	.LVL107:
 1337              	.L174:
 1338              	.LBE237:
 1339              		.loc 1 610 0
 1340 0620 002F     		cmp	r7, #0
 1341 0622 50D0     		beq	.L177
 1342              	.LVL108:
 1343              	.L164:
 1344              		.loc 1 611 0
 1345 0624 B1EE490A 		fnegs	s0, s18
 1346 0628 FFF7FEFF 		bl	mc_interface_set_current
 1347              	.LVL109:
 1348 062c 17E5     		b	.L47
 1349              	.LVL110:
 1350              	.L302:
 1351              	.LBE225:
 1352              	.LBB242:
 1353              		.loc 1 498 0
 1354 062e FFF7FEFF 		bl	mc_interface_get_duty_cycle_now
 1355              	.LVL111:
 1356              	.LBB184:
 1357              		.loc 1 500 0
 1358 0632 0023     		movs	r3, #0
 1359 0634 0196     		str	r6, [sp, #4]
 1360              	.LBE184:
 1361              		.loc 1 498 0
 1362 0636 B0EE40CA 		fcpys	s24, s0
 1363              	.LVL112:
 1364              	.LBB185:
 1365              		.loc 1 500 0
 1366 063a 1E46     		mov	r6, r3
 1367              	.LVL113:
 1368              	.L144:
ARM GAS  /tmp/ccQW88Gz.s 			page 25


 1369              	.LBB181:
 1370              		.loc 1 501 0
 1371 063c 3046     		mov	r0, r6
 1372 063e FFF7FEFF 		bl	comm_can_get_status_msg_index
 1373              	.LVL114:
 1374              		.loc 1 503 0
 1375 0642 0168     		ldr	r1, [r0]
 1376 0644 0029     		cmp	r1, #0
 1377              	.LBE181:
 1378              		.loc 1 500 0
 1379 0646 06F10106 		add	r6, r6, #1
 1380              	.LVL115:
 1381              	.LBB182:
 1382              		.loc 1 503 0
 1383 064a 0FDB     		blt	.L142
 1384              	.LBB177:
 1385              	.LBB178:
 1386              		.loc 3 267 0 discriminator 1
 1387 064c 4068     		ldr	r0, [r0, #4]
 1388              	.LVL116:
 1389              	.LBB179:
 1390              	.LBB180:
 1391              		.loc 3 231 0 discriminator 1
 1392 064e D8F82820 		ldr	r2, [r8, #40]
 1393              	.LBE180:
 1394              	.LBE179:
 1395              		.loc 3 267 0 discriminator 1
 1396 0652 131A     		subs	r3, r2, r0
 1397 0654 07EE903A 		fmsr	s15, r3	@ int
 1398              	.LBE178:
 1399              	.LBE177:
 1400              		.loc 1 503 0 discriminator 1
 1401 0658 F8EE677A 		fuitos	s15, s15
 1402 065c C7EE8A7A 		fdivs	s15, s15, s20
 1403 0660 F4EEE97A 		fcmpes	s15, s19
 1404 0664 F1EE10FA 		fmstat
 1405 0668 00F17781 		bmi	.L306
 1406              	.LVL117:
 1407              	.L142:
 1408              	.LBE182:
 1409              		.loc 1 500 0 discriminator 2
 1410 066c 032E     		cmp	r6, #3
 1411 066e E5D1     		bne	.L144
 1412 0670 019E     		ldr	r6, [sp, #4]
 1413              	.LVL118:
 1414 0672 69E7     		b	.L141
 1415              	.L313:
 1416              		.align	2
 1417              	.L312:
 1418 0674 00000000 		.word	.LANCHOR10
 1419 0678 00000000 		.word	.LANCHOR2
 1420 067c 00000000 		.word	.LANCHOR4
 1421 0680 00000000 		.word	.LANCHOR15
 1422 0684 00000000 		.word	0
 1423              	.LVL119:
 1424              	.L305:
 1425              	.LBE185:
ARM GAS  /tmp/ccQW88Gz.s 			page 26


 1426              	.LBE242:
 1427              	.LBB243:
 1428              	.LBB238:
 1429              		.loc 1 594 0
 1430 0688 93ED0B0A 		flds	s0, [r3, #44]
 1431 068c 5FED030A 		flds	s1, .L312+16
 1432 0690 93ED091A 		flds	s2, [r3, #36]
 1433 0694 D3ED0B7A 		flds	s15, [r3, #44]
 1434 0698 F0EE491A 		fcpys	s3, s18
 1435 069c 31EE671A 		fsubs	s2, s2, s15
 1436 06a0 38EE400A 		fsubs	s0, s16, s0
 1437 06a4 B0EE602A 		fcpys	s4, s1
 1438 06a8 FFF7FEFF 		bl	utils_map
 1439              	.LVL120:
 1440              		.loc 1 595 0
 1441 06ac DBED457A 		flds	s15, [fp, #276]
 1442              		.loc 1 596 0
 1443 06b0 B4EE670A 		fcmps	s0, s15
 1444              		.loc 1 594 0
 1445 06b4 B0EE409A 		fcpys	s18, s0
 1446              	.LVL121:
 1447              		.loc 1 596 0
 1448 06b8 F1EE10FA 		fmstat
 1449 06bc 48BF     		it	mi
 1450 06be B0EE4B9A 		fcpysmi	s18, s22
 1451              	.LVL122:
 1452              	.LBE238:
 1453              		.loc 1 610 0
 1454 06c2 002F     		cmp	r7, #0
 1455 06c4 AED1     		bne	.L164
 1456              	.LVL123:
 1457              	.L177:
 1458              		.loc 1 613 0
 1459 06c6 B0EE490A 		fcpys	s0, s18
 1460 06ca FFF7FEFF 		bl	mc_interface_set_current
 1461              	.LVL124:
 1462 06ce C6E4     		b	.L47
 1463              	.LVL125:
 1464              	.L181:
 1465              	.LBE243:
 1466              		.loc 1 231 0
 1467 06d0 B0EE408A 		fcpys	s16, s0
 1468 06d4 42E5     		b	.L55
 1469              	.LVL126:
 1470              	.L300:
 1471              		.loc 1 203 0
 1472 06d6 F7EE000A 		fconsts	s1, #112
 1473 06da 30EE207A 		fadds	s14, s0, s1
 1474              		.loc 1 204 0
 1475 06de F6EE007A 		fconsts	s15, #96
 1476 06e2 67EE277A 		fmuls	s15, s14, s15
 1477              		.loc 1 206 0
 1478 06e6 91ED020A 		flds	s0, [r1, #8]
 1479              		.loc 1 204 0
 1480 06ea CDED037A 		fsts	s15, [sp, #12]
 1481              		.loc 1 206 0
 1482 06ee 03A8     		add	r0, sp, #12
ARM GAS  /tmp/ccQW88Gz.s 			page 27


 1483 06f0 FFF7FEFF 		bl	utils_deadband
 1484              	.LVL127:
 1485              		.loc 1 207 0
 1486 06f4 F6E4     		b	.L52
 1487              	.LVL128:
 1488              	.L150:
 1489              	.LBB244:
 1490              		.loc 1 528 0
 1491 06f6 D5ED067A 		flds	s15, [r5, #24]
 1492 06fa D84B     		ldr	r3, .L314
 1493 06fc B4EEE78A 		fcmpes	s16, s15
 1494 0700 F1EE10FA 		fmstat
 1495 0704 58DD     		ble	.L154
 1496              		.loc 1 528 0 is_stmt 0 discriminator 1
 1497 0706 B5EEC09A 		fcmpezs	s18
 1498 070a F1EE10FA 		fmstat
 1499 070e 53DD     		ble	.L154
 1500              		.loc 1 529 0 is_stmt 1
 1501 0710 D3ED060A 		flds	s1, [r3, #24]
 1502 0714 93ED071A 		flds	s2, [r3, #28]
 1503 0718 9BED452A 		flds	s4, [fp, #276]
 1504 071c F0EE491A 		fcpys	s3, s18
 1505 0720 B0EE480A 		fcpys	s0, s16
 1506 0724 FFF7FEFF 		bl	utils_map
 1507              	.LVL129:
 1508 0728 B0EE409A 		fcpys	s18, s0
 1509              	.LVL130:
 1510              		.loc 1 542 0
 1511 072c B5EEC09A 		fcmpezs	s18
 1512 0730 F1EE10FA 		fmstat
 1513              		.loc 1 551 0
 1514 0734 95F82030 		ldrb	r3, [r5, #32]	@ zero_extendqisi2
 1515              		.loc 1 542 0
 1516 0738 7FF526AF 		bpl	.L289
 1517              	.LVL131:
 1518              	.L304:
 1519              		.loc 1 544 0
 1520 073c B1EE499A 		fnegs	s18, s18
 1521              	.LVL132:
 1522              		.loc 1 551 0
 1523 0740 002B     		cmp	r3, #0
 1524 0742 3FF46FAF 		beq	.L164
 1525              		.loc 1 546 0
 1526 0746 F1EE688A 		fnegs	s17, s17
 1527              	.LVL133:
 1528              		.loc 1 547 0
 1529 074a B1EE488A 		fnegs	s16, s16
 1530              	.LVL134:
 1531              		.loc 1 543 0
 1532 074e 0127     		movs	r7, #1
 1533              	.LVL135:
 1534 0750 1EE7     		b	.L179
 1535              	.LVL136:
 1536              	.L180:
 1537              	.LBB239:
 1538              	.LBB235:
 1539              	.LBB233:
ARM GAS  /tmp/ccQW88Gz.s 			page 28


 1540              		.loc 1 564 0
 1541 0752 95ED0B0A 		flds	s0, [r5, #44]
 1542 0756 DFEDC20A 		flds	s1, .L314+4
 1543 075a 95ED091A 		flds	s2, [r5, #36]
 1544 075e 95ED0B7A 		flds	s14, [r5, #44]
 1545 0762 0190     		str	r0, [sp, #4]
 1546 0764 37EEC00A 		fsubs	s0, s15, s0
 1547 0768 31EE471A 		fsubs	s2, s2, s14
 1548 076c B0EE602A 		fcpys	s4, s1
 1549 0770 F0EE491A 		fcpys	s3, s18
 1550 0774 FFF7FEFF 		bl	utils_map
 1551              	.LVL137:
 1552              		.loc 1 565 0
 1553 0778 DBED457A 		flds	s15, [fp, #276]
 1554 077c 0198     		ldr	r0, [sp, #4]
 1555 077e B4EEE70A 		fcmpes	s0, s15
 1556 0782 F1EE10FA 		fmstat
 1557              		.loc 1 564 0
 1558 0786 B0EE40CA 		fcpys	s24, s0
 1559              	.LVL138:
 1560 078a 0168     		ldr	r1, [r0]
 1561              	.LVL139:
 1562              		.loc 1 566 0
 1563 078c 48BF     		it	mi
 1564 078e 9FEDB4CA 		fldsmi	s24, .L314+4
 1565              	.LVL140:
 1566              	.L167:
 1567              	.LBE233:
 1568              		.loc 1 581 0
 1569 0792 002F     		cmp	r7, #0
 1570 0794 7FF42DAF 		bne	.L169
 1571              	.LVL141:
 1572              	.L172:
 1573              		.loc 1 584 0
 1574 0798 C8B2     		uxtb	r0, r1
 1575 079a B0EE4C0A 		fcpys	s0, s24
 1576 079e FFF7FEFF 		bl	comm_can_set_current
 1577              	.LVL142:
 1578 07a2 2BE7     		b	.L165
 1579              	.LVL143:
 1580              	.L282:
 1581              	.LBE235:
 1582              	.LBE239:
 1583              	.LBE244:
 1584              	.LBB245:
 1585              		.loc 1 426 0
 1586 07a4 9BED029A 		flds	s18, [fp, #8]
 1587 07a8 27EE899A 		fmuls	s18, s15, s18
 1588              		.loc 1 427 0
 1589 07ac 0126     		movs	r6, #1
 1590              		.loc 1 426 0
 1591 07ae B0EEC99A 		fabss	s18, s18
 1592              	.LVL144:
 1593              		.loc 1 364 0
 1594 07b2 3746     		mov	r7, r6
 1595              	.LVL145:
 1596              	.LBE245:
ARM GAS  /tmp/ccQW88Gz.s 			page 29


 1597              		.loc 1 227 0
 1598 07b4 0023     		movs	r3, #0
 1599 07b6 E5E5     		b	.L108
 1600              	.LVL146:
 1601              	.L154:
 1602              	.LBB246:
 1603              		.loc 1 530 0
 1604 07b8 D5ED077A 		flds	s15, [r5, #28]
 1605 07bc F1EE677A 		fnegs	s15, s15
 1606 07c0 B4EEE78A 		fcmpes	s16, s15
 1607 07c4 F1EE10FA 		fmstat
 1608 07c8 05D5     		bpl	.L157
 1609              		.loc 1 530 0 is_stmt 0 discriminator 1
 1610 07ca B5EEC09A 		fcmpezs	s18
 1611 07ce F1EE10FA 		fmstat
 1612 07d2 3FF5CFAE 		bmi	.L296
 1613              	.L157:
 1614              		.loc 1 532 0 is_stmt 1
 1615 07d6 D5ED067A 		flds	s15, [r5, #24]
 1616 07da A04B     		ldr	r3, .L314
 1617 07dc F1EE677A 		fnegs	s15, s15
 1618 07e0 B4EEE78A 		fcmpes	s16, s15
 1619 07e4 F1EE10FA 		fmstat
 1620 07e8 7FF5C6AE 		bpl	.L153
 1621              		.loc 1 532 0 is_stmt 0 discriminator 1
 1622 07ec B5EEC09A 		fcmpezs	s18
 1623 07f0 F1EE10FA 		fmstat
 1624 07f4 7FF5C0AE 		bpl	.L153
 1625              	.LVL147:
 1626              		.loc 1 535 0 is_stmt 1
 1627 07f8 D3ED060A 		flds	s1, [r3, #24]
 1628 07fc 93ED071A 		flds	s2, [r3, #28]
 1629 0800 9BED452A 		flds	s4, [fp, #276]
 1630 0804 F1EE491A 		fnegs	s3, s18
 1631              	.LVL148:
 1632 0808 B1EE480A 		fnegs	s0, s16
 1633              	.LVL149:
 1634 080c FFF7FEFF 		bl	utils_map
 1635              	.LVL150:
 1636              		.loc 1 536 0
 1637 0810 B1EE409A 		fnegs	s18, s0
 1638              	.LVL151:
 1639 0814 B0E6     		b	.L153
 1640              	.L303:
 1641              	.LBE246:
 1642              		.loc 1 514 0
 1643 0816 B0EE490A 		fcpys	s0, s18
 1644 081a FFF7FEFF 		bl	mc_interface_set_brake_current
 1645              	.LVL152:
 1646              	.LBB247:
 1647              		.loc 1 517 0
 1648 081e 0026     		movs	r6, #0
 1649              	.LVL153:
 1650              	.L149:
 1651              	.LBB248:
 1652              		.loc 1 518 0
 1653 0820 3046     		mov	r0, r6
ARM GAS  /tmp/ccQW88Gz.s 			page 30


 1654 0822 FFF7FEFF 		bl	comm_can_get_status_msg_index
 1655              	.LVL154:
 1656              		.loc 1 520 0
 1657 0826 0268     		ldr	r2, [r0]
 1658 0828 002A     		cmp	r2, #0
 1659              	.LBE248:
 1660              		.loc 1 517 0
 1661 082a 06F10106 		add	r6, r6, #1
 1662              	.LVL155:
 1663              	.LBB253:
 1664              		.loc 1 520 0
 1665 082e 0EDB     		blt	.L147
 1666              	.LBB249:
 1667              	.LBB250:
 1668              		.loc 3 267 0 discriminator 1
 1669 0830 4168     		ldr	r1, [r0, #4]
 1670              	.LBB251:
 1671              	.LBB252:
 1672              		.loc 3 231 0 discriminator 1
 1673 0832 D8F82830 		ldr	r3, [r8, #40]
 1674              	.LBE252:
 1675              	.LBE251:
 1676              		.loc 3 267 0 discriminator 1
 1677 0836 5B1A     		subs	r3, r3, r1
 1678 0838 07EE903A 		fmsr	s15, r3	@ int
 1679              	.LBE250:
 1680              	.LBE249:
 1681              		.loc 1 520 0 discriminator 1
 1682 083c F8EE677A 		fuitos	s15, s15
 1683 0840 C7EE8A7A 		fdivs	s15, s15, s20
 1684 0844 F4EEE97A 		fcmpes	s15, s19
 1685 0848 F1EE10FA 		fmstat
 1686 084c 7FD4     		bmi	.L307
 1687              	.LVL156:
 1688              	.L147:
 1689              	.LBE253:
 1690              		.loc 1 517 0 discriminator 2
 1691 084e 032E     		cmp	r6, #3
 1692 0850 E6D1     		bne	.L149
 1693 0852 04E4     		b	.L47
 1694              	.LVL157:
 1695              	.L130:
 1696              	.LBE247:
 1697              	.LBB255:
 1698              		.loc 1 455 0
 1699 0854 DBED141A 		flds	s3, [fp, #80]
 1700 0858 9BED142A 		flds	s4, [fp, #80]
 1701              	.LBE255:
 1702              		.loc 1 223 0
 1703 085c 9FED809A 		flds	s18, .L314+4
 1704              	.LBB256:
 1705              		.loc 1 455 0
 1706 0860 B0EE670A 		fcpys	s0, s15
 1707 0864 F1EE611A 		fnegs	s3, s3
 1708 0868 FFEE000A 		fconsts	s1, #240
 1709 086c B7EE001A 		fconsts	s2, #112
 1710 0870 FFF7FEFF 		bl	utils_map
ARM GAS  /tmp/ccQW88Gz.s 			page 31


 1711              	.LVL158:
 1712              	.LBE256:
 1713              		.loc 1 225 0
 1714 0874 0026     		movs	r6, #0
 1715              	.LBB257:
 1716              		.loc 1 455 0
 1717 0876 FFF7FEFF 		bl	mc_interface_set_duty
 1718              	.LVL159:
 1719              	.LBE257:
 1720              		.loc 1 224 0
 1721 087a 3746     		mov	r7, r6
 1722              	.LVL160:
 1723 087c DDED037A 		flds	s15, [sp, #12]
 1724              	.LBB258:
 1725              		.loc 1 456 0
 1726 0880 0123     		movs	r3, #1
 1727 0882 87E5     		b	.L77
 1728              	.LVL161:
 1729              	.L133:
 1730              		.loc 1 467 0
 1731 0884 95ED010A 		flds	s0, [r5, #4]
 1732              	.LBE258:
 1733              		.loc 1 223 0
 1734 0888 9FED759A 		flds	s18, .L314+4
 1735              	.LBB259:
 1736              		.loc 1 467 0
 1737 088c 27EE800A 		fmuls	s0, s15, s0
 1738              	.LBE259:
 1739              		.loc 1 225 0
 1740 0890 0026     		movs	r6, #0
 1741              	.LBB260:
 1742              		.loc 1 467 0
 1743 0892 FFF7FEFF 		bl	mc_interface_set_pid_speed
 1744              	.LVL162:
 1745              	.LBE260:
 1746              		.loc 1 224 0
 1747 0896 3746     		mov	r7, r6
 1748              	.LVL163:
 1749 0898 DDED037A 		flds	s15, [sp, #12]
 1750              	.LBB261:
 1751              		.loc 1 468 0
 1752 089c 0123     		movs	r3, #1
 1753 089e 79E5     		b	.L77
 1754              	.LVL164:
 1755              	.L71:
 1756              		.loc 1 278 0
 1757 08a0 B0EEE77A 		fabss	s14, s15
 1758              		.loc 1 272 0
 1759 08a4 9BED019A 		flds	s18, [fp, #4]
 1760              		.loc 1 278 0
 1761 08a8 B4EEEA7A 		fcmpes	s14, s21
 1762 08ac F1EE10FA 		fmstat
 1763              	.LBE261:
 1764              		.loc 1 227 0
 1765 08b0 4FF00003 		mov	r3, #0
 1766              	.LBB262:
 1767              		.loc 1 272 0
ARM GAS  /tmp/ccQW88Gz.s 			page 32


 1768 08b4 27EE899A 		fmuls	s18, s15, s18
 1769              	.LVL165:
 1770              		.loc 1 255 0
 1771 08b8 4FF00107 		mov	r7, #1
 1772              	.LVL166:
 1773              		.loc 1 278 0
 1774 08bc 3FF5E9AD 		bmi	.L308
 1775              	.L278:
 1776              	.LBE262:
 1777              		.loc 1 225 0
 1778 08c0 0026     		movs	r6, #0
 1779 08c2 67E5     		b	.L77
 1780              	.LVL167:
 1781              	.L90:
 1782              	.LBB263:
 1783              	.LBB190:
 1784              		.loc 1 336 0
 1785 08c4 95F83020 		ldrb	r2, [r5, #48]	@ zero_extendqisi2
 1786 08c8 644B     		ldr	r3, .L314
 1787 08ca 002A     		cmp	r2, #0
 1788 08cc 60D0     		beq	.L97
 1789              		.loc 1 337 0
 1790 08ce 93ED0D9A 		flds	s18, [r3, #52]
 1791 08d2 FFF7FEFF 		bl	mc_interface_get_motor_voltage
 1792              	.LVL168:
 1793 08d6 89EE000A 		fdivs	s0, s18, s0
 1794 08da DDED037A 		flds	s15, [sp, #12]
 1795 08de 20EE279A 		fmuls	s18, s0, s15
 1796              	.LVL169:
 1797              	.L98:
 1798              		.loc 1 342 0
 1799 08e2 DBED016A 		flds	s13, [fp, #4]
 1800 08e6 95ED0E7A 		flds	s14, [r5, #56]
 1801              		.loc 1 348 0
 1802 08ea 9BED016A 		flds	s12, [fp, #4]
 1803              		.loc 1 342 0
 1804 08ee 66EEA76A 		fmuls	s13, s13, s15
 1805              	.LBE190:
 1806              	.LBE263:
 1807              		.loc 1 227 0
 1808 08f2 0023     		movs	r3, #0
 1809              	.LBB264:
 1810              	.LBB191:
 1811              		.loc 1 342 0
 1812 08f4 26EE877A 		fmuls	s14, s13, s14
 1813              	.LVL170:
 1814              	.LBE191:
 1815              	.LBE264:
 1816              		.loc 1 225 0
 1817 08f8 1E46     		mov	r6, r3
 1818              	.LBB265:
 1819              	.LBB192:
 1820              		.loc 1 345 0
 1821 08fa B4EE479A 		fcmps	s18, s14
 1822 08fe F1EE10FA 		fmstat
 1823 0902 C8BF     		it	gt
 1824 0904 B0EE479A 		fcpysgt	s18, s14
ARM GAS  /tmp/ccQW88Gz.s 			page 33


 1825              	.LVL171:
 1826              		.loc 1 348 0
 1827 0908 B4EEC69A 		fcmpes	s18, s12
 1828 090c F1EE10FA 		fmstat
 1829 0910 7FF7C6AC 		ble	.L299
 1830              		.loc 1 349 0
 1831 0914 9BED019A 		flds	s18, [fp, #4]
 1832              	.LVL172:
 1833              	.LBE192:
 1834              		.loc 1 314 0
 1835 0918 0127     		movs	r7, #1
 1836              	.LVL173:
 1837 091a 33E5     		b	.L108
 1838              	.LVL174:
 1839              	.L81:
 1840              		.loc 1 302 0
 1841 091c 9BED019A 		flds	s18, [fp, #4]
 1842              	.LBE265:
 1843              		.loc 1 227 0
 1844 0920 0023     		movs	r3, #0
 1845              	.LBB266:
 1846              		.loc 1 302 0
 1847 0922 27EE899A 		fmuls	s18, s15, s18
 1848              	.LVL175:
 1849              	.LBE266:
 1850              		.loc 1 225 0
 1851 0926 1E46     		mov	r6, r3
 1852              	.LBB267:
 1853              		.loc 1 284 0
 1854 0928 0127     		movs	r7, #1
 1855              	.LVL176:
 1856 092a 2BE5     		b	.L108
 1857              	.LVL177:
 1858              	.L184:
 1859              		.loc 1 372 0
 1860 092c 9FED4C7A 		flds	s14, .L314+4
 1861 0930 62E4     		b	.L104
 1862              	.LVL178:
 1863              	.L276:
 1864              	.LBE267:
 1865              		.loc 1 216 0
 1866 0932 92ED0E0A 		flds	s0, [r2, #56]
 1867 0936 4B48     		ldr	r0, .L314+8
 1868 0938 4B49     		ldr	r1, .L314+12
 1869 093a F1EE600A 		fnegs	s1, s1
 1870 093e FFF7FEFF 		bl	calculate_throttle_curve_ppm
 1871              	.LVL179:
 1872 0942 B1EE400A 		fnegs	s0, s0
 1873 0946 8DED030A 		fsts	s0, [sp, #12]
 1874 094a FFF7CBBB 		b	.L52
 1875              	.LVL180:
 1876              	.L307:
 1877              	.LBB268:
 1878              	.LBB254:
 1879              		.loc 1 521 0
 1880 094e D0B2     		uxtb	r0, r2
 1881              	.LVL181:
ARM GAS  /tmp/ccQW88Gz.s 			page 34


 1882 0950 B0EE490A 		fcpys	s0, s18
 1883 0954 FFF7FEFF 		bl	comm_can_set_current_brake
 1884              	.LVL182:
 1885 0958 79E7     		b	.L147
 1886              	.LVL183:
 1887              	.L306:
 1888              	.LBE254:
 1889              	.LBE268:
 1890              	.LBB269:
 1891              	.LBB186:
 1892              	.LBB183:
 1893              		.loc 1 504 0
 1894 095a C8B2     		uxtb	r0, r1
 1895              	.LVL184:
 1896 095c B0EE4C0A 		fcpys	s0, s24
 1897 0960 FFF7FEFF 		bl	comm_can_set_duty
 1898              	.LVL185:
 1899 0964 82E6     		b	.L142
 1900              	.LVL186:
 1901              	.L192:
 1902              	.LBE183:
 1903              	.LBE186:
 1904              	.LBE269:
 1905              	.LBB270:
 1906              	.LBB240:
 1907 0966 B0EE4C9A 		fcpys	s18, s24
 1908              	.LVL187:
 1909 096a 59E6     		b	.L174
 1910              	.LVL188:
 1911              	.L286:
 1912              	.LBE240:
 1913              	.LBE270:
 1914              		.loc 1 227 0
 1915 096c 0023     		movs	r3, #0
 1916              		.loc 1 225 0
 1917 096e 1E46     		mov	r6, r3
 1918              	.LBB271:
 1919              		.loc 1 364 0
 1920 0970 0127     		movs	r7, #1
 1921              	.LVL189:
 1922              		.loc 1 420 0
 1923 0972 9FED3B9A 		flds	s18, .L314+4
 1924 0976 05E5     		b	.L108
 1925              	.LVL190:
 1926              	.L284:
 1927              		.loc 1 397 0
 1928 0978 8AED00BA 		fsts	s22, [r10]
 1929 097c 78E4     		b	.L115
 1930              	.LVL191:
 1931              	.L277:
 1932              		.loc 1 275 0
 1933 097e 9BED029A 		flds	s18, [fp, #8]
 1934 0982 B0EEC99A 		fabss	s18, s18
 1935 0986 27EE899A 		fmuls	s18, s15, s18
 1936              	.LVL192:
 1937              	.LBE271:
 1938              		.loc 1 227 0
ARM GAS  /tmp/ccQW88Gz.s 			page 35


 1939 098a 0023     		movs	r3, #0
 1940              	.LBB272:
 1941              		.loc 1 255 0
 1942 098c 0127     		movs	r7, #1
 1943              	.LVL193:
 1944 098e 78E5     		b	.L76
 1945              	.LVL194:
 1946              	.L97:
 1947              	.LBB193:
 1948              		.loc 1 339 0
 1949 0990 FFF7FEFF 		bl	mc_interface_get_max_current_at_current_motor_voltage
 1950              	.LVL195:
 1951 0994 DDED037A 		flds	s15, [sp, #12]
 1952 0998 20EE279A 		fmuls	s18, s0, s15
 1953              	.LVL196:
 1954 099c A1E7     		b	.L98
 1955              	.LVL197:
 1956              	.L91:
 1957              	.LBE193:
 1958              	.LBE272:
 1959              		.loc 1 227 0
 1960 099e 0023     		movs	r3, #0
 1961              	.LBB273:
 1962              		.loc 1 332 0
 1963 09a0 8AED00BA 		fsts	s22, [r10]
 1964              	.LBE273:
 1965              		.loc 1 225 0
 1966 09a4 1E46     		mov	r6, r3
 1967              	.LBB274:
 1968              		.loc 1 314 0
 1969 09a6 0127     		movs	r7, #1
 1970              	.LVL198:
 1971              		.loc 1 333 0
 1972 09a8 9FED2D9A 		flds	s18, .L314+4
 1973 09ac EAE4     		b	.L108
 1974              	.LVL199:
 1975              	.L168:
 1976              	.LBE274:
 1977              	.LBB275:
 1978              	.LBB241:
 1979              	.LBB236:
 1980              	.LBB234:
 1981              		.loc 1 562 0
 1982 09ae 77EEC87A 		fsubs	s15, s15, s16
 1983              	.LVL200:
 1984              		.loc 1 563 0
 1985 09b2 93ED0B7A 		flds	s14, [r3, #44]
 1986 09b6 B4EEE77A 		fcmpes	s14, s15
 1987 09ba F1EE10FA 		fmstat
 1988 09be 3FF5C8AE 		bmi	.L180
 1989 09c2 B0EE49CA 		fcpys	s24, s18
 1990              	.LVL201:
 1991 09c6 E7E6     		b	.L172
 1992              	.LVL202:
 1993              	.L288:
 1994              	.LBE234:
 1995              	.LBE236:
ARM GAS  /tmp/ccQW88Gz.s 			page 36


 1996              	.LBE241:
 1997              	.LBE275:
 1998              	.LBB276:
 1999              		.loc 1 439 0
 2000 09c8 0020     		movs	r0, #0
 2001 09ca FFF7FEFF 		bl	mc_interface_set_cruise_control_status
 2002              	.LVL203:
 2003 09ce FFF7E8BB 		b	.L127
 2004              	.LVL204:
 2005              	.L72:
 2006              		.loc 1 268 0
 2007 09d2 8AED00BA 		fsts	s22, [r10]
 2008              	.LBE276:
 2009              		.loc 1 227 0
 2010 09d6 0023     		movs	r3, #0
 2011              	.LBB277:
 2012              		.loc 1 255 0
 2013 09d8 0127     		movs	r7, #1
 2014              	.LVL205:
 2015              		.loc 1 269 0
 2016 09da 9FED219A 		flds	s18, .L314+4
 2017 09de 50E5     		b	.L76
 2018              	.LVL206:
 2019              	.L301:
 2020              		.loc 1 404 0
 2021 09e0 93ED000A 		flds	s0, [r3]
 2022 09e4 D6ED0D0A 		flds	s1, [r6, #52]
 2023 09e8 FFF7FEFF 		bl	mc_interface_set_pid_speed_and_watt
 2024              	.LVL207:
 2025              		.loc 1 407 0
 2026 09ec 96F82030 		ldrb	r3, [r6, #32]	@ zero_extendqisi2
 2027 09f0 03F0FF06 		and	r6, r3, #255
 2028 09f4 D3B1     		cbz	r3, .L293
 2029 09f6 0026     		movs	r6, #0
 2030              	.L120:
 2031              	.LVL208:
 2032              	.LBB194:
 2033              	.LBB195:
 2034              		.loc 1 411 0
 2035 09f8 3046     		mov	r0, r6
 2036 09fa FFF7FEFF 		bl	comm_can_get_status_msg_index
 2037              	.LVL209:
 2038              		.loc 1 413 0
 2039 09fe 0268     		ldr	r2, [r0]
 2040 0a00 002A     		cmp	r2, #0
 2041              	.LBE195:
 2042              		.loc 1 410 0
 2043 0a02 06F10106 		add	r6, r6, #1
 2044              	.LVL210:
 2045              	.LBB200:
 2046              		.loc 1 413 0
 2047 0a06 0EDB     		blt	.L121
 2048              	.LBB196:
 2049              	.LBB197:
 2050              		.loc 3 267 0 discriminator 1
 2051 0a08 4168     		ldr	r1, [r0, #4]
 2052              	.LBB198:
ARM GAS  /tmp/ccQW88Gz.s 			page 37


 2053              	.LBB199:
 2054              		.loc 3 231 0 discriminator 1
 2055 0a0a D8F82830 		ldr	r3, [r8, #40]
 2056              	.LBE199:
 2057              	.LBE198:
 2058              		.loc 3 267 0 discriminator 1
 2059 0a0e 5B1A     		subs	r3, r3, r1
 2060 0a10 07EE903A 		fmsr	s15, r3	@ int
 2061              	.LBE197:
 2062              	.LBE196:
 2063              		.loc 1 413 0 discriminator 1
 2064 0a14 F8EE677A 		fuitos	s15, s15
 2065 0a18 C7EE8A7A 		fdivs	s15, s15, s20
 2066 0a1c F4EEE97A 		fcmpes	s15, s19
 2067 0a20 F1EE10FA 		fmstat
 2068 0a24 12D4     		bmi	.L309
 2069              	.LVL211:
 2070              	.L121:
 2071              	.LBE200:
 2072              		.loc 1 410 0 discriminator 2
 2073 0a26 032E     		cmp	r6, #3
 2074 0a28 E6D1     		bne	.L120
 2075              	.LBE194:
 2076              	.LBE277:
 2077              		.loc 1 225 0
 2078 0a2a 0026     		movs	r6, #0
 2079              	.LVL212:
 2080              	.L293:
 2081              	.LBB278:
 2082              		.loc 1 402 0
 2083 0a2c 3746     		mov	r7, r6
 2084              	.LVL213:
 2085 0a2e DDED037A 		flds	s15, [sp, #12]
 2086              	.LBE278:
 2087              		.loc 1 223 0
 2088 0a32 9FED0B9A 		flds	s18, .L314+4
 2089              	.LBB279:
 2090              		.loc 1 403 0
 2091 0a36 0123     		movs	r3, #1
 2092 0a38 A4E4     		b	.L108
 2093              	.LVL214:
 2094              	.L95:
 2095              		.loc 1 329 0
 2096 0a3a FFF7FEFF 		bl	mc_interface_set_pid_speed
 2097              	.LVL215:
 2098              	.LBE279:
 2099              		.loc 1 223 0
 2100 0a3e 9FED089A 		flds	s18, .L314+4
 2101 0a42 DDED037A 		flds	s15, [sp, #12]
 2102              	.LBB280:
 2103              		.loc 1 324 0
 2104 0a46 3746     		mov	r7, r6
 2105              	.LVL216:
 2106              		.loc 1 325 0
 2107 0a48 0123     		movs	r3, #1
 2108 0a4a 9BE4     		b	.L108
 2109              	.LVL217:
ARM GAS  /tmp/ccQW88Gz.s 			page 38


 2110              	.L309:
 2111              	.LBB202:
 2112              	.LBB201:
 2113              		.loc 1 415 0
 2114 0a4c 9AED000A 		flds	s0, [r10]
 2115 0a50 D5ED0D0A 		flds	s1, [r5, #52]
 2116 0a54 D0B2     		uxtb	r0, r2
 2117              	.LVL218:
 2118 0a56 FFF7FEFF 		bl	comm_can_set_rpm_and_watt
 2119              	.LVL219:
 2120 0a5a E4E7     		b	.L121
 2121              	.L315:
 2122              		.align	2
 2123              	.L314:
 2124 0a5c 00000000 		.word	.LANCHOR2
 2125 0a60 00000000 		.word	0
 2126 0a64 00000000 		.word	.LANCHOR8
 2127 0a68 00000000 		.word	.LANCHOR9
 2128              	.LBE201:
 2129              	.LBE202:
 2130              	.LBE280:
 2131              	.LBE281:
 2132              		.cfi_endproc
 2133              	.LFE261:
 2134              		.size	ppm_thread, .-ppm_thread
 2135              		.section	.text.app_ppm_configure,"ax",%progbits
 2136              		.align	2
 2137              		.p2align 4,,15
 2138              		.global	app_ppm_configure
 2139              		.thumb
 2140              		.thumb_func
 2141              		.type	app_ppm_configure, %function
 2142              	app_ppm_configure:
 2143              	.LFB257:
 2144              		.loc 1 111 0
 2145              		.cfi_startproc
 2146              		@ args = 0, pretend = 0, frame = 0
 2147              		@ frame_needed = 0, uses_anonymous_args = 0
 2148              	.LVL220:
 2149 0000 2DE9F84F 		push	{r3, r4, r5, r6, r7, r8, r9, r10, fp, lr}
 2150              		.cfi_def_cfa_offset 40
 2151              		.cfi_offset 3, -40
 2152              		.cfi_offset 4, -36
 2153              		.cfi_offset 5, -32
 2154              		.cfi_offset 6, -28
 2155              		.cfi_offset 7, -24
 2156              		.cfi_offset 8, -20
 2157              		.cfi_offset 9, -16
 2158              		.cfi_offset 10, -12
 2159              		.cfi_offset 11, -8
 2160              		.cfi_offset 14, -4
 2161              		.loc 1 113 0
 2162 0004 0646     		mov	r6, r0
 2163              		.loc 1 111 0
 2164 0006 0C46     		mov	r4, r1
 2165              		.loc 1 113 0
 2166 0008 0FCE     		ldmia	r6!, {r0, r1, r2, r3}
ARM GAS  /tmp/ccQW88Gz.s 			page 39


 2167              	.LVL221:
 2168 000a DFF8F880 		ldr	r8, .L322+24
 2169              		.loc 1 114 0
 2170 000e 374F     		ldr	r7, .L322
 2171              		.loc 1 117 0
 2172 0010 DFF8F4C0 		ldr	ip, .L322+28
 2173              		.loc 1 118 0
 2174 0014 DFF8F4E0 		ldr	lr, .L322+32
 2175              		.loc 1 115 0
 2176 0018 DFF8F490 		ldr	r9, .L322+36
 2177              		.loc 1 113 0
 2178 001c 4546     		mov	r5, r8
 2179 001e 0FC5     		stmia	r5!, {r0, r1, r2, r3}
 2180 0020 0FCE     		ldmia	r6!, {r0, r1, r2, r3}
 2181              	.LVL222:
 2182 0022 0FC5     		stmia	r5!, {r0, r1, r2, r3}
 2183 0024 0FCE     		ldmia	r6!, {r0, r1, r2, r3}
 2184              	.LVL223:
 2185 0026 0FC5     		stmia	r5!, {r0, r1, r2, r3}
 2186 0028 96E80700 		ldmia	r6, {r0, r1, r2}
 2187 002c 85E80700 		stmia	r5, {r0, r1, r2}
 2188              		.loc 1 114 0
 2189 0030 0FCC     		ldmia	r4!, {r0, r1, r2, r3}
 2190              	.LVL224:
 2191 0032 3D46     		mov	r5, r7
 2192 0034 0FC5     		stmia	r5!, {r0, r1, r2, r3}
 2193 0036 0FCC     		ldmia	r4!, {r0, r1, r2, r3}
 2194              	.LVL225:
 2195 0038 0FC5     		stmia	r5!, {r0, r1, r2, r3}
 2196 003a 0FCC     		ldmia	r4!, {r0, r1, r2, r3}
 2197              	.LVL226:
 2198 003c 0FC5     		stmia	r5!, {r0, r1, r2, r3}
 2199 003e 94E80700 		ldmia	r4, {r0, r1, r2}
 2200              		.loc 1 115 0
 2201 0042 0023     		movs	r3, #0
 2202              		.loc 1 114 0
 2203 0044 85E80700 		stmia	r5, {r0, r1, r2}
 2204              		.loc 1 119 0
 2205 0048 1846     		mov	r0, r3
 2206              		.loc 1 115 0
 2207 004a C9F80030 		str	r3, [r9]
 2208              		.loc 1 117 0
 2209 004e 8CF80030 		strb	r3, [ip]
 2210              		.loc 1 118 0
 2211 0052 CEF80030 		str	r3, [lr]
 2212              		.loc 1 119 0
 2213 0056 FFF7FEFF 		bl	mc_interface_set_cruise_control_status
 2214              	.LVL227:
 2215              		.loc 1 121 0
 2216 005a 254B     		ldr	r3, .L322+4
 2217 005c 1B78     		ldrb	r3, [r3]	@ zero_extendqisi2
 2218 005e 4BB1     		cbz	r3, .L317
 2219              		.loc 1 122 0
 2220 0060 98ED030A 		flds	s0, [r8, #12]
 2221 0064 D8ED0A0A 		flds	s1, [r8, #40]
 2222 0068 98ED041A 		flds	s2, [r8, #16]
 2223 006c 98F81400 		ldrb	r0, [r8, #20]	@ zero_extendqisi2
ARM GAS  /tmp/ccQW88Gz.s 			page 40


 2224 0070 FFF7FEFF 		bl	servodec_set_pulse_options
 2225              	.LVL228:
 2226              	.L317:
 2227              		.loc 1 125 0
 2228 0074 1F48     		ldr	r0, .L322+8
 2229              		.loc 1 130 0
 2230 0076 2049     		ldr	r1, .L322+12
 2231              		.loc 1 126 0
 2232 0078 D7F810C0 		ldr	ip, [r7, #16]	@ float
 2233              		.loc 1 136 0
 2234 007c 1F4A     		ldr	r2, .L322+16
 2235              		.loc 1 127 0
 2236 007e D7F814E0 		ldr	lr, [r7, #20]	@ float
 2237              		.loc 1 141 0
 2238 0082 1F4B     		ldr	r3, .L322+20
 2239              		.loc 1 128 0
 2240 0084 BE69     		ldr	r6, [r7, #24]	@ float
 2241              	.LVL229:
 2242              		.loc 1 131 0
 2243 0086 7C68     		ldr	r4, [r7, #4]	@ float
 2244              	.LVL230:
 2245              		.loc 1 132 0
 2246 0088 D7ED027A 		flds	s15, [r7, #8]
 2247              		.loc 1 126 0
 2248 008c C0F804C0 		str	ip, [r0, #4]	@ float
 2249              		.loc 1 133 0
 2250 0090 D7F80CB0 		ldr	fp, [r7, #12]	@ float
 2251              		.loc 1 127 0
 2252 0094 C0F808E0 		str	lr, [r0, #8]	@ float
 2253              		.loc 1 137 0
 2254 0098 D7F82CA0 		ldr	r10, [r7, #44]	@ float
 2255              		.loc 1 128 0
 2256 009c C660     		str	r6, [r0, #12]	@ float
 2257              		.loc 1 138 0
 2258 009e D7F83090 		ldr	r9, [r7, #48]	@ float
 2259              		.loc 1 131 0
 2260 00a2 4C60     		str	r4, [r1, #4]	@ float
 2261              		.loc 1 125 0
 2262 00a4 0025     		movs	r5, #0
 2263              		.loc 1 139 0
 2264 00a6 D7F83480 		ldr	r8, [r7, #52]	@ float
 2265              		.loc 1 142 0
 2266 00aa D7F820C0 		ldr	ip, [r7, #32]	@ float
 2267              		.loc 1 143 0
 2268 00ae D7F824E0 		ldr	lr, [r7, #36]	@ float
 2269              		.loc 1 144 0
 2270 00b2 BE6A     		ldr	r6, [r7, #40]	@ float
 2271              		.loc 1 132 0
 2272 00b4 C1ED027A 		fsts	s15, [r1, #8]
 2273              		.loc 1 129 0
 2274 00b8 4FF07E54 		mov	r4, #1065353216
 2275              		.loc 1 133 0
 2276 00bc C1F80CB0 		str	fp, [r1, #12]	@ float
 2277              		.loc 1 137 0
 2278 00c0 C2F804A0 		str	r10, [r2, #4]	@ float
 2279              		.loc 1 138 0
 2280 00c4 C2F80890 		str	r9, [r2, #8]	@ float
ARM GAS  /tmp/ccQW88Gz.s 			page 41


 2281              		.loc 1 139 0
 2282 00c8 C2F80C80 		str	r8, [r2, #12]	@ float
 2283              		.loc 1 142 0
 2284 00cc C3F804C0 		str	ip, [r3, #4]	@ float
 2285              		.loc 1 143 0
 2286 00d0 C3F808E0 		str	lr, [r3, #8]	@ float
 2287              		.loc 1 144 0
 2288 00d4 DE60     		str	r6, [r3, #12]	@ float
 2289              		.loc 1 125 0
 2290 00d6 0560     		str	r5, [r0]	@ float
 2291              		.loc 1 130 0
 2292 00d8 0D60     		str	r5, [r1]	@ float
 2293              		.loc 1 136 0
 2294 00da 1560     		str	r5, [r2]	@ float
 2295              		.loc 1 141 0
 2296 00dc 1D60     		str	r5, [r3]	@ float
 2297              		.loc 1 129 0
 2298 00de 0461     		str	r4, [r0, #16]	@ float
 2299              		.loc 1 134 0
 2300 00e0 0C61     		str	r4, [r1, #16]	@ float
 2301              		.loc 1 140 0
 2302 00e2 1461     		str	r4, [r2, #16]	@ float
 2303              		.loc 1 145 0
 2304 00e4 1C61     		str	r4, [r3, #16]	@ float
 2305 00e6 BDE8F88F 		pop	{r3, r4, r5, r6, r7, r8, r9, r10, fp, pc}
 2306              	.L323:
 2307 00ea 00BF     		.align	2
 2308              	.L322:
 2309 00ec 00000000 		.word	.LANCHOR5
 2310 00f0 00000000 		.word	.LANCHOR3
 2311 00f4 00000000 		.word	.LANCHOR6
 2312 00f8 00000000 		.word	.LANCHOR7
 2313 00fc 00000000 		.word	.LANCHOR8
 2314 0100 00000000 		.word	.LANCHOR9
 2315 0104 00000000 		.word	.LANCHOR2
 2316 0108 00000000 		.word	.LANCHOR13
 2317 010c 00000000 		.word	.LANCHOR11
 2318 0110 00000000 		.word	.LANCHOR4
 2319              		.cfi_endproc
 2320              	.LFE257:
 2321              		.size	app_ppm_configure, .-app_ppm_configure
 2322              		.section	.text.app_ppm_start,"ax",%progbits
 2323              		.align	2
 2324              		.p2align 4,,15
 2325              		.global	app_ppm_start
 2326              		.thumb
 2327              		.thumb_func
 2328              		.type	app_ppm_start, %function
 2329              	app_ppm_start:
 2330              	.LFB258:
 2331              		.loc 1 152 0
 2332              		.cfi_startproc
 2333              		@ args = 0, pretend = 0, frame = 0
 2334              		@ frame_needed = 0, uses_anonymous_args = 0
 2335 0000 00B5     		push	{lr}
 2336              		.cfi_def_cfa_offset 4
 2337              		.cfi_offset 14, -4
ARM GAS  /tmp/ccQW88Gz.s 			page 42


 2338 0002 83B0     		sub	sp, sp, #12
 2339              		.cfi_def_cfa_offset 16
 2340              		.loc 1 154 0
 2341 0004 0023     		movs	r3, #0
 2342 0006 0093     		str	r3, [sp]
 2343 0008 4FF4B361 		mov	r1, #1432
 2344 000c 0C4B     		ldr	r3, .L330
 2345 000e 0D48     		ldr	r0, .L330+4
 2346 0010 4022     		movs	r2, #64
 2347 0012 FFF7FEFF 		bl	chThdCreateStatic
 2348              	.LVL231:
 2349              	.LBB295:
 2350              	.LBB296:
 2351              	.LBB297:
 2352              	.LBB298:
 2353              		.loc 2 546 0
 2354 0016 2023     		movs	r3, #32
 2355              	@ 546 "ChibiOS_3.0.2/os/ext/CMSIS/include/core_cmFunc.h" 1
 2356 0018 83F31188 		MSR basepri, r3
 2357              	@ 0 "" 2
 2358              	.LVL232:
 2359              		.thumb
 2360 001c 0A48     		ldr	r0, .L330+8
 2361              	.LBE298:
 2362              	.LBE297:
 2363              	.LBE296:
 2364              	.LBE295:
 2365              	.LBB299:
 2366              	.LBB300:
 2367              	.LBB301:
 2368              	.LBB302:
 2369              		.loc 3 376 0
 2370 001e C368     		ldr	r3, [r0, #12]
 2371 0020 0BB1     		cbz	r3, .L325
 2372              		.loc 3 377 0
 2373 0022 FFF7FEFF 		bl	chVTDoResetI
 2374              	.LVL233:
 2375              	.L325:
 2376              	.LBE302:
 2377              	.LBE301:
 2378              		.loc 3 424 0
 2379 0026 0848     		ldr	r0, .L330+8
 2380 0028 084A     		ldr	r2, .L330+12
 2381 002a 0A21     		movs	r1, #10
 2382 002c 0023     		movs	r3, #0
 2383 002e FFF7FEFF 		bl	chVTDoSetI
 2384              	.LVL234:
 2385              	.LBE300:
 2386              	.LBE299:
 2387              	.LBB303:
 2388              	.LBB304:
 2389              	.LBB305:
 2390              	.LBB306:
 2391              	.LBB307:
 2392              		.loc 2 546 0
 2393 0032 0023     		movs	r3, #0
 2394              	@ 546 "ChibiOS_3.0.2/os/ext/CMSIS/include/core_cmFunc.h" 1
ARM GAS  /tmp/ccQW88Gz.s 			page 43


 2395 0034 83F31188 		MSR basepri, r3
 2396              	@ 0 "" 2
 2397              		.thumb
 2398              	.LBE307:
 2399              	.LBE306:
 2400              	.LBE305:
 2401              	.LBE304:
 2402              	.LBE303:
 2403              		.loc 1 160 0
 2404 0038 03B0     		add	sp, sp, #12
 2405              		.cfi_def_cfa_offset 4
 2406              		@ sp needed
 2407 003a 5DF804FB 		ldr	pc, [sp], #4
 2408              	.L331:
 2409 003e 00BF     		.align	2
 2410              	.L330:
 2411 0040 00000000 		.word	ppm_thread
 2412 0044 00000000 		.word	.LANCHOR16
 2413 0048 00000000 		.word	.LANCHOR1
 2414 004c 00000000 		.word	update
 2415              		.cfi_endproc
 2416              	.LFE258:
 2417              		.size	app_ppm_start, .-app_ppm_start
 2418              		.global	vt
 2419              		.section	.bss.is_running,"aw",%nobits
 2420              		.set	.LANCHOR3,. + 0
 2421              		.type	is_running, %object
 2422              		.size	is_running, 1
 2423              	is_running:
 2424 0000 00       		.space	1
 2425              		.section	.bss.throt_config,"aw",%nobits
 2426              		.align	2
 2427              		.set	.LANCHOR5,. + 0
 2428              		.type	throt_config, %object
 2429              		.size	throt_config, 60
 2430              	throt_config:
 2431 0000 00000000 		.space	60
 2431      00000000 
 2431      00000000 
 2431      00000000 
 2431      00000000 
 2432              		.section	.bss.mode_switch_pulses,"aw",%nobits
 2433              		.align	2
 2434              		.set	.LANCHOR14,. + 0
 2435              		.type	mode_switch_pulses, %object
 2436              		.size	mode_switch_pulses, 4
 2437              	mode_switch_pulses:
 2438 0000 00000000 		.space	4
 2439              		.section	.bss.nx,"aw",%nobits
 2440              		.align	2
 2441              		.set	.LANCHOR8,. + 0
 2442              		.type	nx, %object
 2443              		.size	nx, 20
 2444              	nx:
 2445 0000 00000000 		.space	20
 2445      00000000 
 2445      00000000 
ARM GAS  /tmp/ccQW88Gz.s 			page 44


 2445      00000000 
 2445      00000000 
 2446              		.section	.bss.ppm_tp,"aw",%nobits
 2447              		.align	2
 2448              		.set	.LANCHOR0,. + 0
 2449              		.type	ppm_tp, %object
 2450              		.size	ppm_tp, 4
 2451              	ppm_tp:
 2452 0000 00000000 		.space	4
 2453              		.section	.bss.pid_rpm,"aw",%nobits
 2454              		.align	2
 2455              		.set	.LANCHOR10,. + 0
 2456              		.type	pid_rpm, %object
 2457              		.size	pid_rpm, 4
 2458              	pid_rpm:
 2459 0000 00000000 		.space	4
 2460              		.section	.bss.pulses_without_power_before.10133,"aw",%nobits
 2461              		.align	2
 2462              		.set	.LANCHOR15,. + 0
 2463              		.type	pulses_without_power_before.10133, %object
 2464              		.size	pulses_without_power_before.10133, 4
 2465              	pulses_without_power_before.10133:
 2466 0000 00000000 		.space	4
 2467              		.section	.bss.filter_buffer,"aw",%nobits
 2468              		.align	2
 2469              		.set	.LANCHOR12,. + 0
 2470              		.type	filter_buffer, %object
 2471              		.size	filter_buffer, 32
 2472              	filter_buffer:
 2473 0000 00000000 		.space	32
 2473      00000000 
 2473      00000000 
 2473      00000000 
 2473      00000000 
 2474              		.section	.bss.pulses_without_power,"aw",%nobits
 2475              		.align	2
 2476              		.set	.LANCHOR4,. + 0
 2477              		.type	pulses_without_power, %object
 2478              		.size	pulses_without_power, 4
 2479              	pulses_without_power:
 2480 0000 00000000 		.space	4
 2481              		.section	.rodata.str1.4,"aMS",%progbits,1
 2482              		.align	2
 2483              	.LC0:
 2484 0000 4150505F 		.ascii	"APP_PPM\000"
 2484      50504D00 
 2485              		.section	.bss.ny,"aw",%nobits
 2486              		.align	2
 2487              		.set	.LANCHOR9,. + 0
 2488              		.type	ny, %object
 2489              		.size	ny, 20
 2490              	ny:
 2491 0000 00000000 		.space	20
 2491      00000000 
 2491      00000000 
 2491      00000000 
 2491      00000000 
ARM GAS  /tmp/ccQW88Gz.s 			page 45


 2492              		.section	.bss.has_enough_pid_filter_data,"aw",%nobits
 2493              		.set	.LANCHOR13,. + 0
 2494              		.type	has_enough_pid_filter_data, %object
 2495              		.size	has_enough_pid_filter_data, 1
 2496              	has_enough_pid_filter_data:
 2497 0000 00       		.space	1
 2498              		.section	.bss.vt,"aw",%nobits
 2499              		.align	2
 2500              		.set	.LANCHOR1,. + 0
 2501              		.type	vt, %object
 2502              		.size	vt, 20
 2503              	vt:
 2504 0000 00000000 		.space	20
 2504      00000000 
 2504      00000000 
 2504      00000000 
 2504      00000000 
 2505              		.section	.bss.config,"aw",%nobits
 2506              		.align	2
 2507              		.set	.LANCHOR2,. + 0
 2508              		.type	config, %object
 2509              		.size	config, 60
 2510              	config:
 2511 0000 00000000 		.space	60
 2511      00000000 
 2511      00000000 
 2511      00000000 
 2511      00000000 
 2512              		.section	.bss.ppm_thread_wa,"aw",%nobits
 2513              		.align	3
 2514              		.set	.LANCHOR16,. + 0
 2515              		.type	ppm_thread_wa, %object
 2516              		.size	ppm_thread_wa, 1432
 2517              	ppm_thread_wa:
 2518 0000 00000000 		.space	1432
 2518      00000000 
 2518      00000000 
 2518      00000000 
 2518      00000000 
 2519              		.section	.bss.filter_ptr,"aw",%nobits
 2520              		.align	2
 2521              		.set	.LANCHOR11,. + 0
 2522              		.type	filter_ptr, %object
 2523              		.size	filter_ptr, 4
 2524              	filter_ptr:
 2525 0000 00000000 		.space	4
 2526              		.section	.bss.px,"aw",%nobits
 2527              		.align	2
 2528              		.set	.LANCHOR6,. + 0
 2529              		.type	px, %object
 2530              		.size	px, 20
 2531              	px:
 2532 0000 00000000 		.space	20
 2532      00000000 
 2532      00000000 
 2532      00000000 
 2532      00000000 
ARM GAS  /tmp/ccQW88Gz.s 			page 46


 2533              		.section	.bss.py,"aw",%nobits
 2534              		.align	2
 2535              		.set	.LANCHOR7,. + 0
 2536              		.type	py, %object
 2537              		.size	py, 20
 2538              	py:
 2539 0000 00000000 		.space	20
 2539      00000000 
 2539      00000000 
 2539      00000000 
 2539      00000000 
 2540              		.text
 2541              	.Letext0:
 2542              		.file 5 "/usr/arm-none-eabi/include/machine/_default_types.h"
 2543              		.file 6 "/usr/arm-none-eabi/include/sys/_stdint.h"
 2544              		.file 7 "/usr/lib/gcc/arm-none-eabi/4.9.3/include/stddef.h"
 2545              		.file 8 "ChibiOS_3.0.2/os/rt/ports/ARMCMx/compilers/GCC/chtypes.h"
 2546              		.file 9 "ChibiOS_3.0.2/os/rt/include/chsystypes.h"
 2547              		.file 10 "ChibiOS_3.0.2/os/rt/include/chschd.h"
 2548              		.file 11 "ChibiOS_3.0.2/os/rt/ports/ARMCMx/chcore.h"
 2549              		.file 12 "ChibiOS_3.0.2/os/rt/ports/ARMCMx/chcore_v7m.h"
 2550              		.file 13 "ChibiOS_3.0.2/os/rt/include/chtm.h"
 2551              		.file 14 "ChibiOS_3.0.2/os/rt/include/chsem.h"
 2552              		.file 15 "ChibiOS_3.0.2/os/rt/include/chmtx.h"
 2553              		.file 16 "ChibiOS_3.0.2/os/rt/include/chthreads.h"
 2554              		.file 17 "./datatypes.h"
 2555              		.file 18 "ChibiOS_3.0.2/os/rt/include/chsys.h"
 2556              		.file 19 "ChibiOS_3.0.2/os/rt/include/chevents.h"
 2557              		.file 20 "./comm_can.h"
 2558              		.file 21 "./mc_interface.h"
 2559              		.file 22 "./utils.h"
 2560              		.file 23 "./timeout.h"
 2561              		.file 24 "./servo_dec.h"
 2562              		.file 25 "ChibiOS_3.0.2/os/ext/CMSIS/include/core_cm4.h"