ARM GAS  /tmp/ccZdF5RF.s 			page 1


   1              		.syntax unified
   2              		.cpu cortex-m4
   3              		.eabi_attribute 27, 1
   4              		.eabi_attribute 28, 1
   5              		.fpu fpv4-sp-d16
   6              		.eabi_attribute 20, 1
   7              		.eabi_attribute 21, 1
   8              		.eabi_attribute 23, 3
   9              		.eabi_attribute 24, 1
  10              		.eabi_attribute 25, 1
  11              		.eabi_attribute 26, 1
  12              		.eabi_attribute 30, 2
  13              		.eabi_attribute 34, 1
  14              		.eabi_attribute 18, 4
  15              		.thumb
  16              		.file	"app_nunchuk.c"
  17              		.text
  18              	.Ltext0:
  19              		.cfi_sections	.debug_frame
  20              		.section	.text.calculate_throttle_curve_chuk,"ax",%progbits
  21              		.align	2
  22              		.p2align 4,,15
  23              		.global	calculate_throttle_curve_chuk
  24              		.thumb
  25              		.thumb_func
  26              		.type	calculate_throttle_curve_chuk, %function
  27              	calculate_throttle_curve_chuk:
  28              	.LFB256:
  29              		.file 1 "applications/app_nunchuk.c"
  30              		.loc 1 65 0
  31              		.cfi_startproc
  32              		@ args = 0, pretend = 0, frame = 24
  33              		@ frame_needed = 0, uses_anonymous_args = 0
  34              		@ link register save eliminated.
  35              	.LVL0:
  36 0000 70B4     		push	{r4, r5, r6}
  37              		.cfi_def_cfa_offset 12
  38              		.cfi_offset 4, -12
  39              		.cfi_offset 5, -8
  40              		.cfi_offset 6, -4
  41              		.loc 1 68 0
  42 0002 D0ED014A 		flds	s9, [r0, #4]
  43 0006 F4EEE04A 		fcmpes	s9, s1
  44 000a F1EE10FA 		fmstat
  45              		.loc 1 65 0
  46 000e 87B0     		sub	sp, sp, #28
  47              		.cfi_def_cfa_offset 40
  48              		.loc 1 68 0
  49 0010 47DD     		ble	.L24
  50              		.loc 1 69 0
  51 0012 D1ED017A 		flds	s15, [r1, #4]
  52 0016 C7EEA47A 		fdivs	s15, s15, s9
  53 001a 67EEA04A 		fmuls	s9, s15, s1
  54              	.LVL1:
  55              	.L4:
  56 001e 01F11404 		add	r4, r1, #20
  57 0022 01AB     		add	r3, sp, #4
ARM GAS  /tmp/ccZdF5RF.s 			page 2


  58              	.LVL2:
  59              	.L11:
  60              	.LBB47:
  61              		.loc 1 81 0 discriminator 3
  62 0024 51F8042B 		ldr	r2, [r1], #4	@ float
  63 0028 43F8042B 		str	r2, [r3], #4	@ float
  64 002c A142     		cmp	r1, r4
  65 002e F9D1     		bne	.L11
  66 0030 00F11006 		add	r6, r0, #16
  67              		.loc 1 81 0 is_stmt 0
  68 0034 0125     		movs	r5, #1
  69 0036 1430     		adds	r0, r0, #20
  70              	.LVL3:
  71              	.L12:
  72 0038 06AB     		add	r3, sp, #24
  73 003a 0446     		mov	r4, r0
  74              	.LBE47:
  75              		.loc 1 65 0 is_stmt 1
  76 003c 3146     		mov	r1, r6
  77 003e 0422     		movs	r2, #4
  78              	.LVL4:
  79              	.L13:
  80              	.LBB48:
  81              	.LBB49:
  82              		.loc 1 85 0 discriminator 3
  83 0040 74ED016A 		fldmdbs	r4!, {s13}
  84 0044 31ED016A 		fldmdbs	r1!, {s12}
  85 0048 13ED027A 		flds	s14, [r3, #-8]
  86 004c 53ED015A 		flds	s11, [r3, #-4]
  87 0050 043B     		subs	r3, r3, #4
  88 0052 70EEE67A 		fsubs	s15, s1, s13
  89 0056 30EEC65A 		fsubs	s10, s1, s12
  90 005a 67EE677A 		fnmuls	s15, s14, s15
  91 005e 76EEC66A 		fsubs	s13, s13, s12
  92 0062 E5EE257A 		vfma.f32	s15, s10, s11
  93 0066 013A     		subs	r2, r2, #1
  94              	.LVL5:
  95              		.loc 1 84 0 discriminator 3
  96 0068 AA42     		cmp	r2, r5
  97              		.loc 1 85 0 discriminator 3
  98 006a C7EEA67A 		fdivs	s15, s15, s13
  99 006e C3ED007A 		fsts	s15, [r3]
 100              	.LVL6:
 101              		.loc 1 84 0 discriminator 3
 102 0072 E5DA     		bge	.L13
 103              	.LBE49:
 104              		.loc 1 83 0 discriminator 2
 105 0074 0135     		adds	r5, r5, #1
 106              	.LVL7:
 107 0076 052D     		cmp	r5, #5
 108 0078 A6F10406 		sub	r6, r6, #4
 109 007c DCD1     		bne	.L12
 110              	.LBE48:
 111              		.loc 1 87 0
 112 007e 9DED057A 		flds	s14, [sp, #20]
 113 0082 77EE647A 		fsubs	s15, s14, s9
 114              		.loc 1 90 0
ARM GAS  /tmp/ccZdF5RF.s 			page 3


 115 0086 F7EE006A 		fconsts	s13, #112
 116              		.loc 1 87 0
 117 008a A7EEC07A 		vfms.f32	s14, s15, s0
 118              	.LVL8:
 119              		.loc 1 90 0
 120 008e B4EEE67A 		fcmpes	s14, s13
 121 0092 F1EE10FA 		fmstat
 122 0096 3BDD     		ble	.L30
 123 0098 B0EE660A 		fcpys	s0, s13
 124              	.LVL9:
 125              		.loc 1 94 0
 126 009c 07B0     		add	sp, sp, #28
 127              		.cfi_remember_state
 128              		.cfi_def_cfa_offset 12
 129              		@ sp needed
 130 009e 70BC     		pop	{r4, r5, r6}
 131              		.cfi_restore 6
 132              		.cfi_restore 5
 133              		.cfi_restore 4
 134              		.cfi_def_cfa_offset 0
 135              	.LVL10:
 136 00a0 7047     		bx	lr
 137              	.LVL11:
 138              	.L24:
 139              		.cfi_restore_state
 140              		.loc 1 70 0
 141 00a2 90ED037A 		flds	s14, [r0, #12]
 142 00a6 F4EEC70A 		fcmpes	s1, s14
 143 00aa F1EE10FA 		fmstat
 144 00ae 12DD     		ble	.L25
 145              		.loc 1 71 0
 146 00b0 D1ED037A 		flds	s15, [r1, #12]
 147 00b4 D1ED046A 		flds	s13, [r1, #16]
 148 00b8 90ED046A 		flds	s12, [r0, #16]
 149 00bc 76EEE76A 		fsubs	s13, s13, s15
 150 00c0 36EE476A 		fsubs	s12, s12, s14
 151 00c4 30EEC77A 		fsubs	s14, s1, s14
 152 00c8 C6EE866A 		fdivs	s13, s13, s12
 153 00cc E6EE877A 		vfma.f32	s15, s13, s14
 154 00d0 F0EE674A 		fcpys	s9, s15
 155              	.LVL12:
 156 00d4 A3E7     		b	.L4
 157              	.LVL13:
 158              	.L25:
 159              		.loc 1 72 0
 160 00d6 D0ED026A 		flds	s13, [r0, #8]
 161 00da F4EEE60A 		fcmpes	s1, s13
 162 00de F1EE10FA 		fmstat
 163 00e2 23DC     		bgt	.L31
 164              		.loc 1 74 0
 165 00e4 F4EEE04A 		fcmpes	s9, s1
 166 00e8 F1EE10FA 		fmstat
 167 00ec 2FD5     		bpl	.L27
 168              		.loc 1 75 0
 169 00ee 91ED017A 		flds	s14, [r1, #4]
 170 00f2 91ED026A 		flds	s12, [r1, #8]
 171 00f6 76EEE46A 		fsubs	s13, s13, s9
ARM GAS  /tmp/ccZdF5RF.s 			page 4


 172 00fa 36EE476A 		fsubs	s12, s12, s14
 173 00fe 70EEE47A 		fsubs	s15, s1, s9
 174 0102 C6EE266A 		fdivs	s13, s12, s13
 175 0106 A6EEA77A 		vfma.f32	s14, s13, s15
 176 010a F0EE474A 		fcpys	s9, s14
 177              	.LVL14:
 178 010e 86E7     		b	.L4
 179              	.LVL15:
 180              	.L30:
 181              		.loc 1 93 0
 182 0110 B5EEC07A 		fcmpezs	s14
 183 0114 DFED0F6A 		flds	s13, .L32
 184 0118 F1EE10FA 		fmstat
 185 011c 54BF     		ite	pl
 186 011e B0EE470A 		fcpyspl	s0, s14
 187 0122 B0EE660A 		fcpysmi	s0, s13
 188              	.LVL16:
 189              		.loc 1 94 0
 190 0126 07B0     		add	sp, sp, #28
 191              		.cfi_remember_state
 192              		.cfi_def_cfa_offset 12
 193              		@ sp needed
 194 0128 70BC     		pop	{r4, r5, r6}
 195              		.cfi_restore 4
 196              		.cfi_restore 5
 197              		.cfi_restore 6
 198              		.cfi_def_cfa_offset 0
 199              	.LVL17:
 200 012a 7047     		bx	lr
 201              	.LVL18:
 202              	.L31:
 203              		.cfi_restore_state
 204              		.loc 1 73 0
 205 012c D1ED027A 		flds	s15, [r1, #8]
 206 0130 91ED036A 		flds	s12, [r1, #12]
 207 0134 37EE667A 		fsubs	s14, s14, s13
 208 0138 36EE676A 		fsubs	s12, s12, s15
 209 013c 70EEE66A 		fsubs	s13, s1, s13
 210 0140 86EE077A 		fdivs	s14, s12, s14
 211 0144 E7EE267A 		vfma.f32	s15, s14, s13
 212 0148 F0EE674A 		fcpys	s9, s15
 213              	.LVL19:
 214 014c 67E7     		b	.L4
 215              	.LVL20:
 216              	.L27:
 217              		.loc 1 77 0
 218 014e D1ED014A 		flds	s9, [r1, #4]
 219              	.LVL21:
 220 0152 64E7     		b	.L4
 221              	.L33:
 222              		.align	2
 223              	.L32:
 224 0154 00000000 		.word	0
 225              		.cfi_endproc
 226              	.LFE256:
 227              		.size	calculate_throttle_curve_chuk, .-calculate_throttle_curve_chuk
 228              		.section	.text.output_thread,"ax",%progbits
ARM GAS  /tmp/ccZdF5RF.s 			page 5


 229              		.align	2
 230              		.p2align 4,,15
 231              		.thumb
 232              		.thumb_func
 233              		.type	output_thread, %function
 234              	output_thread:
 235              	.LFB262:
 236              		.loc 1 233 0
 237              		.cfi_startproc
 238              		@ args = 0, pretend = 0, frame = 24
 239              		@ frame_needed = 0, uses_anonymous_args = 0
 240              	.LVL22:
 241 0000 2DE9F04F 		push	{r4, r5, r6, r7, r8, r9, r10, fp, lr}
 242              		.cfi_def_cfa_offset 36
 243              		.cfi_offset 4, -36
 244              		.cfi_offset 5, -32
 245              		.cfi_offset 6, -28
 246              		.cfi_offset 7, -24
 247              		.cfi_offset 8, -20
 248              		.cfi_offset 9, -16
 249              		.cfi_offset 10, -12
 250              		.cfi_offset 11, -8
 251              		.cfi_offset 14, -4
 252              	.LBB50:
 253              	.LBB51:
 254              		.file 2 "ChibiOS_3.0.2/os/rt/include/chregistry.h"
 255              		.loc 2 135 0
 256 0004 9A4B     		ldr	r3, .L246
 257 0006 9B4A     		ldr	r2, .L246+4
 258 0008 9B69     		ldr	r3, [r3, #24]
 259 000a 9B4D     		ldr	r5, .L246+8
 260 000c 9B4C     		ldr	r4, .L246+12
 261 000e 9C4E     		ldr	r6, .L246+16
 262 0010 9C4F     		ldr	r7, .L246+20
 263 0012 DFF8B4A2 		ldr	r10, .L246+88
 264 0016 DFF89C82 		ldr	r8, .L246+68
 265              	.LBE51:
 266              	.LBE50:
 267              		.loc 1 233 0
 268 001a 2DED0A8B 		fstmfdd	sp!, {d8, d9, d10, d11, d12}
 269              		.cfi_def_cfa_offset 76
 270              		.cfi_offset 80, -76
 271              		.cfi_offset 81, -72
 272              		.cfi_offset 82, -68
 273              		.cfi_offset 83, -64
 274              		.cfi_offset 84, -60
 275              		.cfi_offset 85, -56
 276              		.cfi_offset 86, -52
 277              		.cfi_offset 87, -48
 278              		.cfi_offset 88, -44
 279              		.cfi_offset 89, -40
 280              	.LBB53:
 281              	.LBB54:
 282              	.LBB55:
 283              		.loc 1 129 0
 284 001e 9FED9A9A 		flds	s18, .L246+24
 285 0022 DFED9A8A 		flds	s17, .L246+28
ARM GAS  /tmp/ccZdF5RF.s 			page 6


 286              	.LBE55:
 287              	.LBE54:
 288              	.LBB60:
 289              	.LBB61:
 290              	.LBB62:
 291              		.loc 1 533 0
 292 0026 9FED9AAA 		flds	s20, .L246+32
 293 002a DFED9A9A 		flds	s19, .L246+36
 294              	.LBE62:
 295              	.LBE61:
 296              	.LBE60:
 297              	.LBE53:
 298              	.LBB133:
 299              	.LBB52:
 300              		.loc 2 135 0
 301 002e 9A61     		str	r2, [r3, #24]
 302              	.LBE52:
 303              	.LBE133:
 304              		.loc 1 233 0
 305 0030 87B0     		sub	sp, sp, #28
 306              		.cfi_def_cfa_offset 104
 307              	.LVL23:
 308              	.L35:
 309              	.LBB134:
 310              		.loc 1 239 0
 311 0032 0A20     		movs	r0, #10
 312 0034 FFF7FEFF 		bl	chThdSleep
 313              	.LVL24:
 314              		.loc 1 241 0
 315 0038 FFF7FEFF 		bl	timeout_has_timeout
 316              	.LVL25:
 317 003c 0028     		cmp	r0, #0
 318 003e F8D1     		bne	.L35
 319              		.loc 1 241 0 is_stmt 0 discriminator 1
 320 0040 2B68     		ldr	r3, [r5]
 321 0042 002B     		cmp	r3, #0
 322 0044 F5D1     		bne	.L35
 323              		.loc 1 241 0 discriminator 2
 324 0046 2378     		ldrb	r3, [r4]	@ zero_extendqisi2
 325 0048 002B     		cmp	r3, #0
 326 004a F2D0     		beq	.L35
 327              		.loc 1 247 0 is_stmt 1
 328 004c FFF7FEFF 		bl	mc_interface_get_tot_current_directional_filtered
 329              	.LVL26:
 330              		.loc 1 250 0
 331 0050 337D     		ldrb	r3, [r6, #20]	@ zero_extendqisi2
 332 0052 8B4A     		ldr	r2, .L246+16
 333              		.loc 1 247 0
 334 0054 B0EE408A 		fcpys	s16, s0
 335              	.LVL27:
 336              		.loc 1 250 0
 337 0058 1BB1     		cbz	r3, .L37
 338              		.loc 1 250 0 is_stmt 0 discriminator 1
 339 005a 537D     		ldrb	r3, [r2, #21]	@ zero_extendqisi2
 340 005c 002B     		cmp	r3, #0
 341 005e 40F0BF82 		bne	.L236
 342              	.L37:
ARM GAS  /tmp/ccZdF5RF.s 			page 7


 343              		.loc 1 255 0 is_stmt 1
 344 0062 737D     		ldrb	r3, [r6, #21]	@ zero_extendqisi2
 345 0064 03F0FF00 		and	r0, r3, #255
 346 0068 5BB1     		cbz	r3, .L41
 347              		.loc 1 255 0 is_stmt 0 discriminator 1
 348 006a 9AF80030 		ldrb	r3, [r10]	@ zero_extendqisi2
 349 006e 43B9     		cbnz	r3, .L41
 350              		.loc 1 255 0 discriminator 2
 351 0070 2378     		ldrb	r3, [r4]	@ zero_extendqisi2
 352 0072 824A     		ldr	r2, .L246+12
 353 0074 012B     		cmp	r3, #1
 354 0076 00F04083 		beq	.L42
 355              		.loc 1 255 0 discriminator 4
 356 007a 1378     		ldrb	r3, [r2]	@ zero_extendqisi2
 357 007c 032B     		cmp	r3, #3
 358 007e 00F03C83 		beq	.L42
 359              	.L41:
 360 0082 3878     		ldrb	r0, [r7]	@ zero_extendqisi2
 361              	.L40:
 362              		.loc 1 264 0 is_stmt 1
 363 0084 737D     		ldrb	r3, [r6, #21]	@ zero_extendqisi2
 364 0086 8AF80030 		strb	r3, [r10]
 365              		.loc 1 266 0
 366 008a FFF7FEFF 		bl	led_external_set_reversed
 367              	.LVL28:
 368              	.LBB76:
 369              	.LBB56:
 370              		.loc 1 129 0
 371 008e D6ED017A 		flds	s15, [r6, #4]	@ int
 372              	.LBE56:
 373              	.LBE76:
 374              		.loc 1 269 0
 375 0092 94ED010A 		flds	s0, [r4, #4]
 376              	.LBB77:
 377              	.LBB57:
 378              		.loc 1 129 0
 379 0096 F8EEE77A 		fsitos	s15, s15
 380              	.LBE57:
 381              	.LBE77:
 382              		.loc 1 269 0
 383 009a F7EE000A 		fconsts	s1, #112
 384              	.LBB78:
 385              	.LBB58:
 386              		.loc 1 129 0
 387 009e 77EEC97A 		fsubs	s15, s15, s18
 388              	.LBE58:
 389              	.LBE78:
 390              		.loc 1 269 0
 391 00a2 03A8     		add	r0, sp, #12
 392              	.LBB79:
 393              	.LBB59:
 394              		.loc 1 129 0
 395 00a4 67EEA87A 		fmuls	s15, s15, s17
 396              	.LBE59:
 397              	.LBE79:
 398              		.loc 1 268 0
 399 00a8 CDED037A 		fsts	s15, [sp, #12]
ARM GAS  /tmp/ccZdF5RF.s 			page 8


 400              		.loc 1 269 0
 401 00ac FFF7FEFF 		bl	utils_deadband
 402              	.LVL29:
 403              		.loc 1 271 0
 404 00b0 794B     		ldr	r3, .L246+40
 405 00b2 794A     		ldr	r2, .L246+40
 406 00b4 1B78     		ldrb	r3, [r3]	@ zero_extendqisi2
 407 00b6 DDED030A 		flds	s1, [sp, #12]
 408 00ba A3B1     		cbz	r3, .L46
 409              		.loc 1 271 0 is_stmt 0 discriminator 1
 410 00bc F5EE400A 		fcmpzs	s1
 411 00c0 F1EE10FA 		fmstat
 412 00c4 0FD0     		beq	.L46
 413              		.loc 1 272 0 is_stmt 1
 414 00c6 F5EEC00A 		fcmpezs	s1
 415 00ca F1EE10FA 		fmstat
 416 00ce 40F35483 		ble	.L221
 417              		.loc 1 273 0
 418 00d2 92ED070A 		flds	s0, [r2, #28]
 419 00d6 7148     		ldr	r0, .L246+44
 420 00d8 7149     		ldr	r1, .L246+48
 421 00da FFF7FEFF 		bl	calculate_throttle_curve_chuk
 422              	.LVL30:
 423 00de F0EE400A 		fcpys	s1, s0
 424 00e2 8DED030A 		fsts	s0, [sp, #12]
 425              	.L46:
 426              		.loc 1 280 0
 427 00e6 D6ED007A 		flds	s15, [r6]	@ int
 428              		.loc 1 281 0
 429 00ea 9FED6E7A 		flds	s14, .L246+52
 430              		.loc 1 280 0
 431 00ee F8EEE77A 		fsitos	s15, s15
 432              		.loc 1 281 0
 433 00f2 F4EEC70A 		fcmpes	s1, s14
 434              		.loc 1 280 0
 435 00f6 77EEC97A 		fsubs	s15, s15, s18
 436              		.loc 1 282 0
 437 00fa 9FED6B7A 		flds	s14, .L246+56
 438              		.loc 1 280 0
 439 00fe 67EEA87A 		fmuls	s15, s15, s17
 440              	.LVL31:
 441              		.loc 1 281 0
 442 0102 F1EE10FA 		fmstat
 443              		.loc 1 282 0
 444 0106 F4EEC77A 		fcmpes	s15, s14
 445              		.loc 1 281 0
 446 010a 40F19380 		bpl	.L222
 447              		.loc 1 282 0
 448 010e F1EE10FA 		fmstat
 449 0112 00F1C782 		bmi	.L237
 450              		.loc 1 284 0
 451 0116 9FED657A 		flds	s14, .L246+60
 452 011a F4EEC77A 		fcmpes	s15, s14
 453 011e F1EE10FA 		fmstat
 454              		.loc 1 285 0
 455 0122 CCBF     		ite	gt
 456 0124 0620     		movgt	r0, #6
ARM GAS  /tmp/ccZdF5RF.s 			page 9


 457              		.loc 1 287 0
 458 0126 0220     		movle	r0, #2
 459 0128 FFF7FEFF 		bl	led_external_set_state
 460              	.LVL32:
 461              	.L53:
 462              		.loc 1 301 0
 463 012c FFF7FEFF 		bl	mc_interface_get_configuration
 464              	.LVL33:
 465              		.loc 1 306 0
 466 0130 D8F800B0 		ldr	fp, [r8]
 467 0134 0BF10102 		add	r2, fp, #1
 468 0138 C8F80020 		str	r2, [r8]
 469              		.loc 1 301 0
 470 013c 8146     		mov	r9, r0
 471              	.LVL34:
 472              		.loc 1 306 0
 473 013e FFF7FEFF 		bl	mc_interface_get_rpm
 474              	.LVL35:
 475              		.loc 1 307 0
 476 0142 D8F80020 		ldr	r2, [r8]
 477              		.loc 1 306 0
 478 0146 5A4B     		ldr	r3, .L246+64
 479              		.loc 1 307 0
 480 0148 072A     		cmp	r2, #7
 481              		.loc 1 306 0
 482 014a 03EB8B03 		add	r3, r3, fp, lsl #2
 483 014e 83ED000A 		fsts	s0, [r3]
 484              		.loc 1 307 0
 485 0152 02DD     		ble	.L60
 486              		.loc 1 308 0
 487 0154 574A     		ldr	r2, .L246+68
 488 0156 0023     		movs	r3, #0
 489 0158 1360     		str	r3, [r2]
 490              	.L60:
 491              	.LVL36:
 492 015a 554B     		ldr	r3, .L246+64
 493              		.loc 1 311 0
 494 015c DFED567A 		flds	s15, .L246+72
 495 0160 03F12002 		add	r2, r3, #32
 496              	.LVL37:
 497              	.L61:
 498              	.LBB80:
 499              		.loc 1 313 0 discriminator 3
 500 0164 B3EC017A 		fldmias	r3!, {s14}
 501              		.loc 1 312 0 discriminator 3
 502 0168 9342     		cmp	r3, r2
 503              		.loc 1 313 0 discriminator 3
 504 016a 77EE877A 		fadds	s15, s15, s14
 505              	.LVL38:
 506              		.loc 1 312 0 discriminator 3
 507 016e F9D1     		bne	.L61
 508              	.LVL39:
 509              	.LBE80:
 510              		.loc 1 317 0
 511 0170 337D     		ldrb	r3, [r6, #20]	@ zero_extendqisi2
 512 0172 03F0FF02 		and	r2, r3, #255
 513 0176 002B     		cmp	r3, #0
ARM GAS  /tmp/ccZdF5RF.s 			page 10


 514 0178 6CD0     		beq	.L62
 515              	.LBB81:
 516              		.loc 1 320 0
 517 017a 504B     		ldr	r3, .L246+76
 518 017c 1B78     		ldrb	r3, [r3]	@ zero_extendqisi2
 519 017e 002B     		cmp	r3, #0
 520 0180 40F0D981 		bne	.L63
 521              	.LBE81:
 522              		.loc 1 315 0
 523 0184 B4EE007A 		fconsts	s14, #64
 524 0188 67EE877A 		fmuls	s15, s15, s14
 525              	.LVL40:
 526              	.LBB96:
 527              		.loc 1 321 0
 528 018c 4C4A     		ldr	r2, .L246+80
 529              		.loc 1 323 0
 530 018e 3B78     		ldrb	r3, [r7]	@ zero_extendqisi2
 531              		.loc 1 321 0
 532 0190 C2ED007A 		fsts	s15, [r2]
 533              		.loc 1 323 0
 534 0194 F5EEC07A 		fcmpezs	s15
 535 0198 002B     		cmp	r3, #0
 536 019a 40F09C82 		bne	.L238
 537              		.loc 1 323 0 is_stmt 0 discriminator 4
 538 019e F1EE10FA 		fmstat
 539 01a2 00F19C82 		bmi	.L65
 540              	.LVL41:
 541              	.L66:
 542              		.loc 1 332 0 is_stmt 1
 543 01a6 454A     		ldr	r2, .L246+76
 544 01a8 0123     		movs	r3, #1
 545 01aa 1370     		strb	r3, [r2]
 546              	.L68:
 547              		.loc 1 350 0
 548 01ac 2378     		ldrb	r3, [r4]	@ zero_extendqisi2
 549 01ae 013B     		subs	r3, r3, #1
 550 01b0 032B     		cmp	r3, #3
 551 01b2 08D8     		bhi	.L72
 552 01b4 DFE803F0 		tbb	[pc, r3]
 553              	.L74:
 554 01b8 02       		.byte	(.L76-.L74)/2
 555 01b9 02       		.byte	(.L76-.L74)/2
 556 01ba 0D       		.byte	(.L75-.L74)/2
 557 01bb 0D       		.byte	(.L75-.L74)/2
 558              		.p2align 1
 559              	.L76:
 560              		.loc 1 360 0
 561 01bc 404B     		ldr	r3, .L246+80
 562 01be 93ED000A 		flds	s0, [r3]
 563 01c2 FFF7FEFF 		bl	mc_interface_set_pid_speed
 564              	.LVL42:
 565              	.L72:
 566              		.loc 1 369 0
 567 01c6 237F     		ldrb	r3, [r4, #28]	@ zero_extendqisi2
 568 01c8 93B9     		cbnz	r3, .L77
 569              	.LVL43:
 570              	.L81:
ARM GAS  /tmp/ccZdF5RF.s 			page 11


 571              		.loc 1 383 0
 572 01ca 3E4B     		ldr	r3, .L246+84
 573 01cc 83ED008A 		fsts	s16, [r3]
 574              		.loc 1 385 0
 575 01d0 2FE7     		b	.L35
 576              	.LVL44:
 577              	.L75:
 578              		.loc 1 357 0
 579 01d2 94F82830 		ldrb	r3, [r4, #40]	@ zero_extendqisi2
 580 01d6 294A     		ldr	r2, .L246+12
 581 01d8 002B     		cmp	r3, #0
 582 01da EFD0     		beq	.L76
 583              		.loc 1 358 0
 584 01dc 384B     		ldr	r3, .L246+80
 585 01de D2ED0B0A 		flds	s1, [r2, #44]
 586 01e2 93ED000A 		flds	s0, [r3]
 587 01e6 FFF7FEFF 		bl	mc_interface_set_pid_speed_and_watt
 588              	.LVL45:
 589              		.loc 1 369 0
 590 01ea 237F     		ldrb	r3, [r4, #28]	@ zero_extendqisi2
 591 01ec 002B     		cmp	r3, #0
 592 01ee ECD0     		beq	.L81
 593              	.L77:
 594              	.LBB82:
 595              		.loc 1 370 0
 596 01f0 FFF7FEFF 		bl	mc_interface_get_duty_cycle_now
 597              	.LVL46:
 598              	.LBB83:
 599              		.loc 1 372 0
 600 01f4 4FF00009 		mov	r9, #0
 601              	.LVL47:
 602              	.LBE83:
 603              		.loc 1 370 0
 604 01f8 F0EE40AA 		fcpys	s21, s0
 605              	.LVL48:
 606              	.L80:
 607              	.LBB93:
 608              	.LBB84:
 609              		.loc 1 373 0
 610 01fc 4846     		mov	r0, r9
 611 01fe FFF7FEFF 		bl	comm_can_get_status_msg_index
 612              	.LVL49:
 613              		.loc 1 375 0
 614 0202 0268     		ldr	r2, [r0]
 615 0204 002A     		cmp	r2, #0
 616              	.LBE84:
 617              		.loc 1 372 0
 618 0206 09F10109 		add	r9, r9, #1
 619              	.LVL50:
 620              	.LBB91:
 621              		.loc 1 375 0
 622 020a 0FDB     		blt	.L78
 623              	.LBB85:
 624              	.LBB86:
 625              	.LBB87:
 626              	.LBB88:
 627              		.file 3 "ChibiOS_3.0.2/os/rt/include/chvt.h"
ARM GAS  /tmp/ccZdF5RF.s 			page 12


 628              		.loc 3 231 0 discriminator 1
 629 020c 184B     		ldr	r3, .L246
 630              	.LBE88:
 631              	.LBE87:
 632              		.loc 3 267 0 discriminator 1
 633 020e 4168     		ldr	r1, [r0, #4]
 634              	.LBB90:
 635              	.LBB89:
 636              		.loc 3 231 0 discriminator 1
 637 0210 9B6A     		ldr	r3, [r3, #40]
 638              	.LBE89:
 639              	.LBE90:
 640              		.loc 3 267 0 discriminator 1
 641 0212 5B1A     		subs	r3, r3, r1
 642 0214 07EE903A 		fmsr	s15, r3	@ int
 643              	.LBE86:
 644              	.LBE85:
 645              		.loc 1 375 0 discriminator 1
 646 0218 F8EE677A 		fuitos	s15, s15
 647 021c C7EE8A7A 		fdivs	s15, s15, s20
 648 0220 F4EEE97A 		fcmpes	s15, s19
 649 0224 F1EE10FA 		fmstat
 650 0228 00F17E82 		bmi	.L239
 651              	.LVL51:
 652              	.L78:
 653              	.LBE91:
 654              		.loc 1 372 0 discriminator 2
 655 022c B9F1030F 		cmp	r9, #3
 656 0230 E4D1     		bne	.L80
 657 0232 CAE7     		b	.L81
 658              	.LVL52:
 659              	.L222:
 660              	.LBE93:
 661              	.LBE82:
 662              	.LBE96:
 663              		.loc 1 290 0
 664 0234 F1EE10FA 		fmstat
 665 0238 00F13082 		bmi	.L240
 666              		.loc 1 292 0
 667 023c 9FED1B7A 		flds	s14, .L246+60
 668 0240 F4EEC77A 		fcmpes	s15, s14
 669 0244 F1EE10FA 		fmstat
 670              		.loc 1 293 0
 671 0248 CCBF     		ite	gt
 672 024a 0420     		movgt	r0, #4
 673              		.loc 1 295 0
 674 024c 0120     		movle	r0, #1
 675 024e FFF7FEFF 		bl	led_external_set_state
 676              	.LVL53:
 677 0252 6BE7     		b	.L53
 678              	.LVL54:
 679              	.L62:
 680              		.loc 1 393 0
 681 0254 2378     		ldrb	r3, [r4]	@ zero_extendqisi2
 682              		.loc 1 388 0
 683 0256 1949     		ldr	r1, .L246+76
 684              		.loc 1 393 0
ARM GAS  /tmp/ccZdF5RF.s 			page 13


 685 0258 013B     		subs	r3, r3, #1
 686              		.loc 1 388 0
 687 025a 0A70     		strb	r2, [r1]
 688              	.LVL55:
 689              		.loc 1 393 0
 690 025c 032B     		cmp	r3, #3
 691 025e 00F2E782 		bhi	.L151
 692 0262 DFE813F0 		tbh	[pc, r3, lsl #1]
 693              	.L84:
 694 0266 3E01     		.2byte	(.L83-.L84)/2
 695 0268 3E01     		.2byte	(.L83-.L84)/2
 696 026a 3300     		.2byte	(.L85-.L84)/2
 697 026c 3300     		.2byte	(.L85-.L84)/2
 698              		.p2align 1
 699              	.L247:
 700 026e 00BF     		.align	2
 701              	.L246:
 702 0270 00000000 		.word	ch
 703 0274 00000000 		.word	.LC0
 704 0278 00000000 		.word	.LANCHOR0
 705 027c 00000000 		.word	.LANCHOR1
 706 0280 00000000 		.word	.LANCHOR2
 707 0284 00000000 		.word	.LANCHOR3
 708 0288 00000043 		.word	1124073472
 709 028c 0000003C 		.word	1006632960
 710 0290 00401C46 		.word	1176256512
 711 0294 CDCCCC3D 		.word	1036831949
 712 0298 00000000 		.word	.LANCHOR5
 713 029c 00000000 		.word	.LANCHOR6
 714 02a0 00000000 		.word	.LANCHOR7
 715 02a4 6F1283BA 		.word	-1165815185
 716 02a8 CDCCCCBE 		.word	-1093874483
 717 02ac CDCCCC3E 		.word	1053609165
 718 02b0 00000000 		.word	.LANCHOR11
 719 02b4 00000000 		.word	.LANCHOR10
 720 02b8 00000000 		.word	0
 721 02bc 00000000 		.word	.LANCHOR12
 722 02c0 00000000 		.word	.LANCHOR13
 723 02c4 00000000 		.word	.LANCHOR14
 724 02c8 00000000 		.word	.LANCHOR4
 725              	.L85:
 726              		.loc 1 404 0
 727 02cc DDED037A 		flds	s15, [sp, #12]
 728              	.LVL56:
 729 02d0 F5EEC07A 		fcmpezs	s15
 730 02d4 F1EE10FA 		fmstat
 731 02d8 C0F28681 		blt	.L228
 732              	.LBB97:
 733              		.loc 1 405 0
 734 02dc 94F82830 		ldrb	r3, [r4, #40]	@ zero_extendqisi2
 735 02e0 C64A     		ldr	r2, .L248
 736 02e2 002B     		cmp	r3, #0
 737 02e4 00F09182 		beq	.L90
 738              		.loc 1 406 0
 739 02e8 D2ED0BAA 		flds	s21, [r2, #44]
 740 02ec FFF7FEFF 		bl	mc_interface_get_motor_voltage
 741              	.LVL57:
ARM GAS  /tmp/ccZdF5RF.s 			page 14


 742 02f0 8AEE800A 		fdivs	s0, s21, s0
 743 02f4 9DED037A 		flds	s14, [sp, #12]
 744 02f8 60EE07AA 		fmuls	s21, s0, s14
 745              	.LVL58:
 746              	.L91:
 747              		.loc 1 411 0
 748 02fc D9ED016A 		flds	s13, [r9, #4]
 749 0300 D4ED0C7A 		flds	s15, [r4, #48]
 750              		.loc 1 416 0
 751 0304 99ED016A 		flds	s12, [r9, #4]
 752              		.loc 1 411 0
 753 0308 26EE877A 		fmuls	s14, s13, s14
 754 030c 67EE277A 		fmuls	s15, s14, s15
 755              	.LVL59:
 756              		.loc 1 413 0
 757 0310 F4EE67AA 		fcmps	s21, s15
 758 0314 F1EE10FA 		fmstat
 759 0318 C8BF     		it	gt
 760 031a F0EE67AA 		fcpysgt	s21, s15
 761              	.LVL60:
 762              		.loc 1 416 0
 763 031e F4EEC6AA 		fcmpes	s21, s12
 764 0322 F1EE10FA 		fmstat
 765 0326 40F36581 		ble	.L233
 766              		.loc 1 417 0
 767 032a D9ED01AA 		flds	s21, [r9, #4]
 768              	.LVL61:
 769 032e F0EEEACA 		fabss	s25, s21
 770              	.LVL62:
 771              	.L82:
 772              	.LBE97:
 773              		.loc 1 429 0
 774 0332 FFF7FEFF 		bl	mc_interface_get_rpm
 775              	.LVL63:
 776              		.loc 1 430 0
 777 0336 3B78     		ldrb	r3, [r7]	@ zero_extendqisi2
 778              		.loc 1 429 0
 779 0338 F0EE40BA 		fcpys	s23, s0
 780              	.LVL64:
 781              		.loc 1 430 0
 782 033c 0BB1     		cbz	r3, .L95
 783              		.loc 1 431 0
 784 033e F1EE40BA 		fnegs	s23, s0
 785              	.LVL65:
 786              	.L95:
 787              		.loc 1 437 0
 788 0342 237F     		ldrb	r3, [r4, #28]	@ zero_extendqisi2
 789 0344 B0EE6BBA 		fcpys	s22, s23
 790 0348 002B     		cmp	r3, #0
 791 034a 3ED0     		beq	.L96
 792              	.LVL66:
 793 034c 4FF0000B 		mov	fp, #0
 794              	.LVL67:
 795              	.L105:
 796              	.LBB98:
 797              	.LBB99:
 798              		.loc 1 439 0
ARM GAS  /tmp/ccZdF5RF.s 			page 15


 799 0350 5846     		mov	r0, fp
 800 0352 FFF7FEFF 		bl	comm_can_get_status_msg_index
 801              	.LVL68:
 802              		.loc 1 441 0
 803 0356 0368     		ldr	r3, [r0]
 804 0358 002B     		cmp	r3, #0
 805              	.LBE99:
 806              		.loc 1 438 0
 807 035a 0BF1010B 		add	fp, fp, #1
 808              	.LVL69:
 809              	.LBB108:
 810              		.loc 1 441 0
 811 035e 31DB     		blt	.L97
 812              	.LBB100:
 813              	.LBB101:
 814              	.LBB102:
 815              	.LBB103:
 816              		.loc 3 231 0 discriminator 1
 817 0360 A74B     		ldr	r3, .L248+4
 818              	.LBE103:
 819              	.LBE102:
 820              		.loc 3 267 0 discriminator 1
 821 0362 4268     		ldr	r2, [r0, #4]
 822              	.LBB105:
 823              	.LBB104:
 824              		.loc 3 231 0 discriminator 1
 825 0364 9B6A     		ldr	r3, [r3, #40]
 826              	.LBE104:
 827              	.LBE105:
 828              		.loc 3 267 0 discriminator 1
 829 0366 9B1A     		subs	r3, r3, r2
 830 0368 07EE903A 		fmsr	s15, r3	@ int
 831              	.LBE101:
 832              	.LBE100:
 833              		.loc 1 441 0 discriminator 1
 834 036c F8EE677A 		fuitos	s15, s15
 835              	.LBB106:
 836              		.loc 1 457 0 discriminator 1
 837 0370 F0EEC86A 		fabss	s13, s16
 838              	.LBE106:
 839              		.loc 1 441 0 discriminator 1
 840 0374 C7EE8A7A 		fdivs	s15, s15, s20
 841 0378 F4EEE97A 		fcmpes	s15, s19
 842 037c F1EE10FA 		fmstat
 843 0380 20D5     		bpl	.L97
 844              	.LBB107:
 845              		.loc 1 443 0
 846 0382 3B78     		ldrb	r3, [r7]	@ zero_extendqisi2
 847              		.loc 1 442 0
 848 0384 D0ED027A 		flds	s15, [r0, #8]
 849              	.LVL70:
 850              		.loc 1 443 0
 851 0388 0BB1     		cbz	r3, .L99
 852              		.loc 1 444 0
 853 038a F1EE677A 		fnegs	s15, s15
 854              	.LVL71:
 855              	.L99:
ARM GAS  /tmp/ccZdF5RF.s 			page 16


 856              		.loc 1 453 0
 857 038e 90ED046A 		flds	s12, [r0, #16]
 858              		.loc 1 452 0
 859 0392 90ED037A 		flds	s14, [r0, #12]
 860              		.loc 1 448 0
 861 0396 F4EE4B7A 		fcmps	s15, s22
 862 039a F1EE10FA 		fmstat
 863              		.loc 1 453 0
 864 039e B5EEC06A 		fcmpezs	s12
 865              		.loc 1 448 0
 866 03a2 48BF     		it	mi
 867 03a4 B0EE67BA 		fcpysmi	s22, s15
 868              	.LVL72:
 869              		.loc 1 453 0
 870 03a8 F1EE10FA 		fmstat
 871              		.loc 1 454 0
 872 03ac 48BF     		it	mi
 873 03ae B1EE477A 		fnegsmi	s14, s14
 874              	.LVL73:
 875              		.loc 1 457 0
 876 03b2 F0EEC77A 		fabss	s15, s14
 877              	.LVL74:
 878              		.loc 1 458 0
 879 03b6 F4EE667A 		fcmps	s15, s13
 880 03ba F1EE10FA 		fmstat
 881 03be C8BF     		it	gt
 882 03c0 B0EE478A 		fcpysgt	s16, s14
 883              	.LVL75:
 884              	.L97:
 885              	.LBE107:
 886              	.LBE108:
 887              		.loc 1 438 0 discriminator 2
 888 03c4 BBF1030F 		cmp	fp, #3
 889 03c8 C2D1     		bne	.L105
 890              	.LVL76:
 891              	.L96:
 892              	.LBE98:
 893              		.loc 1 466 0
 894 03ca 8E4B     		ldr	r3, .L248+8
 895              		.loc 1 465 0
 896 03cc D9ED017A 		flds	s15, [r9, #4]
 897              		.loc 1 466 0
 898 03d0 93ED00CA 		flds	s24, [r3]
 899              		.loc 1 465 0
 900 03d4 99ED027A 		flds	s14, [r9, #8]
 901              	.LVL77:
 902              		.loc 1 468 0
 903 03d8 9FED8B6A 		flds	s12, .L248+12
 904              		.loc 1 466 0
 905 03dc F0EECC6A 		fabss	s13, s24
 906 03e0 F4EEEC6A 		fcmpes	s13, s25
 907 03e4 F1EE10FA 		fmstat
 908 03e8 4CBF     		ite	mi
 909 03ea D4ED046A 		fldsmi	s13, [r4, #16]
 910 03ee D4ED056A 		fldspl	s13, [r4, #20]
 911              	.LVL78:
 912              		.loc 1 468 0
ARM GAS  /tmp/ccZdF5RF.s 			page 17


 913 03f2 F4EEC66A 		fcmpes	s13, s12
 914 03f6 F1EE10FA 		fmstat
 915 03fa 00F30F81 		bgt	.L241
 916              	.LVL79:
 917              	.L109:
 918              		.loc 1 498 0
 919 03fe 814B     		ldr	r3, .L248+8
 920              		.loc 1 500 0
 921 0400 F5EEC0AA 		fcmpezs	s21
 922 0404 F1EE10FA 		fmstat
 923              		.loc 1 498 0
 924 0408 C3ED00AA 		fsts	s21, [r3]
 925              		.loc 1 500 0
 926 040c 00F1C281 		bmi	.L242
 927              	.LBB109:
 928              		.loc 1 513 0
 929 0410 D4ED037A 		flds	s15, [r4, #12]
 930 0414 B4EEE7BA 		fcmpes	s22, s15
 931 0418 F1EE10FA 		fmstat
 932 041c 6FDD     		ble	.L126
 933              		.loc 1 513 0 is_stmt 0 discriminator 1
 934 041e F5EEC0AA 		fcmpezs	s21
 935 0422 F1EE10FA 		fmstat
 936 0426 6ADD     		ble	.L126
 937              	.L235:
 938              		.loc 1 518 0 is_stmt 1
 939 0428 D9ED45AA 		flds	s21, [r9, #276]
 940              	.LVL80:
 941              	.L129:
 942              		.loc 1 529 0
 943 042c 237F     		ldrb	r3, [r4, #28]	@ zero_extendqisi2
 944 042e 002B     		cmp	r3, #0
 945 0430 4FD0     		beq	.L138
 946 0432 B0EE6A8A 		fcpys	s16, s21
 947              	.LVL81:
 948 0436 4FF0000B 		mov	fp, #0
 949              	.LVL82:
 950              	.L145:
 951              	.LBB72:
 952              	.LBB70:
 953              		.loc 1 531 0
 954 043a 5846     		mov	r0, fp
 955 043c FFF7FEFF 		bl	comm_can_get_status_msg_index
 956              	.LVL83:
 957              		.loc 1 533 0
 958 0440 0168     		ldr	r1, [r0]
 959 0442 0029     		cmp	r1, #0
 960 0444 39DB     		blt	.L139
 961              	.LVL84:
 962              	.LBB63:
 963              	.LBB64:
 964              	.LBB65:
 965              	.LBB66:
 966              		.loc 3 231 0 discriminator 1
 967 0446 6E4B     		ldr	r3, .L248+4
 968              	.LBE66:
 969              	.LBE65:
ARM GAS  /tmp/ccZdF5RF.s 			page 18


 970              		.loc 3 267 0 discriminator 1
 971 0448 4268     		ldr	r2, [r0, #4]
 972              	.LBB68:
 973              	.LBB67:
 974              		.loc 3 231 0 discriminator 1
 975 044a 9B6A     		ldr	r3, [r3, #40]
 976              	.LBE67:
 977              	.LBE68:
 978              		.loc 3 267 0 discriminator 1
 979 044c 9B1A     		subs	r3, r3, r2
 980 044e 07EE903A 		fmsr	s15, r3	@ int
 981              	.LBE64:
 982              	.LBE63:
 983              		.loc 1 533 0 discriminator 1
 984 0452 F8EE677A 		fuitos	s15, s15
 985 0456 C7EE8A7A 		fdivs	s15, s15, s20
 986 045a F4EEE97A 		fcmpes	s15, s19
 987 045e F1EE10FA 		fmstat
 988 0462 2AD5     		bpl	.L139
 989              		.loc 1 534 0
 990 0464 637F     		ldrb	r3, [r4, #29]	@ zero_extendqisi2
 991 0466 FBB1     		cbz	r3, .L141
 992              	.LBB69:
 993              		.loc 1 536 0
 994 0468 3B78     		ldrb	r3, [r7]	@ zero_extendqisi2
 995              		.loc 1 535 0
 996 046a 90ED020A 		flds	s0, [r0, #8]
 997              	.LVL85:
 998              		.loc 1 536 0
 999 046e 0BB1     		cbz	r3, .L142
 1000              		.loc 1 537 0
 1001 0470 B1EE400A 		fnegs	s0, s0
 1002              	.LVL86:
 1003              	.L142:
 1004              		.loc 1 541 0
 1005 0474 DFED650A 		flds	s1, .L248+16
 1006 0478 94ED081A 		flds	s2, [r4, #32]
 1007 047c 0190     		str	r0, [sp, #4]
 1008 047e 30EE4B0A 		fsubs	s0, s0, s22
 1009              	.LVL87:
 1010 0482 B0EE602A 		fcpys	s4, s1
 1011 0486 F0EE6A1A 		fcpys	s3, s21
 1012 048a FFF7FEFF 		bl	utils_map
 1013              	.LVL88:
 1014              		.loc 1 542 0
 1015 048e D9ED457A 		flds	s15, [r9, #276]
 1016 0492 0198     		ldr	r0, [sp, #4]
 1017 0494 B4EEE70A 		fcmpes	s0, s15
 1018 0498 F1EE10FA 		fmstat
 1019              		.loc 1 541 0
 1020 049c B0EE408A 		fcpys	s16, s0
 1021              	.LVL89:
 1022 04a0 0168     		ldr	r1, [r0]
 1023              	.LVL90:
 1024              		.loc 1 543 0
 1025 04a2 48BF     		it	mi
 1026 04a4 9FED598A 		fldsmi	s16, .L248+16
ARM GAS  /tmp/ccZdF5RF.s 			page 19


 1027              	.LVL91:
 1028              	.L141:
 1029              	.LBE69:
 1030              		.loc 1 547 0
 1031 04a8 3B78     		ldrb	r3, [r7]	@ zero_extendqisi2
 1032              		.loc 1 548 0
 1033 04aa C8B2     		uxtb	r0, r1
 1034              		.loc 1 547 0
 1035 04ac 002B     		cmp	r3, #0
 1036 04ae 00F03681 		beq	.L144
 1037              		.loc 1 548 0
 1038 04b2 B1EE480A 		fnegs	s0, s16
 1039 04b6 FFF7FEFF 		bl	comm_can_set_current
 1040              	.LVL92:
 1041              	.L139:
 1042              	.LBE70:
 1043              		.loc 1 530 0 discriminator 2
 1044 04ba 0BF1010B 		add	fp, fp, #1
 1045              	.LVL93:
 1046 04be BBF1030F 		cmp	fp, #3
 1047 04c2 BAD1     		bne	.L145
 1048              	.LBE72:
 1049              		.loc 1 555 0
 1050 04c4 637F     		ldrb	r3, [r4, #29]	@ zero_extendqisi2
 1051 04c6 4D4A     		ldr	r2, .L248
 1052 04c8 002B     		cmp	r3, #0
 1053 04ca 40F08481 		bne	.L243
 1054              	.LBB73:
 1055 04ce F0EE48AA 		fcpys	s21, s16
 1056              	.LVL94:
 1057              	.L138:
 1058              	.LBE73:
 1059              		.loc 1 564 0
 1060 04d2 3B78     		ldrb	r3, [r7]	@ zero_extendqisi2
 1061 04d4 002B     		cmp	r3, #0
 1062 04d6 4DD0     		beq	.L147
 1063              		.loc 1 565 0
 1064 04d8 B1EE6A0A 		fnegs	s0, s21
 1065 04dc FFF7FEFF 		bl	mc_interface_set_current
 1066              	.LVL95:
 1067 04e0 A7E5     		b	.L35
 1068              	.LVL96:
 1069              	.L83:
 1070              	.LBE109:
 1071              		.loc 1 396 0
 1072 04e2 DDED037A 		flds	s15, [sp, #12]
 1073              	.LVL97:
 1074 04e6 F5EEC07A 		fcmpezs	s15
 1075 04ea F1EE10FA 		fmstat
 1076 04ee 7BDB     		blt	.L228
 1077              		.loc 1 397 0
 1078 04f0 D9ED01AA 		flds	s21, [r9, #4]
 1079 04f4 67EEAAAA 		fmuls	s21, s15, s21
 1080              	.LVL98:
 1081 04f8 F0EEEACA 		fabss	s25, s21
 1082 04fc 19E7     		b	.L82
 1083              	.LVL99:
ARM GAS  /tmp/ccZdF5RF.s 			page 20


 1084              	.L126:
 1085              	.LBB110:
 1086              		.loc 1 515 0
 1087 04fe D4ED027A 		flds	s15, [r4, #8]
 1088 0502 3E4B     		ldr	r3, .L248
 1089 0504 B4EEE7BA 		fcmpes	s22, s15
 1090 0508 F1EE10FA 		fmstat
 1091 050c 37DD     		ble	.L130
 1092              		.loc 1 515 0 is_stmt 0 discriminator 1
 1093 050e F5EEC0AA 		fcmpezs	s21
 1094 0512 F1EE10FA 		fmstat
 1095 0516 32DD     		ble	.L130
 1096              		.loc 1 516 0 is_stmt 1
 1097 0518 D3ED020A 		flds	s1, [r3, #8]
 1098 051c 93ED031A 		flds	s2, [r3, #12]
 1099 0520 99ED452A 		flds	s4, [r9, #276]
 1100 0524 F0EE6A1A 		fcpys	s3, s21
 1101 0528 B0EE4B0A 		fcpys	s0, s22
 1102 052c FFF7FEFF 		bl	utils_map
 1103              	.LVL100:
 1104 0530 F0EE40AA 		fcpys	s21, s0
 1105              	.LVL101:
 1106 0534 7AE7     		b	.L129
 1107              	.LVL102:
 1108              	.L63:
 1109              	.LBE110:
 1110              	.LBB111:
 1111              		.loc 1 334 0
 1112 0536 3B78     		ldrb	r3, [r7]	@ zero_extendqisi2
 1113              		.loc 1 339 0
 1114 0538 94ED066A 		flds	s12, [r4, #24]
 1115 053c DDED036A 		flds	s13, [sp, #12]
 1116 0540 9FED347A 		flds	s14, .L248+24
 1117              		.loc 1 334 0
 1118 0544 002B     		cmp	r3, #0
 1119 0546 00F0B180 		beq	.L69
 1120              		.loc 1 339 0
 1121 054a 66EE266A 		fmuls	s13, s12, s13
 1122              		.loc 1 335 0
 1123 054e 304B     		ldr	r3, .L248+20
 1124 0550 DFED2E5A 		flds	s11, .L248+16
 1125 0554 D3ED007A 		flds	s15, [r3]
 1126              	.LVL103:
 1127              		.loc 1 339 0
 1128 0558 86EE877A 		fdivs	s14, s13, s14
 1129 055c F4EE657A 		fcmps	s15, s11
 1130 0560 F1EE10FA 		fmstat
 1131 0564 C8BF     		it	gt
 1132 0566 F0EE657A 		fcpysgt	s15, s11
 1133 056a 77EEC77A 		fsubs	s15, s15, s14
 1134 056e C3ED007A 		fsts	s15, [r3]
 1135 0572 1BE6     		b	.L68
 1136              	.LVL104:
 1137              	.L147:
 1138              	.LBE111:
 1139              	.LBB112:
 1140              		.loc 1 567 0
ARM GAS  /tmp/ccZdF5RF.s 			page 21


 1141 0574 B0EE6A0A 		fcpys	s0, s21
 1142 0578 FFF7FEFF 		bl	mc_interface_set_current
 1143              	.LVL105:
 1144 057c 59E5     		b	.L35
 1145              	.LVL106:
 1146              	.L130:
 1147              		.loc 1 517 0
 1148 057e D4ED037A 		flds	s15, [r4, #12]
 1149 0582 F1EE677A 		fnegs	s15, s15
 1150 0586 B4EEE7BA 		fcmpes	s22, s15
 1151 058a F1EE10FA 		fmstat
 1152 058e 05D5     		bpl	.L133
 1153              		.loc 1 517 0 is_stmt 0 discriminator 1
 1154 0590 F5EEC0AA 		fcmpezs	s21
 1155 0594 F1EE10FA 		fmstat
 1156 0598 3FF546AF 		bmi	.L235
 1157              	.L133:
 1158              		.loc 1 519 0 is_stmt 1
 1159 059c D4ED027A 		flds	s15, [r4, #8]
 1160 05a0 164B     		ldr	r3, .L248
 1161 05a2 F1EE677A 		fnegs	s15, s15
 1162 05a6 B4EEE7BA 		fcmpes	s22, s15
 1163 05aa F1EE10FA 		fmstat
 1164 05ae 7FF53DAF 		bpl	.L129
 1165              		.loc 1 519 0 is_stmt 0 discriminator 1
 1166 05b2 F5EEC0AA 		fcmpezs	s21
 1167 05b6 F1EE10FA 		fmstat
 1168 05ba 7FF537AF 		bpl	.L129
 1169              		.loc 1 520 0 is_stmt 1
 1170 05be B1EE4BBA 		fnegs	s22, s22
 1171              	.LVL107:
 1172              		.loc 1 522 0
 1173 05c2 D3ED020A 		flds	s1, [r3, #8]
 1174 05c6 93ED031A 		flds	s2, [r3, #12]
 1175 05ca 99ED452A 		flds	s4, [r9, #276]
 1176 05ce F1EE6A1A 		fnegs	s3, s21
 1177              	.LVL108:
 1178 05d2 B0EE4B0A 		fcpys	s0, s22
 1179 05d6 FFF7FEFF 		bl	utils_map
 1180              	.LVL109:
 1181              		.loc 1 523 0
 1182 05da F1EE40AA 		fnegs	s21, s0
 1183              	.LVL110:
 1184 05de 25E7     		b	.L129
 1185              	.LVL111:
 1186              	.L236:
 1187              	.LBE112:
 1188              		.loc 1 251 0
 1189 05e0 0720     		movs	r0, #7
 1190 05e2 FFF7FEFF 		bl	led_external_set_state
 1191              	.LVL112:
 1192              		.loc 1 252 0
 1193 05e6 24E5     		b	.L35
 1194              	.LVL113:
 1195              	.L228:
 1196              		.loc 1 420 0
 1197 05e8 D9ED02AA 		flds	s21, [r9, #8]
ARM GAS  /tmp/ccZdF5RF.s 			page 22


 1198 05ec F0EEEAAA 		fabss	s21, s21
 1199 05f0 67EEAAAA 		fmuls	s21, s15, s21
 1200              	.LVL114:
 1201              	.L233:
 1202 05f4 F0EEEACA 		fabss	s25, s21
 1203 05f8 9BE6     		b	.L82
 1204              	.L249:
 1205 05fa 00BF     		.align	2
 1206              	.L248:
 1207 05fc 00000000 		.word	.LANCHOR1
 1208 0600 00000000 		.word	ch
 1209 0604 00000000 		.word	.LANCHOR14
 1210 0608 0AD7233C 		.word	1008981770
 1211 060c 00000000 		.word	0
 1212 0610 00000000 		.word	.LANCHOR13
 1213 0614 00007A44 		.word	1148846080
 1214 0618 6F12833A 		.word	981668463
 1215              	.LVL115:
 1216              	.L241:
 1217              	.LBB113:
 1218              		.loc 1 469 0
 1219 061c 5FED03CA 		flds	s25, .L248+24
 1220              		.loc 1 471 0
 1221 0620 8DED04CA 		fsts	s24, [sp, #16]
 1222              	.LBE113:
 1223              		.loc 1 465 0
 1224 0624 B0EEC77A 		fabss	s14, s14
 1225              	.LVL116:
 1226 0628 77EE877A 		fadds	s15, s15, s14
 1227              	.LBB114:
 1228              		.loc 1 469 0
 1229 062c 66EEAC6A 		fmuls	s13, s13, s25
 1230              	.LVL117:
 1231              		.loc 1 473 0
 1232 0630 B0EE6A0A 		fcpys	s0, s21
 1233              		.loc 1 469 0
 1234 0634 C7EEA6CA 		fdivs	s25, s15, s13
 1235              	.LVL118:
 1236              		.loc 1 473 0
 1237 0638 04A8     		add	r0, sp, #16
 1238              	.LVL119:
 1239 063a F0EE6C0A 		fcpys	s1, s25
 1240 063e FFF7FEFF 		bl	utils_step_towards
 1241              	.LVL120:
 1242              		.loc 1 474 0
 1243 0642 DDED04AA 		flds	s21, [sp, #16]
 1244              	.LVL121:
 1245              		.loc 1 479 0
 1246 0646 3B78     		ldrb	r3, [r7]	@ zero_extendqisi2
 1247              		.loc 1 478 0
 1248 0648 CDED05AA 		fsts	s21, [sp, #20]
 1249              		.loc 1 479 0
 1250 064c 002B     		cmp	r3, #0
 1251 064e 71D0     		beq	.L111
 1252              		.loc 1 480 0
 1253 0650 78EE2A7A 		fadds	s15, s16, s21
 1254 0654 B1EE047A 		fconsts	s14, #20
ARM GAS  /tmp/ccZdF5RF.s 			page 23


 1255 0658 F0EEE77A 		fabss	s15, s15
 1256 065c F4EEC77A 		fcmpes	s15, s14
 1257 0660 F1EE10FA 		fmstat
 1258 0664 00F3E180 		bgt	.L244
 1259              	.L112:
 1260              	.LVL122:
 1261              		.loc 1 491 0
 1262 0668 B4EEEACA 		fcmpes	s24, s21
 1263 066c F1EE10FA 		fmstat
 1264 0670 3FF7C5AE 		bgt	.L109
 1265 0674 F0EE6A7A 		fcpys	s15, s21
 1266 0678 B0EE6A7A 		fcpys	s14, s21
 1267              	.LVL123:
 1268              	.L116:
 1269              		.loc 1 491 0 is_stmt 0 discriminator 3
 1270 067c DDED036A 		flds	s13, [sp, #12]
 1271 0680 1FED1B6A 		flds	s12, .L248+28
 1272 0684 F0EEE66A 		fabss	s13, s13
 1273 0688 F4EEC66A 		fcmpes	s13, s12
 1274 068c F1EE10FA 		fmstat
 1275 0690 D4BF     		ite	le
 1276 0692 F0EE47AA 		fcpysle	s21, s14
 1277 0696 F0EE67AA 		fcpysgt	s21, s15
 1278              	.LVL124:
 1279 069a B0E6     		b	.L109
 1280              	.LVL125:
 1281              	.L240:
 1282              	.LBE114:
 1283              		.loc 1 291 0 is_stmt 1
 1284 069c 0320     		movs	r0, #3
 1285 069e FFF7FEFF 		bl	led_external_set_state
 1286              	.LVL126:
 1287 06a2 43E5     		b	.L53
 1288              	.LVL127:
 1289              	.L237:
 1290              		.loc 1 283 0
 1291 06a4 0520     		movs	r0, #5
 1292 06a6 FFF7FEFF 		bl	led_external_set_state
 1293              	.LVL128:
 1294 06aa 3FE5     		b	.L53
 1295              	.LVL129:
 1296              	.L69:
 1297              	.LBB115:
 1298              		.loc 1 345 0
 1299 06ac 66EE266A 		fmuls	s13, s12, s13
 1300              		.loc 1 341 0
 1301 06b0 624B     		ldr	r3, .L250
 1302 06b2 DFED635A 		flds	s11, .L250+4
 1303 06b6 D3ED007A 		flds	s15, [r3]
 1304              	.LVL130:
 1305              		.loc 1 345 0
 1306 06ba 86EE877A 		fdivs	s14, s13, s14
 1307 06be F4EE657A 		fcmps	s15, s11
 1308 06c2 F1EE10FA 		fmstat
 1309 06c6 48BF     		it	mi
 1310 06c8 F0EE657A 		fcpysmi	s15, s11
 1311 06cc 77EE277A 		fadds	s15, s14, s15
ARM GAS  /tmp/ccZdF5RF.s 			page 24


 1312 06d0 C3ED007A 		fsts	s15, [r3]
 1313 06d4 6AE5     		b	.L68
 1314              	.LVL131:
 1315              	.L238:
 1316              		.loc 1 323 0 discriminator 1
 1317 06d6 F1EE10FA 		fmstat
 1318 06da 7FF764AD 		ble	.L66
 1319              	.L65:
 1320              		.loc 1 324 0
 1321 06de 99ED3E7A 		flds	s14, [r9, #248]
 1322 06e2 F0EEE77A 		fabss	s15, s15
 1323              	.LVL132:
 1324 06e6 F4EEC77A 		fcmpes	s15, s14
 1325 06ea F1EE10FA 		fmstat
 1326 06ee 3FF7A0AC 		bgt	.L35
 1327              		.loc 1 328 0
 1328 06f2 524A     		ldr	r2, .L250
 1329 06f4 0023     		movs	r3, #0
 1330 06f6 1360     		str	r3, [r2]	@ float
 1331              	.LVL133:
 1332 06f8 55E5     		b	.L66
 1333              	.LVL134:
 1334              	.L42:
 1335              	.LBE115:
 1336              		.loc 1 256 0 discriminator 5
 1337 06fa F0EEC87A 		fabss	s15, s16
 1338              		.loc 1 255 0 discriminator 5
 1339 06fe B1EE047A 		fconsts	s14, #20
 1340 0702 F4EEC77A 		fcmpes	s15, s14
 1341 0706 F1EE10FA 		fmstat
 1342 070a 7FF5BAAC 		bpl	.L41
 1343              		.loc 1 257 0
 1344 070e 3B78     		ldrb	r3, [r7]	@ zero_extendqisi2
 1345 0710 4C4A     		ldr	r2, .L250+8
 1346 0712 002B     		cmp	r3, #0
 1347 0714 00F08680 		beq	.L44
 1348              		.loc 1 258 0
 1349 0718 0020     		movs	r0, #0
 1350 071a 1070     		strb	r0, [r2]
 1351 071c B2E4     		b	.L40
 1352              	.LVL135:
 1353              	.L144:
 1354              	.LBB116:
 1355              	.LBB74:
 1356              	.LBB71:
 1357              		.loc 1 550 0
 1358 071e B0EE480A 		fcpys	s0, s16
 1359 0722 FFF7FEFF 		bl	comm_can_set_current
 1360              	.LVL136:
 1361 0726 C8E6     		b	.L139
 1362              	.LVL137:
 1363              	.L239:
 1364              	.LBE71:
 1365              	.LBE74:
 1366              	.LBE116:
 1367              	.LBB117:
 1368              	.LBB95:
ARM GAS  /tmp/ccZdF5RF.s 			page 25


 1369              	.LBB94:
 1370              	.LBB92:
 1371              		.loc 1 376 0
 1372 0728 D0B2     		uxtb	r0, r2
 1373              	.LVL138:
 1374 072a B0EE6A0A 		fcpys	s0, s21
 1375 072e FFF7FEFF 		bl	comm_can_set_duty
 1376              	.LVL139:
 1377 0732 7BE5     		b	.L78
 1378              	.LVL140:
 1379              	.L111:
 1380              	.LBE92:
 1381              	.LBE94:
 1382              	.LBE95:
 1383              	.LBE117:
 1384              	.LBB118:
 1385              		.loc 1 484 0
 1386 0734 7AEEC87A 		fsubs	s15, s21, s16
 1387 0738 B1EE047A 		fconsts	s14, #20
 1388 073c F0EEE77A 		fabss	s15, s15
 1389 0740 F4EEC77A 		fcmpes	s15, s14
 1390 0744 F1EE10FA 		fmstat
 1391 0748 8EDD     		ble	.L112
 1392              		.loc 1 485 0
 1393 074a B0EE480A 		fcpys	s0, s16
 1394              	.L234:
 1395 074e 7CEEAC0A 		fadds	s1, s25, s25
 1396 0752 05A8     		add	r0, sp, #20
 1397 0754 FFF7FEFF 		bl	utils_step_towards
 1398              	.LVL141:
 1399              		.loc 1 491 0
 1400 0758 B4EEEACA 		fcmpes	s24, s21
 1401 075c F1EE10FA 		fmstat
 1402 0760 DDED057A 		flds	s15, [sp, #20]
 1403 0764 9DED047A 		flds	s14, [sp, #16]
 1404              	.LVL142:
 1405 0768 88DD     		ble	.L116
 1406              		.loc 1 491 0 is_stmt 0 discriminator 2
 1407 076a B4EEE77A 		fcmpes	s14, s15
 1408 076e F1EE10FA 		fmstat
 1409 0772 83DC     		bgt	.L116
 1410 0774 F0EE47AA 		fcpys	s21, s14
 1411              	.LVL143:
 1412 0778 41E6     		b	.L109
 1413              	.LVL144:
 1414              	.L221:
 1415              	.LBE118:
 1416              		.loc 1 275 0 is_stmt 1
 1417 077a F1EE600A 		fnegs	s1, s1
 1418 077e 92ED0E0A 		flds	s0, [r2, #56]
 1419 0782 3148     		ldr	r0, .L250+12
 1420 0784 3149     		ldr	r1, .L250+16
 1421 0786 FFF7FEFF 		bl	calculate_throttle_curve_chuk
 1422              	.LVL145:
 1423 078a F1EE400A 		fnegs	s1, s0
 1424 078e CDED030A 		fsts	s1, [sp, #12]
 1425 0792 A8E4     		b	.L46
ARM GAS  /tmp/ccZdF5RF.s 			page 26


 1426              	.LVL146:
 1427              	.L242:
 1428              		.loc 1 501 0
 1429 0794 B0EE6A0A 		fcpys	s0, s21
 1430 0798 FFF7FEFF 		bl	mc_interface_set_brake_current
 1431              	.LVL147:
 1432              	.LBB119:
 1433              		.loc 1 504 0
 1434 079c 4FF00009 		mov	r9, #0
 1435              	.LVL148:
 1436              	.L124:
 1437              	.LBB120:
 1438              		.loc 1 505 0
 1439 07a0 4846     		mov	r0, r9
 1440 07a2 FFF7FEFF 		bl	comm_can_get_status_msg_index
 1441              	.LVL149:
 1442              		.loc 1 507 0
 1443 07a6 0268     		ldr	r2, [r0]
 1444 07a8 002A     		cmp	r2, #0
 1445              	.LBE120:
 1446              		.loc 1 504 0
 1447 07aa 09F10109 		add	r9, r9, #1
 1448              	.LVL150:
 1449              	.LBB127:
 1450              		.loc 1 507 0
 1451 07ae 0EDB     		blt	.L122
 1452              	.LBB121:
 1453              	.LBB122:
 1454              	.LBB123:
 1455              	.LBB124:
 1456              		.loc 3 231 0 discriminator 1
 1457 07b0 274B     		ldr	r3, .L250+20
 1458              	.LBE124:
 1459              	.LBE123:
 1460              		.loc 3 267 0 discriminator 1
 1461 07b2 4168     		ldr	r1, [r0, #4]
 1462              	.LBB126:
 1463              	.LBB125:
 1464              		.loc 3 231 0 discriminator 1
 1465 07b4 9B6A     		ldr	r3, [r3, #40]
 1466              	.LBE125:
 1467              	.LBE126:
 1468              		.loc 3 267 0 discriminator 1
 1469 07b6 5B1A     		subs	r3, r3, r1
 1470 07b8 07EE903A 		fmsr	s15, r3	@ int
 1471              	.LBE122:
 1472              	.LBE121:
 1473              		.loc 1 507 0 discriminator 1
 1474 07bc F8EE677A 		fuitos	s15, s15
 1475 07c0 C7EE8A7A 		fdivs	s15, s15, s20
 1476 07c4 F4EEE97A 		fcmpes	s15, s19
 1477 07c8 F1EE10FA 		fmstat
 1478 07cc 24D4     		bmi	.L245
 1479              	.LVL151:
 1480              	.L122:
 1481              	.LBE127:
 1482              		.loc 1 504 0 discriminator 2
ARM GAS  /tmp/ccZdF5RF.s 			page 27


 1483 07ce B9F1030F 		cmp	r9, #3
 1484 07d2 E5D1     		bne	.L124
 1485 07d4 2DE4     		b	.L35
 1486              	.LVL152:
 1487              	.L243:
 1488              	.LBE119:
 1489              	.LBB129:
 1490              	.LBB75:
 1491              		.loc 1 557 0
 1492 07d6 DFED1A0A 		flds	s1, .L250+4
 1493 07da 92ED081A 		flds	s2, [r2, #32]
 1494 07de F0EE6A1A 		fcpys	s3, s21
 1495 07e2 3BEECB0A 		fsubs	s0, s23, s22
 1496              	.LVL153:
 1497 07e6 B0EE602A 		fcpys	s4, s1
 1498 07ea FFF7FEFF 		bl	utils_map
 1499              	.LVL154:
 1500              		.loc 1 558 0
 1501 07ee 99ED457A 		flds	s14, [r9, #276]
 1502              		.loc 1 559 0
 1503 07f2 DFED137A 		flds	s15, .L250+4
 1504 07f6 B4EE470A 		fcmps	s0, s14
 1505              		.loc 1 557 0
 1506 07fa F0EE40AA 		fcpys	s21, s0
 1507              	.LVL155:
 1508              		.loc 1 559 0
 1509 07fe F1EE10FA 		fmstat
 1510 0802 48BF     		it	mi
 1511 0804 F0EE67AA 		fcpysmi	s21, s15
 1512 0808 63E6     		b	.L138
 1513              	.LVL156:
 1514              	.L90:
 1515              	.LBE75:
 1516              	.LBE129:
 1517              	.LBB130:
 1518              		.loc 1 408 0
 1519 080a FFF7FEFF 		bl	mc_interface_get_max_current_at_current_motor_voltage
 1520              	.LVL157:
 1521 080e 9DED037A 		flds	s14, [sp, #12]
 1522 0812 60EE07AA 		fmuls	s21, s0, s14
 1523              	.LVL158:
 1524 0816 71E5     		b	.L91
 1525              	.LVL159:
 1526              	.L245:
 1527              	.LBE130:
 1528              	.LBB131:
 1529              	.LBB128:
 1530              		.loc 1 508 0
 1531 0818 D0B2     		uxtb	r0, r2
 1532              	.LVL160:
 1533 081a B0EE6A0A 		fcpys	s0, s21
 1534 081e FFF7FEFF 		bl	comm_can_set_current_brake
 1535              	.LVL161:
 1536 0822 D4E7     		b	.L122
 1537              	.LVL162:
 1538              	.L44:
 1539              	.LBE128:
ARM GAS  /tmp/ccZdF5RF.s 			page 28


 1540              	.LBE131:
 1541              		.loc 1 260 0
 1542 0824 0123     		movs	r3, #1
 1543 0826 1370     		strb	r3, [r2]
 1544 0828 2CE4     		b	.L40
 1545              	.LVL163:
 1546              	.L244:
 1547              	.LBB132:
 1548              		.loc 1 481 0
 1549 082a B1EE480A 		fnegs	s0, s16
 1550 082e 8EE7     		b	.L234
 1551              	.LVL164:
 1552              	.L151:
 1553              	.LBE132:
 1554              		.loc 1 393 0
 1555 0830 DFED03CA 		flds	s25, .L250+4
 1556              		.loc 1 390 0
 1557 0834 F0EE6CAA 		fcpys	s21, s25
 1558 0838 7BE5     		b	.L82
 1559              	.L251:
 1560 083a 00BF     		.align	2
 1561              	.L250:
 1562 083c 00000000 		.word	.LANCHOR13
 1563 0840 00000000 		.word	0
 1564 0844 00000000 		.word	.LANCHOR3
 1565 0848 00000000 		.word	.LANCHOR8
 1566 084c 00000000 		.word	.LANCHOR9
 1567 0850 00000000 		.word	ch
 1568              	.LBE134:
 1569              		.cfi_endproc
 1570              	.LFE262:
 1571              		.size	output_thread, .-output_thread
 1572              		.section	.text.app_nunchuk_configure,"ax",%progbits
 1573              		.align	2
 1574              		.p2align 4,,15
 1575              		.global	app_nunchuk_configure
 1576              		.thumb
 1577              		.thumb_func
 1578              		.type	app_nunchuk_configure, %function
 1579              	app_nunchuk_configure:
 1580              	.LFB257:
 1581              		.loc 1 96 0
 1582              		.cfi_startproc
 1583              		@ args = 0, pretend = 0, frame = 0
 1584              		@ frame_needed = 0, uses_anonymous_args = 0
 1585              	.LVL165:
 1586 0000 2DE9F04F 		push	{r4, r5, r6, r7, r8, r9, r10, fp, lr}
 1587              		.cfi_def_cfa_offset 36
 1588              		.cfi_offset 4, -36
 1589              		.cfi_offset 5, -32
 1590              		.cfi_offset 6, -28
 1591              		.cfi_offset 7, -24
 1592              		.cfi_offset 8, -20
 1593              		.cfi_offset 9, -16
 1594              		.cfi_offset 10, -12
 1595              		.cfi_offset 11, -8
 1596              		.cfi_offset 14, -4
ARM GAS  /tmp/ccZdF5RF.s 			page 29


 1597              		.loc 1 97 0
 1598 0004 0646     		mov	r6, r0
 1599              		.loc 1 96 0
 1600 0006 0C46     		mov	r4, r1
 1601              		.loc 1 97 0
 1602 0008 0FCE     		ldmia	r6!, {r0, r1, r2, r3}
 1603              	.LVL166:
 1604 000a 2C4D     		ldr	r5, .L254
 1605              		.loc 1 98 0
 1606 000c 2C4F     		ldr	r7, .L254+4
 1607              		.loc 1 100 0
 1608 000e DFF8B490 		ldr	r9, .L254+8
 1609              		.loc 1 105 0
 1610 0012 DFF8B480 		ldr	r8, .L254+12
 1611              		.loc 1 111 0
 1612 0016 DFF8B4C0 		ldr	ip, .L254+16
 1613              		.loc 1 116 0
 1614 001a DFF8B4E0 		ldr	lr, .L254+20
 1615              		.loc 1 97 0
 1616 001e 0FC5     		stmia	r5!, {r0, r1, r2, r3}
 1617 0020 0FCE     		ldmia	r6!, {r0, r1, r2, r3}
 1618              	.LVL167:
 1619 0022 0FC5     		stmia	r5!, {r0, r1, r2, r3}
 1620 0024 0FCE     		ldmia	r6!, {r0, r1, r2, r3}
 1621              	.LVL168:
 1622 0026 0FC5     		stmia	r5!, {r0, r1, r2, r3}
 1623              		.loc 1 98 0
 1624 0028 0FCC     		ldmia	r4!, {r0, r1, r2, r3}
 1625              	.LVL169:
 1626              		.loc 1 97 0
 1627 002a 3668     		ldr	r6, [r6]
 1628              	.LVL170:
 1629 002c 2E60     		str	r6, [r5]
 1630              		.loc 1 98 0
 1631 002e 3D46     		mov	r5, r7
 1632 0030 0FC5     		stmia	r5!, {r0, r1, r2, r3}
 1633 0032 0FCC     		ldmia	r4!, {r0, r1, r2, r3}
 1634              	.LVL171:
 1635 0034 0FC5     		stmia	r5!, {r0, r1, r2, r3}
 1636 0036 0FCC     		ldmia	r4!, {r0, r1, r2, r3}
 1637              	.LVL172:
 1638 0038 0FC5     		stmia	r5!, {r0, r1, r2, r3}
 1639 003a 94E80700 		ldmia	r4, {r0, r1, r2}
 1640 003e 85E80700 		stmia	r5, {r0, r1, r2}
 1641              		.loc 1 101 0
 1642 0042 3B69     		ldr	r3, [r7, #16]	@ float
 1643 0044 C9F80430 		str	r3, [r9, #4]	@ float
 1644              		.loc 1 102 0
 1645 0048 7869     		ldr	r0, [r7, #20]	@ float
 1646              		.loc 1 103 0
 1647 004a B969     		ldr	r1, [r7, #24]	@ float
 1648              		.loc 1 106 0
 1649 004c 7A68     		ldr	r2, [r7, #4]	@ float
 1650              		.loc 1 102 0
 1651 004e C9F80800 		str	r0, [r9, #8]	@ float
 1652              		.loc 1 100 0
 1653 0052 4FF0000A 		mov	r10, #0
ARM GAS  /tmp/ccZdF5RF.s 			page 30


 1654              		.loc 1 104 0
 1655 0056 4FF07E53 		mov	r3, #1065353216
 1656              		.loc 1 103 0
 1657 005a C9F80C10 		str	r1, [r9, #12]	@ float
 1658              		.loc 1 106 0
 1659 005e C8F80420 		str	r2, [r8, #4]	@ float
 1660              		.loc 1 100 0
 1661 0062 C9F800A0 		str	r10, [r9]	@ float
 1662              		.loc 1 105 0
 1663 0066 C8F800A0 		str	r10, [r8]	@ float
 1664              		.loc 1 104 0
 1665 006a C9F81030 		str	r3, [r9, #16]	@ float
 1666              		.loc 1 107 0
 1667 006e D7F808B0 		ldr	fp, [r7, #8]	@ float
 1668              		.loc 1 108 0
 1669 0072 D7F80C90 		ldr	r9, [r7, #12]	@ float
 1670              		.loc 1 112 0
 1671 0076 FE6A     		ldr	r6, [r7, #44]	@ float
 1672              		.loc 1 113 0
 1673 0078 3D6B     		ldr	r5, [r7, #48]	@ float
 1674              		.loc 1 114 0
 1675 007a 7C6B     		ldr	r4, [r7, #52]	@ float
 1676              	.LVL173:
 1677              		.loc 1 117 0
 1678 007c 386A     		ldr	r0, [r7, #32]	@ float
 1679              		.loc 1 118 0
 1680 007e 796A     		ldr	r1, [r7, #36]	@ float
 1681              		.loc 1 119 0
 1682 0080 BA6A     		ldr	r2, [r7, #40]	@ float
 1683              		.loc 1 107 0
 1684 0082 C8F808B0 		str	fp, [r8, #8]	@ float
 1685              		.loc 1 109 0
 1686 0086 C8F81030 		str	r3, [r8, #16]	@ float
 1687              		.loc 1 108 0
 1688 008a C8F80C90 		str	r9, [r8, #12]	@ float
 1689              		.loc 1 112 0
 1690 008e CCF80460 		str	r6, [ip, #4]	@ float
 1691              		.loc 1 111 0
 1692 0092 CCF800A0 		str	r10, [ip]	@ float
 1693              		.loc 1 115 0
 1694 0096 CCF81030 		str	r3, [ip, #16]	@ float
 1695              		.loc 1 113 0
 1696 009a CCF80850 		str	r5, [ip, #8]	@ float
 1697              		.loc 1 114 0
 1698 009e CCF80C40 		str	r4, [ip, #12]	@ float
 1699              		.loc 1 116 0
 1700 00a2 CEF800A0 		str	r10, [lr]	@ float
 1701              		.loc 1 120 0
 1702 00a6 CEF81030 		str	r3, [lr, #16]	@ float
 1703              		.loc 1 117 0
 1704 00aa CEF80400 		str	r0, [lr, #4]	@ float
 1705              		.loc 1 118 0
 1706 00ae CEF80810 		str	r1, [lr, #8]	@ float
 1707              		.loc 1 119 0
 1708 00b2 CEF80C20 		str	r2, [lr, #12]	@ float
 1709 00b6 BDE8F08F 		pop	{r4, r5, r6, r7, r8, r9, r10, fp, pc}
 1710              	.L255:
ARM GAS  /tmp/ccZdF5RF.s 			page 31


 1711 00ba 00BF     		.align	2
 1712              	.L254:
 1713 00bc 00000000 		.word	.LANCHOR1
 1714 00c0 00000000 		.word	.LANCHOR5
 1715 00c4 00000000 		.word	.LANCHOR6
 1716 00c8 00000000 		.word	.LANCHOR7
 1717 00cc 00000000 		.word	.LANCHOR8
 1718 00d0 00000000 		.word	.LANCHOR9
 1719              		.cfi_endproc
 1720              	.LFE257:
 1721              		.size	app_nunchuk_configure, .-app_nunchuk_configure
 1722              		.section	.text.app_nunchuk_start,"ax",%progbits
 1723              		.align	2
 1724              		.p2align 4,,15
 1725              		.global	app_nunchuk_start
 1726              		.thumb
 1727              		.thumb_func
 1728              		.type	app_nunchuk_start, %function
 1729              	app_nunchuk_start:
 1730              	.LFB258:
 1731              		.loc 1 123 0
 1732              		.cfi_startproc
 1733              		@ args = 0, pretend = 0, frame = 0
 1734              		@ frame_needed = 0, uses_anonymous_args = 0
 1735 0000 30B5     		push	{r4, r5, lr}
 1736              		.cfi_def_cfa_offset 12
 1737              		.cfi_offset 4, -12
 1738              		.cfi_offset 5, -8
 1739              		.cfi_offset 14, -4
 1740 0002 83B0     		sub	sp, sp, #12
 1741              		.cfi_def_cfa_offset 24
 1742              		.loc 1 124 0
 1743 0004 064C     		ldr	r4, .L258
 1744              		.loc 1 125 0
 1745 0006 074B     		ldr	r3, .L258+4
 1746 0008 0748     		ldr	r0, .L258+8
 1747 000a 0022     		movs	r2, #0
 1748 000c 0092     		str	r2, [sp]
 1749              		.loc 1 124 0
 1750 000e 8025     		movs	r5, #128
 1751              		.loc 1 125 0
 1752 0010 4FF4B361 		mov	r1, #1432
 1753 0014 4022     		movs	r2, #64
 1754              		.loc 1 124 0
 1755 0016 6560     		str	r5, [r4, #4]
 1756              		.loc 1 125 0
 1757 0018 FFF7FEFF 		bl	chThdCreateStatic
 1758              	.LVL174:
 1759              		.loc 1 126 0
 1760 001c 03B0     		add	sp, sp, #12
 1761              		.cfi_def_cfa_offset 12
 1762              		@ sp needed
 1763 001e 30BD     		pop	{r4, r5, pc}
 1764              	.L259:
 1765              		.align	2
 1766              	.L258:
 1767 0020 00000000 		.word	.LANCHOR2
ARM GAS  /tmp/ccZdF5RF.s 			page 32


 1768 0024 00000000 		.word	chuk_thread
 1769 0028 00000000 		.word	.LANCHOR15
 1770              		.cfi_endproc
 1771              	.LFE258:
 1772              		.size	app_nunchuk_start, .-app_nunchuk_start
 1773              		.section	.text.app_nunchuk_get_decoded_chuk,"ax",%progbits
 1774              		.align	2
 1775              		.p2align 4,,15
 1776              		.global	app_nunchuk_get_decoded_chuk
 1777              		.thumb
 1778              		.thumb_func
 1779              		.type	app_nunchuk_get_decoded_chuk, %function
 1780              	app_nunchuk_get_decoded_chuk:
 1781              	.LFB259:
 1782              		.loc 1 128 0
 1783              		.cfi_startproc
 1784              		@ args = 0, pretend = 0, frame = 0
 1785              		@ frame_needed = 0, uses_anonymous_args = 0
 1786              		@ link register save eliminated.
 1787              		.loc 1 129 0
 1788 0000 064B     		ldr	r3, .L261
 1789 0002 9FED077A 		flds	s14, .L261+4
 1790 0006 D3ED017A 		flds	s15, [r3, #4]	@ int
 1791 000a 9FED060A 		flds	s0, .L261+8
 1792 000e F8EEE77A 		fsitos	s15, s15
 1793 0012 77EEC77A 		fsubs	s15, s15, s14
 1794              		.loc 1 130 0
 1795 0016 27EE800A 		fmuls	s0, s15, s0
 1796 001a 7047     		bx	lr
 1797              	.L262:
 1798              		.align	2
 1799              	.L261:
 1800 001c 00000000 		.word	.LANCHOR2
 1801 0020 00000043 		.word	1124073472
 1802 0024 0000003C 		.word	1006632960
 1803              		.cfi_endproc
 1804              	.LFE259:
 1805              		.size	app_nunchuk_get_decoded_chuk, .-app_nunchuk_get_decoded_chuk
 1806              		.section	.text.app_nunchuk_update_output,"ax",%progbits
 1807              		.align	2
 1808              		.p2align 4,,15
 1809              		.global	app_nunchuk_update_output
 1810              		.thumb
 1811              		.thumb_func
 1812              		.type	app_nunchuk_update_output, %function
 1813              	app_nunchuk_update_output:
 1814              	.LFB260:
 1815              		.loc 1 132 0
 1816              		.cfi_startproc
 1817              		@ args = 0, pretend = 0, frame = 0
 1818              		@ frame_needed = 0, uses_anonymous_args = 0
 1819              	.LVL175:
 1820 0000 70B5     		push	{r4, r5, r6, lr}
 1821              		.cfi_def_cfa_offset 16
 1822              		.cfi_offset 4, -16
 1823              		.cfi_offset 5, -12
 1824              		.cfi_offset 6, -8
ARM GAS  /tmp/ccZdF5RF.s 			page 33


 1825              		.cfi_offset 14, -4
 1826              		.loc 1 133 0
 1827 0002 104A     		ldr	r2, .L267
 1828 0004 1378     		ldrb	r3, [r2]	@ zero_extendqisi2
 1829              		.loc 1 132 0
 1830 0006 82B0     		sub	sp, sp, #8
 1831              		.cfi_def_cfa_offset 24
 1832              		.loc 1 132 0
 1833 0008 0446     		mov	r4, r0
 1834              		.loc 1 133 0
 1835 000a 03F0FF01 		and	r1, r3, #255
 1836 000e 63B9     		cbnz	r3, .L264
 1837              		.loc 1 136 0
 1838 0010 0091     		str	r1, [sp]
 1839              		.loc 1 135 0
 1840 0012 0D4D     		ldr	r5, .L267+4
 1841              		.loc 1 136 0
 1842 0014 0D48     		ldr	r0, .L267+8
 1843              	.LVL176:
 1844 0016 0E4B     		ldr	r3, .L267+12
 1845              		.loc 1 134 0
 1846 0018 0121     		movs	r1, #1
 1847 001a 1170     		strb	r1, [r2]
 1848              		.loc 1 135 0
 1849 001c 8026     		movs	r6, #128
 1850              		.loc 1 136 0
 1851 001e 4FF4B361 		mov	r1, #1432
 1852 0022 4022     		movs	r2, #64
 1853              		.loc 1 135 0
 1854 0024 6E60     		str	r6, [r5, #4]
 1855              		.loc 1 136 0
 1856 0026 FFF7FEFF 		bl	chThdCreateStatic
 1857              	.LVL177:
 1858              	.L264:
 1859              		.loc 1 139 0
 1860 002a 0FCC     		ldmia	r4!, {r0, r1, r2, r3}
 1861              	.LVL178:
 1862 002c 064D     		ldr	r5, .L267+4
 1863 002e 0FC5     		stmia	r5!, {r0, r1, r2, r3}
 1864 0030 94E80300 		ldmia	r4, {r0, r1}
 1865 0034 85E80300 		stmia	r5, {r0, r1}
 1866              		.loc 1 141 0
 1867 0038 02B0     		add	sp, sp, #8
 1868              		.cfi_def_cfa_offset 16
 1869              		@ sp needed
 1870 003a BDE87040 		pop	{r4, r5, r6, lr}
 1871              		.cfi_restore 14
 1872              		.cfi_restore 6
 1873              		.cfi_restore 5
 1874              		.cfi_restore 4
 1875              		.cfi_def_cfa_offset 0
 1876              	.LVL179:
 1877              		.loc 1 140 0
 1878 003e FFF7FEBF 		b	timeout_reset
 1879              	.LVL180:
 1880              	.L268:
 1881 0042 00BF     		.align	2
ARM GAS  /tmp/ccZdF5RF.s 			page 34


 1882              	.L267:
 1883 0044 00000000 		.word	.LANCHOR16
 1884 0048 00000000 		.word	.LANCHOR2
 1885 004c 00000000 		.word	.LANCHOR17
 1886 0050 00000000 		.word	output_thread
 1887              		.cfi_endproc
 1888              	.LFE260:
 1889              		.size	app_nunchuk_update_output, .-app_nunchuk_update_output
 1890              		.section	.text.chuk_thread,"ax",%progbits
 1891              		.align	2
 1892              		.p2align 4,,15
 1893              		.thumb
 1894              		.thumb_func
 1895              		.type	chuk_thread, %function
 1896              	chuk_thread:
 1897              	.LFB261:
 1898              		.loc 1 143 0
 1899              		.cfi_startproc
 1900              		@ args = 0, pretend = 0, frame = 48
 1901              		@ frame_needed = 0, uses_anonymous_args = 0
 1902              	.LVL181:
 1903 0000 2DE9F047 		push	{r4, r5, r6, r7, r8, r9, r10, lr}
 1904              		.cfi_def_cfa_offset 32
 1905              		.cfi_offset 4, -32
 1906              		.cfi_offset 5, -28
 1907              		.cfi_offset 6, -24
 1908              		.cfi_offset 7, -20
 1909              		.cfi_offset 8, -16
 1910              		.cfi_offset 9, -12
 1911              		.cfi_offset 10, -8
 1912              		.cfi_offset 14, -4
 1913              	.LBB135:
 1914              	.LBB136:
 1915              		.loc 2 135 0
 1916 0004 634B     		ldr	r3, .L284
 1917 0006 6449     		ldr	r1, .L284+4
 1918 0008 9A69     		ldr	r2, [r3, #24]
 1919              	.LBE136:
 1920              	.LBE135:
 1921              		.loc 1 147 0
 1922 000a 644B     		ldr	r3, .L284+8
 1923              	.LBB138:
 1924              	.LBB137:
 1925              		.loc 2 135 0
 1926 000c 9161     		str	r1, [r2, #24]
 1927              	.LBE137:
 1928              	.LBE138:
 1929              		.loc 1 143 0
 1930 000e 90B0     		sub	sp, sp, #64
 1931              		.cfi_def_cfa_offset 96
 1932              		.loc 1 147 0
 1933 0010 0122     		movs	r2, #1
 1934 0012 634F     		ldr	r7, .L284+12
 1935 0014 1A70     		strb	r2, [r3]
 1936              	.LVL182:
 1937              		.loc 1 156 0
 1938 0016 FFF7FEFF 		bl	hw_start_i2c
ARM GAS  /tmp/ccZdF5RF.s 			page 35


 1939              	.LVL183:
 1940              		.loc 1 157 0
 1941 001a 6420     		movs	r0, #100
 1942 001c FFF7FEFF 		bl	chThdSleep
 1943              	.LVL184:
 1944 0020 604E     		ldr	r6, .L284+16
 1945 0022 07F10408 		add	r8, r7, #4
 1946 0026 BC1D     		adds	r4, r7, #6
 1947 0028 04AD     		add	r5, sp, #16
 1948 002a 0AE0     		b	.L277
 1949              	.LVL185:
 1950              	.L272:
 1951              	.LBB139:
 1952              		.loc 1 224 0
 1953 002c 0223     		movs	r3, #2
 1954 002e 3360     		str	r3, [r6]
 1955              		.loc 1 225 0
 1956 0030 FFF7FEFF 		bl	hw_try_restore_i2c
 1957              	.LVL186:
 1958              		.loc 1 226 0
 1959 0034 4FF47A70 		mov	r0, #1000
 1960 0038 FFF7FEFF 		bl	chThdSleep
 1961              	.LVL187:
 1962              	.L276:
 1963              		.loc 1 229 0
 1964 003c 6420     		movs	r0, #100
 1965 003e FFF7FEFF 		bl	chThdSleep
 1966              	.LVL188:
 1967              	.L277:
 1968              		.loc 1 162 0
 1969 0042 F022     		movs	r2, #240
 1970              		.loc 1 163 0
 1971 0044 5523     		movs	r3, #85
 1972              		.loc 1 164 0
 1973 0046 5848     		ldr	r0, .L284+20
 1974              		.loc 1 162 0
 1975 0048 8DF81C20 		strb	r2, [sp, #28]
 1976              		.loc 1 163 0
 1977 004c 8DF81D30 		strb	r3, [sp, #29]
 1978              		.loc 1 165 0
 1979 0050 4FF03209 		mov	r9, #50
 1980              		.loc 1 164 0
 1981 0054 FFF7FEFF 		bl	i2cAcquireBus
 1982              	.LVL189:
 1983              		.loc 1 165 0
 1984 0058 0023     		movs	r3, #0
 1985 005a 0193     		str	r3, [sp, #4]
 1986 005c 0095     		str	r5, [sp]
 1987 005e CDF80890 		str	r9, [sp, #8]
 1988 0062 5148     		ldr	r0, .L284+20
 1989 0064 5221     		movs	r1, #82
 1990 0066 07AA     		add	r2, sp, #28
 1991 0068 0223     		movs	r3, #2
 1992 006a FFF7FEFF 		bl	i2cMasterTransmitTimeout
 1993              	.LVL190:
 1994 006e 8246     		mov	r10, r0
 1995              	.LVL191:
ARM GAS  /tmp/ccZdF5RF.s 			page 36


 1996              		.loc 1 166 0
 1997 0070 4D48     		ldr	r0, .L284+20
 1998              	.LVL192:
 1999 0072 FFF7FEFF 		bl	i2cReleaseBus
 2000              	.LVL193:
 2001              		.loc 1 169 0
 2002 0076 BAF1000F 		cmp	r10, #0
 2003 007a D7D1     		bne	.L272
 2004              		.loc 1 170 0
 2005 007c FB23     		movs	r3, #251
 2006              		.loc 1 172 0
 2007 007e 4A48     		ldr	r0, .L284+20
 2008              		.loc 1 171 0
 2009 0080 8DF81DA0 		strb	r10, [sp, #29]
 2010              		.loc 1 170 0
 2011 0084 8DF81C30 		strb	r3, [sp, #28]
 2012              		.loc 1 172 0
 2013 0088 FFF7FEFF 		bl	i2cAcquireBus
 2014              	.LVL194:
 2015              		.loc 1 173 0
 2016 008c 8DE82004 		stmia	sp, {r5, r10}
 2017 0090 CDF80890 		str	r9, [sp, #8]
 2018 0094 4448     		ldr	r0, .L284+20
 2019 0096 5221     		movs	r1, #82
 2020 0098 07AA     		add	r2, sp, #28
 2021 009a 0223     		movs	r3, #2
 2022 009c FFF7FEFF 		bl	i2cMasterTransmitTimeout
 2023              	.LVL195:
 2024 00a0 8246     		mov	r10, r0
 2025              	.LVL196:
 2026              		.loc 1 174 0
 2027 00a2 4148     		ldr	r0, .L284+20
 2028              	.LVL197:
 2029 00a4 FFF7FEFF 		bl	i2cReleaseBus
 2030              	.LVL198:
 2031              		.loc 1 178 0
 2032 00a8 BAF1000F 		cmp	r10, #0
 2033 00ac BED1     		bne	.L272
 2034              		.loc 1 180 0
 2035 00ae 3E48     		ldr	r0, .L284+20
 2036              		.loc 1 179 0
 2037 00b0 8DF81CA0 		strb	r10, [sp, #28]
 2038              		.loc 1 180 0
 2039 00b4 FFF7FEFF 		bl	i2cAcquireBus
 2040              	.LVL199:
 2041              		.loc 1 181 0
 2042 00b8 8DE82004 		stmia	sp, {r5, r10}
 2043 00bc CDF80890 		str	r9, [sp, #8]
 2044 00c0 3948     		ldr	r0, .L284+20
 2045 00c2 5221     		movs	r1, #82
 2046 00c4 07AA     		add	r2, sp, #28
 2047 00c6 0123     		movs	r3, #1
 2048 00c8 FFF7FEFF 		bl	i2cMasterTransmitTimeout
 2049              	.LVL200:
 2050 00cc 8246     		mov	r10, r0
 2051              	.LVL201:
 2052              		.loc 1 182 0
ARM GAS  /tmp/ccZdF5RF.s 			page 37


 2053 00ce 3648     		ldr	r0, .L284+20
 2054              	.LVL202:
 2055 00d0 FFF7FEFF 		bl	i2cReleaseBus
 2056              	.LVL203:
 2057              		.loc 1 186 0
 2058 00d4 BAF1000F 		cmp	r10, #0
 2059 00d8 A8D1     		bne	.L272
 2060              		.loc 1 187 0
 2061 00da 1E20     		movs	r0, #30
 2062 00dc FFF7FEFF 		bl	chThdSleep
 2063              	.LVL204:
 2064              		.loc 1 189 0
 2065 00e0 3148     		ldr	r0, .L284+20
 2066 00e2 FFF7FEFF 		bl	i2cAcquireBus
 2067              	.LVL205:
 2068              		.loc 1 190 0
 2069 00e6 CDF80090 		str	r9, [sp]
 2070 00ea 2F48     		ldr	r0, .L284+20
 2071 00ec 5221     		movs	r1, #82
 2072 00ee 2A46     		mov	r2, r5
 2073 00f0 0623     		movs	r3, #6
 2074 00f2 FFF7FEFF 		bl	i2cMasterReceiveTimeout
 2075              	.LVL206:
 2076 00f6 8146     		mov	r9, r0
 2077              	.LVL207:
 2078              		.loc 1 191 0
 2079 00f8 2B48     		ldr	r0, .L284+20
 2080              	.LVL208:
 2081 00fa FFF7FEFF 		bl	i2cReleaseBus
 2082              	.LVL209:
 2083              		.loc 1 195 0
 2084 00fe B9F1000F 		cmp	r9, #0
 2085 0102 93D1     		bne	.L272
 2086 0104 264B     		ldr	r3, .L284+12
 2087 0106 2946     		mov	r1, r5
 2088 0108 0122     		movs	r2, #1
 2089              	.L274:
 2090              	.LVL210:
 2091              	.LBB140:
 2092              	.LBB141:
 2093              		.loc 1 200 0
 2094 010a 13F801EB 		ldrb	lr, [r3], #1	@ zero_extendqisi2
 2095              	.LVL211:
 2096 010e 11F8010B 		ldrb	r0, [r1], #1	@ zero_extendqisi2
 2097              		.loc 1 201 0
 2098 0112 8645     		cmp	lr, r0
 2099 0114 18BF     		it	ne
 2100 0116 0022     		movne	r2, #0
 2101              	.LVL212:
 2102              		.loc 1 199 0
 2103 0118 A342     		cmp	r3, r4
 2104 011a F6D1     		bne	.L274
 2105              	.LBE141:
 2106              		.loc 1 205 0
 2107 011c 95E80300 		ldmia	r5, {r0, r1}
 2108 0120 3860     		str	r0, [r7]
 2109 0122 A8F80010 		strh	r1, [r8]	@ movhi
ARM GAS  /tmp/ccZdF5RF.s 			page 38


 2110              		.loc 1 207 0
 2111 0126 32B1     		cbz	r2, .L283
 2112              	.LVL213:
 2113              	.L275:
 2114              		.loc 1 220 0
 2115 0128 FFF7FEFF 		bl	timeout_has_timeout
 2116              	.LVL214:
 2117 012c 0028     		cmp	r0, #0
 2118 012e 85D0     		beq	.L276
 2119              		.loc 1 221 0
 2120 0130 0123     		movs	r3, #1
 2121 0132 3360     		str	r3, [r6]
 2122 0134 82E7     		b	.L276
 2123              	.LVL215:
 2124              	.L283:
 2125              		.loc 1 211 0
 2126 0136 9DF81510 		ldrb	r1, [sp, #21]	@ zero_extendqisi2
 2127 013a 9DF812E0 		ldrb	lr, [sp, #18]	@ zero_extendqisi2
 2128              		.loc 1 213 0
 2129 013e 9DF81430 		ldrb	r3, [sp, #20]	@ zero_extendqisi2
 2130              	.LVL216:
 2131              		.loc 1 212 0
 2132 0142 9DF813C0 		ldrb	ip, [sp, #19]	@ zero_extendqisi2
 2133              		.loc 1 208 0
 2134 0146 3260     		str	r2, [r6]
 2135              		.loc 1 211 0
 2136 0148 C1F38100 		ubfx	r0, r1, #2, #2
 2137              		.loc 1 212 0
 2138 014c C1F30112 		ubfx	r2, r1, #4, #2
 2139              	.LVL217:
 2140              		.loc 1 211 0
 2141 0150 40EA8E00 		orr	r0, r0, lr, lsl #2
 2142              		.loc 1 212 0
 2143 0154 42EA8C0C 		orr	ip, r2, ip, lsl #2
 2144              		.loc 1 214 0
 2145 0158 01F0010E 		and	lr, r1, #1
 2146              		.loc 1 215 0
 2147 015c C1F34002 		ubfx	r2, r1, #1, #1
 2148              		.loc 1 213 0
 2149 0160 9B00     		lsls	r3, r3, #2
 2150 0162 43EA9113 		orr	r3, r3, r1, lsr #6
 2151              		.loc 1 209 0
 2152 0166 9DF81090 		ldrb	r9, [sp, #16]	@ zero_extendqisi2
 2153              	.LVL218:
 2154              		.loc 1 210 0
 2155 016a 9DF81110 		ldrb	r1, [sp, #17]	@ zero_extendqisi2
 2156              		.loc 1 211 0
 2157 016e 0C90     		str	r0, [sp, #48]
 2158              		.loc 1 214 0
 2159 0170 8EF0010E 		eor	lr, lr, #1
 2160              		.loc 1 215 0
 2161 0174 82F00102 		eor	r2, r2, #1
 2162              		.loc 1 217 0
 2163 0178 0AA8     		add	r0, sp, #40
 2164              		.loc 1 212 0
 2165 017a CDF834C0 		str	ip, [sp, #52]
 2166              		.loc 1 214 0
ARM GAS  /tmp/ccZdF5RF.s 			page 39


 2167 017e 8DF83DE0 		strb	lr, [sp, #61]
 2168              		.loc 1 215 0
 2169 0182 8DF83C20 		strb	r2, [sp, #60]
 2170              		.loc 1 213 0
 2171 0186 0E93     		str	r3, [sp, #56]
 2172              		.loc 1 209 0
 2173 0188 CDF82890 		str	r9, [sp, #40]
 2174              		.loc 1 210 0
 2175 018c 0B91     		str	r1, [sp, #44]
 2176              		.loc 1 217 0
 2177 018e FFF7FEFF 		bl	app_nunchuk_update_output
 2178              	.LVL219:
 2179 0192 C9E7     		b	.L275
 2180              	.L285:
 2181              		.align	2
 2182              	.L284:
 2183 0194 00000000 		.word	ch
 2184 0198 10000000 		.word	.LC1
 2185 019c 00000000 		.word	.LANCHOR18
 2186 01a0 00000000 		.word	.LANCHOR19
 2187 01a4 00000000 		.word	.LANCHOR0
 2188 01a8 00000000 		.word	I2CD2
 2189              	.LBE140:
 2190              	.LBE139:
 2191              		.cfi_endproc
 2192              	.LFE261:
 2193              		.size	chuk_thread, .-chuk_thread
 2194              		.section	.bss.prev_current.10298,"aw",%nobits
 2195              		.align	2
 2196              		.set	.LANCHOR14,. + 0
 2197              		.type	prev_current.10298, %object
 2198              		.size	prev_current.10298, 4
 2199              	prev_current.10298:
 2200 0000 00000000 		.space	4
 2201              		.section	.bss.chuk_thread_wa,"aw",%nobits
 2202              		.align	3
 2203              		.set	.LANCHOR15,. + 0
 2204              		.type	chuk_thread_wa, %object
 2205              		.size	chuk_thread_wa, 1432
 2206              	chuk_thread_wa:
 2207 0000 00000000 		.space	1432
 2207      00000000 
 2207      00000000 
 2207      00000000 
 2207      00000000 
 2208              		.section	.bss.throt_config,"aw",%nobits
 2209              		.align	2
 2210              		.set	.LANCHOR5,. + 0
 2211              		.type	throt_config, %object
 2212              		.size	throt_config, 60
 2213              	throt_config:
 2214 0000 00000000 		.space	60
 2214      00000000 
 2214      00000000 
 2214      00000000 
 2214      00000000 
 2215              		.section	.bss.output_thread_wa,"aw",%nobits
ARM GAS  /tmp/ccZdF5RF.s 			page 40


 2216              		.align	3
 2217              		.set	.LANCHOR17,. + 0
 2218              		.type	output_thread_wa, %object
 2219              		.size	output_thread_wa, 1432
 2220              	output_thread_wa:
 2221 0000 00000000 		.space	1432
 2221      00000000 
 2221      00000000 
 2221      00000000 
 2221      00000000 
 2222              		.section	.bss.is_reverse.10295,"aw",%nobits
 2223              		.set	.LANCHOR3,. + 0
 2224              		.type	is_reverse.10295, %object
 2225              		.size	is_reverse.10295, 1
 2226              	is_reverse.10295:
 2227 0000 00       		.space	1
 2228              		.section	.bss.nx,"aw",%nobits
 2229              		.align	2
 2230              		.set	.LANCHOR8,. + 0
 2231              		.type	nx, %object
 2232              		.size	nx, 20
 2233              	nx:
 2234 0000 00000000 		.space	20
 2234      00000000 
 2234      00000000 
 2234      00000000 
 2234      00000000 
 2235              		.section	.bss.filter_ptr.10304,"aw",%nobits
 2236              		.align	2
 2237              		.set	.LANCHOR10,. + 0
 2238              		.type	filter_ptr.10304, %object
 2239              		.size	filter_ptr.10304, 4
 2240              	filter_ptr.10304:
 2241 0000 00000000 		.space	4
 2242              		.section	.bss.filter_buffer.10303,"aw",%nobits
 2243              		.align	2
 2244              		.set	.LANCHOR11,. + 0
 2245              		.type	filter_buffer.10303, %object
 2246              		.size	filter_buffer.10303, 32
 2247              	filter_buffer.10303:
 2248 0000 00000000 		.space	32
 2248      00000000 
 2248      00000000 
 2248      00000000 
 2248      00000000 
 2249              		.section	.bss.is_running,"aw",%nobits
 2250              		.set	.LANCHOR18,. + 0
 2251              		.type	is_running, %object
 2252              		.size	is_running, 1
 2253              	is_running:
 2254 0000 00       		.space	1
 2255              		.section	.bss.chuck_d,"aw",%nobits
 2256              		.align	2
 2257              		.set	.LANCHOR2,. + 0
 2258              		.type	chuck_d, %object
 2259              		.size	chuck_d, 24
 2260              	chuck_d:
ARM GAS  /tmp/ccZdF5RF.s 			page 41


 2261 0000 00000000 		.space	24
 2261      00000000 
 2261      00000000 
 2261      00000000 
 2261      00000000 
 2262              		.section	.bss.was_z.10296,"aw",%nobits
 2263              		.set	.LANCHOR4,. + 0
 2264              		.type	was_z.10296, %object
 2265              		.size	was_z.10296, 1
 2266              	was_z.10296:
 2267 0000 00       		.space	1
 2268              		.section	.bss.was_pid.10301,"aw",%nobits
 2269              		.set	.LANCHOR12,. + 0
 2270              		.type	was_pid.10301, %object
 2271              		.size	was_pid.10301, 1
 2272              	was_pid.10301:
 2273 0000 00       		.space	1
 2274              		.section	.rodata.str1.4,"aMS",%progbits,1
 2275              		.align	2
 2276              	.LC0:
 2277 0000 4E756E63 		.ascii	"Nunchuk output\000"
 2277      68756B20 
 2277      6F757470 
 2277      757400
 2278 000f 00       		.space	1
 2279              	.LC1:
 2280 0010 4E756E63 		.ascii	"Nunchuk i2c\000"
 2280      68756B20 
 2280      69326300 
 2281              		.section	.bss.ny,"aw",%nobits
 2282              		.align	2
 2283              		.set	.LANCHOR9,. + 0
 2284              		.type	ny, %object
 2285              		.size	ny, 20
 2286              	ny:
 2287 0000 00000000 		.space	20
 2287      00000000 
 2287      00000000 
 2287      00000000 
 2287      00000000 
 2288              		.section	.bss.last_buffer.10284,"aw",%nobits
 2289              		.align	2
 2290              		.set	.LANCHOR19,. + 0
 2291              		.type	last_buffer.10284, %object
 2292              		.size	last_buffer.10284, 6
 2293              	last_buffer.10284:
 2294 0000 00000000 		.space	6
 2294      0000
 2295              		.section	.bss.chuck_error,"aw",%nobits
 2296              		.align	2
 2297              		.set	.LANCHOR0,. + 0
 2298              		.type	chuck_error, %object
 2299              		.size	chuck_error, 4
 2300              	chuck_error:
 2301 0000 00000000 		.space	4
 2302              		.section	.bss.config,"aw",%nobits
 2303              		.align	2
ARM GAS  /tmp/ccZdF5RF.s 			page 42


 2304              		.set	.LANCHOR1,. + 0
 2305              		.type	config, %object
 2306              		.size	config, 52
 2307              	config:
 2308 0000 00000000 		.space	52
 2308      00000000 
 2308      00000000 
 2308      00000000 
 2308      00000000 
 2309              		.section	.bss.output_running,"aw",%nobits
 2310              		.set	.LANCHOR16,. + 0
 2311              		.type	output_running, %object
 2312              		.size	output_running, 1
 2313              	output_running:
 2314 0000 00       		.space	1
 2315              		.section	.bss.pid_rpm.10310,"aw",%nobits
 2316              		.align	2
 2317              		.set	.LANCHOR13,. + 0
 2318              		.type	pid_rpm.10310, %object
 2319              		.size	pid_rpm.10310, 4
 2320              	pid_rpm.10310:
 2321 0000 00000000 		.space	4
 2322              		.section	.bss.px,"aw",%nobits
 2323              		.align	2
 2324              		.set	.LANCHOR6,. + 0
 2325              		.type	px, %object
 2326              		.size	px, 20
 2327              	px:
 2328 0000 00000000 		.space	20
 2328      00000000 
 2328      00000000 
 2328      00000000 
 2328      00000000 
 2329              		.section	.bss.py,"aw",%nobits
 2330              		.align	2
 2331              		.set	.LANCHOR7,. + 0
 2332              		.type	py, %object
 2333              		.size	py, 20
 2334              	py:
 2335 0000 00000000 		.space	20
 2335      00000000 
 2335      00000000 
 2335      00000000 
 2335      00000000 
 2336              		.text
 2337              	.Letext0:
 2338              		.file 4 "/usr/arm-none-eabi/include/machine/_default_types.h"
 2339              		.file 5 "/usr/arm-none-eabi/include/sys/_stdint.h"
 2340              		.file 6 "/usr/lib/gcc/arm-none-eabi/4.9.3/include/stddef.h"
 2341              		.file 7 "ChibiOS_3.0.2/os/rt/ports/ARMCMx/compilers/GCC/chtypes.h"
 2342              		.file 8 "ChibiOS_3.0.2/os/rt/include/chsystypes.h"
 2343              		.file 9 "ChibiOS_3.0.2/os/rt/include/chschd.h"
 2344              		.file 10 "ChibiOS_3.0.2/os/ext/CMSIS/ST/stm32f407xx.h"
 2345              		.file 11 "ChibiOS_3.0.2/os/rt/ports/ARMCMx/chcore.h"
 2346              		.file 12 "ChibiOS_3.0.2/os/rt/ports/ARMCMx/chcore_v7m.h"
 2347              		.file 13 "ChibiOS_3.0.2/os/rt/include/chtm.h"
 2348              		.file 14 "ChibiOS_3.0.2/os/rt/include/chsem.h"
ARM GAS  /tmp/ccZdF5RF.s 			page 43


 2349              		.file 15 "ChibiOS_3.0.2/os/rt/include/chmtx.h"
 2350              		.file 16 "ChibiOS_3.0.2/os/rt/include/chthreads.h"
 2351              		.file 17 "./datatypes.h"
 2352              		.file 18 "ChibiOS_3.0.2/os/hal/ports/STM32/STM32F4xx/stm32_dma.h"
 2353              		.file 19 "ChibiOS_3.0.2/os/hal/include/i2c.h"
 2354              		.file 20 "ChibiOS_3.0.2/os/hal/ports/STM32/LLD/I2Cv1/i2c_lld.h"
 2355              		.file 21 "ChibiOS_3.0.2/os/ext/CMSIS/include/core_cm4.h"
 2356              		.file 22 "./utils.h"
 2357              		.file 23 "./comm_can.h"
 2358              		.file 24 "./mc_interface.h"
 2359              		.file 25 "./timeout.h"
 2360              		.file 26 "./led_external.h"
 2361              		.file 27 "hwconf/hw.h"