ARM GAS  /tmp/cc0XcXNK.s 			page 1


   1              		.syntax unified
   2              		.cpu cortex-m4
   3              		.eabi_attribute 27, 1
   4              		.eabi_attribute 28, 1
   5              		.fpu fpv4-sp-d16
   6              		.eabi_attribute 20, 1
   7              		.eabi_attribute 21, 1
   8              		.eabi_attribute 23, 3
   9              		.eabi_attribute 24, 1
  10              		.eabi_attribute 25, 1
  11              		.eabi_attribute 26, 1
  12              		.eabi_attribute 30, 2
  13              		.eabi_attribute 34, 1
  14              		.eabi_attribute 18, 4
  15              		.thumb
  16              		.file	"commands.c"
  17              		.text
  18              	.Ltext0:
  19              		.cfi_sections	.debug_frame
  20              		.section	.text.detect_thread,"ax",%progbits
  21              		.align	2
  22              		.p2align 4,,15
  23              		.thumb
  24              		.thumb_func
  25              		.type	detect_thread, %function
  26              	detect_thread:
  27              	.LFB267:
  28              		.file 1 "commands.c"
  29              		.loc 1 1156 0
  30              		.cfi_startproc
  31              		@ args = 0, pretend = 0, frame = 16
  32              		@ frame_needed = 0, uses_anonymous_args = 0
  33              	.LVL0:
  34 0000 2DE9F04F 		push	{r4, r5, r6, r7, r8, r9, r10, fp, lr}
  35              		.cfi_def_cfa_offset 36
  36              		.cfi_offset 4, -36
  37              		.cfi_offset 5, -32
  38              		.cfi_offset 6, -28
  39              		.cfi_offset 7, -24
  40              		.cfi_offset 8, -20
  41              		.cfi_offset 9, -16
  42              		.cfi_offset 10, -12
  43              		.cfi_offset 11, -8
  44              		.cfi_offset 14, -4
  45              	.LBB80:
  46              	.LBB81:
  47              		.file 2 "ChibiOS_3.0.2/os/rt/include/chregistry.h"
  48              		.loc 2 135 0
  49 0004 304B     		ldr	r3, .L11
  50              	.LBE81:
  51              	.LBE80:
  52              		.loc 1 1161 0
  53 0006 314A     		ldr	r2, .L11+4
  54              	.LBB84:
  55              	.LBB82:
  56              		.loc 2 135 0
  57 0008 9B69     		ldr	r3, [r3, #24]
ARM GAS  /tmp/cc0XcXNK.s 			page 2


  58 000a 3149     		ldr	r1, .L11+8
  59 000c DFF8E4B0 		ldr	fp, .L11+44
  60 0010 DFF8E4A0 		ldr	r10, .L11+48
  61 0014 DFF8E490 		ldr	r9, .L11+52
  62 0018 DFF8CC80 		ldr	r8, .L11+32
  63 001c 2D4C     		ldr	r4, .L11+12
  64 001e 2E4F     		ldr	r7, .L11+16
  65              	.LBE82:
  66              	.LBE84:
  67              	.LBB85:
  68              		.loc 1 1166 0
  69 0020 2E4E     		ldr	r6, .L11+20
  70              	.LBE85:
  71              		.loc 1 1156 0
  72 0022 2DED028B 		fstmfdd	sp!, {d8}
  73              		.cfi_def_cfa_offset 44
  74              		.cfi_offset 80, -44
  75              		.cfi_offset 81, -40
  76              	.LBB96:
  77              		.loc 1 1169 0
  78 0026 DFED2E8A 		flds	s17, .L11+24
  79 002a 9FED2E8A 		flds	s16, .L11+28
  80              	.LBE96:
  81              	.LBB97:
  82              	.LBB83:
  83              		.loc 2 135 0
  84 002e 9961     		str	r1, [r3, #24]
  85              	.LBE83:
  86              	.LBE97:
  87              		.loc 1 1156 0
  88 0030 85B0     		sub	sp, sp, #20
  89              		.cfi_def_cfa_offset 64
  90              		.loc 1 1161 0
  91 0032 1360     		str	r3, [r2]
  92              	.LVL1:
  93              	.L5:
  94              	.LBB98:
  95              		.loc 1 1166 0
  96 0034 2C4D     		ldr	r5, .L11+32
  97              		.loc 1 1164 0
  98 0036 0120     		movs	r0, #1
  99 0038 FFF7FEFF 		bl	chEvtWaitAny
 100              	.LVL2:
 101              		.loc 1 1166 0
 102 003c 2946     		mov	r1, r5
 103 003e 9BED000A 		flds	s0, [fp]
 104 0042 DAED000A 		flds	s1, [r10]
 105 0046 99ED001A 		flds	s2, [r9]
 106 004a 2448     		ldr	r0, .L11+20
 107 004c 274A     		ldr	r2, .L11+36
 108 004e 224B     		ldr	r3, .L11+16
 109 0050 FFF7FEFF 		bl	conf_general_detect_motor_param
 110              	.LVL3:
 111 0054 0028     		cmp	r0, #0
 112 0056 31D0     		beq	.L2
 113 0058 D6ED007A 		flds	s15, [r6]
 114 005c 67EE887A 		fmuls	s15, s15, s16
ARM GAS  /tmp/cc0XcXNK.s 			page 3


 115 0060 FDEEE77A 		ftosizs	s15, s15
 116 0064 CDED017A 		fsts	s15, [sp, #4]	@ int
 117              	.L3:
 118              		.loc 1 1174 0
 119 0068 0122     		movs	r2, #1
 120 006a 1723     		movs	r3, #23
 121              		.loc 1 1175 0
 122 006c 1948     		ldr	r0, .L11+12
 123              		.loc 1 1174 0
 124 006e 0392     		str	r2, [sp, #12]
 125              		.loc 1 1175 0
 126 0070 0199     		ldr	r1, [sp, #4]
 127              		.loc 1 1174 0
 128 0072 2370     		strb	r3, [r4]
 129              		.loc 1 1175 0
 130 0074 03AA     		add	r2, sp, #12
 131 0076 FFF7FEFF 		bl	buffer_append_int32
 132              	.LVL4:
 133              		.loc 1 1176 0
 134 007a D8ED007A 		flds	s15, [r8]
 135 007e 1548     		ldr	r0, .L11+12
 136 0080 67EE887A 		fmuls	s15, s15, s16
 137 0084 03AA     		add	r2, sp, #12
 138 0086 FDEEE77A 		ftosizs	s15, s15
 139 008a 17EE901A 		fmrs	r1, s15	@ int
 140 008e FFF7FEFF 		bl	buffer_append_int32
 141              	.LVL5:
 142              	.LBB86:
 143              	.LBB87:
 144              		.loc 1 97 0
 145 0092 1749     		ldr	r1, .L11+40
 146              	.LBE87:
 147              	.LBE86:
 148              		.loc 1 1177 0
 149 0094 154A     		ldr	r2, .L11+36
 150 0096 039B     		ldr	r3, [sp, #12]
 151              	.LBB92:
 152              	.LBB88:
 153              		.loc 1 97 0
 154 0098 0D68     		ldr	r5, [r1]
 155              	.LBE88:
 156              	.LBE92:
 157              		.loc 1 1177 0
 158 009a 03CA     		ldmia	r2!, {r0, r1}
 159 009c 04EB030E 		add	lr, r4, r3
 160 00a0 E050     		str	r0, [r4, r3]	@ unaligned
 161              		.loc 1 1179 0
 162 00a2 3A68     		ldr	r2, [r7]
 163              		.loc 1 1177 0
 164 00a4 CEF80410 		str	r1, [lr, #4]	@ unaligned
 165              		.loc 1 1179 0
 166 00a8 0933     		adds	r3, r3, #9
 167              	.LBB93:
 168              	.LBB89:
 169              		.loc 1 98 0
 170 00aa 0A48     		ldr	r0, .L11+12
 171              	.LBE89:
ARM GAS  /tmp/cc0XcXNK.s 			page 4


 172              	.LBE93:
 173              		.loc 1 1179 0
 174 00ac 0393     		str	r3, [sp, #12]
 175              	.LBB94:
 176              	.LBB90:
 177              		.loc 1 98 0
 178 00ae 1946     		mov	r1, r3
 179              	.LBE90:
 180              	.LBE94:
 181              		.loc 1 1179 0
 182 00b0 8EF80820 		strb	r2, [lr, #8]
 183              	.LVL6:
 184              	.LBB95:
 185              	.LBB91:
 186              		.loc 1 97 0
 187 00b4 002D     		cmp	r5, #0
 188 00b6 BDD0     		beq	.L5
 189              		.loc 1 98 0
 190 00b8 A847     		blx	r5
 191              	.LVL7:
 192              	.LBE91:
 193              	.LBE95:
 194              	.LBE98:
 195              		.loc 1 1181 0
 196 00ba BBE7     		b	.L5
 197              	.LVL8:
 198              	.L2:
 199              	.LBB99:
 200              		.loc 1 1169 0
 201 00bc C6ED008A 		fsts	s17, [r6]
 202              		.loc 1 1170 0
 203 00c0 C5ED008A 		fsts	s17, [r5]
 204 00c4 0190     		str	r0, [sp, #4]
 205 00c6 CFE7     		b	.L3
 206              	.L12:
 207              		.align	2
 208              	.L11:
 209 00c8 00000000 		.word	ch
 210 00cc 00000000 		.word	.LANCHOR0
 211 00d0 00000000 		.word	.LC0
 212 00d4 00000000 		.word	.LANCHOR8
 213 00d8 00000000 		.word	.LANCHOR7
 214 00dc 00000000 		.word	.LANCHOR4
 215 00e0 00000000 		.word	0
 216 00e4 00007A44 		.word	1148846080
 217 00e8 00000000 		.word	.LANCHOR5
 218 00ec 00000000 		.word	.LANCHOR6
 219 00f0 00000000 		.word	.LANCHOR9
 220 00f4 00000000 		.word	.LANCHOR1
 221 00f8 00000000 		.word	.LANCHOR2
 222 00fc 00000000 		.word	.LANCHOR3
 223              	.LBE99:
 224              		.cfi_endproc
 225              	.LFE267:
 226              		.size	detect_thread, .-detect_thread
 227              		.section	.text.commands_init,"ax",%progbits
 228              		.align	2
ARM GAS  /tmp/cc0XcXNK.s 			page 5


 229              		.p2align 4,,15
 230              		.global	commands_init
 231              		.thumb
 232              		.thumb_func
 233              		.type	commands_init, %function
 234              	commands_init:
 235              	.LFB256:
 236              		.loc 1 72 0
 237              		.cfi_startproc
 238              		@ args = 0, pretend = 0, frame = 0
 239              		@ frame_needed = 0, uses_anonymous_args = 0
 240 0000 10B5     		push	{r4, lr}
 241              		.cfi_def_cfa_offset 8
 242              		.cfi_offset 4, -8
 243              		.cfi_offset 14, -4
 244 0002 82B0     		sub	sp, sp, #8
 245              		.cfi_def_cfa_offset 16
 246              		.loc 1 73 0
 247 0004 0024     		movs	r4, #0
 248 0006 0094     		str	r4, [sp]
 249 0008 054B     		ldr	r3, .L15
 250 000a 0648     		ldr	r0, .L15+4
 251 000c 40F69811 		movw	r1, #2456
 252 0010 4022     		movs	r2, #64
 253 0012 FFF7FEFF 		bl	chThdCreateStatic
 254              	.LVL9:
 255              		.loc 1 74 0
 256 0016 044B     		ldr	r3, .L15+8
 257 0018 1C70     		strb	r4, [r3]
 258              		.loc 1 75 0
 259 001a 02B0     		add	sp, sp, #8
 260              		.cfi_def_cfa_offset 8
 261              		@ sp needed
 262 001c 10BD     		pop	{r4, pc}
 263              	.L16:
 264 001e 00BF     		.align	2
 265              	.L15:
 266 0020 00000000 		.word	detect_thread
 267 0024 00000000 		.word	.LANCHOR10
 268 0028 00000000 		.word	.LANCHOR11
 269              		.cfi_endproc
 270              	.LFE256:
 271              		.size	commands_init, .-commands_init
 272              		.section	.text.commands_set_send_func,"ax",%progbits
 273              		.align	2
 274              		.p2align 4,,15
 275              		.global	commands_set_send_func
 276              		.thumb
 277              		.thumb_func
 278              		.type	commands_set_send_func, %function
 279              	commands_set_send_func:
 280              	.LFB257:
 281              		.loc 1 83 0
 282              		.cfi_startproc
 283              		@ args = 0, pretend = 0, frame = 0
 284              		@ frame_needed = 0, uses_anonymous_args = 0
 285              		@ link register save eliminated.
ARM GAS  /tmp/cc0XcXNK.s 			page 6


 286              	.LVL10:
 287              		.loc 1 84 0
 288 0000 014B     		ldr	r3, .L18
 289 0002 1860     		str	r0, [r3]
 290 0004 7047     		bx	lr
 291              	.L19:
 292 0006 00BF     		.align	2
 293              	.L18:
 294 0008 00000000 		.word	.LANCHOR9
 295              		.cfi_endproc
 296              	.LFE257:
 297              		.size	commands_set_send_func, .-commands_set_send_func
 298              		.section	.text.commands_send_packet,"ax",%progbits
 299              		.align	2
 300              		.p2align 4,,15
 301              		.global	commands_send_packet
 302              		.thumb
 303              		.thumb_func
 304              		.type	commands_send_packet, %function
 305              	commands_send_packet:
 306              	.LFB258:
 307              		.loc 1 96 0
 308              		.cfi_startproc
 309              		@ args = 0, pretend = 0, frame = 0
 310              		@ frame_needed = 0, uses_anonymous_args = 0
 311              		@ link register save eliminated.
 312              	.LVL11:
 313              		.loc 1 97 0
 314 0000 024B     		ldr	r3, .L22
 315 0002 1B68     		ldr	r3, [r3]
 316 0004 03B1     		cbz	r3, .L20
 317              		.loc 1 98 0
 318 0006 1847     		bx	r3	@ indirect register sibling call
 319              	.LVL12:
 320              	.L20:
 321 0008 7047     		bx	lr
 322              	.L23:
 323 000a 00BF     		.align	2
 324              	.L22:
 325 000c 00000000 		.word	.LANCHOR9
 326              		.cfi_endproc
 327              	.LFE258:
 328              		.size	commands_send_packet, .-commands_send_packet
 329              		.section	.text.commands_process_packet,"ax",%progbits
 330              		.align	2
 331              		.p2align 4,,15
 332              		.global	commands_process_packet
 333              		.thumb
 334              		.thumb_func
 335              		.type	commands_process_packet, %function
 336              	commands_process_packet:
 337              	.LFB259:
 338              		.loc 1 111 0
 339              		.cfi_startproc
 340              		@ args = 0, pretend = 0, frame = 1864
 341              		@ frame_needed = 0, uses_anonymous_args = 0
 342              	.LVL13:
ARM GAS  /tmp/cc0XcXNK.s 			page 7


 343              		.loc 1 112 0
 344 0000 D9B3     		cbz	r1, .L199
 345              		.loc 1 111 0
 346 0002 2DE9F04F 		push	{r4, r5, r6, r7, r8, r9, r10, fp, lr}
 347              		.cfi_def_cfa_offset 36
 348              		.cfi_offset 4, -36
 349              		.cfi_offset 5, -32
 350              		.cfi_offset 6, -28
 351              		.cfi_offset 7, -24
 352              		.cfi_offset 8, -20
 353              		.cfi_offset 9, -16
 354              		.cfi_offset 10, -12
 355              		.cfi_offset 11, -8
 356              		.cfi_offset 14, -4
 357 0006 2DED068B 		fstmfdd	sp!, {d8, d9, d10}
 358              		.cfi_def_cfa_offset 60
 359              		.cfi_offset 80, -60
 360              		.cfi_offset 81, -56
 361              		.cfi_offset 82, -52
 362              		.cfi_offset 83, -48
 363              		.cfi_offset 84, -44
 364              		.cfi_offset 85, -40
 365              		.loc 1 129 0
 366 000a 0446     		mov	r4, r0
 367              		.loc 1 111 0
 368 000c ADF24C7D 		subw	sp, sp, #1868
 369              		.cfi_def_cfa_offset 1928
 370              		.loc 1 129 0
 371 0010 14F8017B 		ldrb	r7, [r4], #1	@ zero_extendqisi2
 372              		.loc 1 117 0
 373 0014 0023     		movs	r3, #0
 374 0016 0D46     		mov	r5, r1
 375 0018 0646     		mov	r6, r0
 376 001a 0393     		str	r3, [sp, #12]
 377              	.LVL14:
 378              		.loc 1 131 0
 379 001c 01F1FF38 		add	r8, r1, #-1
 380              	.LVL15:
 381              		.loc 1 133 0
 382 0020 272F     		cmp	r7, #39
 383 0022 00F21C83 		bhi	.L24
 384 0026 DFE817F0 		tbh	[pc, r7, lsl #1]
 385              	.L28:
 386 002a A70F     		.2byte	(.L27-.L28)/2
 387 002c A30F     		.2byte	(.L29-.L28)/2
 388 002e 8D0F     		.2byte	(.L30-.L28)/2
 389 0030 6F0F     		.2byte	(.L31-.L28)/2
 390 0032 060E     		.2byte	(.L32-.L28)/2
 391 0034 F40D     		.2byte	(.L33-.L28)/2
 392 0036 E20D     		.2byte	(.L34-.L28)/2
 393 0038 D00D     		.2byte	(.L35-.L28)/2
 394 003a C20D     		.2byte	(.L36-.L28)/2
 395 003c B00D     		.2byte	(.L37-.L28)/2
 396 003e 2003     		.2byte	(.L38-.L28)/2
 397 0040 1A03     		.2byte	(.L24-.L28)/2
 398 0042 AD07     		.2byte	(.L39-.L28)/2
 399 0044 2900     		.2byte	(.L40-.L28)/2
ARM GAS  /tmp/cc0XcXNK.s 			page 8


 400 0046 2900     		.2byte	(.L40-.L28)/2
 401 0048 C10A     		.2byte	(.L41-.L28)/2
 402 004a F904     		.2byte	(.L42-.L28)/2
 403 004c F904     		.2byte	(.L42-.L28)/2
 404 004e 9C0A     		.2byte	(.L43-.L28)/2
 405 0050 A307     		.2byte	(.L44-.L28)/2
 406 0052 1A03     		.2byte	(.L24-.L28)/2
 407 0054 1A03     		.2byte	(.L24-.L28)/2
 408 0056 1A03     		.2byte	(.L24-.L28)/2
 409 0058 7A0A     		.2byte	(.L45-.L28)/2
 410 005a AF04     		.2byte	(.L46-.L28)/2
 411 005c 5204     		.2byte	(.L47-.L28)/2
 412 005e F203     		.2byte	(.L48-.L28)/2
 413 0060 A603     		.2byte	(.L49-.L28)/2
 414 0062 A403     		.2byte	(.L50-.L28)/2
 415 0064 3703     		.2byte	(.L51-.L28)/2
 416 0066 3A03     		.2byte	(.L52-.L28)/2
 417 0068 7403     		.2byte	(.L53-.L28)/2
 418 006a 6803     		.2byte	(.L54-.L28)/2
 419 006c C911     		.2byte	(.L55-.L28)/2
 420 006e A311     		.2byte	(.L56-.L28)/2
 421 0070 D111     		.2byte	(.L57-.L28)/2
 422 0072 7110     		.2byte	(.L58-.L28)/2
 423 0074 1A03     		.2byte	(.L24-.L28)/2
 424 0076 B70F     		.2byte	(.L59-.L28)/2
 425 0078 3110     		.2byte	(.L60-.L28)/2
 426              	.LVL16:
 427              		.p2align 1
 428              	.L199:
 429              		.cfi_def_cfa_offset 0
 430              		.cfi_restore 4
 431              		.cfi_restore 5
 432              		.cfi_restore 6
 433              		.cfi_restore 7
 434              		.cfi_restore 8
 435              		.cfi_restore 9
 436              		.cfi_restore 10
 437              		.cfi_restore 11
 438              		.cfi_restore 14
 439              		.cfi_restore 80
 440              		.cfi_restore 81
 441              		.cfi_restore 82
 442              		.cfi_restore 83
 443              		.cfi_restore 84
 444              		.cfi_restore 85
 445 007a 7047     		bx	lr
 446              	.LVL17:
 447              	.L40:
 448              		.cfi_def_cfa_offset 1928
 449              		.cfi_offset 4, -36
 450              		.cfi_offset 5, -32
 451              		.cfi_offset 6, -28
 452              		.cfi_offset 7, -24
 453              		.cfi_offset 8, -20
 454              		.cfi_offset 9, -16
 455              		.cfi_offset 10, -12
 456              		.cfi_offset 11, -8
ARM GAS  /tmp/cc0XcXNK.s 			page 9


 457              		.cfi_offset 14, -4
 458              		.cfi_offset 80, -60
 459              		.cfi_offset 81, -56
 460              		.cfi_offset 82, -52
 461              		.cfi_offset 83, -48
 462              		.cfi_offset 84, -44
 463              		.cfi_offset 85, -40
 464              	.LBB100:
 465              		.loc 1 360 0
 466 007c 0D2F     		cmp	r7, #13
 467 007e 02F02C82 		beq	.L210
 468              		.loc 1 363 0
 469 0082 E348     		ldr	r0, .L216
 470 0084 FFF7FEFF 		bl	conf_general_get_default_mc_configuration
 471              	.LVL18:
 472              	.L66:
 473              		.loc 1 369 0
 474 0088 E14D     		ldr	r5, .L216
 475              		.loc 1 374 0
 476 008a 9FEDE28A 		flds	s16, .L216+4
 477 008e D5ED017A 		flds	s15, [r5, #4]
 478              		.loc 1 367 0
 479 0092 E14C     		ldr	r4, .L216+8
 480              	.LVL19:
 481              		.loc 1 369 0
 482 0094 2B78     		ldrb	r3, [r5]	@ zero_extendqisi2
 483              		.loc 1 370 0
 484 0096 95F801C0 		ldrb	ip, [r5, #1]	@ zero_extendqisi2
 485              		.loc 1 371 0
 486 009a 95F802E0 		ldrb	lr, [r5, #2]	@ zero_extendqisi2
 487              		.loc 1 372 0
 488 009e EE78     		ldrb	r6, [r5, #3]	@ zero_extendqisi2
 489              	.LVL20:
 490              		.loc 1 369 0
 491 00a0 6370     		strb	r3, [r4, #1]
 492              		.loc 1 374 0
 493 00a2 67EE887A 		fmuls	s15, s15, s16
 494              		.loc 1 372 0
 495 00a6 0523     		movs	r3, #5
 496              		.loc 1 374 0
 497 00a8 FDEEE77A 		ftosizs	s15, s15
 498 00ac 2046     		mov	r0, r4
 499 00ae 17EE901A 		fmrs	r1, s15	@ int
 500 00b2 03AA     		add	r2, sp, #12
 501              		.loc 1 370 0
 502 00b4 84F802C0 		strb	ip, [r4, #2]
 503              		.loc 1 371 0
 504 00b8 84F803E0 		strb	lr, [r4, #3]
 505              		.loc 1 372 0
 506 00bc 0393     		str	r3, [sp, #12]
 507              		.loc 1 367 0
 508 00be 2770     		strb	r7, [r4]
 509              		.loc 1 372 0
 510 00c0 2671     		strb	r6, [r4, #4]
 511              		.loc 1 374 0
 512 00c2 FFF7FEFF 		bl	buffer_append_int32
 513              	.LVL21:
ARM GAS  /tmp/cc0XcXNK.s 			page 10


 514              		.loc 1 375 0
 515 00c6 D5ED027A 		flds	s15, [r5, #8]
 516              		.loc 1 393 0
 517 00ca DFEDD48A 		flds	s17, .L216+12
 518              		.loc 1 375 0
 519 00ce 67EE887A 		fmuls	s15, s15, s16
 520 00d2 2046     		mov	r0, r4
 521 00d4 FDEEE77A 		ftosizs	s15, s15
 522 00d8 03AA     		add	r2, sp, #12
 523 00da 17EE901A 		fmrs	r1, s15	@ int
 524 00de FFF7FEFF 		bl	buffer_append_int32
 525              	.LVL22:
 526              		.loc 1 376 0
 527 00e2 D5ED037A 		flds	s15, [r5, #12]
 528 00e6 67EE887A 		fmuls	s15, s15, s16
 529 00ea 2046     		mov	r0, r4
 530 00ec FDEEE77A 		ftosizs	s15, s15
 531 00f0 03AA     		add	r2, sp, #12
 532 00f2 17EE901A 		fmrs	r1, s15	@ int
 533 00f6 FFF7FEFF 		bl	buffer_append_int32
 534              	.LVL23:
 535              		.loc 1 377 0
 536 00fa D5ED047A 		flds	s15, [r5, #16]
 537 00fe 67EE887A 		fmuls	s15, s15, s16
 538 0102 2046     		mov	r0, r4
 539 0104 FDEEE77A 		ftosizs	s15, s15
 540 0108 03AA     		add	r2, sp, #12
 541 010a 17EE901A 		fmrs	r1, s15	@ int
 542 010e FFF7FEFF 		bl	buffer_append_int32
 543              	.LVL24:
 544              		.loc 1 378 0
 545 0112 D5ED057A 		flds	s15, [r5, #20]
 546 0116 67EE887A 		fmuls	s15, s15, s16
 547 011a 2046     		mov	r0, r4
 548 011c FDEEE77A 		ftosizs	s15, s15
 549 0120 03AA     		add	r2, sp, #12
 550 0122 17EE901A 		fmrs	r1, s15	@ int
 551 0126 FFF7FEFF 		bl	buffer_append_int32
 552              	.LVL25:
 553              		.loc 1 379 0
 554 012a D5ED067A 		flds	s15, [r5, #24]
 555 012e 67EE887A 		fmuls	s15, s15, s16
 556 0132 2046     		mov	r0, r4
 557 0134 FDEEE77A 		ftosizs	s15, s15
 558 0138 03AA     		add	r2, sp, #12
 559 013a 17EE901A 		fmrs	r1, s15	@ int
 560 013e FFF7FEFF 		bl	buffer_append_int32
 561              	.LVL26:
 562              		.loc 1 380 0
 563 0142 D5ED077A 		flds	s15, [r5, #28]
 564 0146 67EE887A 		fmuls	s15, s15, s16
 565 014a 2046     		mov	r0, r4
 566 014c FDEEE77A 		ftosizs	s15, s15
 567 0150 03AA     		add	r2, sp, #12
 568 0152 17EE901A 		fmrs	r1, s15	@ int
 569 0156 FFF7FEFF 		bl	buffer_append_int32
 570              	.LVL27:
ARM GAS  /tmp/cc0XcXNK.s 			page 11


 571              		.loc 1 381 0
 572 015a D5ED087A 		flds	s15, [r5, #32]
 573 015e 67EE887A 		fmuls	s15, s15, s16
 574 0162 2046     		mov	r0, r4
 575 0164 FDEEE77A 		ftosizs	s15, s15
 576 0168 03AA     		add	r2, sp, #12
 577 016a 17EE901A 		fmrs	r1, s15	@ int
 578 016e FFF7FEFF 		bl	buffer_append_int32
 579              	.LVL28:
 580              		.loc 1 382 0
 581 0172 D5ED097A 		flds	s15, [r5, #36]
 582 0176 67EE887A 		fmuls	s15, s15, s16
 583 017a 2046     		mov	r0, r4
 584 017c FDEEE77A 		ftosizs	s15, s15
 585 0180 03AA     		add	r2, sp, #12
 586 0182 17EE901A 		fmrs	r1, s15	@ int
 587 0186 FFF7FEFF 		bl	buffer_append_int32
 588              	.LVL29:
 589              		.loc 1 383 0
 590 018a D5ED0A7A 		flds	s15, [r5, #40]
 591 018e 67EE887A 		fmuls	s15, s15, s16
 592 0192 2046     		mov	r0, r4
 593 0194 FDEEE77A 		ftosizs	s15, s15
 594 0198 03AA     		add	r2, sp, #12
 595 019a 17EE901A 		fmrs	r1, s15	@ int
 596 019e FFF7FEFF 		bl	buffer_append_int32
 597              	.LVL30:
 598              		.loc 1 384 0
 599 01a2 D5ED0B7A 		flds	s15, [r5, #44]
 600 01a6 67EE887A 		fmuls	s15, s15, s16
 601 01aa 03AA     		add	r2, sp, #12
 602 01ac FDEEE77A 		ftosizs	s15, s15
 603 01b0 2046     		mov	r0, r4
 604 01b2 17EE901A 		fmrs	r1, s15	@ int
 605 01b6 FFF7FEFF 		bl	buffer_append_int32
 606              	.LVL31:
 607              		.loc 1 385 0
 608 01ba 95ED0C0A 		flds	s0, [r5, #48]
 609 01be F0EE480A 		fcpys	s1, s16
 610 01c2 2046     		mov	r0, r4
 611 01c4 03A9     		add	r1, sp, #12
 612 01c6 FFF7FEFF 		bl	buffer_append_float32
 613              	.LVL32:
 614              		.loc 1 386 0
 615 01ca 95ED0D0A 		flds	s0, [r5, #52]
 616 01ce F0EE480A 		fcpys	s1, s16
 617 01d2 2046     		mov	r0, r4
 618 01d4 03A9     		add	r1, sp, #12
 619 01d6 FFF7FEFF 		bl	buffer_append_float32
 620              	.LVL33:
 621              		.loc 1 389 0
 622 01da D5ED0F7A 		flds	s15, [r5, #60]
 623              		.loc 1 387 0
 624 01de 039B     		ldr	r3, [sp, #12]
 625 01e0 95F83820 		ldrb	r2, [r5, #56]	@ zero_extendqisi2
 626 01e4 E254     		strb	r2, [r4, r3]
 627              		.loc 1 389 0
ARM GAS  /tmp/cc0XcXNK.s 			page 12


 628 01e6 67EE887A 		fmuls	s15, s15, s16
 629              		.loc 1 388 0
 630 01ea E618     		adds	r6, r4, r3
 631              		.loc 1 389 0
 632 01ec FDEEE77A 		ftosizs	s15, s15
 633              		.loc 1 388 0
 634 01f0 0233     		adds	r3, r3, #2
 635 01f2 95F83970 		ldrb	r7, [r5, #57]	@ zero_extendqisi2
 636              	.LVL34:
 637 01f6 0393     		str	r3, [sp, #12]
 638              		.loc 1 389 0
 639 01f8 17EE901A 		fmrs	r1, s15	@ int
 640 01fc 2046     		mov	r0, r4
 641 01fe 03AA     		add	r2, sp, #12
 642              		.loc 1 388 0
 643 0200 7770     		strb	r7, [r6, #1]
 644              		.loc 1 389 0
 645 0202 FFF7FEFF 		bl	buffer_append_int32
 646              	.LVL35:
 647              		.loc 1 390 0
 648 0206 D5ED107A 		flds	s15, [r5, #64]
 649 020a 67EE887A 		fmuls	s15, s15, s16
 650 020e 2046     		mov	r0, r4
 651 0210 FDEEE77A 		ftosizs	s15, s15
 652 0214 03AA     		add	r2, sp, #12
 653 0216 17EE901A 		fmrs	r1, s15	@ int
 654 021a FFF7FEFF 		bl	buffer_append_int32
 655              	.LVL36:
 656              		.loc 1 391 0
 657 021e D5ED117A 		flds	s15, [r5, #68]
 658 0222 67EE887A 		fmuls	s15, s15, s16
 659 0226 2046     		mov	r0, r4
 660 0228 FDEEE77A 		ftosizs	s15, s15
 661 022c 03AA     		add	r2, sp, #12
 662 022e 17EE901A 		fmrs	r1, s15	@ int
 663 0232 FFF7FEFF 		bl	buffer_append_int32
 664              	.LVL37:
 665              		.loc 1 392 0
 666 0236 D5ED127A 		flds	s15, [r5, #72]
 667 023a 67EE887A 		fmuls	s15, s15, s16
 668 023e 2046     		mov	r0, r4
 669 0240 FDEEE77A 		ftosizs	s15, s15
 670 0244 03AA     		add	r2, sp, #12
 671 0246 17EE901A 		fmrs	r1, s15	@ int
 672 024a FFF7FEFF 		bl	buffer_append_int32
 673              	.LVL38:
 674              		.loc 1 393 0
 675 024e D5ED137A 		flds	s15, [r5, #76]
 676 0252 67EEA87A 		fmuls	s15, s15, s17
 677 0256 2046     		mov	r0, r4
 678 0258 FDEEE77A 		ftosizs	s15, s15
 679 025c 03AA     		add	r2, sp, #12
 680 025e 17EE901A 		fmrs	r1, s15	@ int
 681 0262 FFF7FEFF 		bl	buffer_append_int32
 682              	.LVL39:
 683              		.loc 1 394 0
 684 0266 D5ED147A 		flds	s15, [r5, #80]
ARM GAS  /tmp/cc0XcXNK.s 			page 13


 685 026a 67EEA87A 		fmuls	s15, s15, s17
 686 026e 2046     		mov	r0, r4
 687 0270 FDEEE77A 		ftosizs	s15, s15
 688 0274 03AA     		add	r2, sp, #12
 689 0276 17EE901A 		fmrs	r1, s15	@ int
 690 027a FFF7FEFF 		bl	buffer_append_int32
 691              	.LVL40:
 692              		.loc 1 396 0
 693 027e D5ED197A 		flds	s15, [r5, #100]
 694 0282 67EE887A 		fmuls	s15, s15, s16
 695 0286 2046     		mov	r0, r4
 696 0288 FDEEE77A 		ftosizs	s15, s15
 697 028c 03AA     		add	r2, sp, #12
 698 028e 17EE901A 		fmrs	r1, s15	@ int
 699 0292 FFF7FEFF 		bl	buffer_append_int32
 700              	.LVL41:
 701              		.loc 1 397 0
 702 0296 D5ED1A7A 		flds	s15, [r5, #104]
 703 029a 67EE887A 		fmuls	s15, s15, s16
 704 029e 2046     		mov	r0, r4
 705 02a0 FDEEE77A 		ftosizs	s15, s15
 706 02a4 03AA     		add	r2, sp, #12
 707 02a6 17EE901A 		fmrs	r1, s15	@ int
 708 02aa FFF7FEFF 		bl	buffer_append_int32
 709              	.LVL42:
 710              		.loc 1 398 0
 711 02ae D5ED1B7A 		flds	s15, [r5, #108]
 712 02b2 67EE887A 		fmuls	s15, s15, s16
 713 02b6 2046     		mov	r0, r4
 714 02b8 FDEEE77A 		ftosizs	s15, s15
 715 02bc 03AA     		add	r2, sp, #12
 716 02be 17EE901A 		fmrs	r1, s15	@ int
 717 02c2 FFF7FEFF 		bl	buffer_append_int32
 718              	.LVL43:
 719              		.loc 1 399 0
 720 02c6 D5ED1C7A 		flds	s15, [r5, #112]
 721 02ca 67EE887A 		fmuls	s15, s15, s16
 722 02ce 2046     		mov	r0, r4
 723 02d0 FDEEE77A 		ftosizs	s15, s15
 724 02d4 03AA     		add	r2, sp, #12
 725 02d6 17EE901A 		fmrs	r1, s15	@ int
 726 02da FFF7FEFF 		bl	buffer_append_int32
 727              	.LVL44:
 728              		.loc 1 400 0
 729 02de D5ED1D7A 		flds	s15, [r5, #116]
 730 02e2 67EE887A 		fmuls	s15, s15, s16
 731 02e6 2046     		mov	r0, r4
 732 02e8 FDEEE77A 		ftosizs	s15, s15
 733 02ec 03AA     		add	r2, sp, #12
 734 02ee 17EE901A 		fmrs	r1, s15	@ int
 735 02f2 FFF7FEFF 		bl	buffer_append_int32
 736              	.LVL45:
 737              		.loc 1 401 0
 738 02f6 D5ED1E7A 		flds	s15, [r5, #120]
 739 02fa 67EE887A 		fmuls	s15, s15, s16
 740 02fe 2046     		mov	r0, r4
 741 0300 FDEEE77A 		ftosizs	s15, s15
ARM GAS  /tmp/cc0XcXNK.s 			page 14


 742 0304 03AA     		add	r2, sp, #12
 743 0306 17EE901A 		fmrs	r1, s15	@ int
 744 030a FFF7FEFF 		bl	buffer_append_int32
 745              	.LVL46:
 746              		.loc 1 402 0
 747 030e D5ED1F7A 		flds	s15, [r5, #124]
 748 0312 67EE887A 		fmuls	s15, s15, s16
 749 0316 2046     		mov	r0, r4
 750 0318 FDEEE77A 		ftosizs	s15, s15
 751 031c 03AA     		add	r2, sp, #12
 752 031e 17EE901A 		fmrs	r1, s15	@ int
 753 0322 FFF7FEFF 		bl	buffer_append_int32
 754              	.LVL47:
 755              		.loc 1 406 0
 756 0326 D5ED227A 		flds	s15, [r5, #136]
 757              		.loc 1 404 0
 758 032a 039B     		ldr	r3, [sp, #12]
 759 032c 05F18002 		add	r2, r5, #128
 760              		.loc 1 406 0
 761 0330 67EE887A 		fmuls	s15, s15, s16
 762              		.loc 1 404 0
 763 0334 03CA     		ldmia	r2!, {r0, r1}
 764              		.loc 1 406 0
 765 0336 FDEEE77A 		ftosizs	s15, s15
 766              		.loc 1 404 0
 767 033a E218     		adds	r2, r4, r3
 768 033c E050     		str	r0, [r4, r3]	@ unaligned
 769              		.loc 1 405 0
 770 033e 0833     		adds	r3, r3, #8
 771              		.loc 1 404 0
 772 0340 5160     		str	r1, [r2, #4]	@ unaligned
 773              		.loc 1 406 0
 774 0342 2046     		mov	r0, r4
 775 0344 17EE901A 		fmrs	r1, s15	@ int
 776 0348 03AA     		add	r2, sp, #12
 777              		.loc 1 405 0
 778 034a 0393     		str	r3, [sp, #12]
 779              		.loc 1 406 0
 780 034c FFF7FEFF 		bl	buffer_append_int32
 781              	.LVL48:
 782              		.loc 1 408 0
 783 0350 95ED230A 		flds	s0, [r5, #140]
 784 0354 DFED330A 		flds	s1, .L216+20
 785 0358 2046     		mov	r0, r4
 786 035a 03A9     		add	r1, sp, #12
 787 035c FFF7FEFF 		bl	buffer_append_float32
 788              	.LVL49:
 789              		.loc 1 409 0
 790 0360 95ED240A 		flds	s0, [r5, #144]
 791 0364 DFED2F0A 		flds	s1, .L216+20
 792 0368 2046     		mov	r0, r4
 793 036a 03A9     		add	r1, sp, #12
 794 036c FFF7FEFF 		bl	buffer_append_float32
 795              	.LVL50:
 796              		.loc 1 410 0
 797 0370 95ED250A 		flds	s0, [r5, #148]
 798 0374 F0EE480A 		fcpys	s1, s16
ARM GAS  /tmp/cc0XcXNK.s 			page 15


 799 0378 2046     		mov	r0, r4
 800 037a 03A9     		add	r1, sp, #12
 801 037c FFF7FEFF 		bl	buffer_append_float32
 802              	.LVL51:
 803              		.loc 1 411 0
 804 0380 95ED260A 		flds	s0, [r5, #152]
 805 0384 2046     		mov	r0, r4
 806 0386 F0EE680A 		fcpys	s1, s17
 807 038a 03A9     		add	r1, sp, #12
 808 038c FFF7FEFF 		bl	buffer_append_float32
 809              	.LVL52:
 810              		.loc 1 412 0
 811 0390 039B     		ldr	r3, [sp, #12]
 812 0392 95F8A020 		ldrb	r2, [r5, #160]	@ zero_extendqisi2
 813 0396 E254     		strb	r2, [r4, r3]
 814              		.loc 1 413 0
 815 0398 95ED270A 		flds	s0, [r5, #156]
 816              		.loc 1 412 0
 817 039c 0133     		adds	r3, r3, #1
 818              		.loc 1 413 0
 819 039e F0EE480A 		fcpys	s1, s16
 820 03a2 2046     		mov	r0, r4
 821 03a4 03A9     		add	r1, sp, #12
 822              		.loc 1 412 0
 823 03a6 0393     		str	r3, [sp, #12]
 824              		.loc 1 413 0
 825 03a8 FFF7FEFF 		bl	buffer_append_float32
 826              	.LVL53:
 827              		.loc 1 414 0
 828 03ac 95ED290A 		flds	s0, [r5, #164]
 829 03b0 F0EE480A 		fcpys	s1, s16
 830 03b4 2046     		mov	r0, r4
 831 03b6 03A9     		add	r1, sp, #12
 832 03b8 FFF7FEFF 		bl	buffer_append_float32
 833              	.LVL54:
 834              		.loc 1 415 0
 835 03bc 039B     		ldr	r3, [sp, #12]
 836 03be 95F8DC20 		ldrb	r2, [r5, #220]	@ zero_extendqisi2
 837 03c2 E254     		strb	r2, [r4, r3]
 838              		.loc 1 416 0
 839 03c4 95ED2E0A 		flds	s0, [r5, #184]
 840              		.loc 1 415 0
 841 03c8 0133     		adds	r3, r3, #1
 842              		.loc 1 416 0
 843 03ca F0EE480A 		fcpys	s1, s16
 844 03ce 2046     		mov	r0, r4
 845 03d0 03A9     		add	r1, sp, #12
 846              		.loc 1 415 0
 847 03d2 0393     		str	r3, [sp, #12]
 848              		.loc 1 416 0
 849 03d4 FFF7FEFF 		bl	buffer_append_float32
 850              	.LVL55:
 851              		.loc 1 417 0
 852 03d8 95ED2F0A 		flds	s0, [r5, #188]
 853 03dc F0EE480A 		fcpys	s1, s16
 854 03e0 2046     		mov	r0, r4
 855 03e2 03A9     		add	r1, sp, #12
ARM GAS  /tmp/cc0XcXNK.s 			page 16


 856 03e4 FFF7FEFF 		bl	buffer_append_float32
 857              	.LVL56:
 858              		.loc 1 418 0
 859 03e8 95ED2A0A 		flds	s0, [r5, #168]
 860 03ec DFED0C0A 		flds	s1, .L216+16
 861 03f0 2046     		mov	r0, r4
 862 03f2 03A9     		add	r1, sp, #12
 863 03f4 FFF7FEFF 		bl	buffer_append_float32
 864              	.LVL57:
 865              		.loc 1 419 0
 866 03f8 95ED2B0A 		flds	s0, [r5, #172]
 867 03fc DFED090A 		flds	s1, .L216+20
 868 0400 2046     		mov	r0, r4
 869 0402 03A9     		add	r1, sp, #12
 870 0404 FFF7FEFF 		bl	buffer_append_float32
 871              	.LVL58:
 872              		.loc 1 420 0
 873 0408 95ED2C0A 		flds	s0, [r5, #176]
 874 040c 0CE0     		b	.L217
 875              	.L218:
 876 040e 00BF     		.align	2
 877              	.L216:
 878 0410 00000000 		.word	.LANCHOR12
 879 0414 00007A44 		.word	1148846080
 880 0418 00000000 		.word	.LANCHOR8
 881 041c 00247449 		.word	1232348160
 882 0420 20BCBE4C 		.word	1287568416
 883 0424 0050C347 		.word	1203982336
 884              	.L217:
 885 0428 5FED020A 		flds	s1, .L216+20
 886 042c 2046     		mov	r0, r4
 887 042e 03A9     		add	r1, sp, #12
 888 0430 FFF7FEFF 		bl	buffer_append_float32
 889              	.LVL59:
 890              		.loc 1 421 0
 891 0434 95ED2D0A 		flds	s0, [r5, #180]
 892 0438 2046     		mov	r0, r4
 893 043a F7EE000A 		fconsts	s1, #112
 894 043e 03A9     		add	r1, sp, #12
 895 0440 FFF7FEFF 		bl	buffer_append_float32
 896              	.LVL60:
 897              		.loc 1 422 0
 898 0444 95ED300A 		flds	s0, [r5, #192]
 899 0448 F0EE480A 		fcpys	s1, s16
 900 044c 2046     		mov	r0, r4
 901 044e 03A9     		add	r1, sp, #12
 902 0450 FFF7FEFF 		bl	buffer_append_float32
 903              	.LVL61:
 904              		.loc 1 423 0
 905 0454 95ED310A 		flds	s0, [r5, #196]
 906 0458 F0EE480A 		fcpys	s1, s16
 907 045c 2046     		mov	r0, r4
 908 045e 03A9     		add	r1, sp, #12
 909 0460 FFF7FEFF 		bl	buffer_append_float32
 910              	.LVL62:
 911              		.loc 1 424 0
 912 0464 95ED320A 		flds	s0, [r5, #200]
ARM GAS  /tmp/cc0XcXNK.s 			page 17


 913 0468 F0EE480A 		fcpys	s1, s16
 914 046c 2046     		mov	r0, r4
 915 046e 03A9     		add	r1, sp, #12
 916 0470 FFF7FEFF 		bl	buffer_append_float32
 917              	.LVL63:
 918              		.loc 1 425 0
 919 0474 95ED330A 		flds	s0, [r5, #204]
 920 0478 F0EE480A 		fcpys	s1, s16
 921 047c 2046     		mov	r0, r4
 922 047e 03A9     		add	r1, sp, #12
 923 0480 FFF7FEFF 		bl	buffer_append_float32
 924              	.LVL64:
 925              		.loc 1 426 0
 926 0484 95ED340A 		flds	s0, [r5, #208]
 927 0488 F0EE480A 		fcpys	s1, s16
 928 048c 2046     		mov	r0, r4
 929 048e 03A9     		add	r1, sp, #12
 930 0490 FFF7FEFF 		bl	buffer_append_float32
 931              	.LVL65:
 932              		.loc 1 427 0
 933 0494 95ED350A 		flds	s0, [r5, #212]
 934 0498 F0EE480A 		fcpys	s1, s16
 935 049c 2046     		mov	r0, r4
 936 049e 03A9     		add	r1, sp, #12
 937 04a0 FFF7FEFF 		bl	buffer_append_float32
 938              	.LVL66:
 939              		.loc 1 428 0
 940 04a4 95ED360A 		flds	s0, [r5, #216]
 941 04a8 F0EE480A 		fcpys	s1, s16
 942 04ac 2046     		mov	r0, r4
 943 04ae 03A9     		add	r1, sp, #12
 944 04b0 FFF7FEFF 		bl	buffer_append_float32
 945              	.LVL67:
 946              		.loc 1 431 0
 947 04b4 D5ED3A7A 		flds	s15, [r5, #232]
 948              		.loc 1 429 0
 949 04b8 039B     		ldr	r3, [sp, #12]
 950 04ba 2A46     		mov	r2, r5
 951              		.loc 1 431 0
 952 04bc 67EE887A 		fmuls	s15, s15, s16
 953              		.loc 1 429 0
 954 04c0 52F8DD1F 		ldr	r1, [r2, #221]!	@ unaligned
 955 04c4 E150     		str	r1, [r4, r3]	@ unaligned
 956              		.loc 1 431 0
 957 04c6 FDEEE77A 		ftosizs	s15, s15
 958              		.loc 1 429 0
 959 04ca E118     		adds	r1, r4, r3
 960 04cc 5268     		ldr	r2, [r2, #4]	@ unaligned
 961 04ce 4A60     		str	r2, [r1, #4]	@ unaligned
 962              		.loc 1 430 0
 963 04d0 0833     		adds	r3, r3, #8
 964              		.loc 1 431 0
 965 04d2 17EE901A 		fmrs	r1, s15	@ int
 966 04d6 2046     		mov	r0, r4
 967 04d8 03AA     		add	r2, sp, #12
 968              		.loc 1 430 0
 969 04da 0393     		str	r3, [sp, #12]
ARM GAS  /tmp/cc0XcXNK.s 			page 18


 970              		.loc 1 431 0
 971 04dc FFF7FEFF 		bl	buffer_append_int32
 972              	.LVL68:
 973              		.loc 1 433 0
 974 04e0 D5ED3B7A 		flds	s15, [r5, #236]
 975 04e4 67EEA87A 		fmuls	s15, s15, s17
 976 04e8 2046     		mov	r0, r4
 977 04ea FDEEE77A 		ftosizs	s15, s15
 978 04ee 03AA     		add	r2, sp, #12
 979 04f0 17EE901A 		fmrs	r1, s15	@ int
 980 04f4 FFF7FEFF 		bl	buffer_append_int32
 981              	.LVL69:
 982              		.loc 1 434 0
 983 04f8 D5ED3C7A 		flds	s15, [r5, #240]
 984 04fc 67EEA87A 		fmuls	s15, s15, s17
 985 0500 2046     		mov	r0, r4
 986 0502 FDEEE77A 		ftosizs	s15, s15
 987 0506 03AA     		add	r2, sp, #12
 988 0508 17EE901A 		fmrs	r1, s15	@ int
 989 050c FFF7FEFF 		bl	buffer_append_int32
 990              	.LVL70:
 991              		.loc 1 435 0
 992 0510 D5ED3D7A 		flds	s15, [r5, #244]
 993 0514 67EEA87A 		fmuls	s15, s15, s17
 994 0518 2046     		mov	r0, r4
 995 051a FDEEE77A 		ftosizs	s15, s15
 996 051e 03AA     		add	r2, sp, #12
 997 0520 17EE901A 		fmrs	r1, s15	@ int
 998 0524 FFF7FEFF 		bl	buffer_append_int32
 999              	.LVL71:
 1000              		.loc 1 436 0
 1001 0528 D5ED3E7A 		flds	s15, [r5, #248]
 1002 052c 67EE887A 		fmuls	s15, s15, s16
 1003 0530 2046     		mov	r0, r4
 1004 0532 FDEEE77A 		ftosizs	s15, s15
 1005 0536 03AA     		add	r2, sp, #12
 1006 0538 17EE901A 		fmrs	r1, s15	@ int
 1007 053c FFF7FEFF 		bl	buffer_append_int32
 1008              	.LVL72:
 1009              		.loc 1 438 0
 1010 0540 D5ED407A 		flds	s15, [r5, #256]
 1011 0544 67EEA87A 		fmuls	s15, s15, s17
 1012 0548 2046     		mov	r0, r4
 1013 054a FDEEE77A 		ftosizs	s15, s15
 1014 054e 03AA     		add	r2, sp, #12
 1015 0550 17EE901A 		fmrs	r1, s15	@ int
 1016 0554 FFF7FEFF 		bl	buffer_append_int32
 1017              	.LVL73:
 1018              		.loc 1 439 0
 1019 0558 D5ED417A 		flds	s15, [r5, #260]
 1020 055c 67EEA87A 		fmuls	s15, s15, s17
 1021 0560 2046     		mov	r0, r4
 1022 0562 FDEEE77A 		ftosizs	s15, s15
 1023 0566 03AA     		add	r2, sp, #12
 1024 0568 17EE901A 		fmrs	r1, s15	@ int
 1025 056c FFF7FEFF 		bl	buffer_append_int32
 1026              	.LVL74:
ARM GAS  /tmp/cc0XcXNK.s 			page 19


 1027              		.loc 1 440 0
 1028 0570 D5ED427A 		flds	s15, [r5, #264]
 1029 0574 67EEA87A 		fmuls	s15, s15, s17
 1030 0578 03AA     		add	r2, sp, #12
 1031 057a FDEEE77A 		ftosizs	s15, s15
 1032 057e 2046     		mov	r0, r4
 1033 0580 17EE901A 		fmrs	r1, s15	@ int
 1034 0584 FFF7FEFF 		bl	buffer_append_int32
 1035              	.LVL75:
 1036              		.loc 1 441 0
 1037 0588 95ED430A 		flds	s0, [r5, #268]
 1038 058c 5FED5B0A 		flds	s1, .L216+20
 1039 0590 2046     		mov	r0, r4
 1040 0592 03A9     		add	r1, sp, #12
 1041 0594 FFF7FEFF 		bl	buffer_append_float32
 1042              	.LVL76:
 1043              		.loc 1 443 0
 1044 0598 D5ED447A 		flds	s15, [r5, #272]
 1045 059c 67EEA87A 		fmuls	s15, s15, s17
 1046 05a0 2046     		mov	r0, r4
 1047 05a2 FDEEE77A 		ftosizs	s15, s15
 1048 05a6 03AA     		add	r2, sp, #12
 1049 05a8 17EE901A 		fmrs	r1, s15	@ int
 1050 05ac FFF7FEFF 		bl	buffer_append_int32
 1051              	.LVL77:
 1052              		.loc 1 444 0
 1053 05b0 D5ED457A 		flds	s15, [r5, #276]
 1054 05b4 27EE888A 		fmuls	s16, s15, s16
 1055 05b8 2046     		mov	r0, r4
 1056 05ba FDEEC87A 		ftosizs	s15, s16
 1057 05be 03AA     		add	r2, sp, #12
 1058 05c0 17EE901A 		fmrs	r1, s15	@ int
 1059 05c4 FFF7FEFF 		bl	buffer_append_int32
 1060              	.LVL78:
 1061              		.loc 1 445 0
 1062 05c8 D5ED467A 		flds	s15, [r5, #280]
 1063 05cc 67EEA87A 		fmuls	s15, s15, s17
 1064 05d0 2046     		mov	r0, r4
 1065 05d2 FDEEE77A 		ftosizs	s15, s15
 1066 05d6 03AA     		add	r2, sp, #12
 1067 05d8 17EE901A 		fmrs	r1, s15	@ int
 1068 05dc FFF7FEFF 		bl	buffer_append_int32
 1069              	.LVL79:
 1070              		.loc 1 446 0
 1071 05e0 D5ED477A 		flds	s15, [r5, #284]
 1072 05e4 67EEA87A 		fmuls	s15, s15, s17
 1073 05e8 2046     		mov	r0, r4
 1074 05ea FDEEE77A 		ftosizs	s15, s15
 1075 05ee 03AA     		add	r2, sp, #12
 1076 05f0 17EE901A 		fmrs	r1, s15	@ int
 1077 05f4 FFF7FEFF 		bl	buffer_append_int32
 1078              	.LVL80:
 1079              		.loc 1 448 0
 1080 05f8 03AA     		add	r2, sp, #12
 1081 05fa D5F82011 		ldr	r1, [r5, #288]
 1082 05fe 2046     		mov	r0, r4
 1083 0600 FFF7FEFF 		bl	buffer_append_int32
ARM GAS  /tmp/cc0XcXNK.s 			page 20


 1084              	.LVL81:
 1085              		.loc 1 449 0
 1086 0604 95ED490A 		flds	s0, [r5, #292]
 1087 0608 2046     		mov	r0, r4
 1088 060a F0EE680A 		fcpys	s1, s17
 1089 060e 03A9     		add	r1, sp, #12
 1090 0610 FFF7FEFF 		bl	buffer_append_float32
 1091              	.LVL82:
 1092              		.loc 1 450 0
 1093 0614 95ED4A0A 		flds	s0, [r5, #296]
 1094 0618 2046     		mov	r0, r4
 1095 061a F0EE680A 		fcpys	s1, s17
 1096 061e 03A9     		add	r1, sp, #12
 1097 0620 FFF7FEFF 		bl	buffer_append_float32
 1098              	.LVL83:
 1099              		.loc 1 451 0
 1100 0624 95ED4B0A 		flds	s0, [r5, #300]
 1101 0628 2046     		mov	r0, r4
 1102 062a F0EE680A 		fcpys	s1, s17
 1103 062e 03A9     		add	r1, sp, #12
 1104 0630 FFF7FEFF 		bl	buffer_append_float32
 1105              	.LVL84:
 1106              		.loc 1 452 0
 1107 0634 D5F83011 		ldr	r1, [r5, #304]
 1108 0638 2046     		mov	r0, r4
 1109 063a 03AA     		add	r2, sp, #12
 1110 063c FFF7FEFF 		bl	buffer_append_uint32
 1111              	.LVL85:
 1112              		.loc 1 453 0
 1113 0640 039B     		ldr	r3, [sp, #12]
 1114              	.LBB101:
 1115              	.LBB102:
 1116              		.loc 1 97 0
 1117 0642 C54A     		ldr	r2, .L219
 1118              	.LBE102:
 1119              	.LBE101:
 1120              		.loc 1 453 0
 1121 0644 95F83411 		ldrb	r1, [r5, #308]	@ zero_extendqisi2
 1122              	.LBB105:
 1123              	.LBB103:
 1124              		.loc 1 97 0
 1125 0648 1268     		ldr	r2, [r2]
 1126              	.LBE103:
 1127              	.LBE105:
 1128              		.loc 1 453 0
 1129 064a E154     		strb	r1, [r4, r3]
 1130              		.loc 1 456 0
 1131 064c E018     		adds	r0, r4, r3
 1132 064e 95F8FC50 		ldrb	r5, [r5, #252]	@ zero_extendqisi2
 1133 0652 4570     		strb	r5, [r0, #1]
 1134              	.LVL86:
 1135 0654 991C     		adds	r1, r3, #2
 1136              	.LVL87:
 1137 0656 0391     		str	r1, [sp, #12]
 1138              	.LBB106:
 1139              	.LBB104:
 1140              		.loc 1 97 0
ARM GAS  /tmp/cc0XcXNK.s 			page 21


 1141 0658 0AB1     		cbz	r2, .L24
 1142              		.loc 1 98 0
 1143 065a 2046     		mov	r0, r4
 1144 065c 9047     		blx	r2
 1145              	.LVL88:
 1146              	.L24:
 1147              	.LBE104:
 1148              	.LBE106:
 1149              	.LBE100:
 1150              		.loc 1 1081 0
 1151 065e 0DF24C7D 		addw	sp, sp, #1868
 1152              		.cfi_remember_state
 1153              		.cfi_def_cfa_offset 60
 1154              		@ sp needed
 1155 0662 BDEC068B 		fldmfdd	sp!, {d8-d10}
 1156              		.cfi_restore 84
 1157              		.cfi_restore 85
 1158              		.cfi_restore 82
 1159              		.cfi_restore 83
 1160              		.cfi_restore 80
 1161              		.cfi_restore 81
 1162              		.cfi_def_cfa_offset 36
 1163 0666 BDE8F08F 		pop	{r4, r5, r6, r7, r8, r9, r10, fp, pc}
 1164              	.LVL89:
 1165              	.L38:
 1166              		.cfi_restore_state
 1167              	.LBB214:
 1168              		.loc 1 224 0
 1169 066a FFF7FEFF 		bl	mc_interface_get_configuration
 1170              	.LVL90:
 1171 066e BB4C     		ldr	r4, .L219+4
 1172              	.LVL91:
 1173 0670 0146     		mov	r1, r0
 1174 0672 4FF49C72 		mov	r2, #312
 1175 0676 2046     		mov	r0, r4
 1176 0678 FFF7FEFF 		bl	memcpy
 1177              	.LVL92:
 1178              		.loc 1 227 0
 1179 067c B849     		ldr	r1, .L219+8
 1180 067e 7378     		ldrb	r3, [r6, #1]	@ zero_extendqisi2
 1181              		.loc 1 229 0
 1182 0680 A278     		ldrb	r2, [r4, #2]	@ zero_extendqisi2
 1183              		.loc 1 227 0
 1184 0682 0B70     		strb	r3, [r1]
 1185 0684 0121     		movs	r1, #1
 1186 0686 0391     		str	r1, [sp, #12]
 1187              		.loc 1 229 0
 1188 0688 32B9     		cbnz	r2, .L51
 1189              		.loc 1 230 0
 1190 068a 002B     		cmp	r3, #0
 1191 068c 01F02187 		beq	.L211
 1192              		.loc 1 232 0
 1193 0690 012B     		cmp	r3, #1
 1194 0692 01D1     		bne	.L51
 1195              		.loc 1 233 0
 1196 0694 FFF7FEFF 		bl	mcpwm_set_detect
 1197              	.LVL93:
ARM GAS  /tmp/cc0XcXNK.s 			page 22


 1198              	.L51:
 1199              		.loc 1 815 0
 1200 0698 FFF7FEFF 		bl	timeout_reset
 1201              	.LVL94:
 1202              		.loc 1 816 0
 1203 069c DFE7     		b	.L24
 1204              	.LVL95:
 1205              	.L52:
 1206              		.loc 1 820 0
 1207 069e B14C     		ldr	r4, .L219+12
 1208              	.LVL96:
 1209              		.loc 1 821 0
 1210 06a0 9FEDB18A 		flds	s16, .L219+16
 1211              		.loc 1 820 0
 1212 06a4 0123     		movs	r3, #1
 1213 06a6 1E22     		movs	r2, #30
 1214              		.loc 1 821 0
 1215 06a8 0020     		movs	r0, #0
 1216              	.LVL97:
 1217              		.loc 1 820 0
 1218 06aa 0393     		str	r3, [sp, #12]
 1219 06ac 2270     		strb	r2, [r4]
 1220              		.loc 1 821 0
 1221 06ae FFF7FEFF 		bl	servodec_get_servo
 1222              	.LVL98:
 1223 06b2 20EE080A 		fmuls	s0, s0, s16
 1224 06b6 2046     		mov	r0, r4
 1225 06b8 FDEEC07A 		ftosizs	s15, s0
 1226 06bc 03AA     		add	r2, sp, #12
 1227 06be 17EE901A 		fmrs	r1, s15	@ int
 1228 06c2 FFF7FEFF 		bl	buffer_append_int32
 1229              	.LVL99:
 1230              		.loc 1 822 0
 1231 06c6 0020     		movs	r0, #0
 1232 06c8 FFF7FEFF 		bl	servodec_get_last_pulse_len
 1233              	.LVL100:
 1234 06cc 20EE080A 		fmuls	s0, s0, s16
 1235              	.L208:
 1236              		.loc 1 839 0
 1237 06d0 FDEEC07A 		ftosizs	s15, s0
 1238 06d4 2046     		mov	r0, r4
 1239 06d6 17EE901A 		fmrs	r1, s15	@ int
 1240 06da 03AA     		add	r2, sp, #12
 1241 06dc FFF7FEFF 		bl	buffer_append_int32
 1242              	.LVL101:
 1243              	.LBB107:
 1244              	.LBB108:
 1245              		.loc 1 97 0
 1246 06e0 9D4B     		ldr	r3, .L219
 1247              	.LBE108:
 1248              	.LBE107:
 1249              		.loc 1 840 0
 1250 06e2 0399     		ldr	r1, [sp, #12]
 1251              	.LVL102:
 1252              	.LBB110:
 1253              	.LBB109:
 1254              		.loc 1 97 0
ARM GAS  /tmp/cc0XcXNK.s 			page 23


 1255 06e4 1B68     		ldr	r3, [r3]
 1256 06e6 002B     		cmp	r3, #0
 1257 06e8 B9D0     		beq	.L24
 1258              	.LVL103:
 1259              	.L204:
 1260              		.loc 1 98 0
 1261 06ea 2046     		mov	r0, r4
 1262 06ec 9847     		blx	r3
 1263              	.LVL104:
 1264              	.LBE109:
 1265              	.LBE110:
 1266              	.LBE214:
 1267              		.loc 1 1081 0
 1268 06ee 0DF24C7D 		addw	sp, sp, #1868
 1269              		.cfi_remember_state
 1270              		.cfi_def_cfa_offset 60
 1271              		@ sp needed
 1272 06f2 BDEC068B 		fldmfdd	sp!, {d8-d10}
 1273              		.cfi_restore 80
 1274              		.cfi_restore 81
 1275              		.cfi_restore 82
 1276              		.cfi_restore 83
 1277              		.cfi_restore 84
 1278              		.cfi_restore 85
 1279              		.cfi_def_cfa_offset 36
 1280 06f6 BDE8F08F 		pop	{r4, r5, r6, r7, r8, r9, r10, fp, pc}
 1281              	.LVL105:
 1282              	.L54:
 1283              		.cfi_restore_state
 1284              	.LBB215:
 1285              		.loc 1 838 0
 1286 06fa 9A4C     		ldr	r4, .L219+12
 1287              	.LVL106:
 1288 06fc 2022     		movs	r2, #32
 1289 06fe 0123     		movs	r3, #1
 1290 0700 2270     		strb	r2, [r4]
 1291 0702 0393     		str	r3, [sp, #12]
 1292              		.loc 1 839 0
 1293 0704 FFF7FEFF 		bl	app_nunchuk_get_decoded_chuk
 1294              	.LVL107:
 1295 0708 DFED977A 		flds	s15, .L219+16
 1296 070c 20EE270A 		fmuls	s0, s0, s15
 1297 0710 DEE7     		b	.L208
 1298              	.LVL108:
 1299              	.L53:
 1300              		.loc 1 828 0
 1301 0712 944C     		ldr	r4, .L219+12
 1302              	.LVL109:
 1303              		.loc 1 829 0
 1304 0714 9FED948A 		flds	s16, .L219+16
 1305              		.loc 1 828 0
 1306 0718 0123     		movs	r3, #1
 1307 071a 1F22     		movs	r2, #31
 1308 071c 0393     		str	r3, [sp, #12]
 1309 071e 2270     		strb	r2, [r4]
 1310              		.loc 1 829 0
 1311 0720 FFF7FEFF 		bl	app_adc_get_decoded_level
ARM GAS  /tmp/cc0XcXNK.s 			page 24


 1312              	.LVL110:
 1313 0724 20EE080A 		fmuls	s0, s0, s16
 1314 0728 2046     		mov	r0, r4
 1315 072a FDEEC07A 		ftosizs	s15, s0
 1316 072e 03AA     		add	r2, sp, #12
 1317 0730 17EE901A 		fmrs	r1, s15	@ int
 1318 0734 FFF7FEFF 		bl	buffer_append_int32
 1319              	.LVL111:
 1320              		.loc 1 830 0
 1321 0738 FFF7FEFF 		bl	app_adc_get_voltage
 1322              	.LVL112:
 1323 073c 20EE080A 		fmuls	s0, s0, s16
 1324 0740 2046     		mov	r0, r4
 1325 0742 FDEEC07A 		ftosizs	s15, s0
 1326 0746 03AA     		add	r2, sp, #12
 1327 0748 17EE901A 		fmrs	r1, s15	@ int
 1328 074c FFF7FEFF 		bl	buffer_append_int32
 1329              	.LVL113:
 1330              		.loc 1 831 0
 1331 0750 FFF7FEFF 		bl	app_adc_get_decoded_level2
 1332              	.LVL114:
 1333 0754 20EE080A 		fmuls	s0, s0, s16
 1334 0758 2046     		mov	r0, r4
 1335 075a FDEEC07A 		ftosizs	s15, s0
 1336 075e 03AA     		add	r2, sp, #12
 1337 0760 17EE901A 		fmrs	r1, s15	@ int
 1338 0764 FFF7FEFF 		bl	buffer_append_int32
 1339              	.LVL115:
 1340              		.loc 1 832 0
 1341 0768 FFF7FEFF 		bl	app_adc_get_voltage2
 1342              	.LVL116:
 1343 076c 20EE080A 		fmuls	s0, s0, s16
 1344 0770 AEE7     		b	.L208
 1345              	.LVL117:
 1346              	.L50:
 1347              	.LBB111:
 1348              	.LBB112:
 1349              		.file 3 "ChibiOS_3.0.2/os/ext/CMSIS/include/core_cmFunc.h"
 1350              		.loc 3 342 0
 1351              	@ 342 "ChibiOS_3.0.2/os/ext/CMSIS/include/core_cmFunc.h" 1
 1352 0772 72B6     		cpsid i
 1353              	@ 0 "" 2
 1354              		.thumb
 1355              	.L79:
 1356              	.LBE112:
 1357              	.LBE111:
 1358              		.loc 1 811 0 discriminator 3
 1359 0774 FEE7     		b	.L79
 1360              	.L49:
 1361              		.loc 1 774 0
 1362 0776 FFF7FEFF 		bl	mc_interface_get_configuration
 1363              	.LVL118:
 1364 077a 784D     		ldr	r5, .L219+4
 1365 077c 0146     		mov	r1, r0
 1366 077e 4FF49C72 		mov	r2, #312
 1367 0782 2846     		mov	r0, r5
 1368 0784 FFF7FEFF 		bl	memcpy
ARM GAS  /tmp/cc0XcXNK.s 			page 25


 1369              	.LVL119:
 1370              		.loc 1 776 0
 1371 0788 95F83461 		ldrb	r6, [r5, #308]	@ zero_extendqisi2
 1372 078c 002E     		cmp	r6, #0
 1373 078e 41F07486 		bne	.L77
 1374              	.LBB113:
 1375              		.loc 1 777 0
 1376 0792 2946     		mov	r1, r5
 1377 0794 4FF49C72 		mov	r2, #312
 1378 0798 7448     		ldr	r0, .L219+20
 1379 079a FFF7FEFF 		bl	memcpy
 1380              	.LVL120:
 1381              		.loc 1 779 0
 1382 079e 2046     		mov	r0, r4
 1383 07a0 03A9     		add	r1, sp, #12
 1384 07a2 9FED730A 		flds	s0, .L219+24
 1385              		.loc 1 778 0
 1386 07a6 0396     		str	r6, [sp, #12]
 1387              		.loc 1 779 0
 1388 07a8 FFF7FEFF 		bl	buffer_get_float32
 1389              	.LVL121:
 1390              		.loc 1 782 0
 1391 07ac 714B     		ldr	r3, .L219+28
 1392              		.loc 1 783 0
 1393 07ae 7249     		ldr	r1, .L219+32
 1394              		.loc 1 782 0
 1395 07b0 C5F89430 		str	r3, [r5, #148]	@ float
 1396              		.loc 1 781 0
 1397 07b4 0222     		movs	r2, #2
 1398              		.loc 1 784 0
 1399 07b6 714B     		ldr	r3, .L219+36
 1400              		.loc 1 783 0
 1401 07b8 C5F88C10 		str	r1, [r5, #140]	@ float
 1402              		.loc 1 785 0
 1403 07bc 2846     		mov	r0, r5
 1404              		.loc 1 779 0
 1405 07be B0EE408A 		fcpys	s16, s0
 1406              	.LVL122:
 1407              		.loc 1 781 0
 1408 07c2 AA70     		strb	r2, [r5, #2]
 1409              		.loc 1 784 0
 1410 07c4 C5F89030 		str	r3, [r5, #144]	@ float
 1411              		.loc 1 785 0
 1412 07c8 FFF7FEFF 		bl	mc_interface_set_configuration
 1413              	.LVL123:
 1414              		.loc 1 788 0
 1415 07cc B0EE480A 		fcpys	s0, s16
 1416 07d0 D2A8     		add	r0, sp, #840
 1417 07d2 FFF7FEFF 		bl	mcpwm_foc_hall_detect
 1418              	.LVL124:
 1419 07d6 0446     		mov	r4, r0
 1420              	.LVL125:
 1421              		.loc 1 789 0
 1422 07d8 6448     		ldr	r0, .L219+20
 1423              	.LBB114:
 1424              	.LBB115:
 1425              		.loc 1 97 0
ARM GAS  /tmp/cc0XcXNK.s 			page 26


 1426 07da 5F4E     		ldr	r6, .L219
 1427              	.LBE115:
 1428              	.LBE114:
 1429              		.loc 1 789 0
 1430 07dc FFF7FEFF 		bl	mc_interface_set_configuration
 1431              	.LVL126:
 1432              		.loc 1 792 0
 1433 07e0 604A     		ldr	r2, .L219+12
 1434              		.loc 1 793 0
 1435 07e2 D2AB     		add	r3, sp, #840
 1436              		.loc 1 792 0
 1437 07e4 1546     		mov	r5, r2
 1438              		.loc 1 793 0
 1439 07e6 03CB     		ldmia	r3!, {r0, r1}
 1440              		.loc 1 792 0
 1441 07e8 1B23     		movs	r3, #27
 1442 07ea 05F8013B 		strb	r3, [r5], #1
 1443              	.LBB118:
 1444              	.LBB116:
 1445              		.loc 1 97 0
 1446 07ee 3368     		ldr	r3, [r6]
 1447              	.LBE116:
 1448              	.LBE118:
 1449              		.loc 1 793 0
 1450 07f0 C2F80100 		str	r0, [r2, #1]	@ unaligned
 1451              		.loc 1 795 0
 1452 07f4 84F00104 		eor	r4, r4, #1
 1453              	.LVL127:
 1454 07f8 0A26     		movs	r6, #10
 1455              		.loc 1 793 0
 1456 07fa 6960     		str	r1, [r5, #4]	@ unaligned
 1457              		.loc 1 795 0
 1458 07fc 0396     		str	r6, [sp, #12]
 1459 07fe 5472     		strb	r4, [r2, #9]
 1460              	.LVL128:
 1461              	.LBB119:
 1462              	.LBB117:
 1463              		.loc 1 97 0
 1464 0800 002B     		cmp	r3, #0
 1465 0802 3FF42CAF 		beq	.L24
 1466              		.loc 1 98 0
 1467 0806 1046     		mov	r0, r2
 1468 0808 3146     		mov	r1, r6
 1469 080a 9847     		blx	r3
 1470              	.LVL129:
 1471 080c 27E7     		b	.L24
 1472              	.LVL130:
 1473              	.L48:
 1474              	.LBE117:
 1475              	.LBE119:
 1476              	.LBE113:
 1477              		.loc 1 737 0
 1478 080e FFF7FEFF 		bl	encoder_is_configured
 1479              	.LVL131:
 1480 0812 0546     		mov	r5, r0
 1481 0814 0028     		cmp	r0, #0
 1482 0816 01F03A86 		beq	.L75
ARM GAS  /tmp/cc0XcXNK.s 			page 27


 1483              	.LBB120:
 1484              		.loc 1 738 0
 1485 081a FFF7FEFF 		bl	mc_interface_get_configuration
 1486              	.LVL132:
 1487 081e 4F4D     		ldr	r5, .L219+4
 1488              		.loc 1 757 0
 1489 0820 504E     		ldr	r6, .L219+12
 1490              		.loc 1 738 0
 1491 0822 0146     		mov	r1, r0
 1492 0824 4FF49C72 		mov	r2, #312
 1493 0828 2846     		mov	r0, r5
 1494 082a FFF7FEFF 		bl	memcpy
 1495              	.LVL133:
 1496              		.loc 1 739 0
 1497 082e 4FF49C72 		mov	r2, #312
 1498 0832 2946     		mov	r1, r5
 1499 0834 4D48     		ldr	r0, .L219+20
 1500 0836 FFF7FEFF 		bl	memcpy
 1501              	.LVL134:
 1502              		.loc 1 741 0
 1503 083a 0027     		movs	r7, #0
 1504              	.LVL135:
 1505              		.loc 1 742 0
 1506 083c 2046     		mov	r0, r4
 1507 083e 03A9     		add	r1, sp, #12
 1508 0840 9FED4B0A 		flds	s0, .L219+24
 1509              		.loc 1 741 0
 1510 0844 0397     		str	r7, [sp, #12]
 1511              		.loc 1 742 0
 1512 0846 FFF7FEFF 		bl	buffer_get_float32
 1513              	.LVL136:
 1514              		.loc 1 745 0
 1515 084a 4A4B     		ldr	r3, .L219+28
 1516              		.loc 1 746 0
 1517 084c 4A4A     		ldr	r2, .L219+32
 1518              		.loc 1 745 0
 1519 084e C5F89430 		str	r3, [r5, #148]	@ float
 1520              		.loc 1 744 0
 1521 0852 0221     		movs	r1, #2
 1522              		.loc 1 747 0
 1523 0854 494B     		ldr	r3, .L219+36
 1524              		.loc 1 744 0
 1525 0856 A970     		strb	r1, [r5, #2]
 1526              		.loc 1 742 0
 1527 0858 B0EE408A 		fcpys	s16, s0
 1528              	.LVL137:
 1529              		.loc 1 748 0
 1530 085c 2846     		mov	r0, r5
 1531              		.loc 1 746 0
 1532 085e C5F88C20 		str	r2, [r5, #140]	@ float
 1533              		.loc 1 747 0
 1534 0862 C5F89030 		str	r3, [r5, #144]	@ float
 1535              		.loc 1 750 0
 1536 0866 0024     		movs	r4, #0
 1537              	.LVL138:
 1538              		.loc 1 748 0
 1539 0868 FFF7FEFF 		bl	mc_interface_set_configuration
ARM GAS  /tmp/cc0XcXNK.s 			page 28


 1540              	.LVL139:
 1541              		.loc 1 753 0
 1542 086c B0EE480A 		fcpys	s0, s16
 1543 0870 44AB     		add	r3, sp, #272
 1544 0872 84A9     		add	r1, sp, #528
 1545 0874 D2AA     		add	r2, sp, #840
 1546 0876 3846     		mov	r0, r7
 1547              		.loc 1 752 0
 1548 0878 8DF81071 		strb	r7, [sp, #272]
 1549              		.loc 1 750 0
 1550 087c 8494     		str	r4, [sp, #528]	@ float
 1551              		.loc 1 751 0
 1552 087e D294     		str	r4, [sp, #840]	@ float
 1553              		.loc 1 753 0
 1554 0880 FFF7FEFF 		bl	mcpwm_foc_encoder_detect
 1555              	.LVL140:
 1556              		.loc 1 754 0
 1557 0884 3948     		ldr	r0, .L219+20
 1558 0886 FFF7FEFF 		bl	mc_interface_set_configuration
 1559              	.LVL141:
 1560              		.loc 1 757 0
 1561 088a 1A22     		movs	r2, #26
 1562 088c 0123     		movs	r3, #1
 1563              		.loc 1 758 0
 1564 088e 9DED840A 		flds	s0, [sp, #528]
 1565 0892 DFED350A 		flds	s1, .L219+16
 1566              		.loc 1 757 0
 1567 0896 3270     		strb	r2, [r6]
 1568              		.loc 1 758 0
 1569 0898 3046     		mov	r0, r6
 1570 089a 03A9     		add	r1, sp, #12
 1571              		.loc 1 757 0
 1572 089c 0393     		str	r3, [sp, #12]
 1573              		.loc 1 758 0
 1574 089e FFF7FEFF 		bl	buffer_append_float32
 1575              	.LVL142:
 1576              		.loc 1 759 0
 1577 08a2 03A9     		add	r1, sp, #12
 1578 08a4 3046     		mov	r0, r6
 1579 08a6 9DEDD20A 		flds	s0, [sp, #840]
 1580 08aa DFED2F0A 		flds	s1, .L219+16
 1581 08ae FFF7FEFF 		bl	buffer_append_float32
 1582              	.LVL143:
 1583              	.LBB121:
 1584              	.LBB122:
 1585              		.loc 1 97 0
 1586 08b2 294B     		ldr	r3, .L219
 1587              	.LBE122:
 1588              	.LBE121:
 1589              		.loc 1 760 0
 1590 08b4 0399     		ldr	r1, [sp, #12]
 1591 08b6 9DF81021 		ldrb	r2, [sp, #272]	@ zero_extendqisi2
 1592              	.LBB125:
 1593              	.LBB123:
 1594              		.loc 1 97 0
 1595 08ba 1B68     		ldr	r3, [r3]
 1596              	.LBE123:
ARM GAS  /tmp/cc0XcXNK.s 			page 29


 1597              	.LBE125:
 1598              		.loc 1 760 0
 1599 08bc 7254     		strb	r2, [r6, r1]
 1600              	.LVL144:
 1601 08be 0131     		adds	r1, r1, #1
 1602              	.LVL145:
 1603 08c0 0391     		str	r1, [sp, #12]
 1604              	.LBB126:
 1605              	.LBB124:
 1606              		.loc 1 97 0
 1607 08c2 002B     		cmp	r3, #0
 1608 08c4 3FF4CBAE 		beq	.L24
 1609              		.loc 1 98 0
 1610 08c8 3046     		mov	r0, r6
 1611 08ca 9847     		blx	r3
 1612              	.LVL146:
 1613 08cc C7E6     		b	.L24
 1614              	.LVL147:
 1615              	.L47:
 1616              	.LBE124:
 1617              	.LBE126:
 1618              	.LBE120:
 1619              	.LBB127:
 1620              		.loc 1 717 0
 1621 08ce 2046     		mov	r0, r4
 1622 08d0 03A9     		add	r1, sp, #12
 1623 08d2 9FED270A 		flds	s0, .L219+24
 1624 08d6 FFF7FEFF 		bl	buffer_get_float32
 1625              	.LVL148:
 1626              		.loc 1 718 0
 1627 08da 2046     		mov	r0, r4
 1628              		.loc 1 717 0
 1629 08dc B0EE408A 		fcpys	s16, s0
 1630              	.LVL149:
 1631              		.loc 1 718 0
 1632 08e0 03A9     		add	r1, sp, #12
 1633 08e2 9FED230A 		flds	s0, .L219+24
 1634              	.LVL150:
 1635 08e6 FFF7FEFF 		bl	buffer_get_float32
 1636              	.LVL151:
 1637              		.loc 1 719 0
 1638 08ea 2046     		mov	r0, r4
 1639              		.loc 1 718 0
 1640 08ec F0EE408A 		fcpys	s17, s0
 1641              	.LVL152:
 1642              		.loc 1 719 0
 1643 08f0 03A9     		add	r1, sp, #12
 1644 08f2 9FED1F0A 		flds	s0, .L219+24
 1645              	.LVL153:
 1646 08f6 FFF7FEFF 		bl	buffer_get_float32
 1647              	.LVL154:
 1648              		.loc 1 720 0
 1649 08fa 2046     		mov	r0, r4
 1650              		.loc 1 719 0
 1651 08fc B0EE409A 		fcpys	s18, s0
 1652              	.LVL155:
 1653              		.loc 1 720 0
ARM GAS  /tmp/cc0XcXNK.s 			page 30


 1654 0900 03A9     		add	r1, sp, #12
 1655 0902 9FED190A 		flds	s0, .L219+16
 1656              	.LVL156:
 1657 0906 FFF7FEFF 		bl	buffer_get_float32
 1658              	.LVL157:
 1659              		.loc 1 723 0
 1660 090a F0EE490A 		fcpys	s1, s18
 1661              		.loc 1 720 0
 1662 090e F0EE401A 		fcpys	s3, s0
 1663              	.LVL158:
 1664              		.loc 1 723 0
 1665 0912 B0EE681A 		fcpys	s2, s17
 1666 0916 B0EE480A 		fcpys	s0, s16
 1667              	.LVL159:
 1668 091a D2A8     		add	r0, sp, #840
 1669 091c FFF7FEFF 		bl	conf_general_measure_flux_linkage
 1670              	.LVL160:
 1671              		.loc 1 725 0
 1672 0920 0028     		cmp	r0, #0
 1673 0922 41F08185 		bne	.L212
 1674              		.loc 1 726 0
 1675 0926 DFED167A 		flds	s15, .L219+40
 1676 092a B0EE670A 		fcpys	s0, s15
 1677 092e CDEDD27A 		fsts	s15, [sp, #840]
 1678              	.L73:
 1679              		.loc 1 730 0
 1680 0932 0C4C     		ldr	r4, .L219+12
 1681              	.LVL161:
 1682              		.loc 1 731 0
 1683 0934 DFED130A 		flds	s1, .L219+44
 1684              		.loc 1 730 0
 1685 0938 1922     		movs	r2, #25
 1686 093a 0123     		movs	r3, #1
 1687              		.loc 1 731 0
 1688 093c 2046     		mov	r0, r4
 1689              	.LVL162:
 1690 093e 03A9     		add	r1, sp, #12
 1691              		.loc 1 730 0
 1692 0940 2270     		strb	r2, [r4]
 1693 0942 0393     		str	r3, [sp, #12]
 1694              	.LVL163:
 1695              	.L206:
 1696              		.loc 1 731 0
 1697 0944 FFF7FEFF 		bl	buffer_append_float32
 1698              	.LVL164:
 1699              	.LBB128:
 1700              	.LBB129:
 1701              		.loc 1 97 0
 1702 0948 034B     		ldr	r3, .L219
 1703              	.LBE129:
 1704              	.LBE128:
 1705              		.loc 1 732 0
 1706 094a 0399     		ldr	r1, [sp, #12]
 1707              	.LVL165:
 1708              	.LBB131:
 1709              	.LBB130:
 1710              		.loc 1 97 0
ARM GAS  /tmp/cc0XcXNK.s 			page 31


 1711 094c 1B68     		ldr	r3, [r3]
 1712 094e 002B     		cmp	r3, #0
 1713 0950 7FF4CBAE 		bne	.L204
 1714 0954 83E6     		b	.L24
 1715              	.L220:
 1716 0956 00BF     		.align	2
 1717              	.L219:
 1718 0958 00000000 		.word	.LANCHOR9
 1719 095c 00000000 		.word	.LANCHOR12
 1720 0960 00000000 		.word	.LANCHOR13
 1721 0964 00000000 		.word	.LANCHOR8
 1722 0968 00247449 		.word	1232348160
 1723 096c 00000000 		.word	.LANCHOR14
 1724 0970 00007A44 		.word	1148846080
 1725 0974 00401C46 		.word	1176256512
 1726 0978 0AD7233C 		.word	1008981770
 1727 097c 00002041 		.word	1092616192
 1728 0980 00000000 		.word	0
 1729 0984 8096184B 		.word	1259902592
 1730              	.LVL166:
 1731              	.L46:
 1732              	.LBE130:
 1733              	.LBE131:
 1734              	.LBE127:
 1735              	.LBB132:
 1736              		.loc 1 691 0
 1737 0988 FFF7FEFF 		bl	mc_interface_get_configuration
 1738              	.LVL167:
 1739 098c 1D4C     		ldr	r4, .L221
 1740              	.LVL168:
 1741              		.loc 1 697 0
 1742 098e 9FED1E8A 		flds	s16, .L221+4
 1743              		.loc 1 691 0
 1744 0992 0146     		mov	r1, r0
 1745 0994 4FF49C72 		mov	r2, #312
 1746 0998 2046     		mov	r0, r4
 1747 099a FFF7FEFF 		bl	memcpy
 1748              	.LVL169:
 1749              		.loc 1 692 0
 1750 099e 2146     		mov	r1, r4
 1751 09a0 4FF49C72 		mov	r2, #312
 1752 09a4 1948     		ldr	r0, .L221+8
 1753 09a6 FFF7FEFF 		bl	memcpy
 1754              	.LVL170:
 1755              		.loc 1 698 0
 1756 09aa D2AF     		add	r7, sp, #840
 1757              	.LVL171:
 1758              		.loc 1 694 0
 1759 09ac 0223     		movs	r3, #2
 1760              		.loc 1 695 0
 1761 09ae 2046     		mov	r0, r4
 1762              		.loc 1 694 0
 1763 09b0 A370     		strb	r3, [r4, #2]
 1764              		.loc 1 695 0
 1765 09b2 FFF7FEFF 		bl	mc_interface_set_configuration
 1766              	.LVL172:
 1767              		.loc 1 699 0
ARM GAS  /tmp/cc0XcXNK.s 			page 32


 1768 09b6 84A8     		add	r0, sp, #528
 1769 09b8 3946     		mov	r1, r7
 1770              		.loc 1 697 0
 1771 09ba 8DED848A 		fsts	s16, [sp, #528]
 1772              		.loc 1 698 0
 1773 09be 87ED008A 		fsts	s16, [r7]
 1774              		.loc 1 699 0
 1775 09c2 FFF7FEFF 		bl	mcpwm_foc_measure_res_ind
 1776              	.LVL173:
 1777 09c6 0446     		mov	r4, r0
 1778              	.LVL174:
 1779              		.loc 1 700 0
 1780 09c8 1048     		ldr	r0, .L221+8
 1781 09ca FFF7FEFF 		bl	mc_interface_set_configuration
 1782              	.LVL175:
 1783              		.loc 1 702 0
 1784 09ce 002C     		cmp	r4, #0
 1785 09d0 41F00585 		bne	.L213
 1786              		.loc 1 704 0
 1787 09d4 B0EE480A 		fcpys	s0, s16
 1788              		.loc 1 703 0
 1789 09d8 8DED848A 		fsts	s16, [sp, #528]
 1790              		.loc 1 704 0
 1791 09dc 87ED008A 		fsts	s16, [r7]
 1792              	.L70:
 1793              		.loc 1 708 0
 1794 09e0 0B4C     		ldr	r4, .L221+12
 1795              	.LVL176:
 1796              		.loc 1 709 0
 1797 09e2 DFED0C0A 		flds	s1, .L221+16
 1798              		.loc 1 708 0
 1799 09e6 1822     		movs	r2, #24
 1800              		.loc 1 709 0
 1801 09e8 2046     		mov	r0, r4
 1802              		.loc 1 708 0
 1803 09ea 0123     		movs	r3, #1
 1804              		.loc 1 709 0
 1805 09ec 03A9     		add	r1, sp, #12
 1806              		.loc 1 708 0
 1807 09ee 2270     		strb	r2, [r4]
 1808 09f0 0393     		str	r3, [sp, #12]
 1809              		.loc 1 709 0
 1810 09f2 FFF7FEFF 		bl	buffer_append_float32
 1811              	.LVL177:
 1812              		.loc 1 710 0
 1813 09f6 2046     		mov	r0, r4
 1814 09f8 97ED000A 		flds	s0, [r7]
 1815 09fc DFED060A 		flds	s1, .L221+20
 1816 0a00 03A9     		add	r1, sp, #12
 1817 0a02 9FE7     		b	.L206
 1818              	.L222:
 1819              		.align	2
 1820              	.L221:
 1821 0a04 00000000 		.word	.LANCHOR12
 1822 0a08 00000000 		.word	0
 1823 0a0c 00000000 		.word	.LANCHOR14
 1824 0a10 00000000 		.word	.LANCHOR8
ARM GAS  /tmp/cc0XcXNK.s 			page 33


 1825 0a14 00247449 		.word	1232348160
 1826 0a18 00007A44 		.word	1148846080
 1827              	.LVL178:
 1828              	.L42:
 1829              	.LBE132:
 1830              		.loc 1 567 0
 1831 0a1c 102F     		cmp	r7, #16
 1832 0a1e 01F02185 		beq	.L214
 1833              		.loc 1 570 0
 1834 0a22 04AC     		add	r4, sp, #16
 1835              	.LVL179:
 1836 0a24 2046     		mov	r0, r4
 1837              	.LVL180:
 1838 0a26 FFF7FEFF 		bl	conf_general_get_default_app_configuration
 1839              	.LVL181:
 1840              	.L68:
 1841              		.loc 1 574 0
 1842 0a2a E04D     		ldr	r5, .L223
 1843              		.loc 1 575 0
 1844 0a2c 2678     		ldrb	r6, [r4]	@ zero_extendqisi2
 1845              	.LVL182:
 1846              		.loc 1 576 0
 1847 0a2e 6168     		ldr	r1, [r4, #4]
 1848              		.loc 1 577 0
 1849 0a30 9FEDDF8A 		flds	s16, .L223+4
 1850              		.loc 1 574 0
 1851 0a34 2F70     		strb	r7, [r5]
 1852              		.loc 1 575 0
 1853 0a36 0223     		movs	r3, #2
 1854              		.loc 1 576 0
 1855 0a38 2846     		mov	r0, r5
 1856 0a3a 03AA     		add	r2, sp, #12
 1857              		.loc 1 575 0
 1858 0a3c 0393     		str	r3, [sp, #12]
 1859 0a3e 6E70     		strb	r6, [r5, #1]
 1860              		.loc 1 576 0
 1861 0a40 FFF7FEFF 		bl	buffer_append_uint32
 1862              	.LVL183:
 1863              		.loc 1 577 0
 1864 0a44 D4ED027A 		flds	s15, [r4, #8]
 1865              		.loc 1 655 0
 1866 0a48 DFEDDA8A 		flds	s17, .L223+8
 1867              		.loc 1 577 0
 1868 0a4c 67EE887A 		fmuls	s15, s15, s16
 1869 0a50 2846     		mov	r0, r5
 1870 0a52 FDEEE77A 		ftosizs	s15, s15
 1871 0a56 03AA     		add	r2, sp, #12
 1872 0a58 17EE901A 		fmrs	r1, s15	@ int
 1873 0a5c FFF7FEFF 		bl	buffer_append_int32
 1874              	.LVL184:
 1875              		.loc 1 578 0
 1876 0a60 039B     		ldr	r3, [sp, #12]
 1877 0a62 227B     		ldrb	r2, [r4, #12]	@ zero_extendqisi2
 1878 0a64 EA54     		strb	r2, [r5, r3]
 1879              		.loc 1 579 0
 1880 0a66 218A     		ldrh	r1, [r4, #16]
 1881              		.loc 1 578 0
ARM GAS  /tmp/cc0XcXNK.s 			page 34


 1882 0a68 0133     		adds	r3, r3, #1
 1883              		.loc 1 579 0
 1884 0a6a 2846     		mov	r0, r5
 1885 0a6c 03AA     		add	r2, sp, #12
 1886              		.loc 1 578 0
 1887 0a6e 0393     		str	r3, [sp, #12]
 1888              		.loc 1 579 0
 1889 0a70 FFF7FEFF 		bl	buffer_append_uint16
 1890              	.LVL185:
 1891              		.loc 1 584 0
 1892 0a74 D4ED077A 		flds	s15, [r4, #28]
 1893              		.loc 1 581 0
 1894 0a78 039B     		ldr	r3, [sp, #12]
 1895 0a7a 227D     		ldrb	r2, [r4, #20]	@ zero_extendqisi2
 1896 0a7c EA54     		strb	r2, [r5, r3]
 1897              		.loc 1 584 0
 1898 0a7e 67EE887A 		fmuls	s15, s15, s16
 1899              		.loc 1 583 0
 1900 0a82 EE18     		adds	r6, r5, r3
 1901              		.loc 1 584 0
 1902 0a84 FDEEE77A 		ftosizs	s15, s15
 1903              		.loc 1 583 0
 1904 0a88 0233     		adds	r3, r3, #2
 1905 0a8a 277E     		ldrb	r7, [r4, #24]	@ zero_extendqisi2
 1906              	.LVL186:
 1907 0a8c 0393     		str	r3, [sp, #12]
 1908              		.loc 1 584 0
 1909 0a8e 17EE901A 		fmrs	r1, s15	@ int
 1910 0a92 2846     		mov	r0, r5
 1911 0a94 03AA     		add	r2, sp, #12
 1912              		.loc 1 583 0
 1913 0a96 7770     		strb	r7, [r6, #1]
 1914              		.loc 1 584 0
 1915 0a98 FFF7FEFF 		bl	buffer_append_int32
 1916              	.LVL187:
 1917              		.loc 1 585 0
 1918 0a9c D4ED087A 		flds	s15, [r4, #32]
 1919 0aa0 67EE887A 		fmuls	s15, s15, s16
 1920 0aa4 2846     		mov	r0, r5
 1921 0aa6 FDEEE77A 		ftosizs	s15, s15
 1922 0aaa 03AA     		add	r2, sp, #12
 1923 0aac 17EE901A 		fmrs	r1, s15	@ int
 1924 0ab0 FFF7FEFF 		bl	buffer_append_int32
 1925              	.LVL188:
 1926              		.loc 1 586 0
 1927 0ab4 D4ED097A 		flds	s15, [r4, #36]
 1928 0ab8 67EE887A 		fmuls	s15, s15, s16
 1929 0abc 2846     		mov	r0, r5
 1930 0abe FDEEE77A 		ftosizs	s15, s15
 1931 0ac2 03AA     		add	r2, sp, #12
 1932 0ac4 17EE901A 		fmrs	r1, s15	@ int
 1933 0ac8 FFF7FEFF 		bl	buffer_append_int32
 1934              	.LVL189:
 1935              		.loc 1 587 0
 1936 0acc D4ED0A7A 		flds	s15, [r4, #40]
 1937 0ad0 67EE887A 		fmuls	s15, s15, s16
 1938 0ad4 2846     		mov	r0, r5
ARM GAS  /tmp/cc0XcXNK.s 			page 35


 1939 0ad6 FDEEE77A 		ftosizs	s15, s15
 1940 0ada 03AA     		add	r2, sp, #12
 1941 0adc 17EE901A 		fmrs	r1, s15	@ int
 1942 0ae0 FFF7FEFF 		bl	buffer_append_int32
 1943              	.LVL190:
 1944              		.loc 1 590 0
 1945 0ae4 D4ED0C7A 		flds	s15, [r4, #48]
 1946              		.loc 1 588 0
 1947 0ae8 039B     		ldr	r3, [sp, #12]
 1948 0aea 94F82C20 		ldrb	r2, [r4, #44]	@ zero_extendqisi2
 1949 0aee EA54     		strb	r2, [r5, r3]
 1950              		.loc 1 590 0
 1951 0af0 67EE887A 		fmuls	s15, s15, s16
 1952              		.loc 1 589 0
 1953 0af4 EE18     		adds	r6, r5, r3
 1954              		.loc 1 590 0
 1955 0af6 FDEEE77A 		ftosizs	s15, s15
 1956              		.loc 1 589 0
 1957 0afa 0233     		adds	r3, r3, #2
 1958 0afc 94F82D70 		ldrb	r7, [r4, #45]	@ zero_extendqisi2
 1959 0b00 0393     		str	r3, [sp, #12]
 1960              		.loc 1 590 0
 1961 0b02 17EE901A 		fmrs	r1, s15	@ int
 1962 0b06 2846     		mov	r0, r5
 1963 0b08 03AA     		add	r2, sp, #12
 1964              		.loc 1 589 0
 1965 0b0a 7770     		strb	r7, [r6, #1]
 1966              		.loc 1 590 0
 1967 0b0c FFF7FEFF 		bl	buffer_append_int32
 1968              	.LVL191:
 1969              		.loc 1 591 0
 1970 0b10 D4ED0D7A 		flds	s15, [r4, #52]
 1971 0b14 67EE887A 		fmuls	s15, s15, s16
 1972 0b18 2846     		mov	r0, r5
 1973 0b1a FDEEE77A 		ftosizs	s15, s15
 1974 0b1e 03AA     		add	r2, sp, #12
 1975 0b20 17EE901A 		fmrs	r1, s15	@ int
 1976 0b24 FFF7FEFF 		bl	buffer_append_int32
 1977              	.LVL192:
 1978              		.loc 1 594 0
 1979 0b28 D4ED0F7A 		flds	s15, [r4, #60]
 1980              		.loc 1 592 0
 1981 0b2c 039B     		ldr	r3, [sp, #12]
 1982 0b2e 94F83820 		ldrb	r2, [r4, #56]	@ zero_extendqisi2
 1983 0b32 EA54     		strb	r2, [r5, r3]
 1984              		.loc 1 594 0
 1985 0b34 67EE887A 		fmuls	s15, s15, s16
 1986              		.loc 1 593 0
 1987 0b38 EE18     		adds	r6, r5, r3
 1988              		.loc 1 594 0
 1989 0b3a FDEEE77A 		ftosizs	s15, s15
 1990              		.loc 1 593 0
 1991 0b3e 94F83970 		ldrb	r7, [r4, #57]	@ zero_extendqisi2
 1992 0b42 7770     		strb	r7, [r6, #1]
 1993              		.loc 1 594 0
 1994 0b44 17EE901A 		fmrs	r1, s15	@ int
 1995              		.loc 1 593 0
ARM GAS  /tmp/cc0XcXNK.s 			page 36


 1996 0b48 0233     		adds	r3, r3, #2
 1997              		.loc 1 594 0
 1998 0b4a 2846     		mov	r0, r5
 1999 0b4c 03AA     		add	r2, sp, #12
 2000              		.loc 1 593 0
 2001 0b4e 0393     		str	r3, [sp, #12]
 2002              		.loc 1 594 0
 2003 0b50 FFF7FEFF 		bl	buffer_append_int32
 2004              	.LVL193:
 2005              		.loc 1 597 0
 2006 0b54 D4ED167A 		flds	s15, [r4, #88]
 2007              		.loc 1 596 0
 2008 0b58 039B     		ldr	r3, [sp, #12]
 2009 0b5a 94F85420 		ldrb	r2, [r4, #84]	@ zero_extendqisi2
 2010 0b5e EA54     		strb	r2, [r5, r3]
 2011              		.loc 1 597 0
 2012 0b60 67EE887A 		fmuls	s15, s15, s16
 2013              		.loc 1 596 0
 2014 0b64 0133     		adds	r3, r3, #1
 2015              		.loc 1 597 0
 2016 0b66 FDEEE77A 		ftosizs	s15, s15
 2017 0b6a 2846     		mov	r0, r5
 2018 0b6c 17EE901A 		fmrs	r1, s15	@ int
 2019 0b70 03AA     		add	r2, sp, #12
 2020              		.loc 1 596 0
 2021 0b72 0393     		str	r3, [sp, #12]
 2022              		.loc 1 597 0
 2023 0b74 FFF7FEFF 		bl	buffer_append_int32
 2024              	.LVL194:
 2025              		.loc 1 598 0
 2026 0b78 D4ED177A 		flds	s15, [r4, #92]
 2027 0b7c 67EE887A 		fmuls	s15, s15, s16
 2028 0b80 2846     		mov	r0, r5
 2029 0b82 FDEEE77A 		ftosizs	s15, s15
 2030 0b86 03AA     		add	r2, sp, #12
 2031 0b88 17EE901A 		fmrs	r1, s15	@ int
 2032 0b8c FFF7FEFF 		bl	buffer_append_int32
 2033              	.LVL195:
 2034              		.loc 1 599 0
 2035 0b90 D4ED187A 		flds	s15, [r4, #96]
 2036 0b94 67EE887A 		fmuls	s15, s15, s16
 2037 0b98 2846     		mov	r0, r5
 2038 0b9a FDEEE77A 		ftosizs	s15, s15
 2039 0b9e 03AA     		add	r2, sp, #12
 2040 0ba0 17EE901A 		fmrs	r1, s15	@ int
 2041 0ba4 FFF7FEFF 		bl	buffer_append_int32
 2042              	.LVL196:
 2043              		.loc 1 605 0
 2044 0ba8 D4ED1B7A 		flds	s15, [r4, #108]
 2045              		.loc 1 600 0
 2046 0bac 039B     		ldr	r3, [sp, #12]
 2047 0bae 94F86420 		ldrb	r2, [r4, #100]	@ zero_extendqisi2
 2048              		.loc 1 602 0
 2049 0bb2 94F866C0 		ldrb	ip, [r4, #102]	@ zero_extendqisi2
 2050              		.loc 1 603 0
 2051 0bb6 94F867E0 		ldrb	lr, [r4, #103]	@ zero_extendqisi2
 2052              		.loc 1 600 0
ARM GAS  /tmp/cc0XcXNK.s 			page 37


 2053 0bba EA54     		strb	r2, [r5, r3]
 2054              		.loc 1 605 0
 2055 0bbc 67EE887A 		fmuls	s15, s15, s16
 2056              		.loc 1 601 0
 2057 0bc0 EE18     		adds	r6, r5, r3
 2058              		.loc 1 605 0
 2059 0bc2 FDEEE77A 		ftosizs	s15, s15
 2060              		.loc 1 604 0
 2061 0bc6 0533     		adds	r3, r3, #5
 2062              		.loc 1 601 0
 2063 0bc8 94F86580 		ldrb	r8, [r4, #101]	@ zero_extendqisi2
 2064              	.LVL197:
 2065              		.loc 1 604 0
 2066 0bcc 94F86870 		ldrb	r7, [r4, #104]	@ zero_extendqisi2
 2067              		.loc 1 602 0
 2068 0bd0 86F802C0 		strb	ip, [r6, #2]
 2069              		.loc 1 605 0
 2070 0bd4 17EE901A 		fmrs	r1, s15	@ int
 2071 0bd8 2846     		mov	r0, r5
 2072 0bda 03AA     		add	r2, sp, #12
 2073              		.loc 1 603 0
 2074 0bdc 86F803E0 		strb	lr, [r6, #3]
 2075              		.loc 1 604 0
 2076 0be0 0393     		str	r3, [sp, #12]
 2077              		.loc 1 601 0
 2078 0be2 86F80180 		strb	r8, [r6, #1]
 2079              		.loc 1 604 0
 2080 0be6 3771     		strb	r7, [r6, #4]
 2081              		.loc 1 605 0
 2082 0be8 FFF7FEFF 		bl	buffer_append_int32
 2083              	.LVL198:
 2084              		.loc 1 606 0
 2085 0bec D4ED1C7A 		flds	s15, [r4, #112]
 2086 0bf0 67EE887A 		fmuls	s15, s15, s16
 2087 0bf4 2846     		mov	r0, r5
 2088 0bf6 FDEEE77A 		ftosizs	s15, s15
 2089 0bfa 03AA     		add	r2, sp, #12
 2090 0bfc 17EE901A 		fmrs	r1, s15	@ int
 2091 0c00 FFF7FEFF 		bl	buffer_append_int32
 2092              	.LVL199:
 2093              		.loc 1 609 0
 2094 0c04 D4ED1E7A 		flds	s15, [r4, #120]
 2095              		.loc 1 607 0
 2096 0c08 039B     		ldr	r3, [sp, #12]
 2097 0c0a 94F87420 		ldrb	r2, [r4, #116]	@ zero_extendqisi2
 2098 0c0e EA54     		strb	r2, [r5, r3]
 2099              		.loc 1 609 0
 2100 0c10 67EE887A 		fmuls	s15, s15, s16
 2101              		.loc 1 608 0
 2102 0c14 EE18     		adds	r6, r5, r3
 2103              		.loc 1 609 0
 2104 0c16 FDEEE77A 		ftosizs	s15, s15
 2105              		.loc 1 608 0
 2106 0c1a 0233     		adds	r3, r3, #2
 2107              		.loc 1 609 0
 2108 0c1c 17EE901A 		fmrs	r1, s15	@ int
 2109              		.loc 1 608 0
ARM GAS  /tmp/cc0XcXNK.s 			page 38


 2110 0c20 94F87570 		ldrb	r7, [r4, #117]	@ zero_extendqisi2
 2111 0c24 0393     		str	r3, [sp, #12]
 2112              		.loc 1 609 0
 2113 0c26 2846     		mov	r0, r5
 2114 0c28 03AA     		add	r2, sp, #12
 2115              		.loc 1 608 0
 2116 0c2a 7770     		strb	r7, [r6, #1]
 2117              		.loc 1 609 0
 2118 0c2c FFF7FEFF 		bl	buffer_append_int32
 2119              	.LVL200:
 2120              		.loc 1 610 0
 2121 0c30 2846     		mov	r0, r5
 2122 0c32 B4F87C10 		ldrh	r1, [r4, #124]
 2123 0c36 03AA     		add	r2, sp, #12
 2124 0c38 FFF7FEFF 		bl	buffer_append_uint16
 2125              	.LVL201:
 2126              		.loc 1 612 0
 2127 0c3c 2846     		mov	r0, r5
 2128 0c3e D4F88010 		ldr	r1, [r4, #128]
 2129 0c42 03AA     		add	r2, sp, #12
 2130 0c44 FFF7FEFF 		bl	buffer_append_uint32
 2131              	.LVL202:
 2132              		.loc 1 614 0
 2133 0c48 039B     		ldr	r3, [sp, #12]
 2134 0c4a 94F88420 		ldrb	r2, [r4, #132]	@ zero_extendqisi2
 2135 0c4e EA54     		strb	r2, [r5, r3]
 2136              		.loc 1 615 0
 2137 0c50 F0EE480A 		fcpys	s1, s16
 2138              		.loc 1 614 0
 2139 0c54 0133     		adds	r3, r3, #1
 2140              		.loc 1 615 0
 2141 0c56 94ED220A 		flds	s0, [r4, #136]
 2142              		.loc 1 614 0
 2143 0c5a 0393     		str	r3, [sp, #12]
 2144              		.loc 1 615 0
 2145 0c5c 2846     		mov	r0, r5
 2146 0c5e 03A9     		add	r1, sp, #12
 2147 0c60 FFF7FEFF 		bl	buffer_append_float32
 2148              	.LVL203:
 2149              		.loc 1 616 0
 2150 0c64 F0EE480A 		fcpys	s1, s16
 2151 0c68 2846     		mov	r0, r5
 2152 0c6a 94ED230A 		flds	s0, [r4, #140]
 2153 0c6e 03A9     		add	r1, sp, #12
 2154 0c70 FFF7FEFF 		bl	buffer_append_float32
 2155              	.LVL204:
 2156              		.loc 1 617 0
 2157 0c74 F0EE480A 		fcpys	s1, s16
 2158 0c78 2846     		mov	r0, r5
 2159 0c7a 94ED240A 		flds	s0, [r4, #144]
 2160 0c7e 03A9     		add	r1, sp, #12
 2161 0c80 FFF7FEFF 		bl	buffer_append_float32
 2162              	.LVL205:
 2163              		.loc 1 618 0
 2164 0c84 F0EE480A 		fcpys	s1, s16
 2165 0c88 2846     		mov	r0, r5
 2166 0c8a 94ED250A 		flds	s0, [r4, #148]
ARM GAS  /tmp/cc0XcXNK.s 			page 39


 2167 0c8e 03A9     		add	r1, sp, #12
 2168 0c90 FFF7FEFF 		bl	buffer_append_float32
 2169              	.LVL206:
 2170              		.loc 1 619 0
 2171 0c94 F0EE480A 		fcpys	s1, s16
 2172 0c98 2846     		mov	r0, r5
 2173 0c9a 94ED260A 		flds	s0, [r4, #152]
 2174 0c9e 03A9     		add	r1, sp, #12
 2175 0ca0 FFF7FEFF 		bl	buffer_append_float32
 2176              	.LVL207:
 2177              		.loc 1 620 0
 2178 0ca4 F0EE480A 		fcpys	s1, s16
 2179 0ca8 94ED270A 		flds	s0, [r4, #156]
 2180 0cac 2846     		mov	r0, r5
 2181 0cae 03A9     		add	r1, sp, #12
 2182 0cb0 FFF7FEFF 		bl	buffer_append_float32
 2183              	.LVL208:
 2184              		.loc 1 623 0
 2185 0cb4 D4ED297A 		flds	s15, [r4, #164]
 2186              		.loc 1 621 0
 2187 0cb8 039B     		ldr	r3, [sp, #12]
 2188 0cba 94F8A020 		ldrb	r2, [r4, #160]	@ zero_extendqisi2
 2189 0cbe EA54     		strb	r2, [r5, r3]
 2190              		.loc 1 623 0
 2191 0cc0 67EE887A 		fmuls	s15, s15, s16
 2192              		.loc 1 622 0
 2193 0cc4 EE18     		adds	r6, r5, r3
 2194              		.loc 1 623 0
 2195 0cc6 FDEEE77A 		ftosizs	s15, s15
 2196              		.loc 1 622 0
 2197 0cca 94F8A170 		ldrb	r7, [r4, #161]	@ zero_extendqisi2
 2198 0cce 7770     		strb	r7, [r6, #1]
 2199              		.loc 1 623 0
 2200 0cd0 17EE901A 		fmrs	r1, s15	@ int
 2201              		.loc 1 622 0
 2202 0cd4 0233     		adds	r3, r3, #2
 2203              		.loc 1 623 0
 2204 0cd6 2846     		mov	r0, r5
 2205 0cd8 03AA     		add	r2, sp, #12
 2206              		.loc 1 622 0
 2207 0cda 0393     		str	r3, [sp, #12]
 2208              		.loc 1 623 0
 2209 0cdc FFF7FEFF 		bl	buffer_append_int32
 2210              	.LVL209:
 2211              		.loc 1 636 0
 2212 0ce0 D4ED107A 		flds	s15, [r4, #64]
 2213              		.loc 1 625 0
 2214 0ce4 039A     		ldr	r2, [sp, #12]
 2215 0ce6 94F8B830 		ldrb	r3, [r4, #184]	@ zero_extendqisi2
 2216 0cea AB54     		strb	r3, [r5, r2]
 2217              		.loc 1 636 0
 2218 0cec 67EE887A 		fmuls	s15, s15, s16
 2219              		.loc 1 626 0
 2220 0cf0 AB18     		adds	r3, r5, r2
 2221              		.loc 1 636 0
 2222 0cf2 FDEEE77A 		ftosizs	s15, s15
 2223              		.loc 1 631 0
ARM GAS  /tmp/cc0XcXNK.s 			page 40


 2224 0cf6 BDF8CEE0 		ldrh	lr, [sp, #206]	@ unaligned
 2225 0cfa 9DF8D070 		ldrb	r7, [sp, #208]	@ zero_extendqisi2
 2226              		.loc 1 630 0
 2227 0cfe 94F8BDC0 		ldrb	ip, [r4, #189]	@ zero_extendqisi2
 2228              		.loc 1 631 0
 2229 0d02 A3F806E0 		strh	lr, [r3, #6]	@ unaligned
 2230              		.loc 1 633 0
 2231 0d06 0A32     		adds	r2, r2, #10
 2232              		.loc 1 636 0
 2233 0d08 17EE901A 		fmrs	r1, s15	@ int
 2234              		.loc 1 631 0
 2235 0d0c 1F72     		strb	r7, [r3, #8]
 2236              		.loc 1 626 0
 2237 0d0e 94F8B9B0 		ldrb	fp, [r4, #185]	@ zero_extendqisi2
 2238              		.loc 1 627 0
 2239 0d12 94F8BAA0 		ldrb	r10, [r4, #186]	@ zero_extendqisi2
 2240              		.loc 1 628 0
 2241 0d16 94F8BB90 		ldrb	r9, [r4, #187]	@ zero_extendqisi2
 2242              		.loc 1 629 0
 2243 0d1a 94F8BC80 		ldrb	r8, [r4, #188]	@ zero_extendqisi2
 2244              		.loc 1 633 0
 2245 0d1e 94F8C160 		ldrb	r6, [r4, #193]	@ zero_extendqisi2
 2246 0d22 0392     		str	r2, [sp, #12]
 2247              		.loc 1 636 0
 2248 0d24 2846     		mov	r0, r5
 2249 0d26 03AA     		add	r2, sp, #12
 2250              		.loc 1 630 0
 2251 0d28 83F805C0 		strb	ip, [r3, #5]
 2252              		.loc 1 626 0
 2253 0d2c 83F801B0 		strb	fp, [r3, #1]
 2254              		.loc 1 627 0
 2255 0d30 83F802A0 		strb	r10, [r3, #2]
 2256              		.loc 1 628 0
 2257 0d34 83F80390 		strb	r9, [r3, #3]
 2258              		.loc 1 629 0
 2259 0d38 83F80480 		strb	r8, [r3, #4]
 2260              		.loc 1 633 0
 2261 0d3c 5E72     		strb	r6, [r3, #9]
 2262              		.loc 1 636 0
 2263 0d3e FFF7FEFF 		bl	buffer_append_int32
 2264              	.LVL210:
 2265              		.loc 1 638 0
 2266 0d42 D4ED117A 		flds	s15, [r4, #68]
 2267 0d46 67EE887A 		fmuls	s15, s15, s16
 2268 0d4a 2846     		mov	r0, r5
 2269 0d4c FDEEE77A 		ftosizs	s15, s15
 2270 0d50 03AA     		add	r2, sp, #12
 2271 0d52 17EE901A 		fmrs	r1, s15	@ int
 2272 0d56 FFF7FEFF 		bl	buffer_append_int32
 2273              	.LVL211:
 2274              		.loc 1 640 0
 2275 0d5a D4ED137A 		flds	s15, [r4, #76]
 2276              		.loc 1 639 0
 2277 0d5e 039B     		ldr	r3, [sp, #12]
 2278 0d60 94F84820 		ldrb	r2, [r4, #72]	@ zero_extendqisi2
 2279 0d64 EA54     		strb	r2, [r5, r3]
 2280              		.loc 1 640 0
ARM GAS  /tmp/cc0XcXNK.s 			page 41


 2281 0d66 67EE887A 		fmuls	s15, s15, s16
 2282              		.loc 1 639 0
 2283 0d6a 0133     		adds	r3, r3, #1
 2284              		.loc 1 640 0
 2285 0d6c FDEEE77A 		ftosizs	s15, s15
 2286 0d70 2846     		mov	r0, r5
 2287 0d72 17EE901A 		fmrs	r1, s15	@ int
 2288 0d76 03AA     		add	r2, sp, #12
 2289              		.loc 1 639 0
 2290 0d78 0393     		str	r3, [sp, #12]
 2291              		.loc 1 640 0
 2292 0d7a FFF7FEFF 		bl	buffer_append_int32
 2293              	.LVL212:
 2294              		.loc 1 641 0
 2295 0d7e D4ED147A 		flds	s15, [r4, #80]
 2296 0d82 67EE887A 		fmuls	s15, s15, s16
 2297 0d86 2846     		mov	r0, r5
 2298 0d88 FDEEE77A 		ftosizs	s15, s15
 2299 0d8c 03AA     		add	r2, sp, #12
 2300 0d8e 17EE901A 		fmrs	r1, s15	@ int
 2301 0d92 FFF7FEFF 		bl	buffer_append_int32
 2302              	.LVL213:
 2303              		.loc 1 643 0
 2304 0d96 D4ED2A7A 		flds	s15, [r4, #168]
 2305 0d9a 67EE887A 		fmuls	s15, s15, s16
 2306 0d9e 2846     		mov	r0, r5
 2307 0da0 FDEEE77A 		ftosizs	s15, s15
 2308 0da4 03AA     		add	r2, sp, #12
 2309 0da6 17EE901A 		fmrs	r1, s15	@ int
 2310 0daa 05E0     		b	.L224
 2311              	.L225:
 2312              		.align	2
 2313              	.L223:
 2314 0dac 00000000 		.word	.LANCHOR8
 2315 0db0 00007A44 		.word	1148846080
 2316 0db4 0000C842 		.word	1120403456
 2317              	.L224:
 2318 0db8 FFF7FEFF 		bl	buffer_append_int32
 2319              	.LVL214:
 2320              		.loc 1 645 0
 2321 0dbc D4ED2C7A 		flds	s15, [r4, #176]
 2322              		.loc 1 644 0
 2323 0dc0 039B     		ldr	r3, [sp, #12]
 2324 0dc2 94F8AC20 		ldrb	r2, [r4, #172]	@ zero_extendqisi2
 2325 0dc6 EA54     		strb	r2, [r5, r3]
 2326              		.loc 1 645 0
 2327 0dc8 67EE887A 		fmuls	s15, s15, s16
 2328              		.loc 1 644 0
 2329 0dcc 0133     		adds	r3, r3, #1
 2330              		.loc 1 645 0
 2331 0dce FDEEE77A 		ftosizs	s15, s15
 2332 0dd2 2846     		mov	r0, r5
 2333 0dd4 17EE901A 		fmrs	r1, s15	@ int
 2334 0dd8 03AA     		add	r2, sp, #12
 2335              		.loc 1 644 0
 2336 0dda 0393     		str	r3, [sp, #12]
 2337              		.loc 1 645 0
ARM GAS  /tmp/cc0XcXNK.s 			page 42


 2338 0ddc FFF7FEFF 		bl	buffer_append_int32
 2339              	.LVL215:
 2340              		.loc 1 646 0
 2341 0de0 D4ED2D7A 		flds	s15, [r4, #180]
 2342 0de4 67EE887A 		fmuls	s15, s15, s16
 2343 0de8 2846     		mov	r0, r5
 2344 0dea FDEEE77A 		ftosizs	s15, s15
 2345 0dee 03AA     		add	r2, sp, #12
 2346 0df0 17EE901A 		fmrs	r1, s15	@ int
 2347 0df4 FFF7FEFF 		bl	buffer_append_int32
 2348              	.LVL216:
 2349              		.loc 1 649 0
 2350 0df8 D4ED327A 		flds	s15, [r4, #200]
 2351              		.loc 1 648 0
 2352 0dfc 039B     		ldr	r3, [sp, #12]
 2353 0dfe 94F8C420 		ldrb	r2, [r4, #196]	@ zero_extendqisi2
 2354 0e02 EA54     		strb	r2, [r5, r3]
 2355              		.loc 1 649 0
 2356 0e04 67EE887A 		fmuls	s15, s15, s16
 2357              		.loc 1 648 0
 2358 0e08 0133     		adds	r3, r3, #1
 2359              		.loc 1 649 0
 2360 0e0a FDEEE77A 		ftosizs	s15, s15
 2361 0e0e 2846     		mov	r0, r5
 2362 0e10 17EE901A 		fmrs	r1, s15	@ int
 2363 0e14 03AA     		add	r2, sp, #12
 2364              		.loc 1 648 0
 2365 0e16 0393     		str	r3, [sp, #12]
 2366              		.loc 1 649 0
 2367 0e18 FFF7FEFF 		bl	buffer_append_int32
 2368              	.LVL217:
 2369              		.loc 1 650 0
 2370 0e1c D4ED337A 		flds	s15, [r4, #204]
 2371 0e20 67EE887A 		fmuls	s15, s15, s16
 2372 0e24 2846     		mov	r0, r5
 2373 0e26 FDEEE77A 		ftosizs	s15, s15
 2374 0e2a 03AA     		add	r2, sp, #12
 2375 0e2c 17EE901A 		fmrs	r1, s15	@ int
 2376 0e30 FFF7FEFF 		bl	buffer_append_int32
 2377              	.LVL218:
 2378              		.loc 1 651 0
 2379 0e34 D4ED347A 		flds	s15, [r4, #208]
 2380 0e38 67EE887A 		fmuls	s15, s15, s16
 2381 0e3c 2846     		mov	r0, r5
 2382 0e3e FDEEE77A 		ftosizs	s15, s15
 2383 0e42 03AA     		add	r2, sp, #12
 2384 0e44 17EE901A 		fmrs	r1, s15	@ int
 2385 0e48 FFF7FEFF 		bl	buffer_append_int32
 2386              	.LVL219:
 2387              		.loc 1 652 0
 2388 0e4c D4ED357A 		flds	s15, [r4, #212]
 2389 0e50 67EE887A 		fmuls	s15, s15, s16
 2390 0e54 2846     		mov	r0, r5
 2391 0e56 FDEEE77A 		ftosizs	s15, s15
 2392 0e5a 03AA     		add	r2, sp, #12
 2393 0e5c 17EE901A 		fmrs	r1, s15	@ int
 2394 0e60 FFF7FEFF 		bl	buffer_append_int32
ARM GAS  /tmp/cc0XcXNK.s 			page 43


 2395              	.LVL220:
 2396              		.loc 1 653 0
 2397 0e64 D4ED367A 		flds	s15, [r4, #216]
 2398 0e68 67EE887A 		fmuls	s15, s15, s16
 2399 0e6c 2846     		mov	r0, r5
 2400 0e6e FDEEE77A 		ftosizs	s15, s15
 2401 0e72 03AA     		add	r2, sp, #12
 2402 0e74 17EE901A 		fmrs	r1, s15	@ int
 2403 0e78 FFF7FEFF 		bl	buffer_append_int32
 2404              	.LVL221:
 2405              		.loc 1 654 0
 2406 0e7c D4ED377A 		flds	s15, [r4, #220]
 2407 0e80 67EE887A 		fmuls	s15, s15, s16
 2408 0e84 2846     		mov	r0, r5
 2409 0e86 FDEEE77A 		ftosizs	s15, s15
 2410 0e8a 03AA     		add	r2, sp, #12
 2411 0e8c 17EE901A 		fmrs	r1, s15	@ int
 2412 0e90 FFF7FEFF 		bl	buffer_append_int32
 2413              	.LVL222:
 2414              		.loc 1 655 0
 2415 0e94 D4ED387A 		flds	s15, [r4, #224]
 2416 0e98 67EEA87A 		fmuls	s15, s15, s17
 2417 0e9c 2846     		mov	r0, r5
 2418 0e9e FDEEE77A 		ftosizs	s15, s15
 2419 0ea2 03AA     		add	r2, sp, #12
 2420 0ea4 17EE901A 		fmrs	r1, s15	@ int
 2421 0ea8 FFF7FEFF 		bl	buffer_append_int32
 2422              	.LVL223:
 2423              		.loc 1 656 0
 2424 0eac D4ED397A 		flds	s15, [r4, #228]
 2425 0eb0 67EE887A 		fmuls	s15, s15, s16
 2426 0eb4 2846     		mov	r0, r5
 2427 0eb6 FDEEE77A 		ftosizs	s15, s15
 2428 0eba 03AA     		add	r2, sp, #12
 2429 0ebc 17EE901A 		fmrs	r1, s15	@ int
 2430 0ec0 FFF7FEFF 		bl	buffer_append_int32
 2431              	.LVL224:
 2432              		.loc 1 657 0
 2433 0ec4 D4ED3A7A 		flds	s15, [r4, #232]
 2434 0ec8 67EE887A 		fmuls	s15, s15, s16
 2435 0ecc 2846     		mov	r0, r5
 2436 0ece FDEEE77A 		ftosizs	s15, s15
 2437 0ed2 03AA     		add	r2, sp, #12
 2438 0ed4 17EE901A 		fmrs	r1, s15	@ int
 2439 0ed8 FFF7FEFF 		bl	buffer_append_int32
 2440              	.LVL225:
 2441              		.loc 1 658 0
 2442 0edc D4ED3B7A 		flds	s15, [r4, #236]
 2443 0ee0 67EE887A 		fmuls	s15, s15, s16
 2444 0ee4 2846     		mov	r0, r5
 2445 0ee6 FDEEE77A 		ftosizs	s15, s15
 2446 0eea 03AA     		add	r2, sp, #12
 2447 0eec 17EE901A 		fmrs	r1, s15	@ int
 2448 0ef0 FFF7FEFF 		bl	buffer_append_int32
 2449              	.LVL226:
 2450              		.loc 1 659 0
 2451 0ef4 D4ED3C7A 		flds	s15, [r4, #240]
ARM GAS  /tmp/cc0XcXNK.s 			page 44


 2452 0ef8 67EE887A 		fmuls	s15, s15, s16
 2453 0efc 2846     		mov	r0, r5
 2454 0efe FDEEE77A 		ftosizs	s15, s15
 2455 0f02 03AA     		add	r2, sp, #12
 2456 0f04 17EE901A 		fmrs	r1, s15	@ int
 2457 0f08 FFF7FEFF 		bl	buffer_append_int32
 2458              	.LVL227:
 2459              		.loc 1 660 0
 2460 0f0c D4ED3D7A 		flds	s15, [r4, #244]
 2461 0f10 67EE887A 		fmuls	s15, s15, s16
 2462 0f14 2846     		mov	r0, r5
 2463 0f16 FDEEE77A 		ftosizs	s15, s15
 2464 0f1a 03AA     		add	r2, sp, #12
 2465 0f1c 17EE901A 		fmrs	r1, s15	@ int
 2466 0f20 FFF7FEFF 		bl	buffer_append_int32
 2467              	.LVL228:
 2468              		.loc 1 661 0
 2469 0f24 D4ED3E7A 		flds	s15, [r4, #248]
 2470 0f28 27EE888A 		fmuls	s16, s15, s16
 2471 0f2c 2846     		mov	r0, r5
 2472 0f2e FDEEC87A 		ftosizs	s15, s16
 2473 0f32 03AA     		add	r2, sp, #12
 2474 0f34 17EE901A 		fmrs	r1, s15	@ int
 2475 0f38 FFF7FEFF 		bl	buffer_append_int32
 2476              	.LVL229:
 2477              		.loc 1 662 0
 2478 0f3c D4ED3F7A 		flds	s15, [r4, #252]
 2479 0f40 67EEA87A 		fmuls	s15, s15, s17
 2480 0f44 2846     		mov	r0, r5
 2481 0f46 FDEEE77A 		ftosizs	s15, s15
 2482 0f4a 03AA     		add	r2, sp, #12
 2483 0f4c 17EE901A 		fmrs	r1, s15	@ int
 2484 0f50 FFF7FEFF 		bl	buffer_append_int32
 2485              	.LVL230:
 2486              	.LBB133:
 2487              	.LBB134:
 2488              		.loc 1 97 0
 2489 0f54 0A4B     		ldr	r3, .L226
 2490              	.LBE134:
 2491              	.LBE133:
 2492              		.loc 1 665 0
 2493 0f56 0399     		ldr	r1, [sp, #12]
 2494              	.LVL231:
 2495              	.LBB136:
 2496              	.LBB135:
 2497              		.loc 1 97 0
 2498 0f58 1B68     		ldr	r3, [r3]
 2499 0f5a 002B     		cmp	r3, #0
 2500 0f5c 3FF47FAB 		beq	.L24
 2501              	.LVL232:
 2502              	.L203:
 2503              	.LBE135:
 2504              	.LBE136:
 2505              	.LBE215:
 2506              	.LBB216:
 2507              	.LBB217:
 2508              		.loc 1 98 0
ARM GAS  /tmp/cc0XcXNK.s 			page 45


 2509 0f60 2846     		mov	r0, r5
 2510 0f62 9847     		blx	r3
 2511              	.LVL233:
 2512              	.LBE217:
 2513              	.LBE216:
 2514              		.loc 1 1081 0
 2515 0f64 0DF24C7D 		addw	sp, sp, #1868
 2516              		.cfi_remember_state
 2517              		.cfi_def_cfa_offset 60
 2518              		@ sp needed
 2519 0f68 BDEC068B 		fldmfdd	sp!, {d8-d10}
 2520              		.cfi_restore 80
 2521              		.cfi_restore 81
 2522              		.cfi_restore 82
 2523              		.cfi_restore 83
 2524              		.cfi_restore 84
 2525              		.cfi_restore 85
 2526              		.cfi_def_cfa_offset 36
 2527 0f6c BDE8F08F 		pop	{r4, r5, r6, r7, r8, r9, r10, fp, pc}
 2528              	.LVL234:
 2529              	.L44:
 2530              		.cfi_restore_state
 2531              	.LBB220:
 2532              		.loc 1 677 0
 2533 0f70 0023     		movs	r3, #0
 2534 0f72 04F80830 		strb	r3, [r4, r8]
 2535              		.loc 1 678 0
 2536 0f76 2046     		mov	r0, r4
 2537 0f78 FFF7FEFF 		bl	terminal_process_string
 2538              	.LVL235:
 2539              		.loc 1 679 0
 2540 0f7c FFF76FBB 		b	.L24
 2541              	.L227:
 2542              		.align	2
 2543              	.L226:
 2544 0f80 00000000 		.word	.LANCHOR9
 2545              	.L39:
 2546              		.loc 1 252 0
 2547 0f84 FFF7FEFF 		bl	mc_interface_get_configuration
 2548              	.LVL236:
 2549 0f88 D94D     		ldr	r5, .L228
 2550              		.loc 1 260 0
 2551 0f8a 9FEDDA8A 		flds	s16, .L228+4
 2552              		.loc 1 279 0
 2553 0f8e DFEDDA8A 		flds	s17, .L228+8
 2554              		.loc 1 299 0
 2555 0f92 9FEDDA9A 		flds	s18, .L228+12
 2556              		.loc 1 252 0
 2557 0f96 0146     		mov	r1, r0
 2558 0f98 4FF49C72 		mov	r2, #312
 2559 0f9c 2846     		mov	r0, r5
 2560 0f9e FFF7FEFF 		bl	memcpy
 2561              	.LVL237:
 2562              		.loc 1 255 0
 2563 0fa2 7378     		ldrb	r3, [r6, #1]	@ zero_extendqisi2
 2564              		.loc 1 256 0
 2565 0fa4 96F802E0 		ldrb	lr, [r6, #2]	@ zero_extendqisi2
ARM GAS  /tmp/cc0XcXNK.s 			page 46


 2566              		.loc 1 258 0
 2567 0fa8 3279     		ldrb	r2, [r6, #4]	@ zero_extendqisi2
 2568              		.loc 1 257 0
 2569 0faa F778     		ldrb	r7, [r6, #3]	@ zero_extendqisi2
 2570              	.LVL238:
 2571              		.loc 1 255 0
 2572 0fac 2B70     		strb	r3, [r5]
 2573              		.loc 1 260 0
 2574 0fae B0EE480A 		fcpys	s0, s16
 2575              		.loc 1 258 0
 2576 0fb2 0423     		movs	r3, #4
 2577              		.loc 1 260 0
 2578 0fb4 2046     		mov	r0, r4
 2579 0fb6 03A9     		add	r1, sp, #12
 2580              		.loc 1 256 0
 2581 0fb8 85F801E0 		strb	lr, [r5, #1]
 2582              		.loc 1 258 0
 2583 0fbc EA70     		strb	r2, [r5, #3]
 2584 0fbe 0393     		str	r3, [sp, #12]
 2585              		.loc 1 257 0
 2586 0fc0 AF70     		strb	r7, [r5, #2]
 2587              		.loc 1 260 0
 2588 0fc2 FFF7FEFF 		bl	buffer_get_float32
 2589              	.LVL239:
 2590              		.loc 1 261 0
 2591 0fc6 2046     		mov	r0, r4
 2592              		.loc 1 260 0
 2593 0fc8 85ED010A 		fsts	s0, [r5, #4]
 2594              		.loc 1 261 0
 2595 0fcc 03A9     		add	r1, sp, #12
 2596 0fce B0EE480A 		fcpys	s0, s16
 2597 0fd2 FFF7FEFF 		bl	buffer_get_float32
 2598              	.LVL240:
 2599              		.loc 1 262 0
 2600 0fd6 2046     		mov	r0, r4
 2601              		.loc 1 261 0
 2602 0fd8 85ED020A 		fsts	s0, [r5, #8]
 2603              		.loc 1 262 0
 2604 0fdc 03A9     		add	r1, sp, #12
 2605 0fde B0EE480A 		fcpys	s0, s16
 2606 0fe2 FFF7FEFF 		bl	buffer_get_float32
 2607              	.LVL241:
 2608              		.loc 1 263 0
 2609 0fe6 2046     		mov	r0, r4
 2610              		.loc 1 262 0
 2611 0fe8 85ED030A 		fsts	s0, [r5, #12]
 2612              		.loc 1 263 0
 2613 0fec 03A9     		add	r1, sp, #12
 2614 0fee B0EE480A 		fcpys	s0, s16
 2615 0ff2 FFF7FEFF 		bl	buffer_get_float32
 2616              	.LVL242:
 2617              		.loc 1 264 0
 2618 0ff6 2046     		mov	r0, r4
 2619              		.loc 1 263 0
 2620 0ff8 85ED040A 		fsts	s0, [r5, #16]
 2621              		.loc 1 264 0
 2622 0ffc 03A9     		add	r1, sp, #12
ARM GAS  /tmp/cc0XcXNK.s 			page 47


 2623 0ffe B0EE480A 		fcpys	s0, s16
 2624 1002 FFF7FEFF 		bl	buffer_get_float32
 2625              	.LVL243:
 2626              		.loc 1 265 0
 2627 1006 2046     		mov	r0, r4
 2628              		.loc 1 264 0
 2629 1008 85ED050A 		fsts	s0, [r5, #20]
 2630              		.loc 1 265 0
 2631 100c 03A9     		add	r1, sp, #12
 2632 100e B0EE480A 		fcpys	s0, s16
 2633 1012 FFF7FEFF 		bl	buffer_get_float32
 2634              	.LVL244:
 2635              		.loc 1 266 0
 2636 1016 2046     		mov	r0, r4
 2637              		.loc 1 265 0
 2638 1018 85ED060A 		fsts	s0, [r5, #24]
 2639              		.loc 1 266 0
 2640 101c 03A9     		add	r1, sp, #12
 2641 101e B0EE480A 		fcpys	s0, s16
 2642 1022 FFF7FEFF 		bl	buffer_get_float32
 2643              	.LVL245:
 2644              		.loc 1 267 0
 2645 1026 2046     		mov	r0, r4
 2646              		.loc 1 266 0
 2647 1028 85ED070A 		fsts	s0, [r5, #28]
 2648              		.loc 1 267 0
 2649 102c 03A9     		add	r1, sp, #12
 2650 102e B0EE480A 		fcpys	s0, s16
 2651 1032 FFF7FEFF 		bl	buffer_get_float32
 2652              	.LVL246:
 2653              		.loc 1 268 0
 2654 1036 2046     		mov	r0, r4
 2655              		.loc 1 267 0
 2656 1038 85ED080A 		fsts	s0, [r5, #32]
 2657              		.loc 1 268 0
 2658 103c 03A9     		add	r1, sp, #12
 2659 103e B0EE480A 		fcpys	s0, s16
 2660 1042 FFF7FEFF 		bl	buffer_get_float32
 2661              	.LVL247:
 2662              		.loc 1 269 0
 2663 1046 2046     		mov	r0, r4
 2664              		.loc 1 268 0
 2665 1048 85ED090A 		fsts	s0, [r5, #36]
 2666              		.loc 1 269 0
 2667 104c 03A9     		add	r1, sp, #12
 2668 104e B0EE480A 		fcpys	s0, s16
 2669 1052 FFF7FEFF 		bl	buffer_get_float32
 2670              	.LVL248:
 2671              		.loc 1 270 0
 2672 1056 2046     		mov	r0, r4
 2673              		.loc 1 269 0
 2674 1058 85ED0A0A 		fsts	s0, [r5, #40]
 2675              		.loc 1 270 0
 2676 105c 03A9     		add	r1, sp, #12
 2677 105e B0EE480A 		fcpys	s0, s16
 2678 1062 FFF7FEFF 		bl	buffer_get_float32
 2679              	.LVL249:
ARM GAS  /tmp/cc0XcXNK.s 			page 48


 2680              		.loc 1 271 0
 2681 1066 2046     		mov	r0, r4
 2682              		.loc 1 270 0
 2683 1068 85ED0B0A 		fsts	s0, [r5, #44]
 2684              		.loc 1 271 0
 2685 106c 03A9     		add	r1, sp, #12
 2686 106e B0EE480A 		fcpys	s0, s16
 2687 1072 FFF7FEFF 		bl	buffer_get_float32
 2688              	.LVL250:
 2689              		.loc 1 272 0
 2690 1076 2046     		mov	r0, r4
 2691              		.loc 1 271 0
 2692 1078 85ED0C0A 		fsts	s0, [r5, #48]
 2693              		.loc 1 272 0
 2694 107c 03A9     		add	r1, sp, #12
 2695 107e B0EE480A 		fcpys	s0, s16
 2696 1082 FFF7FEFF 		bl	buffer_get_float32
 2697              	.LVL251:
 2698              		.loc 1 273 0
 2699 1086 039B     		ldr	r3, [sp, #12]
 2700              		.loc 1 272 0
 2701 1088 85ED0D0A 		fsts	s0, [r5, #52]
 2702              		.loc 1 273 0
 2703 108c E25C     		ldrb	r2, [r4, r3]	@ zero_extendqisi2
 2704 108e 0032     		adds	r2, r2, #0
 2705 1090 03F10101 		add	r1, r3, #1
 2706 1094 18BF     		it	ne
 2707 1096 0122     		movne	r2, #1
 2708 1098 85F83820 		strb	r2, [r5, #56]
 2709              		.loc 1 274 0
 2710 109c 625C     		ldrb	r2, [r4, r1]	@ zero_extendqisi2
 2711 109e 0032     		adds	r2, r2, #0
 2712 10a0 18BF     		it	ne
 2713 10a2 0122     		movne	r2, #1
 2714 10a4 0233     		adds	r3, r3, #2
 2715              		.loc 1 275 0
 2716 10a6 B0EE480A 		fcpys	s0, s16
 2717 10aa 2046     		mov	r0, r4
 2718 10ac 03A9     		add	r1, sp, #12
 2719              		.loc 1 274 0
 2720 10ae 85F83920 		strb	r2, [r5, #57]
 2721 10b2 0393     		str	r3, [sp, #12]
 2722              		.loc 1 275 0
 2723 10b4 FFF7FEFF 		bl	buffer_get_float32
 2724              	.LVL252:
 2725              		.loc 1 276 0
 2726 10b8 2046     		mov	r0, r4
 2727              		.loc 1 275 0
 2728 10ba 85ED0F0A 		fsts	s0, [r5, #60]
 2729              		.loc 1 276 0
 2730 10be 03A9     		add	r1, sp, #12
 2731 10c0 B0EE480A 		fcpys	s0, s16
 2732 10c4 FFF7FEFF 		bl	buffer_get_float32
 2733              	.LVL253:
 2734              		.loc 1 277 0
 2735 10c8 2046     		mov	r0, r4
 2736              		.loc 1 276 0
ARM GAS  /tmp/cc0XcXNK.s 			page 49


 2737 10ca 85ED100A 		fsts	s0, [r5, #64]
 2738              		.loc 1 277 0
 2739 10ce 03A9     		add	r1, sp, #12
 2740 10d0 B0EE480A 		fcpys	s0, s16
 2741 10d4 FFF7FEFF 		bl	buffer_get_float32
 2742              	.LVL254:
 2743              		.loc 1 278 0
 2744 10d8 2046     		mov	r0, r4
 2745              		.loc 1 277 0
 2746 10da 85ED110A 		fsts	s0, [r5, #68]
 2747              		.loc 1 278 0
 2748 10de 03A9     		add	r1, sp, #12
 2749 10e0 B0EE480A 		fcpys	s0, s16
 2750 10e4 FFF7FEFF 		bl	buffer_get_float32
 2751              	.LVL255:
 2752              		.loc 1 279 0
 2753 10e8 2046     		mov	r0, r4
 2754              		.loc 1 278 0
 2755 10ea 85ED120A 		fsts	s0, [r5, #72]
 2756              		.loc 1 279 0
 2757 10ee 03A9     		add	r1, sp, #12
 2758 10f0 B0EE680A 		fcpys	s0, s17
 2759 10f4 FFF7FEFF 		bl	buffer_get_float32
 2760              	.LVL256:
 2761              		.loc 1 280 0
 2762 10f8 2046     		mov	r0, r4
 2763              		.loc 1 279 0
 2764 10fa 85ED130A 		fsts	s0, [r5, #76]
 2765              		.loc 1 280 0
 2766 10fe 03A9     		add	r1, sp, #12
 2767 1100 B0EE680A 		fcpys	s0, s17
 2768 1104 FFF7FEFF 		bl	buffer_get_float32
 2769              	.LVL257:
 2770              		.loc 1 284 0
 2771 1108 EA68     		ldr	r2, [r5, #12]	@ float
 2772              		.loc 1 285 0
 2773 110a 2B69     		ldr	r3, [r5, #16]	@ float
 2774              		.loc 1 283 0
 2775 110c AE68     		ldr	r6, [r5, #8]	@ float
 2776              		.loc 1 282 0
 2777 110e 6F68     		ldr	r7, [r5, #4]	@ float
 2778              		.loc 1 280 0
 2779 1110 85ED140A 		fsts	s0, [r5, #80]
 2780              		.loc 1 287 0
 2781 1114 03A9     		add	r1, sp, #12
 2782 1116 2046     		mov	r0, r4
 2783              		.loc 1 284 0
 2784 1118 EA65     		str	r2, [r5, #92]	@ float
 2785              		.loc 1 285 0
 2786 111a 2B66     		str	r3, [r5, #96]	@ float
 2787              		.loc 1 283 0
 2788 111c AE65     		str	r6, [r5, #88]	@ float
 2789              		.loc 1 282 0
 2790 111e 6F65     		str	r7, [r5, #84]	@ float
 2791              		.loc 1 287 0
 2792 1120 FFF7FEFF 		bl	buffer_get_int32
 2793              	.LVL258:
ARM GAS  /tmp/cc0XcXNK.s 			page 50


 2794 1124 07EE900A 		fmsr	s15, r0	@ int
 2795 1128 F8EEE77A 		fsitos	s15, s15
 2796              		.loc 1 288 0
 2797 112c 03A9     		add	r1, sp, #12
 2798              		.loc 1 287 0
 2799 112e C7EE887A 		fdivs	s15, s15, s16
 2800              		.loc 1 288 0
 2801 1132 2046     		mov	r0, r4
 2802              		.loc 1 287 0
 2803 1134 C5ED197A 		fsts	s15, [r5, #100]
 2804              		.loc 1 288 0
 2805 1138 FFF7FEFF 		bl	buffer_get_int32
 2806              	.LVL259:
 2807 113c 07EE900A 		fmsr	s15, r0	@ int
 2808 1140 F8EEE77A 		fsitos	s15, s15
 2809              		.loc 1 289 0
 2810 1144 03A9     		add	r1, sp, #12
 2811              		.loc 1 288 0
 2812 1146 C7EE887A 		fdivs	s15, s15, s16
 2813              		.loc 1 289 0
 2814 114a 2046     		mov	r0, r4
 2815              		.loc 1 288 0
 2816 114c C5ED1A7A 		fsts	s15, [r5, #104]
 2817              		.loc 1 289 0
 2818 1150 FFF7FEFF 		bl	buffer_get_int32
 2819              	.LVL260:
 2820 1154 07EE900A 		fmsr	s15, r0	@ int
 2821 1158 F8EEE77A 		fsitos	s15, s15
 2822              		.loc 1 290 0
 2823 115c 03A9     		add	r1, sp, #12
 2824              		.loc 1 289 0
 2825 115e C7EE887A 		fdivs	s15, s15, s16
 2826              		.loc 1 290 0
 2827 1162 2046     		mov	r0, r4
 2828              		.loc 1 289 0
 2829 1164 C5ED1B7A 		fsts	s15, [r5, #108]
 2830              		.loc 1 290 0
 2831 1168 FFF7FEFF 		bl	buffer_get_int32
 2832              	.LVL261:
 2833 116c 07EE900A 		fmsr	s15, r0	@ int
 2834 1170 F8EEE77A 		fsitos	s15, s15
 2835              		.loc 1 291 0
 2836 1174 03A9     		add	r1, sp, #12
 2837              		.loc 1 290 0
 2838 1176 C7EE887A 		fdivs	s15, s15, s16
 2839              		.loc 1 291 0
 2840 117a 2046     		mov	r0, r4
 2841              		.loc 1 290 0
 2842 117c C5ED1C7A 		fsts	s15, [r5, #112]
 2843              		.loc 1 291 0
 2844 1180 FFF7FEFF 		bl	buffer_get_int32
 2845              	.LVL262:
 2846 1184 07EE900A 		fmsr	s15, r0	@ int
 2847 1188 F8EEE77A 		fsitos	s15, s15
 2848              		.loc 1 292 0
 2849 118c 03A9     		add	r1, sp, #12
 2850              		.loc 1 291 0
ARM GAS  /tmp/cc0XcXNK.s 			page 51


 2851 118e C7EE887A 		fdivs	s15, s15, s16
 2852              		.loc 1 292 0
 2853 1192 2046     		mov	r0, r4
 2854              		.loc 1 291 0
 2855 1194 C5ED1D7A 		fsts	s15, [r5, #116]
 2856              		.loc 1 292 0
 2857 1198 FFF7FEFF 		bl	buffer_get_int32
 2858              	.LVL263:
 2859 119c 07EE900A 		fmsr	s15, r0	@ int
 2860 11a0 F8EEE77A 		fsitos	s15, s15
 2861              		.loc 1 293 0
 2862 11a4 03A9     		add	r1, sp, #12
 2863              		.loc 1 292 0
 2864 11a6 C7EE887A 		fdivs	s15, s15, s16
 2865              		.loc 1 293 0
 2866 11aa 2046     		mov	r0, r4
 2867              		.loc 1 292 0
 2868 11ac C5ED1E7A 		fsts	s15, [r5, #120]
 2869              		.loc 1 293 0
 2870 11b0 FFF7FEFF 		bl	buffer_get_int32
 2871              	.LVL264:
 2872 11b4 07EE900A 		fmsr	s15, r0	@ int
 2873 11b8 F8EEE77A 		fsitos	s15, s15
 2874              		.loc 1 295 0
 2875 11bc 039A     		ldr	r2, [sp, #12]
 2876              		.loc 1 293 0
 2877 11be C7EE887A 		fdivs	s15, s15, s16
 2878              		.loc 1 295 0
 2879 11c2 A118     		adds	r1, r4, r2
 2880              		.loc 1 296 0
 2881 11c4 0832     		adds	r2, r2, #8
 2882 11c6 0392     		str	r2, [sp, #12]
 2883              		.loc 1 295 0
 2884 11c8 05F18003 		add	r3, r5, #128
 2885              		.loc 1 293 0
 2886 11cc C5ED1F7A 		fsts	s15, [r5, #124]
 2887              		.loc 1 295 0
 2888 11d0 0868     		ldr	r0, [r1]	@ unaligned
 2889 11d2 4968     		ldr	r1, [r1, #4]	@ unaligned
 2890 11d4 03C3     		stmia	r3!, {r0, r1}
 2891              		.loc 1 297 0
 2892 11d6 03A9     		add	r1, sp, #12
 2893 11d8 2046     		mov	r0, r4
 2894 11da FFF7FEFF 		bl	buffer_get_int32
 2895              	.LVL265:
 2896 11de 07EE900A 		fmsr	s15, r0	@ int
 2897 11e2 F8EEE77A 		fsitos	s15, s15
 2898              		.loc 1 299 0
 2899 11e6 B0EE490A 		fcpys	s0, s18
 2900              		.loc 1 297 0
 2901 11ea C7EE887A 		fdivs	s15, s15, s16
 2902              		.loc 1 299 0
 2903 11ee 2046     		mov	r0, r4
 2904 11f0 03A9     		add	r1, sp, #12
 2905              		.loc 1 297 0
 2906 11f2 C5ED227A 		fsts	s15, [r5, #136]
 2907              		.loc 1 299 0
ARM GAS  /tmp/cc0XcXNK.s 			page 52


 2908 11f6 FFF7FEFF 		bl	buffer_get_float32
 2909              	.LVL266:
 2910              		.loc 1 300 0
 2911 11fa 2046     		mov	r0, r4
 2912              		.loc 1 299 0
 2913 11fc 85ED230A 		fsts	s0, [r5, #140]
 2914              		.loc 1 300 0
 2915 1200 03A9     		add	r1, sp, #12
 2916 1202 B0EE490A 		fcpys	s0, s18
 2917 1206 FFF7FEFF 		bl	buffer_get_float32
 2918              	.LVL267:
 2919              		.loc 1 301 0
 2920 120a 2046     		mov	r0, r4
 2921              		.loc 1 300 0
 2922 120c 85ED240A 		fsts	s0, [r5, #144]
 2923              		.loc 1 301 0
 2924 1210 03A9     		add	r1, sp, #12
 2925 1212 B0EE480A 		fcpys	s0, s16
 2926 1216 FFF7FEFF 		bl	buffer_get_float32
 2927              	.LVL268:
 2928              		.loc 1 302 0
 2929 121a 2046     		mov	r0, r4
 2930              		.loc 1 301 0
 2931 121c 85ED250A 		fsts	s0, [r5, #148]
 2932              		.loc 1 302 0
 2933 1220 03A9     		add	r1, sp, #12
 2934 1222 B0EE680A 		fcpys	s0, s17
 2935 1226 FFF7FEFF 		bl	buffer_get_float32
 2936              	.LVL269:
 2937              		.loc 1 303 0
 2938 122a 039B     		ldr	r3, [sp, #12]
 2939              		.loc 1 302 0
 2940 122c 85ED260A 		fsts	s0, [r5, #152]
 2941              		.loc 1 303 0
 2942 1230 E25C     		ldrb	r2, [r4, r3]	@ zero_extendqisi2
 2943 1232 0032     		adds	r2, r2, #0
 2944 1234 18BF     		it	ne
 2945 1236 0122     		movne	r2, #1
 2946 1238 0133     		adds	r3, r3, #1
 2947              		.loc 1 304 0
 2948 123a B0EE480A 		fcpys	s0, s16
 2949 123e 2046     		mov	r0, r4
 2950 1240 03A9     		add	r1, sp, #12
 2951              		.loc 1 303 0
 2952 1242 85F8A020 		strb	r2, [r5, #160]
 2953 1246 0393     		str	r3, [sp, #12]
 2954              		.loc 1 304 0
 2955 1248 FFF7FEFF 		bl	buffer_get_float32
 2956              	.LVL270:
 2957              		.loc 1 305 0
 2958 124c 2046     		mov	r0, r4
 2959              		.loc 1 304 0
 2960 124e 85ED270A 		fsts	s0, [r5, #156]
 2961              		.loc 1 305 0
 2962 1252 03A9     		add	r1, sp, #12
 2963 1254 B0EE480A 		fcpys	s0, s16
 2964 1258 FFF7FEFF 		bl	buffer_get_float32
ARM GAS  /tmp/cc0XcXNK.s 			page 53


 2965              	.LVL271:
 2966              		.loc 1 306 0
 2967 125c 039B     		ldr	r3, [sp, #12]
 2968              		.loc 1 305 0
 2969 125e 85ED290A 		fsts	s0, [r5, #164]
 2970              		.loc 1 306 0
 2971 1262 E25C     		ldrb	r2, [r4, r3]	@ zero_extendqisi2
 2972 1264 85F8DC20 		strb	r2, [r5, #220]
 2973 1268 0133     		adds	r3, r3, #1
 2974              		.loc 1 307 0
 2975 126a B0EE480A 		fcpys	s0, s16
 2976 126e 2046     		mov	r0, r4
 2977 1270 03A9     		add	r1, sp, #12
 2978              		.loc 1 306 0
 2979 1272 0393     		str	r3, [sp, #12]
 2980              		.loc 1 307 0
 2981 1274 FFF7FEFF 		bl	buffer_get_float32
 2982              	.LVL272:
 2983              		.loc 1 308 0
 2984 1278 2046     		mov	r0, r4
 2985              		.loc 1 307 0
 2986 127a 85ED2E0A 		fsts	s0, [r5, #184]
 2987              		.loc 1 308 0
 2988 127e 03A9     		add	r1, sp, #12
 2989 1280 B0EE480A 		fcpys	s0, s16
 2990 1284 FFF7FEFF 		bl	buffer_get_float32
 2991              	.LVL273:
 2992              		.loc 1 309 0
 2993 1288 2046     		mov	r0, r4
 2994              		.loc 1 308 0
 2995 128a 85ED2F0A 		fsts	s0, [r5, #188]
 2996              		.loc 1 309 0
 2997 128e 03A9     		add	r1, sp, #12
 2998 1290 9FED1B0A 		flds	s0, .L228+16
 2999 1294 FFF7FEFF 		bl	buffer_get_float32
 3000              	.LVL274:
 3001              		.loc 1 310 0
 3002 1298 2046     		mov	r0, r4
 3003              		.loc 1 309 0
 3004 129a 85ED2A0A 		fsts	s0, [r5, #168]
 3005              		.loc 1 310 0
 3006 129e 03A9     		add	r1, sp, #12
 3007 12a0 B0EE490A 		fcpys	s0, s18
 3008 12a4 FFF7FEFF 		bl	buffer_get_float32
 3009              	.LVL275:
 3010              		.loc 1 311 0
 3011 12a8 2046     		mov	r0, r4
 3012              		.loc 1 310 0
 3013 12aa 85ED2B0A 		fsts	s0, [r5, #172]
 3014              		.loc 1 311 0
 3015 12ae 03A9     		add	r1, sp, #12
 3016 12b0 B0EE490A 		fcpys	s0, s18
 3017 12b4 FFF7FEFF 		bl	buffer_get_float32
 3018              	.LVL276:
 3019              		.loc 1 312 0
 3020 12b8 2046     		mov	r0, r4
 3021              		.loc 1 311 0
ARM GAS  /tmp/cc0XcXNK.s 			page 54


 3022 12ba 85ED2C0A 		fsts	s0, [r5, #176]
 3023              		.loc 1 312 0
 3024 12be 03A9     		add	r1, sp, #12
 3025 12c0 B7EE000A 		fconsts	s0, #112
 3026 12c4 FFF7FEFF 		bl	buffer_get_float32
 3027              	.LVL277:
 3028              		.loc 1 313 0
 3029 12c8 2046     		mov	r0, r4
 3030              		.loc 1 312 0
 3031 12ca 85ED2D0A 		fsts	s0, [r5, #180]
 3032              		.loc 1 313 0
 3033 12ce 03A9     		add	r1, sp, #12
 3034 12d0 B0EE480A 		fcpys	s0, s16
 3035 12d4 FFF7FEFF 		bl	buffer_get_float32
 3036              	.LVL278:
 3037              		.loc 1 314 0
 3038 12d8 2046     		mov	r0, r4
 3039              		.loc 1 313 0
 3040 12da 85ED300A 		fsts	s0, [r5, #192]
 3041              		.loc 1 314 0
 3042 12de 03A9     		add	r1, sp, #12
 3043 12e0 B0EE480A 		fcpys	s0, s16
 3044 12e4 FFF7FEFF 		bl	buffer_get_float32
 3045              	.LVL279:
 3046              		.loc 1 315 0
 3047 12e8 2046     		mov	r0, r4
 3048              		.loc 1 314 0
 3049 12ea 85ED310A 		fsts	s0, [r5, #196]
 3050 12ee 09E0     		b	.L229
 3051              	.L230:
 3052              		.align	2
 3053              	.L228:
 3054 12f0 00000000 		.word	.LANCHOR12
 3055 12f4 00007A44 		.word	1148846080
 3056 12f8 00247449 		.word	1232348160
 3057 12fc 0050C347 		.word	1203982336
 3058 1300 20BCBE4C 		.word	1287568416
 3059              	.L229:
 3060              		.loc 1 315 0
 3061 1304 03A9     		add	r1, sp, #12
 3062 1306 B0EE480A 		fcpys	s0, s16
 3063 130a FFF7FEFF 		bl	buffer_get_float32
 3064              	.LVL280:
 3065              		.loc 1 316 0
 3066 130e 2046     		mov	r0, r4
 3067              		.loc 1 315 0
 3068 1310 85ED320A 		fsts	s0, [r5, #200]
 3069              		.loc 1 316 0
 3070 1314 03A9     		add	r1, sp, #12
 3071 1316 B0EE480A 		fcpys	s0, s16
 3072 131a FFF7FEFF 		bl	buffer_get_float32
 3073              	.LVL281:
 3074              		.loc 1 317 0
 3075 131e 2046     		mov	r0, r4
 3076              		.loc 1 316 0
 3077 1320 85ED330A 		fsts	s0, [r5, #204]
 3078              		.loc 1 317 0
ARM GAS  /tmp/cc0XcXNK.s 			page 55


 3079 1324 03A9     		add	r1, sp, #12
 3080 1326 B0EE480A 		fcpys	s0, s16
 3081 132a FFF7FEFF 		bl	buffer_get_float32
 3082              	.LVL282:
 3083              		.loc 1 318 0
 3084 132e 2046     		mov	r0, r4
 3085              		.loc 1 317 0
 3086 1330 85ED340A 		fsts	s0, [r5, #208]
 3087              		.loc 1 318 0
 3088 1334 03A9     		add	r1, sp, #12
 3089 1336 B0EE480A 		fcpys	s0, s16
 3090 133a FFF7FEFF 		bl	buffer_get_float32
 3091              	.LVL283:
 3092              		.loc 1 319 0
 3093 133e 2046     		mov	r0, r4
 3094              		.loc 1 318 0
 3095 1340 85ED350A 		fsts	s0, [r5, #212]
 3096              		.loc 1 319 0
 3097 1344 03A9     		add	r1, sp, #12
 3098 1346 B0EE480A 		fcpys	s0, s16
 3099 134a FFF7FEFF 		bl	buffer_get_float32
 3100              	.LVL284:
 3101              		.loc 1 320 0
 3102 134e 039B     		ldr	r3, [sp, #12]
 3103              		.loc 1 319 0
 3104 1350 85ED360A 		fsts	s0, [r5, #216]
 3105              		.loc 1 320 0
 3106 1354 E218     		adds	r2, r4, r3
 3107              		.loc 1 322 0
 3108 1356 03A9     		add	r1, sp, #12
 3109              		.loc 1 320 0
 3110 1358 1668     		ldr	r6, [r2]	@ unaligned
 3111 135a 5268     		ldr	r2, [r2, #4]	@ unaligned
 3112 135c C5F8E120 		str	r2, [r5, #225]	@ unaligned
 3113              		.loc 1 321 0
 3114 1360 0833     		adds	r3, r3, #8
 3115              		.loc 1 322 0
 3116 1362 2046     		mov	r0, r4
 3117              		.loc 1 320 0
 3118 1364 C5F8DD60 		str	r6, [r5, #221]	@ unaligned
 3119              		.loc 1 321 0
 3120 1368 0393     		str	r3, [sp, #12]
 3121              		.loc 1 322 0
 3122 136a FFF7FEFF 		bl	buffer_get_int32
 3123              	.LVL285:
 3124 136e 07EE900A 		fmsr	s15, r0	@ int
 3125 1372 F8EEE77A 		fsitos	s15, s15
 3126              		.loc 1 324 0
 3127 1376 03A9     		add	r1, sp, #12
 3128              		.loc 1 322 0
 3129 1378 C7EE887A 		fdivs	s15, s15, s16
 3130              		.loc 1 324 0
 3131 137c 2046     		mov	r0, r4
 3132              		.loc 1 322 0
 3133 137e C5ED3A7A 		fsts	s15, [r5, #232]
 3134              		.loc 1 324 0
 3135 1382 FFF7FEFF 		bl	buffer_get_int32
ARM GAS  /tmp/cc0XcXNK.s 			page 56


 3136              	.LVL286:
 3137 1386 07EE900A 		fmsr	s15, r0	@ int
 3138 138a F8EEE77A 		fsitos	s15, s15
 3139              		.loc 1 325 0
 3140 138e 03A9     		add	r1, sp, #12
 3141              		.loc 1 324 0
 3142 1390 C7EEA87A 		fdivs	s15, s15, s17
 3143              		.loc 1 325 0
 3144 1394 2046     		mov	r0, r4
 3145              		.loc 1 324 0
 3146 1396 C5ED3B7A 		fsts	s15, [r5, #236]
 3147              		.loc 1 325 0
 3148 139a FFF7FEFF 		bl	buffer_get_int32
 3149              	.LVL287:
 3150 139e 07EE900A 		fmsr	s15, r0	@ int
 3151 13a2 F8EEE77A 		fsitos	s15, s15
 3152              		.loc 1 326 0
 3153 13a6 03A9     		add	r1, sp, #12
 3154              		.loc 1 325 0
 3155 13a8 C7EEA87A 		fdivs	s15, s15, s17
 3156              		.loc 1 326 0
 3157 13ac 2046     		mov	r0, r4
 3158              		.loc 1 325 0
 3159 13ae C5ED3C7A 		fsts	s15, [r5, #240]
 3160              		.loc 1 326 0
 3161 13b2 FFF7FEFF 		bl	buffer_get_int32
 3162              	.LVL288:
 3163 13b6 07EE900A 		fmsr	s15, r0	@ int
 3164 13ba F8EEE77A 		fsitos	s15, s15
 3165              		.loc 1 327 0
 3166 13be 03A9     		add	r1, sp, #12
 3167              		.loc 1 326 0
 3168 13c0 C7EEA87A 		fdivs	s15, s15, s17
 3169              		.loc 1 327 0
 3170 13c4 2046     		mov	r0, r4
 3171              		.loc 1 326 0
 3172 13c6 C5ED3D7A 		fsts	s15, [r5, #244]
 3173              		.loc 1 327 0
 3174 13ca FFF7FEFF 		bl	buffer_get_int32
 3175              	.LVL289:
 3176 13ce 07EE900A 		fmsr	s15, r0	@ int
 3177 13d2 F8EEE77A 		fsitos	s15, s15
 3178              		.loc 1 329 0
 3179 13d6 03A9     		add	r1, sp, #12
 3180              		.loc 1 327 0
 3181 13d8 C7EE887A 		fdivs	s15, s15, s16
 3182              		.loc 1 329 0
 3183 13dc 2046     		mov	r0, r4
 3184              		.loc 1 327 0
 3185 13de C5ED3E7A 		fsts	s15, [r5, #248]
 3186              		.loc 1 329 0
 3187 13e2 FFF7FEFF 		bl	buffer_get_int32
 3188              	.LVL290:
 3189 13e6 07EE900A 		fmsr	s15, r0	@ int
 3190 13ea F8EEE77A 		fsitos	s15, s15
 3191              		.loc 1 330 0
 3192 13ee 03A9     		add	r1, sp, #12
ARM GAS  /tmp/cc0XcXNK.s 			page 57


 3193              		.loc 1 329 0
 3194 13f0 C7EEA87A 		fdivs	s15, s15, s17
 3195              		.loc 1 330 0
 3196 13f4 2046     		mov	r0, r4
 3197              		.loc 1 329 0
 3198 13f6 C5ED407A 		fsts	s15, [r5, #256]
 3199              		.loc 1 330 0
 3200 13fa FFF7FEFF 		bl	buffer_get_int32
 3201              	.LVL291:
 3202 13fe 07EE900A 		fmsr	s15, r0	@ int
 3203 1402 F8EEE77A 		fsitos	s15, s15
 3204              		.loc 1 331 0
 3205 1406 03A9     		add	r1, sp, #12
 3206              		.loc 1 330 0
 3207 1408 C7EEA87A 		fdivs	s15, s15, s17
 3208              		.loc 1 331 0
 3209 140c 2046     		mov	r0, r4
 3210              		.loc 1 330 0
 3211 140e C5ED417A 		fsts	s15, [r5, #260]
 3212              		.loc 1 331 0
 3213 1412 FFF7FEFF 		bl	buffer_get_int32
 3214              	.LVL292:
 3215 1416 07EE900A 		fmsr	s15, r0	@ int
 3216 141a F8EEE77A 		fsitos	s15, s15
 3217              		.loc 1 332 0
 3218 141e 03A9     		add	r1, sp, #12
 3219              		.loc 1 331 0
 3220 1420 C7EEA87A 		fdivs	s15, s15, s17
 3221              		.loc 1 332 0
 3222 1424 2046     		mov	r0, r4
 3223              		.loc 1 331 0
 3224 1426 C5ED427A 		fsts	s15, [r5, #264]
 3225              		.loc 1 332 0
 3226 142a FFF7FEFF 		bl	buffer_get_int32
 3227              	.LVL293:
 3228 142e 07EE900A 		fmsr	s15, r0	@ int
 3229 1432 F8EEE77A 		fsitos	s15, s15
 3230              		.loc 1 334 0
 3231 1436 03A9     		add	r1, sp, #12
 3232              		.loc 1 332 0
 3233 1438 87EE899A 		fdivs	s18, s15, s18
 3234              		.loc 1 334 0
 3235 143c 2046     		mov	r0, r4
 3236              		.loc 1 332 0
 3237 143e 85ED439A 		fsts	s18, [r5, #268]
 3238              		.loc 1 334 0
 3239 1442 FFF7FEFF 		bl	buffer_get_int32
 3240              	.LVL294:
 3241 1446 07EE900A 		fmsr	s15, r0	@ int
 3242 144a F8EEE77A 		fsitos	s15, s15
 3243              		.loc 1 335 0
 3244 144e 03A9     		add	r1, sp, #12
 3245              		.loc 1 334 0
 3246 1450 C7EEA87A 		fdivs	s15, s15, s17
 3247              		.loc 1 335 0
 3248 1454 2046     		mov	r0, r4
 3249              		.loc 1 334 0
ARM GAS  /tmp/cc0XcXNK.s 			page 58


 3250 1456 C5ED447A 		fsts	s15, [r5, #272]
 3251              		.loc 1 335 0
 3252 145a FFF7FEFF 		bl	buffer_get_int32
 3253              	.LVL295:
 3254 145e 07EE900A 		fmsr	s15, r0	@ int
 3255 1462 F8EEE77A 		fsitos	s15, s15
 3256              		.loc 1 336 0
 3257 1466 03A9     		add	r1, sp, #12
 3258              		.loc 1 335 0
 3259 1468 87EE888A 		fdivs	s16, s15, s16
 3260              		.loc 1 336 0
 3261 146c 2046     		mov	r0, r4
 3262              		.loc 1 335 0
 3263 146e 85ED458A 		fsts	s16, [r5, #276]
 3264              		.loc 1 336 0
 3265 1472 FFF7FEFF 		bl	buffer_get_int32
 3266              	.LVL296:
 3267 1476 07EE900A 		fmsr	s15, r0	@ int
 3268 147a F8EEE77A 		fsitos	s15, s15
 3269              		.loc 1 337 0
 3270 147e 2046     		mov	r0, r4
 3271              		.loc 1 336 0
 3272 1480 C7EEA87A 		fdivs	s15, s15, s17
 3273              		.loc 1 337 0
 3274 1484 03A9     		add	r1, sp, #12
 3275 1486 B0EE680A 		fcpys	s0, s17
 3276              		.loc 1 336 0
 3277 148a C5ED467A 		fsts	s15, [r5, #280]
 3278              		.loc 1 337 0
 3279 148e FFF7FEFF 		bl	buffer_get_float32
 3280              	.LVL297:
 3281              		.loc 1 339 0
 3282 1492 03A9     		add	r1, sp, #12
 3283 1494 2046     		mov	r0, r4
 3284              		.loc 1 337 0
 3285 1496 85ED470A 		fsts	s0, [r5, #284]
 3286              		.loc 1 339 0
 3287 149a FFF7FEFF 		bl	buffer_get_int32
 3288              	.LVL298:
 3289              		.loc 1 340 0
 3290 149e 03A9     		add	r1, sp, #12
 3291              		.loc 1 339 0
 3292 14a0 C5F82001 		str	r0, [r5, #288]
 3293              		.loc 1 340 0
 3294 14a4 B0EE680A 		fcpys	s0, s17
 3295 14a8 2046     		mov	r0, r4
 3296 14aa FFF7FEFF 		bl	buffer_get_float32
 3297              	.LVL299:
 3298              		.loc 1 341 0
 3299 14ae 2046     		mov	r0, r4
 3300              		.loc 1 340 0
 3301 14b0 85ED490A 		fsts	s0, [r5, #292]
 3302              		.loc 1 341 0
 3303 14b4 03A9     		add	r1, sp, #12
 3304 14b6 B0EE680A 		fcpys	s0, s17
 3305 14ba FFF7FEFF 		bl	buffer_get_float32
 3306              	.LVL300:
ARM GAS  /tmp/cc0XcXNK.s 			page 59


 3307              		.loc 1 342 0
 3308 14be 2046     		mov	r0, r4
 3309              		.loc 1 341 0
 3310 14c0 85ED4A0A 		fsts	s0, [r5, #296]
 3311              		.loc 1 342 0
 3312 14c4 03A9     		add	r1, sp, #12
 3313 14c6 B0EE680A 		fcpys	s0, s17
 3314 14ca FFF7FEFF 		bl	buffer_get_float32
 3315              	.LVL301:
 3316              		.loc 1 343 0
 3317 14ce 03A9     		add	r1, sp, #12
 3318 14d0 2046     		mov	r0, r4
 3319              		.loc 1 342 0
 3320 14d2 85ED4B0A 		fsts	s0, [r5, #300]
 3321              		.loc 1 343 0
 3322 14d6 FFF7FEFF 		bl	buffer_get_uint32
 3323              	.LVL302:
 3324              		.loc 1 344 0
 3325 14da 039B     		ldr	r3, [sp, #12]
 3326              		.loc 1 343 0
 3327 14dc C5F83001 		str	r0, [r5, #304]
 3328              		.loc 1 344 0
 3329 14e0 E25C     		ldrb	r2, [r4, r3]	@ zero_extendqisi2
 3330 14e2 85F83421 		strb	r2, [r5, #308]
 3331 14e6 5A1C     		adds	r2, r3, #1
 3332              		.loc 1 347 0
 3333 14e8 0233     		adds	r3, r3, #2
 3334 14ea A25C     		ldrb	r2, [r4, r2]	@ zero_extendqisi2
 3335 14ec 0393     		str	r3, [sp, #12]
 3336 14ee 131C     		adds	r3, r2, #0
 3337 14f0 18BF     		it	ne
 3338 14f2 0123     		movne	r3, #1
 3339              		.loc 1 350 0
 3340 14f4 2846     		mov	r0, r5
 3341              		.loc 1 347 0
 3342 14f6 85F8FC30 		strb	r3, [r5, #252]
 3343              		.loc 1 350 0
 3344 14fa FFF7FEFF 		bl	conf_general_store_mc_configuration
 3345              	.LVL303:
 3346              		.loc 1 351 0
 3347 14fe 2846     		mov	r0, r5
 3348 1500 FFF7FEFF 		bl	mc_interface_set_configuration
 3349              	.LVL304:
 3350              	.LBB137:
 3351              	.LBB138:
 3352              		.loc 1 97 0
 3353 1504 214B     		ldr	r3, .L231
 3354              	.LBE138:
 3355              	.LBE137:
 3356              		.loc 1 354 0
 3357 1506 2248     		ldr	r0, .L231+4
 3358              	.LBB141:
 3359              	.LBB139:
 3360              		.loc 1 97 0
 3361 1508 1B68     		ldr	r3, [r3]
 3362              	.LBE139:
 3363              	.LBE141:
ARM GAS  /tmp/cc0XcXNK.s 			page 60


 3364              		.loc 1 354 0
 3365 150a 0C22     		movs	r2, #12
 3366 150c 0121     		movs	r1, #1
 3367 150e 0270     		strb	r2, [r0]
 3368              	.LVL305:
 3369 1510 0391     		str	r1, [sp, #12]
 3370              	.LBB142:
 3371              	.LBB140:
 3372              		.loc 1 97 0
 3373 1512 002B     		cmp	r3, #0
 3374 1514 3FF4A3A8 		beq	.L24
 3375              	.LVL306:
 3376              	.L200:
 3377              	.LBE140:
 3378              	.LBE142:
 3379              		.loc 1 861 0
 3380 1518 9847     		blx	r3
 3381              	.LVL307:
 3382 151a FFF7A0B8 		b	.L24
 3383              	.LVL308:
 3384              	.L45:
 3385              		.loc 1 683 0
 3386 151e 2046     		mov	r0, r4
 3387 1520 03A9     		add	r1, sp, #12
 3388 1522 9FED200A 		flds	s0, .L231+24
 3389 1526 FFF7FEFF 		bl	buffer_get_float32
 3390              	.LVL309:
 3391 152a 1A4B     		ldr	r3, .L231+8
 3392              		.loc 1 684 0
 3393 152c 2046     		mov	r0, r4
 3394              		.loc 1 683 0
 3395 152e 83ED000A 		fsts	s0, [r3]
 3396              		.loc 1 684 0
 3397 1532 03A9     		add	r1, sp, #12
 3398 1534 9FED1B0A 		flds	s0, .L231+24
 3399 1538 FFF7FEFF 		bl	buffer_get_float32
 3400              	.LVL310:
 3401 153c 164B     		ldr	r3, .L231+12
 3402              		.loc 1 685 0
 3403 153e 2046     		mov	r0, r4
 3404 1540 03A9     		add	r1, sp, #12
 3405              		.loc 1 684 0
 3406 1542 83ED000A 		fsts	s0, [r3]
 3407              		.loc 1 685 0
 3408 1546 9FED170A 		flds	s0, .L231+24
 3409 154a FFF7FEFF 		bl	buffer_get_float32
 3410              	.LVL311:
 3411              		.loc 1 687 0
 3412 154e 134A     		ldr	r2, .L231+16
 3413              		.loc 1 685 0
 3414 1550 134B     		ldr	r3, .L231+20
 3415              		.loc 1 687 0
 3416 1552 1068     		ldr	r0, [r2]
 3417              		.loc 1 685 0
 3418 1554 83ED000A 		fsts	s0, [r3]
 3419              		.loc 1 687 0
 3420 1558 0121     		movs	r1, #1
ARM GAS  /tmp/cc0XcXNK.s 			page 61


 3421 155a FFF7FEFF 		bl	chEvtSignal
 3422              	.LVL312:
 3423              		.loc 1 688 0
 3424 155e FFF77EB8 		b	.L24
 3425              	.L43:
 3426              		.loc 1 670 0
 3427 1562 4578     		ldrb	r5, [r0, #1]	@ zero_extendqisi2
 3428 1564 0123     		movs	r3, #1
 3429 1566 0035     		adds	r5, r5, #0
 3430              		.loc 1 671 0
 3431 1568 03A9     		add	r1, sp, #12
 3432 156a 2046     		mov	r0, r4
 3433              		.loc 1 670 0
 3434 156c 18BF     		it	ne
 3435 156e 0125     		movne	r5, #1
 3436              	.LVL313:
 3437 1570 0393     		str	r3, [sp, #12]
 3438              		.loc 1 671 0
 3439 1572 FFF7FEFF 		bl	buffer_get_uint16
 3440              	.LVL314:
 3441              		.loc 1 672 0
 3442 1576 039B     		ldr	r3, [sp, #12]
 3443              		.loc 1 671 0
 3444 1578 0146     		mov	r1, r0
 3445              	.LVL315:
 3446              		.loc 1 673 0
 3447 157a E25C     		ldrb	r2, [r4, r3]	@ zero_extendqisi2
 3448 157c 2846     		mov	r0, r5
 3449              		.loc 1 672 0
 3450 157e 0133     		adds	r3, r3, #1
 3451 1580 0393     		str	r3, [sp, #12]
 3452              	.LVL316:
 3453              		.loc 1 673 0
 3454 1582 FFF7FEFF 		bl	mc_interface_sample_print_data
 3455              	.LVL317:
 3456              		.loc 1 674 0
 3457 1586 FFF76AB8 		b	.L24
 3458              	.L232:
 3459 158a 00BF     		.align	2
 3460              	.L231:
 3461 158c 00000000 		.word	.LANCHOR9
 3462 1590 00000000 		.word	.LANCHOR8
 3463 1594 00000000 		.word	.LANCHOR1
 3464 1598 00000000 		.word	.LANCHOR2
 3465 159c 00000000 		.word	.LANCHOR0
 3466 15a0 00000000 		.word	.LANCHOR3
 3467 15a4 00007A44 		.word	1148846080
 3468 15a8 0000C842 		.word	1120403456
 3469              	.LVL318:
 3470              	.L41:
 3471              		.loc 1 463 0
 3472 15ac FFF7FEFF 		bl	app_get_configuration
 3473              	.LVL319:
 3474 15b0 4FF48072 		mov	r2, #256
 3475 15b4 0146     		mov	r1, r0
 3476 15b6 04A8     		add	r0, sp, #16
 3477              		.loc 1 466 0
ARM GAS  /tmp/cc0XcXNK.s 			page 62


 3478 15b8 0125     		movs	r5, #1
 3479              		.loc 1 463 0
 3480 15ba FFF7FEFF 		bl	memcpy
 3481              	.LVL320:
 3482              		.loc 1 466 0
 3483 15be 7378     		ldrb	r3, [r6, #1]	@ zero_extendqisi2
 3484 15c0 8DF81030 		strb	r3, [sp, #16]
 3485              		.loc 1 467 0
 3486 15c4 03A9     		add	r1, sp, #12
 3487 15c6 2046     		mov	r0, r4
 3488              		.loc 1 466 0
 3489 15c8 0395     		str	r5, [sp, #12]
 3490              		.loc 1 467 0
 3491 15ca FFF7FEFF 		bl	buffer_get_uint32
 3492              	.LVL321:
 3493              		.loc 1 468 0
 3494 15ce 03A9     		add	r1, sp, #12
 3495              		.loc 1 467 0
 3496 15d0 0590     		str	r0, [sp, #20]
 3497              		.loc 1 468 0
 3498 15d2 2046     		mov	r0, r4
 3499 15d4 FFF7FEFF 		bl	buffer_get_int32
 3500              	.LVL322:
 3501 15d8 07EE900A 		fmsr	s15, r0	@ int
 3502 15dc 1FED0F8A 		flds	s16, .L231+24
 3503              		.loc 1 469 0
 3504 15e0 039B     		ldr	r3, [sp, #12]
 3505              		.loc 1 546 0
 3506 15e2 5FED0F8A 		flds	s17, .L231+28
 3507              		.loc 1 469 0
 3508 15e6 E25C     		ldrb	r2, [r4, r3]	@ zero_extendqisi2
 3509              		.loc 1 468 0
 3510 15e8 F8EEE77A 		fsitos	s15, s15
 3511              		.loc 1 469 0
 3512 15ec 0032     		adds	r2, r2, #0
 3513              		.loc 1 468 0
 3514 15ee C7EE887A 		fdivs	s15, s15, s16
 3515              		.loc 1 469 0
 3516 15f2 18BF     		it	ne
 3517 15f4 0122     		movne	r2, #1
 3518 15f6 2B44     		add	r3, r3, r5
 3519              		.loc 1 470 0
 3520 15f8 03A9     		add	r1, sp, #12
 3521 15fa 2046     		mov	r0, r4
 3522              		.loc 1 469 0
 3523 15fc 8DF81C20 		strb	r2, [sp, #28]
 3524 1600 0393     		str	r3, [sp, #12]
 3525              		.loc 1 468 0
 3526 1602 CDED067A 		fsts	s15, [sp, #24]
 3527              		.loc 1 470 0
 3528 1606 FFF7FEFF 		bl	buffer_get_uint16
 3529              	.LVL323:
 3530              		.loc 1 472 0
 3531 160a 039B     		ldr	r3, [sp, #12]
 3532              		.loc 1 470 0
 3533 160c 0890     		str	r0, [sp, #32]
 3534              		.loc 1 472 0
ARM GAS  /tmp/cc0XcXNK.s 			page 63


 3535 160e 5A19     		adds	r2, r3, r5
 3536 1610 E15C     		ldrb	r1, [r4, r3]	@ zero_extendqisi2
 3537              		.loc 1 474 0
 3538 1612 A25C     		ldrb	r2, [r4, r2]	@ zero_extendqisi2
 3539              		.loc 1 472 0
 3540 1614 8DF82410 		strb	r1, [sp, #36]
 3541              		.loc 1 474 0
 3542 1618 0233     		adds	r3, r3, #2
 3543              		.loc 1 475 0
 3544 161a 03A9     		add	r1, sp, #12
 3545 161c 2046     		mov	r0, r4
 3546              		.loc 1 474 0
 3547 161e 8DF82820 		strb	r2, [sp, #40]
 3548 1622 0393     		str	r3, [sp, #12]
 3549              		.loc 1 475 0
 3550 1624 FFF7FEFF 		bl	buffer_get_int32
 3551              	.LVL324:
 3552 1628 07EE900A 		fmsr	s15, r0	@ int
 3553 162c F8EEE77A 		fsitos	s15, s15
 3554              		.loc 1 476 0
 3555 1630 03A9     		add	r1, sp, #12
 3556              		.loc 1 475 0
 3557 1632 C7EE887A 		fdivs	s15, s15, s16
 3558              		.loc 1 476 0
 3559 1636 2046     		mov	r0, r4
 3560              		.loc 1 475 0
 3561 1638 CDED0B7A 		fsts	s15, [sp, #44]
 3562              		.loc 1 476 0
 3563 163c FFF7FEFF 		bl	buffer_get_int32
 3564              	.LVL325:
 3565 1640 07EE900A 		fmsr	s15, r0	@ int
 3566 1644 F8EEE77A 		fsitos	s15, s15
 3567              		.loc 1 477 0
 3568 1648 03A9     		add	r1, sp, #12
 3569              		.loc 1 476 0
 3570 164a C7EE887A 		fdivs	s15, s15, s16
 3571              		.loc 1 477 0
 3572 164e 2046     		mov	r0, r4
 3573              		.loc 1 476 0
 3574 1650 CDED0C7A 		fsts	s15, [sp, #48]
 3575              		.loc 1 477 0
 3576 1654 FFF7FEFF 		bl	buffer_get_int32
 3577              	.LVL326:
 3578 1658 07EE900A 		fmsr	s15, r0	@ int
 3579 165c F8EEE77A 		fsitos	s15, s15
 3580              		.loc 1 478 0
 3581 1660 03A9     		add	r1, sp, #12
 3582              		.loc 1 477 0
 3583 1662 C7EE887A 		fdivs	s15, s15, s16
 3584              		.loc 1 478 0
 3585 1666 2046     		mov	r0, r4
 3586              		.loc 1 477 0
 3587 1668 CDED0D7A 		fsts	s15, [sp, #52]
 3588              		.loc 1 478 0
 3589 166c FFF7FEFF 		bl	buffer_get_int32
 3590              	.LVL327:
 3591 1670 07EE900A 		fmsr	s15, r0	@ int
ARM GAS  /tmp/cc0XcXNK.s 			page 64


 3592 1674 F8EEE77A 		fsitos	s15, s15
 3593              		.loc 1 479 0
 3594 1678 039B     		ldr	r3, [sp, #12]
 3595              		.loc 1 478 0
 3596 167a C7EE887A 		fdivs	s15, s15, s16
 3597              		.loc 1 479 0
 3598 167e 5A19     		adds	r2, r3, r5
 3599 1680 E65C     		ldrb	r6, [r4, r3]	@ zero_extendqisi2
 3600              		.loc 1 480 0
 3601 1682 A25C     		ldrb	r2, [r4, r2]	@ zero_extendqisi2
 3602              		.loc 1 479 0
 3603 1684 0036     		adds	r6, r6, #0
 3604 1686 18BF     		it	ne
 3605 1688 0126     		movne	r6, #1
 3606              		.loc 1 480 0
 3607 168a 0032     		adds	r2, r2, #0
 3608 168c 18BF     		it	ne
 3609 168e 0122     		movne	r2, #1
 3610 1690 0233     		adds	r3, r3, #2
 3611              		.loc 1 481 0
 3612 1692 03A9     		add	r1, sp, #12
 3613 1694 2046     		mov	r0, r4
 3614              		.loc 1 480 0
 3615 1696 8DF83D20 		strb	r2, [sp, #61]
 3616 169a 0393     		str	r3, [sp, #12]
 3617              		.loc 1 479 0
 3618 169c 8DF83C60 		strb	r6, [sp, #60]
 3619              		.loc 1 478 0
 3620 16a0 CDED0E7A 		fsts	s15, [sp, #56]
 3621              		.loc 1 481 0
 3622 16a4 FFF7FEFF 		bl	buffer_get_int32
 3623              	.LVL328:
 3624 16a8 07EE900A 		fmsr	s15, r0	@ int
 3625 16ac F8EEE77A 		fsitos	s15, s15
 3626              		.loc 1 482 0
 3627 16b0 03A9     		add	r1, sp, #12
 3628              		.loc 1 481 0
 3629 16b2 C7EE887A 		fdivs	s15, s15, s16
 3630              		.loc 1 482 0
 3631 16b6 2046     		mov	r0, r4
 3632              		.loc 1 481 0
 3633 16b8 CDED107A 		fsts	s15, [sp, #64]
 3634              		.loc 1 482 0
 3635 16bc FFF7FEFF 		bl	buffer_get_int32
 3636              	.LVL329:
 3637 16c0 07EE900A 		fmsr	s15, r0	@ int
 3638 16c4 F8EEE77A 		fsitos	s15, s15
 3639              		.loc 1 483 0
 3640 16c8 039B     		ldr	r3, [sp, #12]
 3641              		.loc 1 482 0
 3642 16ca C7EE887A 		fdivs	s15, s15, s16
 3643              		.loc 1 483 0
 3644 16ce 5A19     		adds	r2, r3, r5
 3645 16d0 E65C     		ldrb	r6, [r4, r3]	@ zero_extendqisi2
 3646              		.loc 1 484 0
 3647 16d2 A25C     		ldrb	r2, [r4, r2]	@ zero_extendqisi2
 3648              		.loc 1 483 0
ARM GAS  /tmp/cc0XcXNK.s 			page 65


 3649 16d4 0036     		adds	r6, r6, #0
 3650 16d6 18BF     		it	ne
 3651 16d8 0126     		movne	r6, #1
 3652              		.loc 1 484 0
 3653 16da 0032     		adds	r2, r2, #0
 3654 16dc 18BF     		it	ne
 3655 16de 0122     		movne	r2, #1
 3656 16e0 0233     		adds	r3, r3, #2
 3657              		.loc 1 485 0
 3658 16e2 03A9     		add	r1, sp, #12
 3659 16e4 2046     		mov	r0, r4
 3660              		.loc 1 483 0
 3661 16e6 8DF84860 		strb	r6, [sp, #72]
 3662              		.loc 1 484 0
 3663 16ea 8DF84920 		strb	r2, [sp, #73]
 3664 16ee 0393     		str	r3, [sp, #12]
 3665              		.loc 1 482 0
 3666 16f0 CDED117A 		fsts	s15, [sp, #68]
 3667              		.loc 1 485 0
 3668 16f4 FFF7FEFF 		bl	buffer_get_int32
 3669              	.LVL330:
 3670 16f8 07EE900A 		fmsr	s15, r0	@ int
 3671 16fc F8EEE77A 		fsitos	s15, s15
 3672              		.loc 1 487 0
 3673 1700 039B     		ldr	r3, [sp, #12]
 3674              		.loc 1 485 0
 3675 1702 C7EE887A 		fdivs	s15, s15, s16
 3676              		.loc 1 487 0
 3677 1706 E25C     		ldrb	r2, [r4, r3]	@ zero_extendqisi2
 3678 1708 8DF86420 		strb	r2, [sp, #100]
 3679 170c 2B44     		add	r3, r3, r5
 3680              		.loc 1 488 0
 3681 170e 03A9     		add	r1, sp, #12
 3682 1710 2046     		mov	r0, r4
 3683              		.loc 1 487 0
 3684 1712 0393     		str	r3, [sp, #12]
 3685              		.loc 1 485 0
 3686 1714 CDED137A 		fsts	s15, [sp, #76]
 3687              		.loc 1 488 0
 3688 1718 FFF7FEFF 		bl	buffer_get_int32
 3689              	.LVL331:
 3690 171c 07EE900A 		fmsr	s15, r0	@ int
 3691 1720 F8EEE77A 		fsitos	s15, s15
 3692              		.loc 1 489 0
 3693 1724 03A9     		add	r1, sp, #12
 3694              		.loc 1 488 0
 3695 1726 C7EE887A 		fdivs	s15, s15, s16
 3696              		.loc 1 489 0
 3697 172a 2046     		mov	r0, r4
 3698              		.loc 1 488 0
 3699 172c CDED1A7A 		fsts	s15, [sp, #104]
 3700              		.loc 1 489 0
 3701 1730 FFF7FEFF 		bl	buffer_get_int32
 3702              	.LVL332:
 3703 1734 07EE900A 		fmsr	s15, r0	@ int
 3704 1738 F8EEE77A 		fsitos	s15, s15
 3705              		.loc 1 490 0
ARM GAS  /tmp/cc0XcXNK.s 			page 66


 3706 173c 03A9     		add	r1, sp, #12
 3707              		.loc 1 489 0
 3708 173e C7EE887A 		fdivs	s15, s15, s16
 3709              		.loc 1 490 0
 3710 1742 2046     		mov	r0, r4
 3711              		.loc 1 489 0
 3712 1744 CDED1B7A 		fsts	s15, [sp, #108]
 3713              		.loc 1 490 0
 3714 1748 FFF7FEFF 		bl	buffer_get_int32
 3715              	.LVL333:
 3716 174c 07EE900A 		fmsr	s15, r0	@ int
 3717 1750 F8EEE77A 		fsitos	s15, s15
 3718              		.loc 1 491 0
 3719 1754 039B     		ldr	r3, [sp, #12]
 3720              		.loc 1 490 0
 3721 1756 C7EE887A 		fdivs	s15, s15, s16
 3722              		.loc 1 491 0
 3723 175a 5E19     		adds	r6, r3, r5
 3724 175c 14F803C0 		ldrb	ip, [r4, r3]	@ zero_extendqisi2
 3725              		.loc 1 492 0
 3726 1760 14F806E0 		ldrb	lr, [r4, r6]	@ zero_extendqisi2
 3727 1764 981C     		adds	r0, r3, #2
 3728              		.loc 1 493 0
 3729 1766 D91C     		adds	r1, r3, #3
 3730              		.loc 1 491 0
 3731 1768 1CF1000C 		adds	ip, ip, #0
 3732              		.loc 1 493 0
 3733 176c 275C     		ldrb	r7, [r4, r0]	@ zero_extendqisi2
 3734              	.LVL334:
 3735              		.loc 1 494 0
 3736 176e 665C     		ldrb	r6, [r4, r1]	@ zero_extendqisi2
 3737 1770 03F10402 		add	r2, r3, #4
 3738              		.loc 1 491 0
 3739 1774 18BF     		it	ne
 3740 1776 4FF0010C 		movne	ip, #1
 3741              		.loc 1 492 0
 3742 177a 1EF1000E 		adds	lr, lr, #0
 3743 177e 18BF     		it	ne
 3744 1780 4FF0010E 		movne	lr, #1
 3745              		.loc 1 495 0
 3746 1784 A25C     		ldrb	r2, [r4, r2]	@ zero_extendqisi2
 3747              		.loc 1 491 0
 3748 1786 8DF874C0 		strb	ip, [sp, #116]
 3749              		.loc 1 493 0
 3750 178a 0037     		adds	r7, r7, #0
 3751 178c 18BF     		it	ne
 3752 178e 0127     		movne	r7, #1
 3753              		.loc 1 494 0
 3754 1790 0036     		adds	r6, r6, #0
 3755 1792 18BF     		it	ne
 3756 1794 0126     		movne	r6, #1
 3757              		.loc 1 495 0
 3758 1796 0032     		adds	r2, r2, #0
 3759 1798 18BF     		it	ne
 3760 179a 0122     		movne	r2, #1
 3761 179c 0533     		adds	r3, r3, #5
 3762              		.loc 1 496 0
ARM GAS  /tmp/cc0XcXNK.s 			page 67


 3763 179e 03A9     		add	r1, sp, #12
 3764 17a0 2046     		mov	r0, r4
 3765              		.loc 1 492 0
 3766 17a2 8DF875E0 		strb	lr, [sp, #117]
 3767              		.loc 1 495 0
 3768 17a6 8DF87820 		strb	r2, [sp, #120]
 3769 17aa 0393     		str	r3, [sp, #12]
 3770              		.loc 1 490 0
 3771 17ac CDED1C7A 		fsts	s15, [sp, #112]
 3772              		.loc 1 493 0
 3773 17b0 8DF87670 		strb	r7, [sp, #118]
 3774              		.loc 1 494 0
 3775 17b4 8DF87760 		strb	r6, [sp, #119]
 3776              		.loc 1 496 0
 3777 17b8 FFF7FEFF 		bl	buffer_get_int32
 3778              	.LVL335:
 3779 17bc 07EE900A 		fmsr	s15, r0	@ int
 3780 17c0 F8EEE77A 		fsitos	s15, s15
 3781              		.loc 1 497 0
 3782 17c4 03A9     		add	r1, sp, #12
 3783              		.loc 1 496 0
 3784 17c6 C7EE887A 		fdivs	s15, s15, s16
 3785              		.loc 1 497 0
 3786 17ca 2046     		mov	r0, r4
 3787              		.loc 1 496 0
 3788 17cc CDED1F7A 		fsts	s15, [sp, #124]
 3789              		.loc 1 497 0
 3790 17d0 FFF7FEFF 		bl	buffer_get_int32
 3791              	.LVL336:
 3792 17d4 07EE900A 		fmsr	s15, r0	@ int
 3793 17d8 F8EEE77A 		fsitos	s15, s15
 3794              		.loc 1 498 0
 3795 17dc 039B     		ldr	r3, [sp, #12]
 3796              		.loc 1 497 0
 3797 17de C7EE887A 		fdivs	s15, s15, s16
 3798              		.loc 1 498 0
 3799 17e2 5A19     		adds	r2, r3, r5
 3800 17e4 E65C     		ldrb	r6, [r4, r3]	@ zero_extendqisi2
 3801              		.loc 1 499 0
 3802 17e6 A25C     		ldrb	r2, [r4, r2]	@ zero_extendqisi2
 3803              		.loc 1 498 0
 3804 17e8 0036     		adds	r6, r6, #0
 3805 17ea 18BF     		it	ne
 3806 17ec 0126     		movne	r6, #1
 3807              		.loc 1 499 0
 3808 17ee 0032     		adds	r2, r2, #0
 3809 17f0 18BF     		it	ne
 3810 17f2 0122     		movne	r2, #1
 3811 17f4 0233     		adds	r3, r3, #2
 3812              		.loc 1 500 0
 3813 17f6 03A9     		add	r1, sp, #12
 3814 17f8 2046     		mov	r0, r4
 3815              		.loc 1 499 0
 3816 17fa 8DF88520 		strb	r2, [sp, #133]
 3817 17fe 0393     		str	r3, [sp, #12]
 3818              		.loc 1 498 0
 3819 1800 8DF88460 		strb	r6, [sp, #132]
ARM GAS  /tmp/cc0XcXNK.s 			page 68


 3820              		.loc 1 497 0
 3821 1804 CDED207A 		fsts	s15, [sp, #128]
 3822              		.loc 1 500 0
 3823 1808 FFF7FEFF 		bl	buffer_get_int32
 3824              	.LVL337:
 3825 180c 07EE900A 		fmsr	s15, r0	@ int
 3826 1810 F8EEE77A 		fsitos	s15, s15
 3827              		.loc 1 501 0
 3828 1814 03A9     		add	r1, sp, #12
 3829              		.loc 1 500 0
 3830 1816 C7EE887A 		fdivs	s15, s15, s16
 3831              		.loc 1 501 0
 3832 181a 2046     		mov	r0, r4
 3833              		.loc 1 500 0
 3834 181c CDED227A 		fsts	s15, [sp, #136]
 3835              		.loc 1 501 0
 3836 1820 FFF7FEFF 		bl	buffer_get_uint16
 3837              	.LVL338:
 3838              		.loc 1 503 0
 3839 1824 03A9     		add	r1, sp, #12
 3840              		.loc 1 501 0
 3841 1826 2390     		str	r0, [sp, #140]
 3842              		.loc 1 503 0
 3843 1828 2046     		mov	r0, r4
 3844 182a FFF7FEFF 		bl	buffer_get_uint32
 3845              	.LVL339:
 3846              		.loc 1 505 0
 3847 182e 039B     		ldr	r3, [sp, #12]
 3848              		.loc 1 503 0
 3849 1830 2490     		str	r0, [sp, #144]
 3850              		.loc 1 505 0
 3851 1832 E25C     		ldrb	r2, [r4, r3]	@ zero_extendqisi2
 3852 1834 8DF89420 		strb	r2, [sp, #148]
 3853 1838 2B44     		add	r3, r3, r5
 3854              		.loc 1 506 0
 3855 183a B0EE480A 		fcpys	s0, s16
 3856 183e 2046     		mov	r0, r4
 3857 1840 03A9     		add	r1, sp, #12
 3858              		.loc 1 505 0
 3859 1842 0393     		str	r3, [sp, #12]
 3860              		.loc 1 506 0
 3861 1844 FFF7FEFF 		bl	buffer_get_float32
 3862              	.LVL340:
 3863              		.loc 1 507 0
 3864 1848 2046     		mov	r0, r4
 3865              		.loc 1 506 0
 3866 184a 8DED260A 		fsts	s0, [sp, #152]
 3867              		.loc 1 507 0
 3868 184e 03A9     		add	r1, sp, #12
 3869 1850 B0EE480A 		fcpys	s0, s16
 3870 1854 FFF7FEFF 		bl	buffer_get_float32
 3871              	.LVL341:
 3872              		.loc 1 508 0
 3873 1858 2046     		mov	r0, r4
 3874              		.loc 1 507 0
 3875 185a 8DED270A 		fsts	s0, [sp, #156]
 3876              		.loc 1 508 0
ARM GAS  /tmp/cc0XcXNK.s 			page 69


 3877 185e 03A9     		add	r1, sp, #12
 3878 1860 B0EE480A 		fcpys	s0, s16
 3879 1864 FFF7FEFF 		bl	buffer_get_float32
 3880              	.LVL342:
 3881              		.loc 1 509 0
 3882 1868 2046     		mov	r0, r4
 3883              		.loc 1 508 0
 3884 186a 8DED280A 		fsts	s0, [sp, #160]
 3885              		.loc 1 509 0
 3886 186e 03A9     		add	r1, sp, #12
 3887 1870 B0EE480A 		fcpys	s0, s16
 3888 1874 FFF7FEFF 		bl	buffer_get_float32
 3889              	.LVL343:
 3890              		.loc 1 510 0
 3891 1878 2046     		mov	r0, r4
 3892              		.loc 1 509 0
 3893 187a 8DED290A 		fsts	s0, [sp, #164]
 3894              		.loc 1 510 0
 3895 187e 03A9     		add	r1, sp, #12
 3896 1880 B0EE480A 		fcpys	s0, s16
 3897 1884 FFF7FEFF 		bl	buffer_get_float32
 3898              	.LVL344:
 3899              		.loc 1 511 0
 3900 1888 2046     		mov	r0, r4
 3901              		.loc 1 510 0
 3902 188a 8DED2A0A 		fsts	s0, [sp, #168]
 3903              		.loc 1 511 0
 3904 188e 03A9     		add	r1, sp, #12
 3905 1890 B0EE480A 		fcpys	s0, s16
 3906 1894 FFF7FEFF 		bl	buffer_get_float32
 3907              	.LVL345:
 3908              		.loc 1 512 0
 3909 1898 039B     		ldr	r3, [sp, #12]
 3910              		.loc 1 511 0
 3911 189a 8DED2B0A 		fsts	s0, [sp, #172]
 3912              		.loc 1 512 0
 3913 189e 5A19     		adds	r2, r3, r5
 3914 18a0 E65C     		ldrb	r6, [r4, r3]	@ zero_extendqisi2
 3915              		.loc 1 513 0
 3916 18a2 A25C     		ldrb	r2, [r4, r2]	@ zero_extendqisi2
 3917              		.loc 1 512 0
 3918 18a4 0036     		adds	r6, r6, #0
 3919 18a6 18BF     		it	ne
 3920 18a8 0126     		movne	r6, #1
 3921              		.loc 1 513 0
 3922 18aa 0032     		adds	r2, r2, #0
 3923 18ac 18BF     		it	ne
 3924 18ae 0122     		movne	r2, #1
 3925 18b0 0233     		adds	r3, r3, #2
 3926              		.loc 1 514 0
 3927 18b2 B0EE480A 		fcpys	s0, s16
 3928 18b6 2046     		mov	r0, r4
 3929 18b8 03A9     		add	r1, sp, #12
 3930              		.loc 1 512 0
 3931 18ba 8DF8B060 		strb	r6, [sp, #176]
 3932              		.loc 1 513 0
 3933 18be 8DF8B120 		strb	r2, [sp, #177]
ARM GAS  /tmp/cc0XcXNK.s 			page 70


 3934 18c2 0393     		str	r3, [sp, #12]
 3935              		.loc 1 514 0
 3936 18c4 FFF7FEFF 		bl	buffer_get_float32
 3937              	.LVL346:
 3938              		.loc 1 516 0
 3939 18c8 039B     		ldr	r3, [sp, #12]
 3940              		.loc 1 514 0
 3941 18ca 8DED2D0A 		fsts	s0, [sp, #180]
 3942              		.loc 1 516 0
 3943 18ce 03EB0508 		add	r8, r3, r5
 3944              	.LVL347:
 3945              		.loc 1 517 0
 3946 18d2 03F1020C 		add	ip, r3, #2
 3947              		.loc 1 518 0
 3948 18d6 03F1030E 		add	lr, r3, #3
 3949              		.loc 1 519 0
 3950 18da 1F1D     		adds	r7, r3, #4
 3951              		.loc 1 520 0
 3952 18dc 5E1D     		adds	r6, r3, #5
 3953              		.loc 1 524 0
 3954 18de E218     		adds	r2, r4, r3
 3955              		.loc 1 516 0
 3956 18e0 E15C     		ldrb	r1, [r4, r3]	@ zero_extendqisi2
 3957              		.loc 1 518 0
 3958 18e2 14F80CC0 		ldrb	ip, [r4, ip]	@ zero_extendqisi2
 3959              		.loc 1 519 0
 3960 18e6 14F80EE0 		ldrb	lr, [r4, lr]	@ zero_extendqisi2
 3961              		.loc 1 521 0
 3962 18ea A65D     		ldrb	r6, [r4, r6]	@ zero_extendqisi2
 3963              		.loc 1 524 0
 3964 18ec 527A     		ldrb	r2, [r2, #9]	@ zero_extendqisi2
 3965              		.loc 1 517 0
 3966 18ee 14F80880 		ldrb	r8, [r4, r8]	@ zero_extendqisi2
 3967              		.loc 1 520 0
 3968 18f2 E75D     		ldrb	r7, [r4, r7]	@ zero_extendqisi2
 3969              		.loc 1 516 0
 3970 18f4 8DF8C810 		strb	r1, [sp, #200]
 3971              		.loc 1 521 0
 3972 18f8 981D     		adds	r0, r3, #6
 3973              		.loc 1 522 0
 3974 18fa 2118     		adds	r1, r4, r0
 3975              		.loc 1 518 0
 3976 18fc 8DF8CAC0 		strb	ip, [sp, #202]
 3977              		.loc 1 519 0
 3978 1900 8DF8CBE0 		strb	lr, [sp, #203]
 3979              		.loc 1 521 0
 3980 1904 0390     		str	r0, [sp, #12]
 3981              		.loc 1 517 0
 3982 1906 8DF8C980 		strb	r8, [sp, #201]
 3983              		.loc 1 520 0
 3984 190a 8DF8CC70 		strb	r7, [sp, #204]
 3985              		.loc 1 521 0
 3986 190e 8DF8CD60 		strb	r6, [sp, #205]
 3987              		.loc 1 522 0
 3988 1912 8878     		ldrb	r0, [r1, #2]	@ zero_extendqisi2
 3989 1914 0E88     		ldrh	r6, [r1]	@ unaligned
 3990 1916 8DF8D000 		strb	r0, [sp, #208]
ARM GAS  /tmp/cc0XcXNK.s 			page 71


 3991              		.loc 1 524 0
 3992 191a 0032     		adds	r2, r2, #0
 3993 191c 18BF     		it	ne
 3994 191e 0122     		movne	r2, #1
 3995 1920 0A33     		adds	r3, r3, #10
 3996              		.loc 1 527 0
 3997 1922 03A9     		add	r1, sp, #12
 3998 1924 2046     		mov	r0, r4
 3999              		.loc 1 524 0
 4000 1926 8DF8D120 		strb	r2, [sp, #209]
 4001 192a 0393     		str	r3, [sp, #12]
 4002              		.loc 1 522 0
 4003 192c ADF8CE60 		strh	r6, [sp, #206]	@ unaligned
 4004              		.loc 1 527 0
 4005 1930 FFF7FEFF 		bl	buffer_get_int32
 4006              	.LVL348:
 4007 1934 07EE900A 		fmsr	s15, r0	@ int
 4008 1938 F8EEE77A 		fsitos	s15, s15
 4009              		.loc 1 529 0
 4010 193c 03A9     		add	r1, sp, #12
 4011              		.loc 1 527 0
 4012 193e C7EE887A 		fdivs	s15, s15, s16
 4013              		.loc 1 529 0
 4014 1942 2046     		mov	r0, r4
 4015              		.loc 1 527 0
 4016 1944 CDED147A 		fsts	s15, [sp, #80]
 4017              		.loc 1 529 0
 4018 1948 FFF7FEFF 		bl	buffer_get_int32
 4019              	.LVL349:
 4020 194c 07EE900A 		fmsr	s15, r0	@ int
 4021 1950 F8EEE77A 		fsitos	s15, s15
 4022              		.loc 1 530 0
 4023 1954 039B     		ldr	r3, [sp, #12]
 4024              		.loc 1 529 0
 4025 1956 C7EE887A 		fdivs	s15, s15, s16
 4026              		.loc 1 530 0
 4027 195a E25C     		ldrb	r2, [r4, r3]	@ zero_extendqisi2
 4028 195c 0032     		adds	r2, r2, #0
 4029 195e 18BF     		it	ne
 4030 1960 0122     		movne	r2, #1
 4031 1962 2B44     		add	r3, r3, r5
 4032              		.loc 1 531 0
 4033 1964 03A9     		add	r1, sp, #12
 4034 1966 2046     		mov	r0, r4
 4035              		.loc 1 530 0
 4036 1968 8DF85820 		strb	r2, [sp, #88]
 4037 196c 0393     		str	r3, [sp, #12]
 4038              		.loc 1 529 0
 4039 196e CDED157A 		fsts	s15, [sp, #84]
 4040              		.loc 1 531 0
 4041 1972 FFF7FEFF 		bl	buffer_get_int32
 4042              	.LVL350:
 4043 1976 07EE900A 		fmsr	s15, r0	@ int
 4044 197a F8EEE77A 		fsitos	s15, s15
 4045              		.loc 1 532 0
 4046 197e 03A9     		add	r1, sp, #12
 4047              		.loc 1 531 0
ARM GAS  /tmp/cc0XcXNK.s 			page 72


 4048 1980 C7EE887A 		fdivs	s15, s15, s16
 4049              		.loc 1 532 0
 4050 1984 2046     		mov	r0, r4
 4051              		.loc 1 531 0
 4052 1986 CDED177A 		fsts	s15, [sp, #92]
 4053              		.loc 1 532 0
 4054 198a FFF7FEFF 		bl	buffer_get_int32
 4055              	.LVL351:
 4056 198e 07EE900A 		fmsr	s15, r0	@ int
 4057 1992 F8EEE77A 		fsitos	s15, s15
 4058              		.loc 1 534 0
 4059 1996 03A9     		add	r1, sp, #12
 4060              		.loc 1 532 0
 4061 1998 C7EE887A 		fdivs	s15, s15, s16
 4062              		.loc 1 534 0
 4063 199c 2046     		mov	r0, r4
 4064              		.loc 1 532 0
 4065 199e CDED187A 		fsts	s15, [sp, #96]
 4066              		.loc 1 534 0
 4067 19a2 FFF7FEFF 		bl	buffer_get_int32
 4068              	.LVL352:
 4069 19a6 07EE900A 		fmsr	s15, r0	@ int
 4070 19aa F8EEE77A 		fsitos	s15, s15
 4071              		.loc 1 535 0
 4072 19ae 039B     		ldr	r3, [sp, #12]
 4073              		.loc 1 534 0
 4074 19b0 C7EE887A 		fdivs	s15, s15, s16
 4075              		.loc 1 535 0
 4076 19b4 E25C     		ldrb	r2, [r4, r3]	@ zero_extendqisi2
 4077 19b6 0032     		adds	r2, r2, #0
 4078 19b8 18BF     		it	ne
 4079 19ba 0122     		movne	r2, #1
 4080 19bc 2B44     		add	r3, r3, r5
 4081              		.loc 1 536 0
 4082 19be 03A9     		add	r1, sp, #12
 4083 19c0 2046     		mov	r0, r4
 4084              		.loc 1 535 0
 4085 19c2 8DF8BC20 		strb	r2, [sp, #188]
 4086 19c6 0393     		str	r3, [sp, #12]
 4087              		.loc 1 534 0
 4088 19c8 CDED2E7A 		fsts	s15, [sp, #184]
 4089              		.loc 1 536 0
 4090 19cc FFF7FEFF 		bl	buffer_get_int32
 4091              	.LVL353:
 4092 19d0 07EE900A 		fmsr	s15, r0	@ int
 4093 19d4 F8EEE77A 		fsitos	s15, s15
 4094              		.loc 1 537 0
 4095 19d8 03A9     		add	r1, sp, #12
 4096              		.loc 1 536 0
 4097 19da C7EE887A 		fdivs	s15, s15, s16
 4098              		.loc 1 537 0
 4099 19de 2046     		mov	r0, r4
 4100              		.loc 1 536 0
 4101 19e0 CDED307A 		fsts	s15, [sp, #192]
 4102              		.loc 1 537 0
 4103 19e4 FFF7FEFF 		bl	buffer_get_int32
 4104              	.LVL354:
ARM GAS  /tmp/cc0XcXNK.s 			page 73


 4105 19e8 07EE900A 		fmsr	s15, r0	@ int
 4106 19ec F8EEE77A 		fsitos	s15, s15
 4107              		.loc 1 539 0
 4108 19f0 039B     		ldr	r3, [sp, #12]
 4109              		.loc 1 537 0
 4110 19f2 C7EE887A 		fdivs	s15, s15, s16
 4111              		.loc 1 539 0
 4112 19f6 E25C     		ldrb	r2, [r4, r3]	@ zero_extendqisi2
 4113 19f8 0032     		adds	r2, r2, #0
 4114 19fa 2B44     		add	r3, r3, r5
 4115 19fc 18BF     		it	ne
 4116 19fe 0122     		movne	r2, #1
 4117              		.loc 1 540 0
 4118 1a00 03A9     		add	r1, sp, #12
 4119 1a02 2046     		mov	r0, r4
 4120              		.loc 1 539 0
 4121 1a04 8DF8D420 		strb	r2, [sp, #212]
 4122 1a08 0393     		str	r3, [sp, #12]
 4123              		.loc 1 537 0
 4124 1a0a CDED317A 		fsts	s15, [sp, #196]
 4125              		.loc 1 540 0
 4126 1a0e FFF7FEFF 		bl	buffer_get_int32
 4127              	.LVL355:
 4128 1a12 07EE900A 		fmsr	s15, r0	@ int
 4129 1a16 F8EEE77A 		fsitos	s15, s15
 4130              		.loc 1 541 0
 4131 1a1a 03A9     		add	r1, sp, #12
 4132              		.loc 1 540 0
 4133 1a1c C7EE887A 		fdivs	s15, s15, s16
 4134              		.loc 1 541 0
 4135 1a20 2046     		mov	r0, r4
 4136              		.loc 1 540 0
 4137 1a22 CDED367A 		fsts	s15, [sp, #216]
 4138              		.loc 1 541 0
 4139 1a26 FFF7FEFF 		bl	buffer_get_int32
 4140              	.LVL356:
 4141 1a2a 07EE900A 		fmsr	s15, r0	@ int
 4142 1a2e F8EEE77A 		fsitos	s15, s15
 4143              		.loc 1 542 0
 4144 1a32 03A9     		add	r1, sp, #12
 4145              		.loc 1 541 0
 4146 1a34 C7EE887A 		fdivs	s15, s15, s16
 4147              		.loc 1 542 0
 4148 1a38 2046     		mov	r0, r4
 4149              		.loc 1 541 0
 4150 1a3a CDED377A 		fsts	s15, [sp, #220]
 4151              		.loc 1 542 0
 4152 1a3e FFF7FEFF 		bl	buffer_get_int32
 4153              	.LVL357:
 4154 1a42 07EE900A 		fmsr	s15, r0	@ int
 4155 1a46 F8EEE77A 		fsitos	s15, s15
 4156              		.loc 1 543 0
 4157 1a4a 03A9     		add	r1, sp, #12
 4158              		.loc 1 542 0
 4159 1a4c C7EE887A 		fdivs	s15, s15, s16
 4160              		.loc 1 543 0
 4161 1a50 2046     		mov	r0, r4
ARM GAS  /tmp/cc0XcXNK.s 			page 74


 4162              		.loc 1 542 0
 4163 1a52 CDED387A 		fsts	s15, [sp, #224]
 4164              		.loc 1 543 0
 4165 1a56 FFF7FEFF 		bl	buffer_get_int32
 4166              	.LVL358:
 4167 1a5a 07EE900A 		fmsr	s15, r0	@ int
 4168 1a5e F8EEE77A 		fsitos	s15, s15
 4169              		.loc 1 544 0
 4170 1a62 03A9     		add	r1, sp, #12
 4171              		.loc 1 543 0
 4172 1a64 C7EE887A 		fdivs	s15, s15, s16
 4173              		.loc 1 544 0
 4174 1a68 2046     		mov	r0, r4
 4175              		.loc 1 543 0
 4176 1a6a CDED397A 		fsts	s15, [sp, #228]
 4177              		.loc 1 544 0
 4178 1a6e FFF7FEFF 		bl	buffer_get_int32
 4179              	.LVL359:
 4180 1a72 07EE900A 		fmsr	s15, r0	@ int
 4181 1a76 F8EEE77A 		fsitos	s15, s15
 4182              		.loc 1 545 0
 4183 1a7a 03A9     		add	r1, sp, #12
 4184              		.loc 1 544 0
 4185 1a7c C7EE887A 		fdivs	s15, s15, s16
 4186              		.loc 1 545 0
 4187 1a80 2046     		mov	r0, r4
 4188              		.loc 1 544 0
 4189 1a82 CDED3A7A 		fsts	s15, [sp, #232]
 4190              		.loc 1 545 0
 4191 1a86 FFF7FEFF 		bl	buffer_get_int32
 4192              	.LVL360:
 4193 1a8a 07EE900A 		fmsr	s15, r0	@ int
 4194 1a8e F8EEE77A 		fsitos	s15, s15
 4195              		.loc 1 546 0
 4196 1a92 03A9     		add	r1, sp, #12
 4197              		.loc 1 545 0
 4198 1a94 C7EE887A 		fdivs	s15, s15, s16
 4199              		.loc 1 546 0
 4200 1a98 2046     		mov	r0, r4
 4201              		.loc 1 545 0
 4202 1a9a CDED3B7A 		fsts	s15, [sp, #236]
 4203              		.loc 1 546 0
 4204 1a9e FFF7FEFF 		bl	buffer_get_int32
 4205              	.LVL361:
 4206 1aa2 07EE900A 		fmsr	s15, r0	@ int
 4207 1aa6 F8EEE77A 		fsitos	s15, s15
 4208              		.loc 1 547 0
 4209 1aaa 03A9     		add	r1, sp, #12
 4210              		.loc 1 546 0
 4211 1aac C7EEA87A 		fdivs	s15, s15, s17
 4212              		.loc 1 547 0
 4213 1ab0 2046     		mov	r0, r4
 4214              		.loc 1 546 0
 4215 1ab2 CDED3C7A 		fsts	s15, [sp, #240]
 4216              		.loc 1 547 0
 4217 1ab6 FFF7FEFF 		bl	buffer_get_int32
 4218              	.LVL362:
ARM GAS  /tmp/cc0XcXNK.s 			page 75


 4219 1aba 07EE900A 		fmsr	s15, r0	@ int
 4220 1abe F8EEE77A 		fsitos	s15, s15
 4221              		.loc 1 548 0
 4222 1ac2 03A9     		add	r1, sp, #12
 4223              		.loc 1 547 0
 4224 1ac4 C7EE887A 		fdivs	s15, s15, s16
 4225              		.loc 1 548 0
 4226 1ac8 2046     		mov	r0, r4
 4227              		.loc 1 547 0
 4228 1aca CDED3D7A 		fsts	s15, [sp, #244]
 4229              		.loc 1 548 0
 4230 1ace FFF7FEFF 		bl	buffer_get_int32
 4231              	.LVL363:
 4232 1ad2 07EE900A 		fmsr	s15, r0	@ int
 4233 1ad6 F8EEE77A 		fsitos	s15, s15
 4234              		.loc 1 549 0
 4235 1ada 03A9     		add	r1, sp, #12
 4236              		.loc 1 548 0
 4237 1adc C7EE887A 		fdivs	s15, s15, s16
 4238              		.loc 1 549 0
 4239 1ae0 2046     		mov	r0, r4
 4240              		.loc 1 548 0
 4241 1ae2 CDED3E7A 		fsts	s15, [sp, #248]
 4242              		.loc 1 549 0
 4243 1ae6 FFF7FEFF 		bl	buffer_get_int32
 4244              	.LVL364:
 4245 1aea 07EE900A 		fmsr	s15, r0	@ int
 4246 1aee F8EEE77A 		fsitos	s15, s15
 4247              		.loc 1 550 0
 4248 1af2 03A9     		add	r1, sp, #12
 4249              		.loc 1 549 0
 4250 1af4 C7EE887A 		fdivs	s15, s15, s16
 4251              		.loc 1 550 0
 4252 1af8 2046     		mov	r0, r4
 4253              		.loc 1 549 0
 4254 1afa CDED3F7A 		fsts	s15, [sp, #252]
 4255              		.loc 1 550 0
 4256 1afe FFF7FEFF 		bl	buffer_get_int32
 4257              	.LVL365:
 4258 1b02 07EE900A 		fmsr	s15, r0	@ int
 4259 1b06 F8EEE77A 		fsitos	s15, s15
 4260              		.loc 1 551 0
 4261 1b0a 03A9     		add	r1, sp, #12
 4262              		.loc 1 550 0
 4263 1b0c C7EE887A 		fdivs	s15, s15, s16
 4264              		.loc 1 551 0
 4265 1b10 2046     		mov	r0, r4
 4266              		.loc 1 550 0
 4267 1b12 CDED407A 		fsts	s15, [sp, #256]
 4268              		.loc 1 551 0
 4269 1b16 FFF7FEFF 		bl	buffer_get_int32
 4270              	.LVL366:
 4271 1b1a 07EE900A 		fmsr	s15, r0	@ int
 4272 1b1e F8EEE77A 		fsitos	s15, s15
 4273              		.loc 1 552 0
 4274 1b22 03A9     		add	r1, sp, #12
 4275              		.loc 1 551 0
ARM GAS  /tmp/cc0XcXNK.s 			page 76


 4276 1b24 C7EE887A 		fdivs	s15, s15, s16
 4277              		.loc 1 552 0
 4278 1b28 2046     		mov	r0, r4
 4279              		.loc 1 551 0
 4280 1b2a CDED417A 		fsts	s15, [sp, #260]
 4281              		.loc 1 552 0
 4282 1b2e FFF7FEFF 		bl	buffer_get_int32
 4283              	.LVL367:
 4284 1b32 07EE900A 		fmsr	s15, r0	@ int
 4285 1b36 F8EEE77A 		fsitos	s15, s15
 4286              		.loc 1 553 0
 4287 1b3a 03A9     		add	r1, sp, #12
 4288              		.loc 1 552 0
 4289 1b3c 87EE888A 		fdivs	s16, s15, s16
 4290              		.loc 1 553 0
 4291 1b40 2046     		mov	r0, r4
 4292              		.loc 1 552 0
 4293 1b42 8DED428A 		fsts	s16, [sp, #264]
 4294              		.loc 1 553 0
 4295 1b46 FFF7FEFF 		bl	buffer_get_int32
 4296              	.LVL368:
 4297 1b4a 07EE900A 		fmsr	s15, r0	@ int
 4298 1b4e F8EEE77A 		fsitos	s15, s15
 4299              		.loc 1 556 0
 4300 1b52 04A8     		add	r0, sp, #16
 4301              		.loc 1 553 0
 4302 1b54 C7EEA87A 		fdivs	s15, s15, s17
 4303 1b58 CDED437A 		fsts	s15, [sp, #268]
 4304              		.loc 1 556 0
 4305 1b5c FFF7FEFF 		bl	conf_general_store_app_configuration
 4306              	.LVL369:
 4307              		.loc 1 557 0
 4308 1b60 04A8     		add	r0, sp, #16
 4309 1b62 FFF7FEFF 		bl	app_set_configuration
 4310              	.LVL370:
 4311              		.loc 1 558 0
 4312 1b66 0598     		ldr	r0, [sp, #20]
 4313 1b68 9DED060A 		flds	s0, [sp, #24]
 4314 1b6c FFF7FEFF 		bl	timeout_configure
 4315              	.LVL371:
 4316              	.LBB143:
 4317              	.LBB144:
 4318              		.loc 1 97 0
 4319 1b70 D74B     		ldr	r3, .L233
 4320              	.LBE144:
 4321              	.LBE143:
 4322              		.loc 1 561 0
 4323 1b72 D848     		ldr	r0, .L233+4
 4324              	.LBB147:
 4325              	.LBB145:
 4326              		.loc 1 97 0
 4327 1b74 1B68     		ldr	r3, [r3]
 4328              	.LBE145:
 4329              	.LBE147:
 4330              		.loc 1 561 0
 4331 1b76 0395     		str	r5, [sp, #12]
 4332 1b78 0F22     		movs	r2, #15
ARM GAS  /tmp/cc0XcXNK.s 			page 77


 4333 1b7a 0270     		strb	r2, [r0]
 4334              	.LVL372:
 4335              	.LBB148:
 4336              	.LBB146:
 4337              		.loc 1 97 0
 4338 1b7c 002B     		cmp	r3, #0
 4339 1b7e 3EF46EAD 		beq	.L24
 4340              		.loc 1 98 0
 4341 1b82 2946     		mov	r1, r5
 4342 1b84 9847     		blx	r3
 4343              	.LVL373:
 4344 1b86 FEF76ABD 		b	.L24
 4345              	.LVL374:
 4346              	.L37:
 4347              	.LBE146:
 4348              	.LBE148:
 4349              		.loc 1 219 0
 4350 1b8a 03A9     		add	r1, sp, #12
 4351 1b8c 2046     		mov	r0, r4
 4352 1b8e FFF7FEFF 		bl	buffer_get_int32
 4353              	.LVL375:
 4354 1b92 07EE100A 		fmsr	s14, r0	@ int
 4355 1b96 DFEDD07A 		flds	s15, .L233+8
 4356 1b9a B8EEC70A 		fsitos	s0, s14
 4357 1b9e 80EE270A 		fdivs	s0, s0, s15
 4358 1ba2 FFF7FEFF 		bl	mc_interface_set_pid_pos
 4359              	.LVL376:
 4360              		.loc 1 220 0
 4361 1ba6 FFF7FEFF 		bl	timeout_reset
 4362              	.LVL377:
 4363              		.loc 1 221 0
 4364 1baa FEF758BD 		b	.L24
 4365              	.L36:
 4366              		.loc 1 213 0
 4367 1bae 03A9     		add	r1, sp, #12
 4368 1bb0 2046     		mov	r0, r4
 4369 1bb2 FFF7FEFF 		bl	buffer_get_int32
 4370              	.LVL378:
 4371 1bb6 07EE900A 		fmsr	s15, r0	@ int
 4372 1bba B8EEE70A 		fsitos	s0, s15
 4373 1bbe FFF7FEFF 		bl	mc_interface_set_pid_speed
 4374              	.LVL379:
 4375              		.loc 1 214 0
 4376 1bc2 FFF7FEFF 		bl	timeout_reset
 4377              	.LVL380:
 4378              		.loc 1 215 0
 4379 1bc6 FEF74ABD 		b	.L24
 4380              	.L35:
 4381              		.loc 1 207 0
 4382 1bca 03A9     		add	r1, sp, #12
 4383 1bcc 2046     		mov	r0, r4
 4384 1bce FFF7FEFF 		bl	buffer_get_int32
 4385              	.LVL381:
 4386 1bd2 07EE100A 		fmsr	s14, r0	@ int
 4387 1bd6 DFEDC17A 		flds	s15, .L233+12
 4388 1bda B8EEC70A 		fsitos	s0, s14
 4389 1bde 80EE270A 		fdivs	s0, s0, s15
ARM GAS  /tmp/cc0XcXNK.s 			page 78


 4390 1be2 FFF7FEFF 		bl	mc_interface_set_brake_current
 4391              	.LVL382:
 4392              		.loc 1 208 0
 4393 1be6 FFF7FEFF 		bl	timeout_reset
 4394              	.LVL383:
 4395              		.loc 1 209 0
 4396 1bea FEF738BD 		b	.L24
 4397              	.L34:
 4398              		.loc 1 201 0
 4399 1bee 03A9     		add	r1, sp, #12
 4400 1bf0 2046     		mov	r0, r4
 4401 1bf2 FFF7FEFF 		bl	buffer_get_int32
 4402              	.LVL384:
 4403 1bf6 07EE100A 		fmsr	s14, r0	@ int
 4404 1bfa DFEDB87A 		flds	s15, .L233+12
 4405 1bfe B8EEC70A 		fsitos	s0, s14
 4406 1c02 80EE270A 		fdivs	s0, s0, s15
 4407 1c06 FFF7FEFF 		bl	mc_interface_set_current
 4408              	.LVL385:
 4409              		.loc 1 202 0
 4410 1c0a FFF7FEFF 		bl	timeout_reset
 4411              	.LVL386:
 4412              		.loc 1 203 0
 4413 1c0e FEF726BD 		b	.L24
 4414              	.L33:
 4415              		.loc 1 195 0
 4416 1c12 03A9     		add	r1, sp, #12
 4417 1c14 2046     		mov	r0, r4
 4418 1c16 FFF7FEFF 		bl	buffer_get_int32
 4419              	.LVL387:
 4420 1c1a 07EE100A 		fmsr	s14, r0	@ int
 4421 1c1e DFEDB07A 		flds	s15, .L233+16
 4422 1c22 B8EEC70A 		fsitos	s0, s14
 4423 1c26 80EE270A 		fdivs	s0, s0, s15
 4424 1c2a FFF7FEFF 		bl	mc_interface_set_duty
 4425              	.LVL388:
 4426              		.loc 1 196 0
 4427 1c2e FFF7FEFF 		bl	timeout_reset
 4428              	.LVL389:
 4429              		.loc 1 197 0
 4430 1c32 FEF714BD 		b	.L24
 4431              	.L32:
 4432              		.loc 1 170 0
 4433 1c36 AB4D     		ldr	r5, .L233+20
 4434 1c38 9FEDAB9A 		flds	s18, .L233+24
 4435 1c3c 6B89     		ldrh	r3, [r5, #10]
 4436 1c3e 9FEDAB8A 		flds	s16, .L233+28
 4437              		.loc 1 169 0
 4438 1c42 A44C     		ldr	r4, .L233+4
 4439              	.LVL390:
 4440              		.loc 1 170 0
 4441 1c44 DFEDAA8A 		flds	s17, .L233+32
 4442 1c48 DFEDAAAA 		flds	s21, .L233+36
 4443 1c4c 9FEDAAAA 		flds	s20, .L233+40
 4444 1c50 9BB2     		uxth	r3, r3
 4445 1c52 07EE903A 		fmsr	s15, r3	@ int
 4446 1c56 B8EEE70A 		fsitos	s0, s15
ARM GAS  /tmp/cc0XcXNK.s 			page 79


 4447              		.loc 1 169 0
 4448 1c5a 0422     		movs	r2, #4
 4449              		.loc 1 170 0
 4450 1c5c 89EE000A 		fdivs	s0, s18, s0
 4451              		.loc 1 169 0
 4452 1c60 0123     		movs	r3, #1
 4453 1c62 2270     		strb	r2, [r4]
 4454 1c64 0393     		str	r3, [sp, #12]
 4455              		.loc 1 170 0
 4456 1c66 F7EE009A 		fconsts	s19, #112
 4457 1c6a 30EE480A 		fsubs	s0, s0, s16
 4458 1c6e 80EE080A 		fdivs	s0, s0, s16
 4459 1c72 FFF7FEFF 		bl	logf
 4460              	.LVL391:
 4461 1c76 2046     		mov	r0, r4
 4462 1c78 03A9     		add	r1, sp, #12
 4463 1c7a 80EE280A 		fdivs	s0, s0, s17
 4464 1c7e F2EE040A 		fconsts	s1, #36
 4465 1c82 30EE2A0A 		fadds	s0, s0, s21
 4466 1c86 89EE800A 		fdivs	s0, s19, s0
 4467 1c8a 30EE4A0A 		fsubs	s0, s0, s20
 4468 1c8e FFF7FEFF 		bl	buffer_append_float16
 4469              	.LVL392:
 4470              		.loc 1 171 0
 4471 1c92 6B89     		ldrh	r3, [r5, #10]
 4472 1c94 9BB2     		uxth	r3, r3
 4473 1c96 07EE903A 		fmsr	s15, r3	@ int
 4474 1c9a B8EEE70A 		fsitos	s0, s15
 4475 1c9e 89EE000A 		fdivs	s0, s18, s0
 4476 1ca2 30EE480A 		fsubs	s0, s0, s16
 4477 1ca6 80EE080A 		fdivs	s0, s0, s16
 4478 1caa FFF7FEFF 		bl	logf
 4479              	.LVL393:
 4480 1cae 2046     		mov	r0, r4
 4481 1cb0 03A9     		add	r1, sp, #12
 4482 1cb2 80EE280A 		fdivs	s0, s0, s17
 4483 1cb6 F2EE040A 		fconsts	s1, #36
 4484 1cba 30EE2A0A 		fadds	s0, s0, s21
 4485 1cbe 89EE800A 		fdivs	s0, s19, s0
 4486 1cc2 30EE4A0A 		fsubs	s0, s0, s20
 4487 1cc6 FFF7FEFF 		bl	buffer_append_float16
 4488              	.LVL394:
 4489              		.loc 1 172 0
 4490 1cca 6B89     		ldrh	r3, [r5, #10]
 4491 1ccc 9BB2     		uxth	r3, r3
 4492 1cce 07EE903A 		fmsr	s15, r3	@ int
 4493 1cd2 B8EEE70A 		fsitos	s0, s15
 4494 1cd6 89EE000A 		fdivs	s0, s18, s0
 4495 1cda 30EE480A 		fsubs	s0, s0, s16
 4496 1cde 80EE080A 		fdivs	s0, s0, s16
 4497 1ce2 FFF7FEFF 		bl	logf
 4498              	.LVL395:
 4499 1ce6 2046     		mov	r0, r4
 4500 1ce8 03A9     		add	r1, sp, #12
 4501 1cea 80EE280A 		fdivs	s0, s0, s17
 4502 1cee F2EE040A 		fconsts	s1, #36
 4503 1cf2 30EE2A0A 		fadds	s0, s0, s21
ARM GAS  /tmp/cc0XcXNK.s 			page 80


 4504 1cf6 89EE800A 		fdivs	s0, s19, s0
 4505 1cfa 30EE4A0A 		fsubs	s0, s0, s20
 4506 1cfe FFF7FEFF 		bl	buffer_append_float16
 4507              	.LVL396:
 4508              		.loc 1 173 0
 4509 1d02 6B89     		ldrh	r3, [r5, #10]
 4510 1d04 9BB2     		uxth	r3, r3
 4511 1d06 07EE903A 		fmsr	s15, r3	@ int
 4512 1d0a B8EEE70A 		fsitos	s0, s15
 4513 1d0e 89EE000A 		fdivs	s0, s18, s0
 4514 1d12 30EE480A 		fsubs	s0, s0, s16
 4515 1d16 80EE080A 		fdivs	s0, s0, s16
 4516 1d1a FFF7FEFF 		bl	logf
 4517              	.LVL397:
 4518 1d1e 2046     		mov	r0, r4
 4519 1d20 03A9     		add	r1, sp, #12
 4520 1d22 80EE280A 		fdivs	s0, s0, s17
 4521 1d26 F2EE040A 		fconsts	s1, #36
 4522 1d2a 30EE2A0A 		fadds	s0, s0, s21
 4523 1d2e 89EE800A 		fdivs	s0, s19, s0
 4524 1d32 30EE4A0A 		fsubs	s0, s0, s20
 4525 1d36 FFF7FEFF 		bl	buffer_append_float16
 4526              	.LVL398:
 4527              		.loc 1 174 0
 4528 1d3a 6B89     		ldrh	r3, [r5, #10]
 4529 1d3c 9BB2     		uxth	r3, r3
 4530 1d3e 07EE903A 		fmsr	s15, r3	@ int
 4531 1d42 B8EEE70A 		fsitos	s0, s15
 4532 1d46 89EE000A 		fdivs	s0, s18, s0
 4533 1d4a 30EE480A 		fsubs	s0, s0, s16
 4534 1d4e 80EE080A 		fdivs	s0, s0, s16
 4535 1d52 FFF7FEFF 		bl	logf
 4536              	.LVL399:
 4537 1d56 2046     		mov	r0, r4
 4538 1d58 03A9     		add	r1, sp, #12
 4539 1d5a 80EE280A 		fdivs	s0, s0, s17
 4540 1d5e F2EE040A 		fconsts	s1, #36
 4541 1d62 30EE2A0A 		fadds	s0, s0, s21
 4542 1d66 89EE800A 		fdivs	s0, s19, s0
 4543 1d6a 30EE4A0A 		fsubs	s0, s0, s20
 4544 1d6e FFF7FEFF 		bl	buffer_append_float16
 4545              	.LVL400:
 4546              		.loc 1 175 0
 4547 1d72 6B89     		ldrh	r3, [r5, #10]
 4548 1d74 9BB2     		uxth	r3, r3
 4549 1d76 07EE903A 		fmsr	s15, r3	@ int
 4550 1d7a B8EEE70A 		fsitos	s0, s15
 4551 1d7e 89EE000A 		fdivs	s0, s18, s0
 4552 1d82 30EE480A 		fsubs	s0, s0, s16
 4553 1d86 80EE080A 		fdivs	s0, s0, s16
 4554 1d8a FFF7FEFF 		bl	logf
 4555              	.LVL401:
 4556 1d8e 2046     		mov	r0, r4
 4557 1d90 03A9     		add	r1, sp, #12
 4558 1d92 80EE280A 		fdivs	s0, s0, s17
 4559 1d96 F2EE040A 		fconsts	s1, #36
 4560 1d9a 30EE2A0A 		fadds	s0, s0, s21
ARM GAS  /tmp/cc0XcXNK.s 			page 81


 4561 1d9e 89EE800A 		fdivs	s0, s19, s0
 4562 1da2 30EE4A0A 		fsubs	s0, s0, s20
 4563 1da6 FFF7FEFF 		bl	buffer_append_float16
 4564              	.LVL402:
 4565              		.loc 1 176 0
 4566 1daa 6B89     		ldrh	r3, [r5, #10]
 4567 1dac 9BB2     		uxth	r3, r3
 4568 1dae 07EE903A 		fmsr	s15, r3	@ int
 4569 1db2 B8EEE70A 		fsitos	s0, s15
 4570 1db6 89EE000A 		fdivs	s0, s18, s0
 4571 1dba 30EE480A 		fsubs	s0, s0, s16
 4572 1dbe 80EE080A 		fdivs	s0, s0, s16
 4573 1dc2 FFF7FEFF 		bl	logf
 4574              	.LVL403:
 4575 1dc6 2046     		mov	r0, r4
 4576 1dc8 03A9     		add	r1, sp, #12
 4577 1dca 80EE280A 		fdivs	s0, s0, s17
 4578 1dce F2EE040A 		fconsts	s1, #36
 4579 1dd2 30EE2A0A 		fadds	s0, s0, s21
 4580 1dd6 89EE800A 		fdivs	s0, s19, s0
 4581 1dda 30EE4A0A 		fsubs	s0, s0, s20
 4582 1dde FFF7FEFF 		bl	buffer_append_float16
 4583              	.LVL404:
 4584              		.loc 1 177 0
 4585 1de2 FFF7FEFF 		bl	mc_interface_read_reset_avg_motor_current
 4586              	.LVL405:
 4587 1de6 2046     		mov	r0, r4
 4588 1de8 DFED440A 		flds	s1, .L233+44
 4589 1dec 03A9     		add	r1, sp, #12
 4590 1dee FFF7FEFF 		bl	buffer_append_float32
 4591              	.LVL406:
 4592              		.loc 1 178 0
 4593 1df2 FFF7FEFF 		bl	mc_interface_read_reset_avg_input_current
 4594              	.LVL407:
 4595 1df6 2046     		mov	r0, r4
 4596 1df8 DFED400A 		flds	s1, .L233+44
 4597 1dfc 03A9     		add	r1, sp, #12
 4598 1dfe FFF7FEFF 		bl	buffer_append_float32
 4599              	.LVL408:
 4600              		.loc 1 179 0
 4601 1e02 FFF7FEFF 		bl	mc_interface_get_duty_cycle_now
 4602              	.LVL409:
 4603 1e06 2046     		mov	r0, r4
 4604 1e08 DFED340A 		flds	s1, .L233+12
 4605 1e0c 03A9     		add	r1, sp, #12
 4606 1e0e FFF7FEFF 		bl	buffer_append_float16
 4607              	.LVL410:
 4608              		.loc 1 180 0
 4609 1e12 FFF7FEFF 		bl	mc_interface_get_rpm
 4610              	.LVL411:
 4611 1e16 2046     		mov	r0, r4
 4612 1e18 F0EE690A 		fcpys	s1, s19
 4613 1e1c 03A9     		add	r1, sp, #12
 4614 1e1e FFF7FEFF 		bl	buffer_append_float32
 4615              	.LVL412:
 4616              		.loc 1 181 0
 4617 1e22 2B8A     		ldrh	r3, [r5, #16]
ARM GAS  /tmp/cc0XcXNK.s 			page 82


 4618 1e24 9FED367A 		flds	s14, .L233+48
 4619 1e28 9FED360A 		flds	s0, .L233+52
 4620 1e2c 9BB2     		uxth	r3, r3
 4621 1e2e 07EE903A 		fmsr	s15, r3	@ int
 4622 1e32 F8EE677A 		fuitos	s15, s15
 4623 1e36 F2EE040A 		fconsts	s1, #36
 4624 1e3a 67EE877A 		fmuls	s15, s15, s14
 4625 1e3e 03A9     		add	r1, sp, #12
 4626 1e40 27EE800A 		fmuls	s0, s15, s0
 4627 1e44 2046     		mov	r0, r4
 4628 1e46 FFF7FEFF 		bl	buffer_append_float16
 4629              	.LVL413:
 4630              		.loc 1 182 0
 4631 1e4a 0020     		movs	r0, #0
 4632 1e4c FFF7FEFF 		bl	mc_interface_get_amp_hours
 4633              	.LVL414:
 4634 1e50 F0EE480A 		fcpys	s1, s16
 4635 1e54 03A9     		add	r1, sp, #12
 4636 1e56 2046     		mov	r0, r4
 4637 1e58 FFF7FEFF 		bl	buffer_append_float32
 4638              	.LVL415:
 4639              		.loc 1 183 0
 4640 1e5c 0020     		movs	r0, #0
 4641 1e5e FFF7FEFF 		bl	mc_interface_get_amp_hours_charged
 4642              	.LVL416:
 4643 1e62 F0EE480A 		fcpys	s1, s16
 4644 1e66 03A9     		add	r1, sp, #12
 4645 1e68 2046     		mov	r0, r4
 4646 1e6a FFF7FEFF 		bl	buffer_append_float32
 4647              	.LVL417:
 4648              		.loc 1 184 0
 4649 1e6e 0020     		movs	r0, #0
 4650 1e70 FFF7FEFF 		bl	mc_interface_get_watt_hours
 4651              	.LVL418:
 4652 1e74 F0EE480A 		fcpys	s1, s16
 4653 1e78 03A9     		add	r1, sp, #12
 4654 1e7a 2046     		mov	r0, r4
 4655 1e7c FFF7FEFF 		bl	buffer_append_float32
 4656              	.LVL419:
 4657              		.loc 1 185 0
 4658 1e80 0020     		movs	r0, #0
 4659 1e82 FFF7FEFF 		bl	mc_interface_get_watt_hours_charged
 4660              	.LVL420:
 4661 1e86 F0EE480A 		fcpys	s1, s16
 4662 1e8a 03A9     		add	r1, sp, #12
 4663 1e8c 2046     		mov	r0, r4
 4664 1e8e FFF7FEFF 		bl	buffer_append_float32
 4665              	.LVL421:
 4666              		.loc 1 186 0
 4667 1e92 0020     		movs	r0, #0
 4668 1e94 FFF7FEFF 		bl	mc_interface_get_tachometer_value
 4669              	.LVL422:
 4670 1e98 03AA     		add	r2, sp, #12
 4671 1e9a 0146     		mov	r1, r0
 4672 1e9c 2046     		mov	r0, r4
 4673 1e9e FFF7FEFF 		bl	buffer_append_int32
 4674              	.LVL423:
ARM GAS  /tmp/cc0XcXNK.s 			page 83


 4675              		.loc 1 187 0
 4676 1ea2 0020     		movs	r0, #0
 4677 1ea4 FFF7FEFF 		bl	mc_interface_get_tachometer_abs_value
 4678              	.LVL424:
 4679 1ea8 03AA     		add	r2, sp, #12
 4680 1eaa 0146     		mov	r1, r0
 4681 1eac 2046     		mov	r0, r4
 4682 1eae FFF7FEFF 		bl	buffer_append_int32
 4683              	.LVL425:
 4684              		.loc 1 188 0
 4685 1eb2 039D     		ldr	r5, [sp, #12]
 4686 1eb4 6B1C     		adds	r3, r5, #1
 4687 1eb6 0393     		str	r3, [sp, #12]
 4688 1eb8 FFF7FEFF 		bl	mc_interface_get_fault
 4689              	.LVL426:
 4690              	.LBB149:
 4691              	.LBB150:
 4692              		.loc 1 97 0
 4693 1ebc 044B     		ldr	r3, .L233
 4694              	.LBE150:
 4695              	.LBE149:
 4696              		.loc 1 188 0
 4697 1ebe 6055     		strb	r0, [r4, r5]
 4698              	.LBB153:
 4699              	.LBB151:
 4700              		.loc 1 97 0
 4701 1ec0 1B68     		ldr	r3, [r3]
 4702              	.LBE151:
 4703              	.LBE153:
 4704              		.loc 1 190 0
 4705 1ec2 0399     		ldr	r1, [sp, #12]
 4706              	.LVL427:
 4707              	.LBB154:
 4708              	.LBB152:
 4709              		.loc 1 97 0
 4710 1ec4 002B     		cmp	r3, #0
 4711 1ec6 7EF410AC 		bne	.L204
 4712 1eca FEF7C8BB 		b	.L24
 4713              	.L234:
 4714 1ece 00BF     		.align	2
 4715              	.L233:
 4716 1ed0 00000000 		.word	.LANCHOR9
 4717 1ed4 00000000 		.word	.LANCHOR8
 4718 1ed8 00247449 		.word	1232348160
 4719 1edc 00007A44 		.word	1148846080
 4720 1ee0 0050C347 		.word	1203982336
 4721 1ee4 00000000 		.word	ADC_Value
 4722 1ee8 3C361C4C 		.word	1276917308
 4723 1eec 00401C46 		.word	1176256512
 4724 1ef0 00A05645 		.word	1163304960
 4725 1ef4 0FCF5B3B 		.word	995872527
 4726 1ef8 33938843 		.word	1133024051
 4727 1efc 0000C842 		.word	1120403456
 4728 1f00 6740533A 		.word	978534503
 4729 1f04 74D19541 		.word	1100337524
 4730              	.LVL428:
 4731              	.L31:
ARM GAS  /tmp/cc0XcXNK.s 			page 84


 4732              	.LBE152:
 4733              	.LBE154:
 4734              		.loc 1 158 0
 4735 1f08 2046     		mov	r0, r4
 4736 1f0a 03A9     		add	r1, sp, #12
 4737 1f0c FFF7FEFF 		bl	buffer_get_uint32
 4738              	.LVL429:
 4739              		.loc 1 159 0
 4740 1f10 039A     		ldr	r2, [sp, #12]
 4741 1f12 A118     		adds	r1, r4, r2
 4742 1f14 C2EB0802 		rsb	r2, r2, r8
 4743 1f18 FFF7FEFF 		bl	flash_helper_write_new_app_data
 4744              	.LVL430:
 4745              	.LBB155:
 4746              	.LBB156:
 4747              		.loc 1 97 0
 4748 1f1c 744A     		ldr	r2, .L235
 4749              	.LBE156:
 4750              	.LBE155:
 4751              		.loc 1 162 0
 4752 1f1e 754B     		ldr	r3, .L235+4
 4753              	.LBB159:
 4754              	.LBB157:
 4755              		.loc 1 97 0
 4756 1f20 1268     		ldr	r2, [r2]
 4757              	.LBE157:
 4758              	.LBE159:
 4759              		.loc 1 163 0
 4760 1f22 A0F10900 		sub	r0, #9
 4761              	.LVL431:
 4762              		.loc 1 162 0
 4763 1f26 0324     		movs	r4, #3
 4764              	.LVL432:
 4765              		.loc 1 163 0
 4766 1f28 B0FA80F0 		clz	r0, r0
 4767 1f2c 0221     		movs	r1, #2
 4768 1f2e 4009     		lsrs	r0, r0, #5
 4769 1f30 5870     		strb	r0, [r3, #1]
 4770              	.LVL433:
 4771              		.loc 1 162 0
 4772 1f32 1C70     		strb	r4, [r3]
 4773              		.loc 1 163 0
 4774 1f34 0391     		str	r1, [sp, #12]
 4775              	.LBB160:
 4776              	.LBB158:
 4777              		.loc 1 97 0
 4778 1f36 002A     		cmp	r2, #0
 4779 1f38 3EF491AB 		beq	.L24
 4780              	.LVL434:
 4781              	.L201:
 4782              		.loc 1 98 0
 4783 1f3c 1846     		mov	r0, r3
 4784 1f3e 9047     		blx	r2
 4785              	.LVL435:
 4786 1f40 FEF78DBB 		b	.L24
 4787              	.LVL436:
 4788              	.L30:
ARM GAS  /tmp/cc0XcXNK.s 			page 85


 4789              	.LBE158:
 4790              	.LBE160:
 4791              		.loc 1 148 0
 4792 1f44 03A9     		add	r1, sp, #12
 4793 1f46 2046     		mov	r0, r4
 4794 1f48 FFF7FEFF 		bl	buffer_get_uint32
 4795              	.LVL437:
 4796 1f4c FFF7FEFF 		bl	flash_helper_erase_new_app
 4797              	.LVL438:
 4798              	.LBB161:
 4799              	.LBB162:
 4800              		.loc 1 97 0
 4801 1f50 674A     		ldr	r2, .L235
 4802              	.LBE162:
 4803              	.LBE161:
 4804              		.loc 1 151 0
 4805 1f52 684B     		ldr	r3, .L235+4
 4806              	.LBB165:
 4807              	.LBB163:
 4808              		.loc 1 97 0
 4809 1f54 1268     		ldr	r2, [r2]
 4810              	.LBE163:
 4811              	.LBE165:
 4812              		.loc 1 151 0
 4813 1f56 0221     		movs	r1, #2
 4814              		.loc 1 152 0
 4815 1f58 A0F10900 		sub	r0, #9
 4816              	.LVL439:
 4817 1f5c B0FA80F0 		clz	r0, r0
 4818 1f60 4009     		lsrs	r0, r0, #5
 4819 1f62 5870     		strb	r0, [r3, #1]
 4820              	.LVL440:
 4821              		.loc 1 151 0
 4822 1f64 1970     		strb	r1, [r3]
 4823              		.loc 1 152 0
 4824 1f66 0391     		str	r1, [sp, #12]
 4825              	.LBB166:
 4826              	.LBB164:
 4827              		.loc 1 97 0
 4828 1f68 002A     		cmp	r2, #0
 4829 1f6a E7D1     		bne	.L201
 4830 1f6c FEF777BB 		b	.L24
 4831              	.LVL441:
 4832              	.L29:
 4833              	.LBE164:
 4834              	.LBE166:
 4835              		.loc 1 143 0
 4836 1f70 FFF7FEFF 		bl	flash_helper_jump_to_bootloader
 4837              	.LVL442:
 4838              		.loc 1 144 0
 4839 1f74 FEF773BB 		b	.L24
 4840              	.L27:
 4841              	.LBB167:
 4842              	.LBB168:
 4843              		.loc 1 97 0
 4844 1f78 5D4B     		ldr	r3, .L235
 4845              	.LBE168:
ARM GAS  /tmp/cc0XcXNK.s 			page 86


 4846              	.LBE167:
 4847              		.loc 1 136 0
 4848 1f7a 5E48     		ldr	r0, .L235+4
 4849              	.LBB171:
 4850              	.LBB169:
 4851              		.loc 1 97 0
 4852 1f7c 1B68     		ldr	r3, [r3]
 4853              	.LBE169:
 4854              	.LBE171:
 4855              		.loc 1 136 0
 4856 1f7e 0025     		movs	r5, #0
 4857              		.loc 1 137 0
 4858 1f80 0224     		movs	r4, #2
 4859              	.LVL443:
 4860              		.loc 1 138 0
 4861 1f82 3422     		movs	r2, #52
 4862 1f84 0321     		movs	r1, #3
 4863              		.loc 1 136 0
 4864 1f86 0570     		strb	r5, [r0]
 4865              		.loc 1 137 0
 4866 1f88 4470     		strb	r4, [r0, #1]
 4867              		.loc 1 138 0
 4868 1f8a 8270     		strb	r2, [r0, #2]
 4869              	.LVL444:
 4870 1f8c 0391     		str	r1, [sp, #12]
 4871              	.LBB172:
 4872              	.LBB170:
 4873              		.loc 1 97 0
 4874 1f8e 002B     		cmp	r3, #0
 4875 1f90 7FF4C2AA 		bne	.L200
 4876 1f94 FEF763BB 		b	.L24
 4877              	.LVL445:
 4878              	.L59:
 4879              	.LBE170:
 4880              	.LBE172:
 4881              		.loc 1 1030 0
 4882 1f98 FFF7FEFF 		bl	app_get_configuration
 4883              	.LVL446:
 4884 1f9c 04AC     		add	r4, sp, #16
 4885              	.LVL447:
 4886 1f9e 0146     		mov	r1, r0
 4887 1fa0 4FF48072 		mov	r2, #256
 4888 1fa4 2046     		mov	r0, r4
 4889 1fa6 FFF7FEFF 		bl	memcpy
 4890              	.LVL448:
 4891              		.loc 1 1031 0
 4892 1faa FFF7FEFF 		bl	mc_interface_get_configuration
 4893              	.LVL449:
 4894 1fae 4FF49C72 		mov	r2, #312
 4895 1fb2 0146     		mov	r1, r0
 4896 1fb4 5048     		ldr	r0, .L235+8
 4897 1fb6 DFF84891 		ldr	r9, .L235+16
 4898 1fba FFF7FEFF 		bl	memcpy
 4899              	.LVL450:
 4900              	.L111:
 4901              	.LBE220:
 4902              		.loc 1 1073 0
ARM GAS  /tmp/cc0XcXNK.s 			page 87


 4903 1fbe D4ED137A 		flds	s15, [r4, #76]
 4904              		.loc 1 1070 0
 4905 1fc2 4C4D     		ldr	r5, .L235+4
 4906              		.loc 1 1074 0
 4907 1fc4 4C4E     		ldr	r6, .L235+8
 4908              		.loc 1 1071 0
 4909 1fc6 99F80030 		ldrb	r3, [r9]	@ zero_extendqisi2
 4910              		.loc 1 1072 0
 4911 1fca 247E     		ldrb	r4, [r4, #24]	@ zero_extendqisi2
 4912              		.loc 1 1071 0
 4913 1fcc 6B70     		strb	r3, [r5, #1]
 4914              		.loc 1 1073 0
 4915 1fce FDEEE77A 		ftosizs	s15, s15
 4916              		.loc 1 1072 0
 4917 1fd2 0323     		movs	r3, #3
 4918              		.loc 1 1073 0
 4919 1fd4 CDED017A 		fsts	s15, [sp, #4]	@ int
 4920 1fd8 BDF90410 		ldrsh	r1, [sp, #4]
 4921              		.loc 1 1072 0
 4922 1fdc 0393     		str	r3, [sp, #12]
 4923              		.loc 1 1073 0
 4924 1fde 2846     		mov	r0, r5
 4925 1fe0 03AA     		add	r2, sp, #12
 4926              		.loc 1 1070 0
 4927 1fe2 2627     		movs	r7, #38
 4928 1fe4 2F70     		strb	r7, [r5]
 4929              		.loc 1 1072 0
 4930 1fe6 AC70     		strb	r4, [r5, #2]
 4931              		.loc 1 1073 0
 4932 1fe8 FFF7FEFF 		bl	buffer_append_int16
 4933              	.LVL451:
 4934              		.loc 1 1074 0
 4935 1fec D6ED017A 		flds	s15, [r6, #4]
 4936 1ff0 B2EE048A 		fconsts	s16, #36
 4937 1ff4 67EE887A 		fmuls	s15, s15, s16
 4938 1ff8 2846     		mov	r0, r5
 4939 1ffa FDEEE77A 		ftosizs	s15, s15
 4940 1ffe 03AA     		add	r2, sp, #12
 4941 2000 CDED017A 		fsts	s15, [sp, #4]	@ int
 4942 2004 BDF90410 		ldrsh	r1, [sp, #4]
 4943 2008 FFF7FEFF 		bl	buffer_append_int16
 4944              	.LVL452:
 4945              		.loc 1 1075 0
 4946 200c D6ED037A 		flds	s15, [r6, #12]
 4947 2010 67EE887A 		fmuls	s15, s15, s16
 4948 2014 2846     		mov	r0, r5
 4949 2016 FDEEE77A 		ftosizs	s15, s15
 4950 201a 03AA     		add	r2, sp, #12
 4951 201c CDED017A 		fsts	s15, [sp, #4]	@ int
 4952 2020 BDF90410 		ldrsh	r1, [sp, #4]
 4953 2024 FFF7FEFF 		bl	buffer_append_int16
 4954              	.LVL453:
 4955              		.loc 1 1076 0
 4956 2028 D6ED027A 		flds	s15, [r6, #8]
 4957 202c 67EE887A 		fmuls	s15, s15, s16
 4958 2030 2846     		mov	r0, r5
 4959 2032 FDEEE77A 		ftosizs	s15, s15
ARM GAS  /tmp/cc0XcXNK.s 			page 88


 4960 2036 03AA     		add	r2, sp, #12
 4961 2038 CDED017A 		fsts	s15, [sp, #4]	@ int
 4962 203c BDF90410 		ldrsh	r1, [sp, #4]
 4963 2040 FFF7FEFF 		bl	buffer_append_int16
 4964              	.LVL454:
 4965              		.loc 1 1077 0
 4966 2044 D6ED047A 		flds	s15, [r6, #16]
 4967 2048 67EE887A 		fmuls	s15, s15, s16
 4968 204c 2846     		mov	r0, r5
 4969 204e FDEEE77A 		ftosizs	s15, s15
 4970 2052 03AA     		add	r2, sp, #12
 4971 2054 CDED017A 		fsts	s15, [sp, #4]	@ int
 4972 2058 BDF90410 		ldrsh	r1, [sp, #4]
 4973 205c FFF7FEFF 		bl	buffer_append_int16
 4974              	.LVL455:
 4975              		.loc 1 1078 0
 4976 2060 D6ED077A 		flds	s15, [r6, #28]
 4977 2064 C7EE887A 		fdivs	s15, s15, s16
 4978 2068 2846     		mov	r0, r5
 4979 206a 03AA     		add	r2, sp, #12
 4980 206c FDEEE77A 		ftosizs	s15, s15
 4981 2070 CDED017A 		fsts	s15, [sp, #4]	@ int
 4982 2074 BDF90410 		ldrsh	r1, [sp, #4]
 4983 2078 FFF7FEFF 		bl	buffer_append_int16
 4984              	.LVL456:
 4985              	.LBB221:
 4986              	.LBB218:
 4987              		.loc 1 97 0
 4988 207c 1C4B     		ldr	r3, .L235
 4989              	.LBE218:
 4990              	.LBE221:
 4991              		.loc 1 1079 0
 4992 207e 0399     		ldr	r1, [sp, #12]
 4993              	.LVL457:
 4994              	.LBB222:
 4995              	.LBB219:
 4996              		.loc 1 97 0
 4997 2080 1B68     		ldr	r3, [r3]
 4998 2082 002B     		cmp	r3, #0
 4999 2084 7EF46CAF 		bne	.L203
 5000 2088 FEF7E9BA 		b	.L24
 5001              	.LVL458:
 5002              	.L60:
 5003              	.LBE219:
 5004              	.LBE222:
 5005              	.LBB223:
 5006              		.loc 1 1036 0
 5007 208c 04AC     		add	r4, sp, #16
 5008              	.LVL459:
 5009 208e 267B     		ldrb	r6, [r4, #12]	@ zero_extendqisi2
 5010 2090 002E     		cmp	r6, #0
 5011 2092 40F0A881 		bne	.L120
 5012              	.LVL460:
 5013              	.LBB173:
 5014              		.loc 1 1043 0
 5015 2096 D2AF     		add	r7, sp, #840
 5016              	.LVL461:
ARM GAS  /tmp/cc0XcXNK.s 			page 89


 5017 2098 2722     		movs	r2, #39
 5018 209a 0123     		movs	r3, #1
 5019              	.LBB174:
 5020              	.LBB175:
 5021              	.LBB176:
 5022              	.LBB177:
 5023              	.LBB178:
 5024              	.LBB179:
 5025              		.file 4 "ChibiOS_3.0.2/os/rt/include/chvt.h"
 5026              		.loc 4 231 0
 5027 209c DFF86480 		ldr	r8, .L235+20
 5028              	.LVL462:
 5029              	.LBE179:
 5030              	.LBE178:
 5031              	.LBE177:
 5032              	.LBE176:
 5033              		.loc 1 1048 0
 5034 20a0 DFED168A 		flds	s17, .L235+12
 5035              	.LBE175:
 5036              	.LBE174:
 5037              		.loc 1 1043 0
 5038 20a4 3A70     		strb	r2, [r7]
 5039              	.LVL463:
 5040 20a6 0393     		str	r3, [sp, #12]
 5041              	.LBB187:
 5042              	.LBB184:
 5043              		.loc 1 1048 0
 5044 20a8 B7EE008A 		fconsts	s16, #112
 5045 20ac 02E0     		b	.L115
 5046              	.LVL464:
 5047              	.L113:
 5048              	.LBE184:
 5049              		.loc 1 1045 0 discriminator 2
 5050 20ae 032E     		cmp	r6, #3
 5051 20b0 00F00D82 		beq	.L215
 5052              	.LVL465:
 5053              	.L115:
 5054              	.LBB185:
 5055              		.loc 1 1046 0
 5056 20b4 3046     		mov	r0, r6
 5057 20b6 FFF7FEFF 		bl	comm_can_get_status_msg_index
 5058              	.LVL466:
 5059              		.loc 1 1048 0
 5060 20ba 0268     		ldr	r2, [r0]
 5061 20bc 002A     		cmp	r2, #0
 5062              	.LBE185:
 5063              		.loc 1 1045 0
 5064 20be 06F10106 		add	r6, r6, #1
 5065              	.LVL467:
 5066              	.LBB186:
 5067              		.loc 1 1048 0
 5068 20c2 F4DB     		blt	.L113
 5069              	.LBB183:
 5070              	.LBB182:
 5071              		.loc 4 267 0 discriminator 1
 5072 20c4 4168     		ldr	r1, [r0, #4]
 5073              	.LBB181:
ARM GAS  /tmp/cc0XcXNK.s 			page 90


 5074              	.LBB180:
 5075              		.loc 4 231 0 discriminator 1
 5076 20c6 D8F82830 		ldr	r3, [r8, #40]
 5077              	.LBE180:
 5078              	.LBE181:
 5079              		.loc 4 267 0 discriminator 1
 5080 20ca 5B1A     		subs	r3, r3, r1
 5081 20cc 07EE903A 		fmsr	s15, r3	@ int
 5082              	.LBE182:
 5083              	.LBE183:
 5084              		.loc 1 1048 0 discriminator 1
 5085 20d0 F8EE677A 		fuitos	s15, s15
 5086 20d4 C7EEA87A 		fdivs	s15, s15, s17
 5087 20d8 F4EEC87A 		fcmpes	s15, s16
 5088 20dc F1EE10FA 		fmstat
 5089 20e0 E5D5     		bpl	.L113
 5090              		.loc 1 1049 0
 5091 20e2 D0B2     		uxtb	r0, r2
 5092              	.LVL468:
 5093 20e4 3946     		mov	r1, r7
 5094              	.LVL469:
 5095 20e6 2A46     		mov	r2, r5
 5096 20e8 0023     		movs	r3, #0
 5097 20ea FFF7FEFF 		bl	comm_can_send_buffer
 5098              	.LVL470:
 5099 20ee DEE7     		b	.L113
 5100              	.L236:
 5101              		.align	2
 5102              	.L235:
 5103 20f0 00000000 		.word	.LANCHOR9
 5104 20f4 00000000 		.word	.LANCHOR8
 5105 20f8 00000000 		.word	.LANCHOR12
 5106 20fc 00401C46 		.word	1176256512
 5107 2100 00000000 		.word	.LANCHOR11
 5108 2104 00000000 		.word	ch
 5109 2108 CDCCCC3D 		.word	1036831949
 5110              	.LVL471:
 5111              	.L58:
 5112              	.LBE186:
 5113              	.LBE187:
 5114              	.LBE173:
 5115              		.loc 1 868 0
 5116 210c 0223     		movs	r3, #2
 5117              		.loc 1 869 0
 5118 210e 2046     		mov	r0, r4
 5119 2110 03A9     		add	r1, sp, #12
 5120 2112 B7EE000A 		fconsts	s0, #112
 5121              		.loc 1 868 0
 5122 2116 0393     		str	r3, [sp, #12]
 5123              		.loc 1 867 0
 5124 2118 96F801A0 		ldrb	r10, [r6, #1]	@ zero_extendqisi2
 5125              	.LVL472:
 5126              		.loc 1 868 0
 5127 211c 96F80290 		ldrb	r9, [r6, #2]	@ zero_extendqisi2
 5128              	.LVL473:
 5129              		.loc 1 869 0
 5130 2120 FFF7FEFF 		bl	buffer_get_float16
ARM GAS  /tmp/cc0XcXNK.s 			page 91


 5131              	.LVL474:
 5132              		.loc 1 870 0
 5133 2124 2046     		mov	r0, r4
 5134 2126 03A9     		add	r1, sp, #12
 5135              		.loc 1 869 0
 5136 2128 F0EE40AA 		fcpys	s21, s0
 5137              	.LVL475:
 5138              		.loc 1 870 0
 5139 212c B2EE040A 		fconsts	s0, #36
 5140              	.LVL476:
 5141 2130 FFF7FEFF 		bl	buffer_get_float16
 5142              	.LVL477:
 5143              		.loc 1 871 0
 5144 2134 2046     		mov	r0, r4
 5145 2136 03A9     		add	r1, sp, #12
 5146              		.loc 1 870 0
 5147 2138 B0EE40AA 		fcpys	s20, s0
 5148              	.LVL478:
 5149              		.loc 1 871 0
 5150 213c B2EE040A 		fconsts	s0, #36
 5151              	.LVL479:
 5152 2140 FFF7FEFF 		bl	buffer_get_float16
 5153              	.LVL480:
 5154              		.loc 1 872 0
 5155 2144 2046     		mov	r0, r4
 5156 2146 03A9     		add	r1, sp, #12
 5157              		.loc 1 871 0
 5158 2148 F0EE409A 		fcpys	s19, s0
 5159              	.LVL481:
 5160              		.loc 1 872 0
 5161 214c B2EE040A 		fconsts	s0, #36
 5162              	.LVL482:
 5163 2150 FFF7FEFF 		bl	buffer_get_float16
 5164              	.LVL483:
 5165              		.loc 1 873 0
 5166 2154 2046     		mov	r0, r4
 5167 2156 03A9     		add	r1, sp, #12
 5168              		.loc 1 872 0
 5169 2158 B0EE409A 		fcpys	s18, s0
 5170              	.LVL484:
 5171              		.loc 1 873 0
 5172 215c B2EE040A 		fconsts	s0, #36
 5173              	.LVL485:
 5174 2160 FFF7FEFF 		bl	buffer_get_float16
 5175              	.LVL486:
 5176              		.loc 1 874 0
 5177 2164 2046     		mov	r0, r4
 5178 2166 03A9     		add	r1, sp, #12
 5179              		.loc 1 873 0
 5180 2168 F0EE408A 		fcpys	s17, s0
 5181              	.LVL487:
 5182              		.loc 1 874 0
 5183 216c 1FED1A0A 		flds	s0, .L235+24
 5184              	.LVL488:
 5185 2170 FFF7FEFF 		bl	buffer_get_float16
 5186              	.LVL489:
 5187 2174 B0EE408A 		fcpys	s16, s0
ARM GAS  /tmp/cc0XcXNK.s 			page 92


 5188              	.LVL490:
 5189              		.loc 1 876 0
 5190 2178 FFF7FEFF 		bl	app_get_configuration
 5191              	.LVL491:
 5192 217c 04AC     		add	r4, sp, #16
 5193              	.LVL492:
 5194 217e 0146     		mov	r1, r0
 5195 2180 4FF48072 		mov	r2, #256
 5196 2184 2046     		mov	r0, r4
 5197 2186 FFF7FEFF 		bl	memcpy
 5198              	.LVL493:
 5199              		.loc 1 878 0
 5200 218a 237D     		ldrb	r3, [r4, #20]	@ zero_extendqisi2
 5201 218c 042B     		cmp	r3, #4
 5202 218e 02D0     		beq	.L80
 5203              		.loc 1 878 0 is_stmt 0 discriminator 1
 5204 2190 012B     		cmp	r3, #1
 5205 2192 7EF464AA 		bne	.L24
 5206              	.L80:
 5207              	.LBB188:
 5208              		.loc 1 882 0 is_stmt 1
 5209 2196 44A8     		add	r0, sp, #272
 5210 2198 FFF7FEFF 		bl	conf_general_read_app_configuration
 5211              	.LVL494:
 5212              		.loc 1 884 0
 5213 219c FFF7FEFF 		bl	mc_interface_get_configuration
 5214              	.LVL495:
 5215 21a0 D34F     		ldr	r7, .L237
 5216              	.LVL496:
 5217 21a2 0146     		mov	r1, r0
 5218 21a4 4FF49C72 		mov	r2, #312
 5219 21a8 3846     		mov	r0, r7
 5220 21aa FFF7FEFF 		bl	memcpy
 5221              	.LVL497:
 5222              		.loc 1 888 0
 5223 21ae 84A8     		add	r0, sp, #528
 5224 21b0 FFF7FEFF 		bl	conf_general_read_mc_configuration
 5225              	.LVL498:
 5226              		.loc 1 894 0
 5227 21b4 859A     		ldr	r2, [sp, #532]	@ float
 5228              		.loc 1 895 0
 5229 21b6 869B     		ldr	r3, [sp, #536]	@ float
 5230              		.loc 1 896 0
 5231 21b8 DDF81CC2 		ldr	ip, [sp, #540]	@ float
 5232              		.loc 1 897 0
 5233 21bc DDF820E2 		ldr	lr, [sp, #544]	@ float
 5234              		.loc 1 898 0
 5235 21c0 8B98     		ldr	r0, [sp, #556]	@ float
 5236              		.loc 1 894 0
 5237 21c2 7A60     		str	r2, [r7, #4]	@ float
 5238              		.loc 1 892 0
 5239 21c4 5799     		ldr	r1, [sp, #348]	@ float
 5240              		.loc 1 895 0
 5241 21c6 BB60     		str	r3, [r7, #8]	@ float
 5242              		.loc 1 890 0
 5243 21c8 9DF85821 		ldrb	r2, [sp, #344]	@ zero_extendqisi2
 5244              		.loc 1 891 0
ARM GAS  /tmp/cc0XcXNK.s 			page 93


 5245 21cc 9DF82831 		ldrb	r3, [sp, #296]	@ zero_extendqisi2
 5246              		.loc 1 896 0
 5247 21d0 C7F80CC0 		str	ip, [r7, #12]	@ float
 5248              		.loc 1 897 0
 5249 21d4 C7F810E0 		str	lr, [r7, #16]	@ float
 5250              		.loc 1 898 0
 5251 21d8 F861     		str	r0, [r7, #28]	@ float
 5252              		.loc 1 892 0
 5253 21da E164     		str	r1, [r4, #76]	@ float
 5254              		.loc 1 890 0
 5255 21dc 84F84820 		strb	r2, [r4, #72]
 5256              		.loc 1 891 0
 5257 21e0 2376     		strb	r3, [r4, #24]
 5258              		.loc 1 900 0
 5259 21e2 B9F1000F 		cmp	r9, #0
 5260 21e6 00F03681 		beq	.L81
 5261 21ea B9F1080F 		cmp	r9, #8
 5262 21ee 06D9     		bls	.L82
 5263 21f0 B9F1090F 		cmp	r9, #9
 5264 21f4 40F02F81 		bne	.L81
 5265              		.loc 1 902 0
 5266 21f8 0123     		movs	r3, #1
 5267 21fa 84F84830 		strb	r3, [r4, #72]
 5268              	.L82:
 5269              		.loc 1 911 0
 5270 21fe 237B     		ldrb	r3, [r4, #12]	@ zero_extendqisi2
 5271 2200 0BB9     		cbnz	r3, .L84
 5272              		.loc 1 912 0
 5273 2202 84F81890 		strb	r9, [r4, #24]
 5274              	.L84:
 5275              		.loc 1 914 0
 5276 2206 DFEDBB7A 		flds	s15, .L237+4
 5277 220a F4EEE7AA 		fcmpes	s21, s15
 5278 220e F1EE10FA 		fmstat
 5279 2212 08DB     		blt	.L85
 5280              		.loc 1 914 0 is_stmt 0 discriminator 1
 5281 2214 DFEDB87A 		flds	s15, .L237+8
 5282 2218 F4EEE7AA 		fcmpes	s21, s15
 5283 221c F1EE10FA 		fmstat
 5284 2220 98BF     		it	ls
 5285 2222 C4ED13AA 		fstsls	s21, [r4, #76]
 5286              	.L85:
 5287              		.loc 1 916 0 is_stmt 1
 5288 2226 D7ED457A 		flds	s15, [r7, #276]
 5289 222a B14A     		ldr	r2, .L237
 5290 222c B4EEE7AA 		fcmpes	s20, s15
 5291 2230 F1EE10FA 		fmstat
 5292 2234 08DB     		blt	.L88
 5293              		.loc 1 916 0 is_stmt 0 discriminator 1
 5294 2236 9FEDB17A 		flds	s14, .L237+12
 5295 223a B4EEC7AA 		fcmpes	s20, s14
 5296 223e F1EE10FA 		fmstat
 5297 2242 98BF     		it	ls
 5298 2244 82ED01AA 		fstsls	s20, [r2, #4]
 5299              	.L88:
 5300              		.loc 1 918 0 is_stmt 1
 5301 2248 F4EEE79A 		fcmpes	s19, s15
ARM GAS  /tmp/cc0XcXNK.s 			page 94


 5302 224c F1EE10FA 		fmstat
 5303 2250 08DB     		blt	.L91
 5304              		.loc 1 918 0 is_stmt 0 discriminator 1
 5305 2252 9FEDAA7A 		flds	s14, .L237+12
 5306 2256 F4EEC79A 		fcmpes	s19, s14
 5307 225a F1EE10FA 		fmstat
 5308 225e 98BF     		it	ls
 5309 2260 C7ED039A 		fstsls	s19, [r7, #12]
 5310              	.L91:
 5311              		.loc 1 920 0 is_stmt 1
 5312 2264 F1EE677A 		fnegs	s15, s15
 5313 2268 B4EEE79A 		fcmpes	s18, s15
 5314 226c F1EE10FA 		fmstat
 5315 2270 08D8     		bhi	.L94
 5316              		.loc 1 920 0 is_stmt 0 discriminator 1
 5317 2272 9FEDA37A 		flds	s14, .L237+16
 5318 2276 B4EEC79A 		fcmpes	s18, s14
 5319 227a F1EE10FA 		fmstat
 5320 227e A8BF     		it	ge
 5321 2280 87ED029A 		fstsge	s18, [r7, #8]
 5322              	.L94:
 5323              		.loc 1 922 0 is_stmt 1
 5324 2284 F4EEE78A 		fcmpes	s17, s15
 5325 2288 F1EE10FA 		fmstat
 5326 228c 08D8     		bhi	.L97
 5327              		.loc 1 922 0 is_stmt 0 discriminator 1
 5328 228e DFED9C7A 		flds	s15, .L237+16
 5329 2292 F4EEE78A 		fcmpes	s17, s15
 5330 2296 F1EE10FA 		fmstat
 5331 229a A8BF     		it	ge
 5332 229c C7ED048A 		fstsge	s17, [r7, #16]
 5333              	.L97:
 5334              		.loc 1 924 0 is_stmt 1
 5335 22a0 B5EEC08A 		fcmpezs	s16
 5336 22a4 F1EE10FA 		fmstat
 5337 22a8 1CDB     		blt	.L100
 5338              		.loc 1 924 0 is_stmt 0 discriminator 1
 5339 22aa DFED967A 		flds	s15, .L237+20
 5340 22ae B4EEE78A 		fcmpes	s16, s15
 5341 22b2 F1EE10FA 		fmstat
 5342 22b6 15D8     		bhi	.L100
 5343              		.loc 1 927 0 is_stmt 1
 5344 22b8 F3EE097A 		fconsts	s15, #57
 5345 22bc C8EE277A 		fdivs	s15, s16, s15
 5346              		.loc 1 925 0
 5347 22c0 84ED078A 		fsts	s16, [r4, #28]
 5348              		.loc 1 927 0
 5349 22c4 FDEEE77A 		ftosizs	s15, s15
 5350              		.loc 1 926 0
 5351 22c8 84ED0D8A 		fsts	s16, [r4, #52]
 5352              		.loc 1 927 0
 5353 22cc CDED017A 		fsts	s15, [sp, #4]	@ int
 5354 22d0 BDF90420 		ldrsh	r2, [sp, #4]
 5355 22d4 07EE902A 		fmsr	s15, r2	@ int
 5356 22d8 F8EEE77A 		fsitos	s15, s15
 5357 22dc 78EE677A 		fsubs	s15, s16, s15
 5358 22e0 C4ED0C7A 		fsts	s15, [r4, #48]
ARM GAS  /tmp/cc0XcXNK.s 			page 95


 5359              	.L100:
 5360              		.loc 1 930 0
 5361 22e4 DFF83C92 		ldr	r9, .L237+52
 5362              	.LVL499:
 5363 22e8 89F800A0 		strb	r10, [r9]
 5364              	.L103:
 5365              		.loc 1 937 0
 5366 22ec 002B     		cmp	r3, #0
 5367 22ee 40F09F80 		bne	.L119
 5368              	.LVL500:
 5369              	.LBB189:
 5370              		.loc 1 944 0
 5371 22f2 D2AF     		add	r7, sp, #840
 5372 22f4 2422     		movs	r2, #36
 5373 22f6 0123     		movs	r3, #1
 5374 22f8 3A70     		strb	r2, [r7]
 5375              	.LVL501:
 5376 22fa 0393     		str	r3, [sp, #12]
 5377              	.LBB190:
 5378              		.loc 1 945 0
 5379 22fc B8F1000F 		cmp	r8, #0
 5380 2300 0ED0     		beq	.L105
 5381 2302 3346     		mov	r3, r6
 5382 2304 C3F10201 		rsb	r1, r3, #2
 5383 2308 4644     		add	r6, r6, r8
 5384              	.LVL502:
 5385 230a 3A46     		mov	r2, r7
 5386              	.LVL503:
 5387              	.L106:
 5388 230c 01EB030E 		add	lr, r1, r3
 5389              		.loc 1 946 0 discriminator 3
 5390 2310 13F8010F 		ldrb	r0, [r3, #1]!	@ zero_extendqisi2
 5391              	.LVL504:
 5392 2314 02F8010F 		strb	r0, [r2, #1]!
 5393              	.LVL505:
 5394              		.loc 1 945 0 discriminator 3
 5395 2318 B342     		cmp	r3, r6
 5396              		.loc 1 946 0 discriminator 3
 5397 231a CDF80CE0 		str	lr, [sp, #12]
 5398              		.loc 1 945 0 discriminator 3
 5399 231e F5D1     		bne	.L106
 5400              	.LVL506:
 5401              	.L105:
 5402              	.LBE190:
 5403              	.LBB191:
 5404              	.LBB192:
 5405              	.LBB193:
 5406              	.LBB194:
 5407              	.LBB195:
 5408              	.LBB196:
 5409              		.loc 4 231 0
 5410 2320 DFF80482 		ldr	r8, .L237+56
 5411              	.LVL507:
 5412              	.LBE196:
 5413              	.LBE195:
 5414              	.LBE194:
 5415              	.LBE193:
ARM GAS  /tmp/cc0XcXNK.s 			page 96


 5416              		.loc 1 952 0
 5417 2324 DFED788A 		flds	s17, .L237+24
 5418              	.LVL508:
 5419              	.LBE192:
 5420              	.LBE191:
 5421              	.LBB203:
 5422              		.loc 1 945 0
 5423 2328 0026     		movs	r6, #0
 5424              	.LBE203:
 5425              	.LBB204:
 5426              	.LBB201:
 5427              		.loc 1 952 0
 5428 232a B7EE008A 		fconsts	s16, #112
 5429              	.LVL509:
 5430              	.L109:
 5431              		.loc 1 950 0
 5432 232e 3046     		mov	r0, r6
 5433 2330 FFF7FEFF 		bl	comm_can_get_status_msg_index
 5434              	.LVL510:
 5435              		.loc 1 952 0
 5436 2334 0268     		ldr	r2, [r0]
 5437 2336 002A     		cmp	r2, #0
 5438              	.LBE201:
 5439              		.loc 1 949 0
 5440 2338 06F10106 		add	r6, r6, #1
 5441              	.LVL511:
 5442              	.LBB202:
 5443              		.loc 1 952 0
 5444 233c 14DB     		blt	.L107
 5445              	.LBB200:
 5446              	.LBB199:
 5447              		.loc 4 267 0 discriminator 1
 5448 233e 4168     		ldr	r1, [r0, #4]
 5449              	.LBB198:
 5450              	.LBB197:
 5451              		.loc 4 231 0 discriminator 1
 5452 2340 D8F82830 		ldr	r3, [r8, #40]
 5453              	.LBE197:
 5454              	.LBE198:
 5455              		.loc 4 267 0 discriminator 1
 5456 2344 5B1A     		subs	r3, r3, r1
 5457 2346 07EE903A 		fmsr	s15, r3	@ int
 5458              	.LBE199:
 5459              	.LBE200:
 5460              		.loc 1 952 0 discriminator 1
 5461 234a F8EE677A 		fuitos	s15, s15
 5462 234e C7EEA87A 		fdivs	s15, s15, s17
 5463 2352 F4EEC87A 		fcmpes	s15, s16
 5464 2356 F1EE10FA 		fmstat
 5465 235a 05D5     		bpl	.L107
 5466              		.loc 1 953 0
 5467 235c D0B2     		uxtb	r0, r2
 5468              	.LVL512:
 5469 235e 3946     		mov	r1, r7
 5470              	.LVL513:
 5471 2360 2A46     		mov	r2, r5
 5472 2362 0023     		movs	r3, #0
ARM GAS  /tmp/cc0XcXNK.s 			page 97


 5473 2364 FFF7FEFF 		bl	comm_can_send_buffer
 5474              	.LVL514:
 5475              	.L107:
 5476              	.LBE202:
 5477              		.loc 1 949 0 discriminator 2
 5478 2368 032E     		cmp	r6, #3
 5479 236a E0D1     		bne	.L109
 5480              	.LBE204:
 5481              		.loc 1 938 0
 5482 236c 0125     		movs	r5, #1
 5483              	.LVL515:
 5484 236e 60E0     		b	.L104
 5485              	.LVL516:
 5486              	.L56:
 5487              	.LBE189:
 5488              	.LBE188:
 5489              		.loc 1 851 0
 5490 2370 C278     		ldrb	r2, [r0, #3]	@ zero_extendqisi2
 5491              		.loc 1 852 0
 5492 2372 0379     		ldrb	r3, [r0, #4]	@ zero_extendqisi2
 5493              		.loc 1 849 0
 5494 2374 4778     		ldrb	r7, [r0, #1]	@ zero_extendqisi2
 5495              	.LVL517:
 5496              		.loc 1 850 0
 5497 2376 8678     		ldrb	r6, [r0, #2]	@ zero_extendqisi2
 5498              		.loc 1 849 0
 5499 2378 D297     		str	r7, [sp, #840]
 5500              		.loc 1 851 0
 5501 237a 0032     		adds	r2, r2, #0
 5502 237c 18BF     		it	ne
 5503 237e 0122     		movne	r2, #1
 5504              		.loc 1 852 0
 5505 2380 0033     		adds	r3, r3, #0
 5506 2382 18BF     		it	ne
 5507 2384 0123     		movne	r3, #1
 5508              		.loc 1 853 0
 5509 2386 03A9     		add	r1, sp, #12
 5510              		.loc 1 852 0
 5511 2388 0425     		movs	r5, #4
 5512              		.loc 1 853 0
 5513 238a 2046     		mov	r0, r4
 5514              	.LVL518:
 5515              		.loc 1 851 0
 5516 238c 8DF85C23 		strb	r2, [sp, #860]
 5517              		.loc 1 852 0
 5518 2390 8DF85D33 		strb	r3, [sp, #861]
 5519              		.loc 1 850 0
 5520 2394 D396     		str	r6, [sp, #844]
 5521              		.loc 1 852 0
 5522 2396 0395     		str	r5, [sp, #12]
 5523              		.loc 1 853 0
 5524 2398 FFF7FEFF 		bl	buffer_get_int16
 5525              	.LVL519:
 5526              		.loc 1 854 0
 5527 239c 03A9     		add	r1, sp, #12
 5528              		.loc 1 853 0
 5529 239e D490     		str	r0, [sp, #848]
ARM GAS  /tmp/cc0XcXNK.s 			page 98


 5530              		.loc 1 854 0
 5531 23a0 2046     		mov	r0, r4
 5532 23a2 FFF7FEFF 		bl	buffer_get_int16
 5533              	.LVL520:
 5534              		.loc 1 855 0
 5535 23a6 03A9     		add	r1, sp, #12
 5536              		.loc 1 854 0
 5537 23a8 D590     		str	r0, [sp, #852]
 5538              		.loc 1 855 0
 5539 23aa 2046     		mov	r0, r4
 5540 23ac FFF7FEFF 		bl	buffer_get_int16
 5541              	.LVL521:
 5542 23b0 D690     		str	r0, [sp, #856]
 5543              		.loc 1 856 0
 5544 23b2 D2A8     		add	r0, sp, #840
 5545 23b4 FFF7FEFF 		bl	app_nunchuk_update_output
 5546              	.LVL522:
 5547              		.loc 1 857 0
 5548 23b8 FEF751B9 		b	.L24
 5549              	.LVL523:
 5550              	.L55:
 5551              		.loc 1 844 0
 5552 23bc 8A1E     		subs	r2, r1, #2
 5553 23be 4078     		ldrb	r0, [r0, #1]	@ zero_extendqisi2
 5554 23c0 B11C     		adds	r1, r6, #2
 5555 23c2 0023     		movs	r3, #0
 5556 23c4 FFF7FEFF 		bl	comm_can_send_buffer
 5557              	.LVL524:
 5558              		.loc 1 845 0
 5559 23c8 FEF749B9 		b	.L24
 5560              	.L57:
 5561              		.loc 1 860 0
 5562 23cc 4F4B     		ldr	r3, .L237+28
 5563 23ce 1B68     		ldr	r3, [r3]
 5564 23d0 002B     		cmp	r3, #0
 5565 23d2 3EF444A9 		beq	.L24
 5566              		.loc 1 861 0
 5567 23d6 2046     		mov	r0, r4
 5568 23d8 4146     		mov	r1, r8
 5569 23da FFF79DB8 		b	.L200
 5570              	.LVL525:
 5571              	.L213:
 5572 23de 9DED840A 		flds	s0, [sp, #528]
 5573 23e2 FEF7FDBA 		b	.L70
 5574              	.LVL526:
 5575              	.L120:
 5576              	.LBE223:
 5577              		.loc 1 127 0
 5578 23e6 0025     		movs	r5, #0
 5579              	.LVL527:
 5580              	.L112:
 5581              	.LBB224:
 5582              		.loc 1 1053 0
 5583 23e8 FFF7FEFF 		bl	mc_interface_get_configuration
 5584              	.LVL528:
 5585 23ec 4FF49C72 		mov	r2, #312
 5586 23f0 0146     		mov	r1, r0
ARM GAS  /tmp/cc0XcXNK.s 			page 99


 5587 23f2 3F48     		ldr	r0, .L237
 5588              		.loc 1 1061 0
 5589 23f4 DFF82C91 		ldr	r9, .L237+52
 5590              		.loc 1 1053 0
 5591 23f8 FFF7FEFF 		bl	memcpy
 5592              	.LVL529:
 5593              		.loc 1 1055 0
 5594 23fc FFF7FEFF 		bl	app_get_configuration
 5595              	.LVL530:
 5596 2400 4FF48072 		mov	r2, #256
 5597 2404 0146     		mov	r1, r0
 5598 2406 2046     		mov	r0, r4
 5599 2408 FFF7FEFF 		bl	memcpy
 5600              	.LVL531:
 5601              		.loc 1 1057 0
 5602 240c 3848     		ldr	r0, .L237
 5603 240e FFF7FEFF 		bl	conf_general_store_mc_configuration
 5604              	.LVL532:
 5605              		.loc 1 1059 0
 5606 2412 2046     		mov	r0, r4
 5607 2414 FFF7FEFF 		bl	conf_general_store_app_configuration
 5608              	.LVL533:
 5609              		.loc 1 1061 0
 5610 2418 0023     		movs	r3, #0
 5611 241a 89F80030 		strb	r3, [r9]
 5612              	.LBE224:
 5613              		.loc 1 1068 0
 5614 241e 002D     		cmp	r5, #0
 5615 2420 7FF4CDAD 		bne	.L111
 5616 2424 FEF71BB9 		b	.L24
 5617              	.LVL534:
 5618              	.L212:
 5619 2428 9DEDD20A 		flds	s0, [sp, #840]
 5620 242c FEF781BA 		b	.L73
 5621              	.LVL535:
 5622              	.L119:
 5623              		.loc 1 127 0
 5624 2430 0025     		movs	r5, #0
 5625              	.LVL536:
 5626              	.L104:
 5627              	.LBB225:
 5628              	.LBB205:
 5629              		.loc 1 958 0 discriminator 4
 5630 2432 2F48     		ldr	r0, .L237
 5631 2434 FFF7FEFF 		bl	mc_interface_set_configuration
 5632              	.LVL537:
 5633              		.loc 1 959 0 discriminator 4
 5634 2438 2046     		mov	r0, r4
 5635 243a FFF7FEFF 		bl	app_set_configuration
 5636              	.LVL538:
 5637              		.loc 1 961 0 discriminator 4
 5638 243e 6068     		ldr	r0, [r4, #4]
 5639 2440 94ED020A 		flds	s0, [r4, #8]
 5640 2444 FFF7FEFF 		bl	timeout_configure
 5641              	.LVL539:
 5642              		.loc 1 963 0 discriminator 4
 5643 2448 FFF7FEFF 		bl	timeout_reset
ARM GAS  /tmp/cc0XcXNK.s 			page 100


 5644              	.LVL540:
 5645              	.LBE205:
 5646              	.LBE225:
 5647              		.loc 1 1068 0 discriminator 4
 5648 244c 002D     		cmp	r5, #0
 5649 244e 7FF4B6AD 		bne	.L111
 5650 2452 FEF704B9 		b	.L24
 5651              	.LVL541:
 5652              	.L81:
 5653              	.LBB226:
 5654              	.LBB206:
 5655              		.loc 1 934 0
 5656 2456 DFF8CC90 		ldr	r9, .L237+52
 5657              	.LVL542:
 5658 245a 237B     		ldrb	r3, [r4, #12]	@ zero_extendqisi2
 5659 245c 0022     		movs	r2, #0
 5660 245e 89F80020 		strb	r2, [r9]
 5661              		.loc 1 935 0
 5662 2462 43E7     		b	.L103
 5663              	.LVL543:
 5664              	.L214:
 5665              	.LBE206:
 5666              		.loc 1 568 0
 5667 2464 FFF7FEFF 		bl	app_get_configuration
 5668              	.LVL544:
 5669 2468 04AC     		add	r4, sp, #16
 5670              	.LVL545:
 5671 246a 0146     		mov	r1, r0
 5672 246c 4FF48072 		mov	r2, #256
 5673 2470 2046     		mov	r0, r4
 5674 2472 FFF7FEFF 		bl	memcpy
 5675              	.LVL546:
 5676 2476 FEF7D8BA 		b	.L68
 5677              	.LVL547:
 5678              	.L77:
 5679              		.loc 1 801 0
 5680 247a 254B     		ldr	r3, .L237+32
 5681 247c 0822     		movs	r2, #8
 5682 247e FF21     		movs	r1, #255
 5683 2480 1846     		mov	r0, r3
 5684 2482 FFF7FEFF 		bl	memset
 5685              	.LVL548:
 5686              		.loc 1 803 0
 5687 2486 0022     		movs	r2, #0
 5688 2488 4272     		strb	r2, [r0, #9]
 5689 248a FEF7E8B8 		b	.L24
 5690              	.LVL549:
 5691              	.L75:
 5692              		.loc 1 764 0
 5693 248e 204C     		ldr	r4, .L237+32
 5694              	.LVL550:
 5695              		.loc 1 765 0
 5696 2490 9FED200A 		flds	s0, .L237+36
 5697 2494 DFED200A 		flds	s1, .L237+40
 5698              		.loc 1 764 0
 5699 2498 0123     		movs	r3, #1
 5700 249a 1A22     		movs	r2, #26
ARM GAS  /tmp/cc0XcXNK.s 			page 101


 5701              		.loc 1 765 0
 5702 249c 2046     		mov	r0, r4
 5703 249e 03A9     		add	r1, sp, #12
 5704              		.loc 1 764 0
 5705 24a0 0393     		str	r3, [sp, #12]
 5706 24a2 2270     		strb	r2, [r4]
 5707              		.loc 1 765 0
 5708 24a4 FFF7FEFF 		bl	buffer_append_float32
 5709              	.LVL551:
 5710              		.loc 1 766 0
 5711 24a8 03A9     		add	r1, sp, #12
 5712 24aa 2046     		mov	r0, r4
 5713 24ac 9FED1B0A 		flds	s0, .L237+44
 5714 24b0 DFED190A 		flds	s1, .L237+40
 5715 24b4 FFF7FEFF 		bl	buffer_append_float32
 5716              	.LVL552:
 5717              	.LBB207:
 5718              	.LBB208:
 5719              		.loc 1 97 0
 5720 24b8 194B     		ldr	r3, .L237+48
 5721              	.LBE208:
 5722              	.LBE207:
 5723              		.loc 1 767 0
 5724 24ba 0399     		ldr	r1, [sp, #12]
 5725              	.LBB211:
 5726              	.LBB209:
 5727              		.loc 1 97 0
 5728 24bc 1B68     		ldr	r3, [r3]
 5729              	.LBE209:
 5730              	.LBE211:
 5731              		.loc 1 767 0
 5732 24be 6554     		strb	r5, [r4, r1]
 5733              	.LVL553:
 5734 24c0 0131     		adds	r1, r1, #1
 5735              	.LVL554:
 5736 24c2 0391     		str	r1, [sp, #12]
 5737              	.LBB212:
 5738              	.LBB210:
 5739              		.loc 1 97 0
 5740 24c4 002B     		cmp	r3, #0
 5741 24c6 7EF410A9 		bne	.L204
 5742 24ca FEF7C8B8 		b	.L24
 5743              	.LVL555:
 5744              	.L215:
 5745              	.LBE210:
 5746              	.LBE212:
 5747              	.LBB213:
 5748              		.loc 1 1037 0
 5749 24ce 0125     		movs	r5, #1
 5750              	.LVL556:
 5751 24d0 8AE7     		b	.L112
 5752              	.LVL557:
 5753              	.L211:
 5754              	.LBE213:
 5755              		.loc 1 231 0
 5756 24d2 FFF7FEFF 		bl	mc_interface_release_motor
 5757              	.LVL558:
ARM GAS  /tmp/cc0XcXNK.s 			page 102


 5758 24d6 FEF7DFB8 		b	.L51
 5759              	.LVL559:
 5760              	.L210:
 5761              		.loc 1 361 0
 5762 24da FFF7FEFF 		bl	mc_interface_get_configuration
 5763              	.LVL560:
 5764 24de 4FF49C72 		mov	r2, #312
 5765 24e2 0146     		mov	r1, r0
 5766 24e4 0248     		ldr	r0, .L237
 5767 24e6 FFF7FEFF 		bl	memcpy
 5768              	.LVL561:
 5769 24ea FDF7CDBD 		b	.L66
 5770              	.L238:
 5771 24ee 00BF     		.align	2
 5772              	.L237:
 5773 24f0 00000000 		.word	.LANCHOR12
 5774 24f4 00004842 		.word	1112014848
 5775 24f8 00409C45 		.word	1167867904
 5776 24fc 00004843 		.word	1128792064
 5777 2500 000048C3 		.word	-1018691584
 5778 2504 0050C347 		.word	1203982336
 5779 2508 00401C46 		.word	1176256512
 5780 250c 00000000 		.word	.LANCHOR15
 5781 2510 00000000 		.word	.LANCHOR8
 5782 2514 00407A44 		.word	1148862464
 5783 2518 00247449 		.word	1232348160
 5784 251c 00000000 		.word	0
 5785 2520 00000000 		.word	.LANCHOR9
 5786 2524 00000000 		.word	.LANCHOR11
 5787 2528 00000000 		.word	ch
 5788              	.LBE226:
 5789              		.cfi_endproc
 5790              	.LFE259:
 5791              		.size	commands_process_packet, .-commands_process_packet
 5792              		.section	.text.commands_printf,"ax",%progbits
 5793              		.align	2
 5794              		.p2align 4,,15
 5795              		.global	commands_printf
 5796              		.thumb
 5797              		.thumb_func
 5798              		.type	commands_printf, %function
 5799              	commands_printf:
 5800              	.LFB260:
 5801              		.loc 1 1083 0
 5802              		.cfi_startproc
 5803              		@ args = 4, pretend = 16, frame = 8
 5804              		@ frame_needed = 0, uses_anonymous_args = 1
 5805              	.LVL562:
 5806 0000 0FB4     		push	{r0, r1, r2, r3}
 5807              		.cfi_def_cfa_offset 16
 5808              		.cfi_offset 0, -16
 5809              		.cfi_offset 1, -12
 5810              		.cfi_offset 2, -8
 5811              		.cfi_offset 3, -4
 5812 0002 00B5     		push	{lr}
 5813              		.cfi_def_cfa_offset 20
 5814              		.cfi_offset 14, -20
ARM GAS  /tmp/cc0XcXNK.s 			page 103


 5815 0004 83B0     		sub	sp, sp, #12
 5816              		.cfi_def_cfa_offset 32
 5817              		.loc 1 1083 0
 5818 0006 04AB     		add	r3, sp, #16
 5819              		.loc 1 1089 0
 5820 0008 0C48     		ldr	r0, .L247
 5821              		.loc 1 1083 0
 5822 000a 53F8042B 		ldr	r2, [r3], #4
 5823              		.loc 1 1085 0
 5824 000e 0193     		str	r3, [sp, #4]
 5825              		.loc 1 1089 0
 5826 0010 1421     		movs	r1, #20
 5827 0012 00F8011B 		strb	r1, [r0], #1
 5828              		.loc 1 1090 0
 5829 0016 FE21     		movs	r1, #254
 5830 0018 FFF7FEFF 		bl	vsnprintf
 5831              	.LVL563:
 5832              		.loc 1 1093 0
 5833 001c 0028     		cmp	r0, #0
 5834 001e 08DD     		ble	.L239
 5835              	.LVL564:
 5836              	.LBB227:
 5837              	.LBB228:
 5838              		.loc 1 97 0
 5839 0020 074B     		ldr	r3, .L247+4
 5840 0022 1B68     		ldr	r3, [r3]
 5841              	.LBE228:
 5842              	.LBE227:
 5843              		.loc 1 1094 0
 5844 0024 FD28     		cmp	r0, #253
 5845 0026 D4BF     		ite	le
 5846 0028 411C     		addle	r1, r0, #1
 5847 002a FF21     		movgt	r1, #255
 5848              	.LVL565:
 5849              	.LBB230:
 5850              	.LBB229:
 5851              		.loc 1 97 0
 5852 002c 0BB1     		cbz	r3, .L239
 5853              		.loc 1 98 0
 5854 002e 0348     		ldr	r0, .L247
 5855              	.LVL566:
 5856 0030 9847     		blx	r3
 5857              	.LVL567:
 5858              	.L239:
 5859              	.LBE229:
 5860              	.LBE230:
 5861              		.loc 1 1096 0
 5862 0032 03B0     		add	sp, sp, #12
 5863              		.cfi_def_cfa_offset 20
 5864              		@ sp needed
 5865 0034 5DF804EB 		ldr	lr, [sp], #4
 5866              		.cfi_restore 14
 5867              		.cfi_def_cfa_offset 16
 5868 0038 04B0     		add	sp, sp, #16
 5869              		.cfi_restore 3
 5870              		.cfi_restore 2
 5871              		.cfi_restore 1
ARM GAS  /tmp/cc0XcXNK.s 			page 104


 5872              		.cfi_restore 0
 5873              		.cfi_def_cfa_offset 0
 5874 003a 7047     		bx	lr
 5875              	.L248:
 5876              		.align	2
 5877              	.L247:
 5878 003c 00000000 		.word	.LANCHOR16
 5879 0040 00000000 		.word	.LANCHOR9
 5880              		.cfi_endproc
 5881              	.LFE260:
 5882              		.size	commands_printf, .-commands_printf
 5883              		.section	.text.commands_send_samples,"ax",%progbits
 5884              		.align	2
 5885              		.p2align 4,,15
 5886              		.global	commands_send_samples
 5887              		.thumb
 5888              		.thumb_func
 5889              		.type	commands_send_samples, %function
 5890              	commands_send_samples:
 5891              	.LFB261:
 5892              		.loc 1 1098 0
 5893              		.cfi_startproc
 5894              		@ args = 0, pretend = 0, frame = 0
 5895              		@ frame_needed = 1, uses_anonymous_args = 0
 5896              	.LVL568:
 5897 0000 F8B5     		push	{r3, r4, r5, r6, r7, lr}
 5898              		.cfi_def_cfa_offset 24
 5899              		.cfi_offset 3, -24
 5900              		.cfi_offset 4, -20
 5901              		.cfi_offset 5, -16
 5902              		.cfi_offset 6, -12
 5903              		.cfi_offset 7, -8
 5904              		.cfi_offset 14, -4
 5905              		.loc 1 1099 0
 5906 0002 01F10803 		add	r3, r1, #8
 5907 0006 23F00703 		bic	r3, r3, #7
 5908              		.loc 1 1098 0
 5909 000a 00AF     		add	r7, sp, #0
 5910              		.cfi_def_cfa_register 7
 5911              		.loc 1 1099 0
 5912 000c ADEB030D 		sub	sp, sp, r3
 5913              	.LBB231:
 5914              		.loc 1 1104 0
 5915 0010 0029     		cmp	r1, #0
 5916              	.LBE231:
 5917              		.loc 1 1102 0
 5918 0012 4FF01203 		mov	r3, #18
 5919 0016 8DF80030 		strb	r3, [sp]
 5920              		.loc 1 1099 0
 5921 001a 6E46     		mov	r6, sp
 5922              	.LVL569:
 5923              	.LBB232:
 5924              		.loc 1 1104 0
 5925 001c 11DD     		ble	.L253
 5926 001e 421E     		subs	r2, r0, #1
 5927 0020 6B46     		mov	r3, sp
 5928 0022 0DEB0105 		add	r5, sp, r1
ARM GAS  /tmp/cc0XcXNK.s 			page 105


 5929              	.LVL570:
 5930              	.L251:
 5931              		.loc 1 1105 0 discriminator 3
 5932 0026 12F8014F 		ldrb	r4, [r2, #1]!	@ zero_extendqisi2
 5933              	.LVL571:
 5934 002a 03F8014F 		strb	r4, [r3, #1]!
 5935              	.LVL572:
 5936              		.loc 1 1104 0 discriminator 3
 5937 002e AB42     		cmp	r3, r5
 5938 0030 F9D1     		bne	.L251
 5939 0032 0131     		adds	r1, r1, #1
 5940              	.LVL573:
 5941              	.L250:
 5942              	.LBE232:
 5943              	.LBB233:
 5944              	.LBB234:
 5945              		.loc 1 97 0
 5946 0034 044B     		ldr	r3, .L259
 5947 0036 1B68     		ldr	r3, [r3]
 5948 0038 0BB1     		cbz	r3, .L249
 5949 003a 3046     		mov	r0, r6
 5950              	.LVL574:
 5951              		.loc 1 98 0
 5952 003c 9847     		blx	r3
 5953              	.LVL575:
 5954              	.L249:
 5955              	.LBE234:
 5956              	.LBE233:
 5957              		.loc 1 1109 0
 5958 003e BD46     		mov	sp, r7
 5959              		.cfi_remember_state
 5960              		.cfi_def_cfa_register 13
 5961              		@ sp needed
 5962 0040 F8BD     		pop	{r3, r4, r5, r6, r7, pc}
 5963              	.LVL576:
 5964              	.L253:
 5965              		.cfi_restore_state
 5966              	.LBB235:
 5967              		.loc 1 1104 0
 5968 0042 0121     		movs	r1, #1
 5969              	.LVL577:
 5970 0044 F6E7     		b	.L250
 5971              	.L260:
 5972 0046 00BF     		.align	2
 5973              	.L259:
 5974 0048 00000000 		.word	.LANCHOR9
 5975              	.LBE235:
 5976              		.cfi_endproc
 5977              	.LFE261:
 5978              		.size	commands_send_samples, .-commands_send_samples
 5979              		.section	.text.commands_send_rotor_pos,"ax",%progbits
 5980              		.align	2
 5981              		.p2align 4,,15
 5982              		.global	commands_send_rotor_pos
 5983              		.thumb
 5984              		.thumb_func
 5985              		.type	commands_send_rotor_pos, %function
ARM GAS  /tmp/cc0XcXNK.s 			page 106


 5986              	commands_send_rotor_pos:
 5987              	.LFB262:
 5988              		.loc 1 1111 0
 5989              		.cfi_startproc
 5990              		@ args = 0, pretend = 0, frame = 16
 5991              		@ frame_needed = 0, uses_anonymous_args = 0
 5992              	.LVL578:
 5993 0000 10B5     		push	{r4, lr}
 5994              		.cfi_def_cfa_offset 8
 5995              		.cfi_offset 4, -8
 5996              		.cfi_offset 14, -4
 5997              		.loc 1 1116 0
 5998 0002 DFED0D7A 		flds	s15, .L267
 5999              		.loc 1 1111 0
 6000 0006 84B0     		sub	sp, sp, #16
 6001              		.cfi_def_cfa_offset 24
 6002              		.loc 1 1115 0
 6003 0008 04AC     		add	r4, sp, #16
 6004              		.loc 1 1116 0
 6005 000a 20EE270A 		fmuls	s0, s0, s15
 6006              	.LVL579:
 6007              		.loc 1 1115 0
 6008 000e 1523     		movs	r3, #21
 6009 0010 04F8083D 		strb	r3, [r4, #-8]!
 6010              		.loc 1 1116 0
 6011 0014 FDEEC07A 		ftosizs	s15, s0
 6012              		.loc 1 1115 0
 6013 0018 0123     		movs	r3, #1
 6014              		.loc 1 1116 0
 6015 001a 17EE901A 		fmrs	r1, s15	@ int
 6016 001e 2046     		mov	r0, r4
 6017 0020 01AA     		add	r2, sp, #4
 6018              		.loc 1 1115 0
 6019 0022 0193     		str	r3, [sp, #4]
 6020              		.loc 1 1116 0
 6021 0024 FFF7FEFF 		bl	buffer_append_int32
 6022              	.LVL580:
 6023              	.LBB236:
 6024              	.LBB237:
 6025              		.loc 1 97 0
 6026 0028 044B     		ldr	r3, .L267+4
 6027              	.LBE237:
 6028              	.LBE236:
 6029              		.loc 1 1118 0
 6030 002a 0199     		ldr	r1, [sp, #4]
 6031              	.LVL581:
 6032              	.LBB239:
 6033              	.LBB238:
 6034              		.loc 1 97 0
 6035 002c 1B68     		ldr	r3, [r3]
 6036 002e 0BB1     		cbz	r3, .L261
 6037              		.loc 1 98 0
 6038 0030 2046     		mov	r0, r4
 6039 0032 9847     		blx	r3
 6040              	.LVL582:
 6041              	.L261:
 6042              	.LBE238:
ARM GAS  /tmp/cc0XcXNK.s 			page 107


 6043              	.LBE239:
 6044              		.loc 1 1119 0
 6045 0034 04B0     		add	sp, sp, #16
 6046              		.cfi_def_cfa_offset 8
 6047              		@ sp needed
 6048 0036 10BD     		pop	{r4, pc}
 6049              	.LVL583:
 6050              	.L268:
 6051              		.align	2
 6052              	.L267:
 6053 0038 0050C347 		.word	1203982336
 6054 003c 00000000 		.word	.LANCHOR9
 6055              		.cfi_endproc
 6056              	.LFE262:
 6057              		.size	commands_send_rotor_pos, .-commands_send_rotor_pos
 6058              		.section	.text.commands_send_experiment_samples,"ax",%progbits
 6059              		.align	2
 6060              		.p2align 4,,15
 6061              		.global	commands_send_experiment_samples
 6062              		.thumb
 6063              		.thumb_func
 6064              		.type	commands_send_experiment_samples, %function
 6065              	commands_send_experiment_samples:
 6066              	.LFB263:
 6067              		.loc 1 1121 0
 6068              		.cfi_startproc
 6069              		@ args = 0, pretend = 0, frame = 8
 6070              		@ frame_needed = 1, uses_anonymous_args = 0
 6071              	.LVL584:
 6072              		.loc 1 1122 0
 6073 0000 8B00     		lsls	r3, r1, #2
 6074 0002 FF2B     		cmp	r3, #255
 6075 0004 34DC     		bgt	.L281
 6076              	.LVL585:
 6077              		.loc 1 1121 0
 6078 0006 2DE9F043 		push	{r4, r5, r6, r7, r8, r9, lr}
 6079              		.cfi_def_cfa_offset 28
 6080              		.cfi_offset 4, -28
 6081              		.cfi_offset 5, -24
 6082              		.cfi_offset 6, -20
 6083              		.cfi_offset 7, -16
 6084              		.cfi_offset 8, -12
 6085              		.cfi_offset 9, -8
 6086              		.cfi_offset 14, -4
 6087 000a 2DED028B 		fstmfdd	sp!, {d8}
 6088              		.cfi_def_cfa_offset 36
 6089              		.cfi_offset 80, -36
 6090              		.cfi_offset 81, -32
 6091              		.loc 1 1126 0
 6092 000e 0833     		adds	r3, r3, #8
 6093              	.LVL586:
 6094              		.loc 1 1121 0
 6095 0010 83B0     		sub	sp, sp, #12
 6096              		.cfi_def_cfa_offset 48
 6097              		.loc 1 1126 0
 6098 0012 23F00703 		bic	r3, r3, #7
 6099              	.LVL587:
ARM GAS  /tmp/cc0XcXNK.s 			page 108


 6100              		.loc 1 1121 0
 6101 0016 0E46     		mov	r6, r1
 6102 0018 00AF     		add	r7, sp, #0
 6103              		.cfi_def_cfa_register 7
 6104 001a E946     		mov	r9, sp
 6105              		.loc 1 1126 0
 6106 001c ADEB030D 		sub	sp, sp, r3
 6107              		.loc 1 1129 0
 6108 0020 0121     		movs	r1, #1
 6109              	.LVL588:
 6110 0022 1623     		movs	r3, #22
 6111              	.LBB240:
 6112              		.loc 1 1131 0
 6113 0024 002E     		cmp	r6, #0
 6114              	.LBE240:
 6115              		.loc 1 1129 0
 6116 0026 8DF80030 		strb	r3, [sp]
 6117              		.loc 1 1126 0
 6118 002a E846     		mov	r8, sp
 6119              	.LVL589:
 6120              		.loc 1 1129 0
 6121 002c 7960     		str	r1, [r7, #4]
 6122              	.LBB241:
 6123              		.loc 1 1131 0
 6124 002e 13DD     		ble	.L271
 6125              		.loc 1 1132 0
 6126 0030 9FED108A 		flds	s16, .L282
 6127 0034 0546     		mov	r5, r0
 6128              		.loc 1 1131 0
 6129 0036 0024     		movs	r4, #0
 6130              	.LVL590:
 6131              	.L272:
 6132              		.loc 1 1132 0 discriminator 3
 6133 0038 F5EC017A 		fldmias	r5!, {s15}
 6134 003c 67EE887A 		fmuls	s15, s15, s16
 6135              		.loc 1 1131 0 discriminator 3
 6136 0040 0134     		adds	r4, r4, #1
 6137              	.LVL591:
 6138              		.loc 1 1132 0 discriminator 3
 6139 0042 FDEEE77A 		ftosizs	s15, s15
 6140 0046 4046     		mov	r0, r8
 6141 0048 17EE901A 		fmrs	r1, s15	@ int
 6142 004c 3A1D     		adds	r2, r7, #4
 6143 004e FFF7FEFF 		bl	buffer_append_int32
 6144              	.LVL592:
 6145              		.loc 1 1131 0 discriminator 3
 6146 0052 B442     		cmp	r4, r6
 6147 0054 F0D1     		bne	.L272
 6148 0056 7968     		ldr	r1, [r7, #4]
 6149              	.LVL593:
 6150              	.L271:
 6151              	.LBE241:
 6152              	.LBB242:
 6153              	.LBB243:
 6154              		.loc 1 97 0
 6155 0058 074B     		ldr	r3, .L282+4
 6156 005a 1B68     		ldr	r3, [r3]
ARM GAS  /tmp/cc0XcXNK.s 			page 109


 6157 005c 0BB1     		cbz	r3, .L273
 6158              		.loc 1 98 0
 6159 005e 4046     		mov	r0, r8
 6160 0060 9847     		blx	r3
 6161              	.LVL594:
 6162              	.L273:
 6163              	.LBE243:
 6164              	.LBE242:
 6165              		.loc 1 1136 0
 6166 0062 0C37     		adds	r7, r7, #12
 6167              		.cfi_def_cfa_offset 36
 6168 0064 CD46     		mov	sp, r9
 6169 0066 BD46     		mov	sp, r7
 6170              		.cfi_def_cfa_register 13
 6171              		@ sp needed
 6172 0068 BDEC028B 		fldmfdd	sp!, {d8}
 6173              		.cfi_restore 80
 6174              		.cfi_restore 81
 6175              		.cfi_def_cfa_offset 28
 6176 006c BDE8F083 		pop	{r4, r5, r6, r7, r8, r9, pc}
 6177              	.LVL595:
 6178              	.L281:
 6179              		.cfi_def_cfa_offset 0
 6180              		.cfi_restore 4
 6181              		.cfi_restore 5
 6182              		.cfi_restore 6
 6183              		.cfi_restore 7
 6184              		.cfi_restore 8
 6185              		.cfi_restore 9
 6186              		.cfi_restore 14
 6187 0070 7047     		bx	lr
 6188              	.L283:
 6189 0072 00BF     		.align	2
 6190              	.L282:
 6191 0074 00401C46 		.word	1176256512
 6192 0078 00000000 		.word	.LANCHOR9
 6193              		.cfi_endproc
 6194              	.LFE263:
 6195              		.size	commands_send_experiment_samples, .-commands_send_experiment_samples
 6196              		.section	.text.commands_get_disp_pos_mode,"ax",%progbits
 6197              		.align	2
 6198              		.p2align 4,,15
 6199              		.global	commands_get_disp_pos_mode
 6200              		.thumb
 6201              		.thumb_func
 6202              		.type	commands_get_disp_pos_mode, %function
 6203              	commands_get_disp_pos_mode:
 6204              	.LFB264:
 6205              		.loc 1 1138 0
 6206              		.cfi_startproc
 6207              		@ args = 0, pretend = 0, frame = 0
 6208              		@ frame_needed = 0, uses_anonymous_args = 0
 6209              		@ link register save eliminated.
 6210              		.loc 1 1139 0
 6211 0000 014B     		ldr	r3, .L285
 6212              		.loc 1 1140 0
 6213 0002 1878     		ldrb	r0, [r3]	@ zero_extendqisi2
ARM GAS  /tmp/cc0XcXNK.s 			page 110


 6214 0004 7047     		bx	lr
 6215              	.L286:
 6216 0006 00BF     		.align	2
 6217              	.L285:
 6218 0008 00000000 		.word	.LANCHOR13
 6219              		.cfi_endproc
 6220              	.LFE264:
 6221              		.size	commands_get_disp_pos_mode, .-commands_get_disp_pos_mode
 6222              		.section	.text.commands_set_app_data_handler,"ax",%progbits
 6223              		.align	2
 6224              		.p2align 4,,15
 6225              		.global	commands_set_app_data_handler
 6226              		.thumb
 6227              		.thumb_func
 6228              		.type	commands_set_app_data_handler, %function
 6229              	commands_set_app_data_handler:
 6230              	.LFB265:
 6231              		.loc 1 1142 0
 6232              		.cfi_startproc
 6233              		@ args = 0, pretend = 0, frame = 0
 6234              		@ frame_needed = 0, uses_anonymous_args = 0
 6235              		@ link register save eliminated.
 6236              	.LVL596:
 6237              		.loc 1 1143 0
 6238 0000 014B     		ldr	r3, .L288
 6239 0002 1860     		str	r0, [r3]
 6240 0004 7047     		bx	lr
 6241              	.L289:
 6242 0006 00BF     		.align	2
 6243              	.L288:
 6244 0008 00000000 		.word	.LANCHOR15
 6245              		.cfi_endproc
 6246              	.LFE265:
 6247              		.size	commands_set_app_data_handler, .-commands_set_app_data_handler
 6248              		.section	.text.commands_send_app_data,"ax",%progbits
 6249              		.align	2
 6250              		.p2align 4,,15
 6251              		.global	commands_send_app_data
 6252              		.thumb
 6253              		.thumb_func
 6254              		.type	commands_send_app_data, %function
 6255              	commands_send_app_data:
 6256              	.LFB266:
 6257              		.loc 1 1146 0
 6258              		.cfi_startproc
 6259              		@ args = 0, pretend = 0, frame = 0
 6260              		@ frame_needed = 0, uses_anonymous_args = 0
 6261              	.LVL597:
 6262 0000 70B5     		push	{r4, r5, r6, lr}
 6263              		.cfi_def_cfa_offset 16
 6264              		.cfi_offset 4, -16
 6265              		.cfi_offset 5, -12
 6266              		.cfi_offset 6, -8
 6267              		.cfi_offset 14, -4
 6268              		.loc 1 1149 0
 6269 0002 0A4D     		ldr	r5, .L293
 6270              		.loc 1 1146 0
ARM GAS  /tmp/cc0XcXNK.s 			page 111


 6271 0004 0246     		mov	r2, r0
 6272              		.loc 1 1149 0
 6273 0006 2846     		mov	r0, r5
 6274              	.LVL598:
 6275              		.loc 1 1146 0
 6276 0008 0C46     		mov	r4, r1
 6277              		.loc 1 1149 0
 6278 000a 2323     		movs	r3, #35
 6279              		.loc 1 1150 0
 6280 000c 1146     		mov	r1, r2
 6281              	.LVL599:
 6282              		.loc 1 1149 0
 6283 000e 00F8013B 		strb	r3, [r0], #1
 6284              		.loc 1 1150 0
 6285 0012 2246     		mov	r2, r4
 6286              	.LVL600:
 6287 0014 FFF7FEFF 		bl	memcpy
 6288              	.LVL601:
 6289              	.LBB244:
 6290              	.LBB245:
 6291              		.loc 1 97 0
 6292 0018 054B     		ldr	r3, .L293+4
 6293 001a 1B68     		ldr	r3, [r3]
 6294              	.LBE245:
 6295              	.LBE244:
 6296              		.loc 1 1151 0
 6297 001c 611C     		adds	r1, r4, #1
 6298              	.LVL602:
 6299              	.LBB248:
 6300              	.LBB246:
 6301              		.loc 1 97 0
 6302 001e 1BB1     		cbz	r3, .L290
 6303              		.loc 1 98 0
 6304 0020 2846     		mov	r0, r5
 6305              	.LBE246:
 6306              	.LBE248:
 6307              		.loc 1 1154 0
 6308 0022 BDE87040 		pop	{r4, r5, r6, lr}
 6309              		.cfi_remember_state
 6310              		.cfi_restore 14
 6311              		.cfi_restore 6
 6312              		.cfi_restore 5
 6313              		.cfi_restore 4
 6314              		.cfi_def_cfa_offset 0
 6315              	.LVL603:
 6316              	.LBB249:
 6317              	.LBB247:
 6318              		.loc 1 98 0
 6319 0026 1847     		bx	r3	@ indirect register sibling call
 6320              	.LVL604:
 6321              	.L290:
 6322              		.cfi_restore_state
 6323 0028 70BD     		pop	{r4, r5, r6, pc}
 6324              	.LVL605:
 6325              	.L294:
 6326 002a 00BF     		.align	2
 6327              	.L293:
ARM GAS  /tmp/cc0XcXNK.s 			page 112


 6328 002c 00000000 		.word	.LANCHOR8
 6329 0030 00000000 		.word	.LANCHOR9
 6330              	.LBE247:
 6331              	.LBE249:
 6332              		.cfi_endproc
 6333              	.LFE266:
 6334              		.size	commands_send_app_data, .-commands_send_app_data
 6335              		.section	.bss.send_func,"aw",%nobits
 6336              		.align	2
 6337              		.set	.LANCHOR9,. + 0
 6338              		.type	send_func, %object
 6339              		.size	send_func, 4
 6340              	send_func:
 6341 0000 00000000 		.space	4
 6342              		.section	.bss.detect_min_rpm,"aw",%nobits
 6343              		.align	2
 6344              		.set	.LANCHOR2,. + 0
 6345              		.type	detect_min_rpm, %object
 6346              		.size	detect_min_rpm, 4
 6347              	detect_min_rpm:
 6348 0000 00000000 		.space	4
 6349              		.section	.bss.appdata_func,"aw",%nobits
 6350              		.align	2
 6351              		.set	.LANCHOR15,. + 0
 6352              		.type	appdata_func, %object
 6353              		.size	appdata_func, 4
 6354              	appdata_func:
 6355 0000 00000000 		.space	4
 6356              		.section	.bss.detect_hall_table,"aw",%nobits
 6357              		.align	2
 6358              		.set	.LANCHOR6,. + 0
 6359              		.type	detect_hall_table, %object
 6360              		.size	detect_hall_table, 8
 6361              	detect_hall_table:
 6362 0000 00000000 		.space	8
 6362      00000000 
 6363              		.section	.bss.remote_Mode,"aw",%nobits
 6364              		.set	.LANCHOR11,. + 0
 6365              		.type	remote_Mode, %object
 6366              		.size	remote_Mode, 1
 6367              	remote_Mode:
 6368 0000 00       		.space	1
 6369              		.section	.bss.mcconf.11352,"aw",%nobits
 6370              		.align	2
 6371              		.set	.LANCHOR12,. + 0
 6372              		.type	mcconf.11352, %object
 6373              		.size	mcconf.11352, 312
 6374              	mcconf.11352:
 6375 0000 00000000 		.space	312
 6375      00000000 
 6375      00000000 
 6375      00000000 
 6375      00000000 
 6376              		.section	.bss.mcconf_old.11353,"aw",%nobits
 6377              		.align	2
 6378              		.set	.LANCHOR14,. + 0
 6379              		.type	mcconf_old.11353, %object
ARM GAS  /tmp/cc0XcXNK.s 			page 113


 6380              		.size	mcconf_old.11353, 312
 6381              	mcconf_old.11353:
 6382 0000 00000000 		.space	312
 6382      00000000 
 6382      00000000 
 6382      00000000 
 6382      00000000 
 6383              		.section	.bss.detect_hall_res,"aw",%nobits
 6384              		.align	2
 6385              		.set	.LANCHOR7,. + 0
 6386              		.type	detect_hall_res, %object
 6387              		.size	detect_hall_res, 4
 6388              	detect_hall_res:
 6389 0000 00000000 		.space	4
 6390              		.section	.bss.detect_thread_wa,"aw",%nobits
 6391              		.align	3
 6392              		.set	.LANCHOR10,. + 0
 6393              		.type	detect_thread_wa, %object
 6394              		.size	detect_thread_wa, 2456
 6395              	detect_thread_wa:
 6396 0000 00000000 		.space	2456
 6396      00000000 
 6396      00000000 
 6396      00000000 
 6396      00000000 
 6397              		.section	.bss.send_buffer,"aw",%nobits
 6398              		.align	2
 6399              		.set	.LANCHOR8,. + 0
 6400              		.type	send_buffer, %object
 6401              		.size	send_buffer, 1024
 6402              	send_buffer:
 6403 0000 00000000 		.space	1024
 6403      00000000 
 6403      00000000 
 6403      00000000 
 6403      00000000 
 6404              		.section	.rodata.str1.4,"aMS",%progbits,1
 6405              		.align	2
 6406              	.LC0:
 6407 0000 44657465 		.ascii	"Detect\000"
 6407      637400
 6408              		.section	.bss.detect_tp,"aw",%nobits
 6409              		.align	2
 6410              		.set	.LANCHOR0,. + 0
 6411              		.type	detect_tp, %object
 6412              		.size	detect_tp, 4
 6413              	detect_tp:
 6414 0000 00000000 		.space	4
 6415              		.section	.bss.detect_low_duty,"aw",%nobits
 6416              		.align	2
 6417              		.set	.LANCHOR3,. + 0
 6418              		.type	detect_low_duty, %object
 6419              		.size	detect_low_duty, 4
 6420              	detect_low_duty:
 6421 0000 00000000 		.space	4
 6422              		.section	.bss.print_buffer.11457,"aw",%nobits
 6423              		.align	2
ARM GAS  /tmp/cc0XcXNK.s 			page 114


 6424              		.set	.LANCHOR16,. + 0
 6425              		.type	print_buffer.11457, %object
 6426              		.size	print_buffer.11457, 255
 6427              	print_buffer.11457:
 6428 0000 00000000 		.space	255
 6428      00000000 
 6428      00000000 
 6428      00000000 
 6428      00000000 
 6429              		.section	.bss.detect_current,"aw",%nobits
 6430              		.align	2
 6431              		.set	.LANCHOR1,. + 0
 6432              		.type	detect_current, %object
 6433              		.size	detect_current, 4
 6434              	detect_current:
 6435 0000 00000000 		.space	4
 6436              		.section	.bss.detect_coupling_k,"aw",%nobits
 6437              		.align	2
 6438              		.set	.LANCHOR5,. + 0
 6439              		.type	detect_coupling_k, %object
 6440              		.size	detect_coupling_k, 4
 6441              	detect_coupling_k:
 6442 0000 00000000 		.space	4
 6443              		.section	.bss.detect_cycle_int_limit,"aw",%nobits
 6444              		.align	2
 6445              		.set	.LANCHOR4,. + 0
 6446              		.type	detect_cycle_int_limit, %object
 6447              		.size	detect_cycle_int_limit, 4
 6448              	detect_cycle_int_limit:
 6449 0000 00000000 		.space	4
 6450              		.section	.bss.display_position_mode,"aw",%nobits
 6451              		.set	.LANCHOR13,. + 0
 6452              		.type	display_position_mode, %object
 6453              		.size	display_position_mode, 1
 6454              	display_position_mode:
 6455 0000 00       		.space	1
 6456              		.text
 6457              	.Letext0:
 6458              		.file 5 "/usr/arm-none-eabi/include/machine/_default_types.h"
 6459              		.file 6 "/usr/arm-none-eabi/include/sys/_stdint.h"
 6460              		.file 7 "/usr/lib/gcc/arm-none-eabi/4.9.3/include/stddef.h"
 6461              		.file 8 "ChibiOS_3.0.2/os/rt/ports/ARMCMx/compilers/GCC/chtypes.h"
 6462              		.file 9 "ChibiOS_3.0.2/os/rt/include/chsystypes.h"
 6463              		.file 10 "ChibiOS_3.0.2/os/rt/include/chschd.h"
 6464              		.file 11 "ChibiOS_3.0.2/os/rt/ports/ARMCMx/chcore.h"
 6465              		.file 12 "ChibiOS_3.0.2/os/rt/ports/ARMCMx/chcore_v7m.h"
 6466              		.file 13 "ChibiOS_3.0.2/os/rt/include/chtm.h"
 6467              		.file 14 "ChibiOS_3.0.2/os/rt/include/chsem.h"
 6468              		.file 15 "ChibiOS_3.0.2/os/rt/include/chmtx.h"
 6469              		.file 16 "ChibiOS_3.0.2/os/rt/include/chthreads.h"
 6470              		.file 17 "datatypes.h"
 6471              		.file 18 "ChibiOS_3.0.2/ext/stdperiph_stm32f4/inc/stm32f4xx_flash.h"
 6472              		.file 19 "/usr/lib/gcc/arm-none-eabi/4.9.3/include/stdarg.h"
 6473              		.file 20 "<built-in>"
 6474              		.file 21 "ChibiOS_3.0.2/os/ext/CMSIS/include/core_cm4.h"
 6475              		.file 22 "mc_interface.h"
 6476              		.file 23 "ChibiOS_3.0.2/os/rt/include/chevents.h"
ARM GAS  /tmp/cc0XcXNK.s 			page 115


 6477              		.file 24 "conf_general.h"
 6478              		.file 25 "buffer.h"
 6479              		.file 26 "mcpwm_foc.h"
 6480              		.file 27 "comm_can.h"
 6481              		.file 28 "applications/app.h"
 6482              		.file 29 "timeout.h"
 6483              		.file 30 "mcpwm.h"
 6484              		.file 31 "servo_dec.h"
 6485              		.file 32 "encoder.h"
 6486              		.file 33 "terminal.h"
 6487              		.file 34 "/usr/arm-none-eabi/include/math.h"
 6488              		.file 35 "flash_helper.h"
 6489              		.file 36 "/usr/arm-none-eabi/include/string.h"
 6490              		.file 37 "/usr/arm-none-eabi/include/stdio.h"