ARM GAS  /tmp/cc0XcXNK.s 			page 1


   1              		.syntax unified
   2              		.cpu cortex-m4
   3              		.eabi_attribute 27, 1
   4              		.eabi_attribute 28, 1
   5              		.fpu fpv4-sp-d16
   6              		.eabi_attribute 20, 1
   7              		.eabi_attribute 21, 1
   8              		.eabi_attribute 23, 3
   9              		.eabi_attribute 24, 1
  10              		.eabi_attribute 25, 1
  11              		.eabi_attribute 26, 1
  12              		.eabi_attribute 30, 2
  13              		.eabi_attribute 34, 1
  14              		.eabi_attribute 18, 4
  15              		.thumb
  16              		.file	"commands.c"
  17              		.text
  18              	.Ltext0:
  19              		.cfi_sections	.debug_frame
  20              		.section	.text.detect_thread,"ax",%progbits
  21              		.align	2
  22              		.p2align 4,,15
  23              		.thumb
  24              		.thumb_func
  25              		.type	detect_thread, %function
  26              	detect_thread:
  27              	.LFB267:
  28              		.file 1 "commands.c"
  29              		.loc 1 1156 0
  30              		.cfi_startproc
  31              		@ args = 0, pretend = 0, frame = 16
  32              		@ frame_needed = 0, uses_anonymous_args = 0
  33              	.LVL0:
  34 0000 2DE9F04F 		push	{r4, r5, r6, r7, r8, r9, r10, fp, lr}
  35              		.cfi_def_cfa_offset 36
  36              		.cfi_offset 4, -36
  37              		.cfi_offset 5, -32
  38              		.cfi_offset 6, -28
  39              		.cfi_offset 7, -24
  40              		.cfi_offset 8, -20
  41              		.cfi_offset 9, -16
  42              		.cfi_offset 10, -12
  43              		.cfi_offset 11, -8
  44              		.cfi_offset 14, -4
  45              	.LBB80:
  46              	.LBB81:
  47              		.file 2 "ChibiOS_3.0.2/os/rt/include/chregistry.h"
  48              		.loc 2 135 0
  49 0004 304B     		ldr	r3, .L11
  50              	.LBE81:
  51              	.LBE80:
  52              		.loc 1 1161 0
  53 0006 314A     		ldr	r2, .L11+4
  54              	.LBB84:
  55              	.LBB82:
  56              		.loc 2 135 0
  57 0008 9B69     		ldr	r3, [r3, #24]
ARM GAS  /tmp/cc0XcXNK.s 			page 2


  58 000a 3149     		ldr	r1, .L11+8
  59 000c DFF8E4B0 		ldr	fp, .L11+44
  60 0010 DFF8E4A0 		ldr	r10, .L11+48
  61 0014 DFF8E490 		ldr	r9, .L11+52
  62 0018 DFF8CC80 		ldr	r8, .L11+32
  63 001c 2D4C     		ldr	r4, .L11+12
  64 001e 2E4F     		ldr	r7, .L11+16
  65              	.LBE82:
  66              	.LBE84:
  67              	.LBB85:
  68              		.loc 1 1166 0
  69 0020 2E4E     		ldr	r6, .L11+20
  70              	.LBE85:
  71              		.loc 1 1156 0
  72 0022 2DED028B 		fstmfdd	sp!, {d8}
  73              		.cfi_def_cfa_offset 44
  74              		.cfi_offset 80, -44
  75              		.cfi_offset 81, -40
  76              	.LBB96:
  77              		.loc 1 1169 0
  78 0026 DFED2E8A 		flds	s17, .L11+24
  79 002a 9FED2E8A 		flds	s16, .L11+28
  80              	.LBE96:
  81              	.LBB97:
  82              	.LBB83:
  83              		.loc 2 135 0
  84 002e 9961     		str	r1, [r3, #24]
  85              	.LBE83:
  86              	.LBE97:
  87              		.loc 1 1156 0
  88 0030 85B0     		sub	sp, sp, #20
  89              		.cfi_def_cfa_offset 64
  90              		.loc 1 1161 0
  91 0032 1360     		str	r3, [r2]
  92              	.LVL1:
  93              	.L5:
  94              	.LBB98:
  95              		.loc 1 1166 0
  96 0034 2C4D     		ldr	r5, .L11+32
  97              		.loc 1 1164 0
  98 0036 0120     		movs	r0, #1
  99 0038 FFF7FEFF 		bl	chEvtWaitAny
 100              	.LVL2:
 101              		.loc 1 1166 0
 102 003c 2946     		mov	r1, r5
 103 003e 9BED000A 		flds	s0, [fp]
 104 0042 DAED000A 		flds	s1, [r10]
 105 0046 99ED001A 		flds	s2, [r9]
 106 004a 2448     		ldr	r0, .L11+20
 107 004c 274A     		ldr	r2, .L11+36
 108 004e 224B     		ldr	r3, .L11+16
 109 0050 FFF7FEFF 		bl	conf_general_detect_motor_param
 110              	.LVL3:
 111 0054 0028     		cmp	r0, #0
 112 0056 31D0     		beq	.L2
 113 0058 D6ED007A 		flds	s15, [r6]
 114 005c 67EE887A 		fmuls	s15, s15, s16
ARM GAS  /tmp/cc0XcXNK.s 			page 3


 115 0060 FDEEE77A 		ftosizs	s15, s15
 116 0064 CDED017A 		fsts	s15, [sp, #4]	@ int
 117              	.L3:
 118              		.loc 1 1174 0
 119 0068 0122     		movs	r2, #1
 120 006a 1723     		movs	r3, #23
 121              		.loc 1 1175 0
 122 006c 1948     		ldr	r0, .L11+12
 123              		.loc 1 1174 0
 124 006e 0392     		str	r2, [sp, #12]
 125              		.loc 1 1175 0
 126 0070 0199     		ldr	r1, [sp, #4]
 127              		.loc 1 1174 0
 128 0072 2370     		strb	r3, [r4]
 129              		.loc 1 1175 0
 130 0074 03AA     		add	r2, sp, #12
 131 0076 FFF7FEFF 		bl	buffer_append_int32
 132              	.LVL4:
 133              		.loc 1 1176 0
 134 007a D8ED007A 		flds	s15, [r8]
 135 007e 1548     		ldr	r0, .L11+12
 136 0080 67EE887A 		fmuls	s15, s15, s16
 137 0084 03AA     		add	r2, sp, #12
 138 0086 FDEEE77A 		ftosizs	s15, s15
 139 008a 17EE901A 		fmrs	r1, s15	@ int
 140 008e FFF7FEFF 		bl	buffer_append_int32
 141              	.LVL5:
 142              	.LBB86:
 143              	.LBB87:
 144              		.loc 1 97 0
 145 0092 1749     		ldr	r1, .L11+40
 146              	.LBE87:
 147              	.LBE86:
 148              		.loc 1 1177 0
 149 0094 154A     		ldr	r2, .L11+36
 150 0096 039B     		ldr	r3, [sp, #12]
 151              	.LBB92:
 152              	.LBB88:
 153              		.loc 1 97 0
 154 0098 0D68     		ldr	r5, [r1]
 155              	.LBE88:
 156              	.LBE92:
 157              		.loc 1 1177 0
 158 009a 03CA     		ldmia	r2!, {r0, r1}
 159 009c 04EB030E 		add	lr, r4, r3
 160 00a0 E050     		str	r0, [r4, r3]	@ unaligned
 161              		.loc 1 1179 0
 162 00a2 3A68     		ldr	r2, [r7]
 163              		.loc 1 1177 0
 164 00a4 CEF80410 		str	r1, [lr, #4]	@ unaligned
 165              		.loc 1 1179 0
 166 00a8 0933     		adds	r3, r3, #9
 167              	.LBB93:
 168              	.LBB89:
 169              		.loc 1 98 0
 170 00aa 0A48     		ldr	r0, .L11+12
 171              	.LBE89:
ARM GAS  /tmp/cc0XcXNK.s 			page 4


 172              	.LBE93:
 173              		.loc 1 1179 0
 174 00ac 0393     		str	r3, [sp, #12]
 175              	.LBB94:
 176              	.LBB90:
 177              		.loc 1 98 0
 178 00ae 1946     		mov	r1, r3
 179              	.LBE90:
 180              	.LBE94:
 181              		.loc 1 1179 0
 182 00b0 8EF80820 		strb	r2, [lr, #8]
 183              	.LVL6:
 184              	.LBB95:
 185              	.LBB91:
 186              		.loc 1 97 0
 187 00b4 002D     		cmp	r5, #0
 188 00b6 BDD0     		beq	.L5
 189              		.loc 1 98 0
 190 00b8 A847     		blx	r5
 191              	.LVL7:
 192              	.LBE91:
 193              	.LBE95:
 194              	.LBE98:
 195              		.loc 1 1181 0
 196 00ba BBE7     		b	.L5
 197              	.LVL8:
 198              	.L2:
 199              	.LBB99:
 200              		.loc 1 1169 0
 201 00bc C6ED008A 		fsts	s17, [r6]
 202              		.loc 1 1170 0
 203 00c0 C5ED008A 		fsts	s17, [r5]
 204 00c4 0190     		str	r0, [sp, #4]
 205 00c6 CFE7     		b	.L3
 206              	.L12:
 207              		.align	2
 208              	.L11:
 209 00c8 00000000 		.word	ch
 210 00cc 00000000 		.word	.LANCHOR0
 211 00d0 00000000 		.word	.LC0
 212 00d4 00000000 		.word	.LANCHOR8
 213 00d8 00000000 		.word	.LANCHOR7
 214 00dc 00000000 		.word	.LANCHOR4
 215 00e0 00000000 		.word	0
 216 00e4 00007A44 		.word	1148846080
 217 00e8 00000000 		.word	.LANCHOR5
 218 00ec 00000000 		.word	.LANCHOR6
 219 00f0 00000000 		.word	.LANCHOR9
 220 00f4 00000000 		.word	.LANCHOR1
 221 00f8 00000000 		.word	.LANCHOR2
 222 00fc 00000000 		.word	.LANCHOR3
 223              	.LBE99:
 224              		.cfi_endproc
 225              	.LFE267:
 226              		.size	detect_thread, .-detect_thread
 227              		.section	.text.commands_init,"ax",%progbits
 228              		.align	2
ARM GAS  /tmp/cc0XcXNK.s 			page 5


 229              		.p2align 4,,15
 230              		.global	commands_init
 231              		.thumb
 232              		.thumb_func
 233              		.type	commands_init, %function
 234              	commands_init:
 235              	.LFB256:
 236              		.loc 1 72 0
 237              		.cfi_startproc
 238              		@ args = 0, pretend = 0, frame = 0
 239              		@ frame_needed = 0, uses_anonymous_args = 0
 240 0000 10B5     		push	{r4, lr}
 241              		.cfi_def_cfa_offset 8
 242              		.cfi_offset 4, -8
 243              		.cfi_offset 14, -4
 244 0002 82B0     		sub	sp, sp, #8
 245              		.cfi_def_cfa_offset 16
 246              		.loc 1 73 0
 247 0004 0024     		movs	r4, #0
 248 0006 0094     		str	r4, [sp]
 249 0008 054B     		ldr	r3, .L15
 250 000a 0648     		ldr	r0, .L15+4
 251 000c 40F69811 		movw	r1, #2456
 252 0010 4022     		movs	r2, #64
 253 0012 FFF7FEFF 		bl	chThdCreateStatic
 254              	.LVL9:
 255              		.loc 1 74 0
 256 0016 044B     		ldr	r3, .L15+8
 257 0018 1C70     		strb	r4, [r3]
 258              		.loc 1 75 0
 259 001a 02B0     		add	sp, sp, #8
 260              		.cfi_def_cfa_offset 8
 261              		@ sp needed
 262 001c 10BD     		pop	{r4, pc}
 263              	.L16:
 264 001e 00BF     		.align	2
 265              	.L15:
 266 0020 00000000 		.word	detect_thread
 267 0024 00000000 		.word	.LANCHOR10
 268 0028 00000000 		.word	.LANCHOR11
 269              		.cfi_endproc
 270              	.LFE256:
 271              		.size	commands_init, .-commands_init
 272              		.section	.text.commands_set_send_func,"ax",%progbits
 273              		.align	2
 274              		.p2align 4,,15
 275              		.global	commands_set_send_func
 276              		.thumb
 277              		.thumb_func
 278              		.type	commands_set_send_func, %function
 279              	commands_set_send_func:
 280              	.LFB257:
 281              		.loc 1 83 0
 282              		.cfi_startproc
 283              		@ args = 0, pretend = 0, frame = 0
 284              		@ frame_needed = 0, uses_anonymous_args = 0
 285              		@ link register save eliminated.
ARM GAS  /tmp/cc0XcXNK.s 			page 6


 286              	.LVL10:
 287              		.loc 1 84 0
 288 0000 014B     		ldr	r3, .L18
 289 0002 1860     		str	r0, [r3]
 290 0004 7047     		bx	lr
 291              	.L19:
 292 0006 00BF     		.align	2
 293              	.L18:
 294 0008 00000000 		.word	.LANCHOR9
 295              		.cfi_endproc
 296              	.LFE257:
 297              		.size	commands_set_send_func, .-commands_set_send_func
 298              		.section	.text.commands_send_packet,"ax",%progbits
 299              		.align	2
 300              		.p2align 4,,15
 301              		.global	commands_send_packet
 302              		.thumb
 303              		.thumb_func
 304              		.type	commands_send_packet, %function
 305              	commands_send_packet:
 306              	.LFB258:
 307              		.loc 1 96 0
 308              		.cfi_startproc
 309              		@ args = 0, pretend = 0, frame = 0
 310              		@ frame_needed = 0, uses_anonymous_args = 0
 311              		@ link register save eliminated.
 312              	.LVL11:
 313              		.loc 1 97 0
 314 0000 024B     		ldr	r3, .L22
 315 0002 1B68     		ldr	r3, [r3]
 316 0004 03B1     		cbz	r3, .L20
 317              		.loc 1 98 0
 318 0006 1847     		bx	r3	@ indirect register sibling call
 319              	.LVL12:
 320              	.L20:
 321 0008 7047     		bx	lr
 322              	.L23:
 323 000a 00BF     		.align	2
 324              	.L22:
 325 000c 00000000 		.word	.LANCHOR9
 326              		.cfi_endproc
 327              	.LFE258:
 328              		.size	commands_send_packet, .-commands_send_packet
 329              		.section	.text.commands_process_packet,"ax",%progbits
 330              		.align	2
 331              		.p2align 4,,15
 332              		.global	commands_process_packet
 333              		.thumb
 334              		.thumb_func
 335              		.type	commands_process_packet, %function
 336              	commands_process_packet:
 337              	.LFB259:
 338              		.loc 1 111 0
 339              		.cfi_startproc
 340              		@ args = 0, pretend = 0, frame = 1864
 341              		@ frame_needed = 0, uses_anonymous_args = 0
 342              	.LVL13:
ARM GAS  /tmp/cc0XcXNK.s 			page 7


 343              		.loc 1 112 0
 344 0000 D9B3     		cbz	r1, .L199
 345              		.loc 1 111 0
 346 0002 2DE9F04F 		push	{r4, r5, r6, r7, r8, r9, r10, fp, lr}
 347              		.cfi_def_cfa_offset 36
 348              		.cfi_offset 4, -36
 349              		.cfi_offset 5, -32
 350              		.cfi_offset 6, -28
 351              		.cfi_offset 7, -24
 352              		.cfi_offset 8, -20
 353              		.cfi_offset 9, -16
 354              		.cfi_offset 10, -12
 355              		.cfi_offset 11, -8
 356              		.cfi_offset 14, -4
 357 0006 2DED068B 		fstmfdd	sp!, {d8, d9, d10}
 358              		.cfi_def_cfa_offset 60
 359              		.cfi_offset 80, -60
 360              		.cfi_offset 81, -56
 361              		.cfi_offset 82, -52
 362              		.cfi_offset 83, -48
 363              		.cfi_offset 84, -44
 364              		.cfi_offset 85, -40
 365              		.loc 1 129 0
 366 000a 0446     		mov	r4, r0
 367              		.loc 1 111 0
 368 000c ADF24C7D 		subw	sp, sp, #1868
 369              		.cfi_def_cfa_offset 1928
 370              		.loc 1 129 0
 371 0010 14F8017B 		ldrb	r7, [r4], #1	@ zero_extendqisi2
 372              		.loc 1 117 0
 373 0014 0023     		movs	r3, #0
 374 0016 0D46     		mov	r5, r1
 375 0018 0646     		mov	r6, r0
 376 001a 0393     		str	r3, [sp, #12]
 377              	.LVL14:
 378              		.loc 1 131 0
 379 001c 01F1FF38 		add	r8, r1, #-1
 380              	.LVL15:
 381              		.loc 1 133 0
 382 0020 272F     		cmp	r7, #39
 383 0022 00F21C83 		bhi	.L24
 384 0026 DFE817F0 		tbh	[pc, r7, lsl #1]
 385              	.L28:
 386 002a A70F     		.2byte	(.L27-.L28)/2
 387 002c A30F     		.2byte	(.L29-.L28)/2
 388 002e 8D0F     		.2byte	(.L30-.L28)/2
 389 0030 6F0F     		.2byte	(.L31-.L28)/2
 390 0032 060E     		.2byte	(.L32-.L28)/2
 391 0034 F40D     		.2byte	(.L33-.L28)/2
 392 0036 E20D     		.2byte	(.L34-.L28)/2
 393 0038 D00D     		.2byte	(.L35-.L28)/2
 394 003a C20D     		.2byte	(.L36-.L28)/2
 395 003c B00D     		.2byte	(.L37-.L28)/2
 396 003e 2003     		.2byte	(.L38-.L28)/2
 397 0040 1A03     		.2byte	(.L24-.L28)/2
 398 0042 AD07     		.2byte	(.L39-.L28)/2
 399 0044 2900     		.2byte	(.L40-.L28)/2
ARM GAS  /tmp/cc0XcXNK.s 			page 8


 400 0046 2900     		.2byte	(.L40-.L28)/2
 401 0048 C10A     		.2byte	(.L41-.L28)/2
 402 004a F904     		.2byte	(.L42-.L28)/2
 403 004c F904     		.2byte	(.L42-.L28)/2
 404 004e 9C0A     		.2byte	(.L43-.L28)/2
 405 0050 A307     		.2byte	(.L44-.L28)/2
 406 0052 1A03     		.2byte	(.L24-.L28)/2
 407 0054 1A03     		.2byte	(.L24-.L28)/2
 408 0056 1A03     		.2byte	(.L24-.L28)/2
 409 0058 7A0A     		.2byte	(.L45-.L28)/2
 410 005a AF04     		.2byte	(.L46-.L28)/2
 411 005c 5204     		.2byte	(.L47-.L28)/2
 412 005e F203     		.2byte	(.L48-.L28)/2
 413 0060 A603     		.2byte	(.L49-.L28)/2
 414 0062 A403     		.2byte	(.L50-.L28)/2
 415 0064 3703     		.2byte	(.L51-.L28)/2
 416 0066 3A03     		.2byte	(.L52-.L28)/2
 417 0068 7403     		.2byte	(.L53-.L28)/2
 418 006a 6803     		.2byte	(.L54-.L28)/2
 419 006c C911     		.2byte	(.L55-.L28)/2
 420 006e A311     		.2byte	(.L56-.L28)/2
 421 0070 D111     		.2byte	(.L57-.L28)/2
 422 0072 7110     		.2byte	(.L58-.L28)/2
 423 0074 1A03     		.2byte	(.L24-.L28)/2
 424 0076 B70F     		.2byte	(.L59-.L28)/2
 425 0078 3110     		.2byte	(.L60-.L28)/2
 426              	.LVL16:
 427              		.p2align 1
 428              	.L199:
 429              		.cfi_def_cfa_offset 0
 430              		.cfi_restore 4
 431              		.cfi_restore 5
 432              		.cfi_restore 6
 433              		.cfi_restore 7
 434              		.cfi_restore 8
 435              		.cfi_restore 9
 436              		.cfi_restore 10
 437              		.cfi_restore 11
 438              		.cfi_restore 14
 439              		.cfi_restore 80
 440              		.cfi_restore 81
 441              		.cfi_restore 82
 442              		.cfi_restore 83
 443              		.cfi_restore 84
 444              		.cfi_restore 85
 445 007a 7047     		bx	lr
 446              	.LVL17:
 447              	.L40:
 448              		.cfi_def_cfa_offset 1928
 449              		.cfi_offset 4, -36
 450              		.cfi_offset 5, -32
 451              		.cfi_offset 6, -28
 452              		.cfi_offset 7, -24
 453              		.cfi_offset 8, -20
 454              		.cfi_offset 9, -16
 455              		.cfi_offset 10, -12
 456              		.cfi_offset 11, -8
ARM GAS  /tmp/cc0XcXNK.s 			page 9


 457              		.cfi_offset 14, -4
 458              		.cfi_offset 80, -60
 459              		.cfi_offset 81, -56
 460              		.cfi_offset 82, -52
 461              		.cfi_offset 83, -48
 462              		.cfi_offset 84, -44
 463              		.cfi_offset 85, -40
 464              	.LBB100:
 465              		.loc 1 360 0
 466 007c 0D2F     		cmp	r7, #13
 467 007e 02F02C82 		beq	.L210
 468              		.loc 1 363 0
 469 0082 E348     		ldr	r0, .L216
 470 0084 FFF7FEFF 		bl	conf_general_get_default_mc_configuration
 471              	.LVL18:
 472              	.L66:
 473              		.loc 1 369 0
 474 0088 E14D     		ldr	r5, .L216
 475              		.loc 1 374 0
 476 008a 9FEDE28A 		flds	s16, .L216+4
 477 008e D5ED017A 		flds	s15, [r5, #4]
 478              		.loc 1 367 0
 479 0092 E14C     		ldr	r4, .L216+8
 480              	.LVL19:
 481              		.loc 1 369 0
 482 0094 2B78     		ldrb	r3, [r5]	@ zero_extendqisi2
 483              		.loc 1 370 0
 484 0096 95F801C0 		ldrb	ip, [r5, #1]	@ zero_extendqisi2
 485              		.loc 1 371 0
 486 009a 95F802E0 		ldrb	lr, [r5, #2]	@ zero_extendqisi2
 487              		.loc 1 372 0
 488 009e EE78     		ldrb	r6, [r5, #3]	@ zero_extendqisi2
 489              	.LVL20:
 490              		.loc 1 369 0
 491 00a0 6370     		strb	r3, [r4, #1]
 492              		.loc 1 374 0
 493 00a2 67EE887A 		fmuls	s15, s15, s16
 494              		.loc 1 372 0
 495 00a6 0523     		movs	r3, #5
 496              		.loc 1 374 0
 497 00a8 FDEEE77A 		ftosizs	s15, s15
 498 00ac 2046     		mov	r0, r4
 499 00ae 17EE901A 		fmrs	r1, s15	@ int
 500 00b2 03AA     		add	r2, sp, #12
 501              		.loc 1 370 0
 502 00b4 84F802C0 		strb	ip, [r4, #2]
 503              		.loc 1 371 0
 504 00b8 84F803E0 		strb	lr, [r4, #3]
 505              		.loc 1 372 0
 506 00bc 0393     		str	r3, [sp, #12]
 507              		.loc 1 367 0
 508 00be 2770     		strb	r7, [r4]
 509              		.loc 1 372 0
 510 00c0 2671     		strb	r6, [r4, #4]
 511              		.loc 1 374 0
 512 00c2 FFF7FEFF 		bl	buffer_append_int32
 513              	.LVL21:
ARM GAS  /tmp/cc0XcXNK.s 			page 10


 514              		.loc 1 375 0
 515 00c6 D5ED027A 		flds	s15, [r5, #8]
 516              		.loc 1 393 0
 517 00ca DFEDD48A 		flds	s17, .L216+12
 518              		.loc 1 375 0
 519 00ce 67EE887A 		fmuls	s15, s15, s16
 520 00d2 2046     		mov	r0, r4
 521 00d4 FDEEE77A 		ftosizs	s15, s15
 522 00d8 03AA     		add	r2, sp, #12
 523 00da 17EE901A 		fmrs	r1, s15	@ int
 524 00de FFF7FEFF 		bl	buffer_append_int32
 525              	.LVL22:
 526              		.loc 1 376 0
 527 00e2 D5ED037A 		flds	s15, [r5, #12]
 528 00e6 67EE887A 		fmuls	s15, s15, s16
 529 00ea 2046     		mov	r0, r4
 530 00ec FDEEE77A 		ftosizs	s15, s15
 531 00f0 03AA     		add	r2, sp, #12
 532 00f2 17EE901A 		fmrs	r1, s15	@ int
 533 00f6 FFF7FEFF 		bl	buffer_append_int32
 534              	.LVL23:
 535              		.loc 1 377 0
 536 00fa D5ED047A 		flds	s15, [r5, #16]
 537 00fe 67EE887A 		fmuls	s15, s15, s16
 538 0102 2046     		mov	r0, r4
 539 0104 FDEEE77A 		ftosizs	s15, s15
 540 0108 03AA     		add	r2, sp, #12
 541 010a 17EE901A 		fmrs	r1, s15	@ int
 542 010e FFF7FEFF 		bl	buffer_append_int32
 543              	.LVL24:
 544              		.loc 1 378 0
 545 0112 D5ED057A 		flds	s15, [r5, #20]
 546 0116 67EE887A 		fmuls	s15, s15, s16
 547 011a 2046     		mov	r0, r4
 548 011c FDEEE77A 		ftosizs	s15, s15
 549 0120 03AA     		add	r2, sp, #12
 550 0122 17EE901A 		fmrs	r1, s15	@ int
 551 0126 FFF7FEFF 		bl	buffer_append_int32
 552              	.LVL25:
 553              		.loc 1 379 0
 554 012a D5ED067A 		flds	s15, [r5, #24]
 555 012e 67EE887A 		fmuls	s15, s15, s16
 556 0132 2046     		mov	r0, r4
 557 0134 FDEEE77A 		ftosizs	s15, s15
 558 0138 03AA     		add	r2, sp, #12
 559 013a 17EE901A 		fmrs	r1, s15	@ int
 560 013e FFF7FEFF 		bl	buffer_append_int32
 561              	.LVL26:
 562              		.loc 1 380 0
 563 0142 D5ED077A 		flds	s15, [r5, #28]
 564 0146 67EE887A 		fmuls	s15, s15, s16
 565 014a 2046     		mov	r0, r4
 566 014c FDEEE77A 		ftosizs	s15, s15
 567 0150 03AA     		add	r2, sp, #12
 568 0152 17EE901A 		fmrs	r1, s15	@ int
 569 0156 FFF7FEFF 		bl	buffer_append_int32
 570              	.LVL27:
ARM GAS  /tmp/cc0XcXNK.s 			page 11


 571              		.loc 1 381 0
 572 015a D5ED087A 		flds	s15, [r5, #32]
 573 015e 67EE887A 		fmuls	s15, s15, s16
 574 0162 2046     		mov	r0, r4
 575 0164 FDEEE77A 		ftosizs	s15, s15
 576 0168 03AA     		add	r2, sp, #12
 577 016a 17EE901A 		fmrs	r1, s15	@ int
 578 016e FFF7FEFF 		bl	buffer_append_int32
 579              	.LVL28:
 580              		.loc 1 382 0
 581 0172 D5ED097A 		flds	s15, [r5, #36]
 582 0176 67EE887A 		fmuls	s15, s15, s16
 583 017a 2046     		mov	r0, r4
 584 017c FDEEE77A 		ftosizs	s15, s15
 585 0180 03AA     		add	r2, sp, #12
 586 0182 17EE901A 		fmrs	r1, s15	@ int
 587 0186 FFF7FEFF 		bl	buffer_append_int32
 588              	.LVL29:
 589              		.loc 1 383 0
 590 018a D5ED0A7A 		flds	s15, [r5, #40]
 591 018e 67EE887A 		fmuls	s15, s15, s16
 592 0192 2046     		mov	r0, r4
 593 0194 FDEEE77A 		ftosizs	s15, s15
 594 0198 03AA     		add	r2, sp, #12
 595 019a 17EE901A 		fmrs	r1, s15	@ int
 596 019e FFF7FEFF 		bl	buffer_append_int32
 597              	.LVL30:
 598              		.loc 1 384 0
 599 01a2 D5ED0B7A 		flds	s15, [r5, #44]
 600 01a6 67EE887A 		fmuls	s15, s15, s16
 601 01aa 03AA     		add	r2, sp, #12
 602 01ac FDEEE77A 		ftosizs	s15, s15
 603 01b0 2046     		mov	r0, r4
 604 01b2 17EE901A 		fmrs	r1, s15	@ int
 605 01b6 FFF7FEFF 		bl	buffer_append_int32
 606              	.LVL31:
 607              		.loc 1 385 0
 608 01ba 95ED0C0A 		flds	s0, [r5, #48]
 609 01be F0EE480A 		fcpys	s1, s16
 610 01c2 2046     		mov	r0, r4
 611 01c4 03A9     		add	r1, sp, #12
 612 01c6 FFF7FEFF 		bl	buffer_append_float32
 613              	.LVL32:
 614              		.loc 1 386 0
 615 01ca 95ED0D0A 		flds	s0, [r5, #52]
 616 01ce F0EE480A 		fcpys	s1, s16
 617 01d2 2046     		mov	r0, r4
 618 01d4 03A9     		add	r1, sp, #12
 619 01d6 FFF7FEFF 		bl	buffer_append_float32
 620              	.LVL33:
 621              		.loc 1 389 0
 622 01da D5ED0F7A 		flds	s15, [r5, #60]
 623              		.loc 1 387 0
 624 01de 039B     		ldr	r3, [sp, #12]
 625 01e0 95F83820 		ldrb	r2, [r5, #56]	@ zero_extendqisi2
 626 01e4 E254     		strb	r2, [r4, r3]
 627              		.loc 1 389 0
ARM GAS  /tmp/cc0XcXNK.s 			page 12


 628 01e6 67EE887A 		fmuls	s15, s15, s16
 629              		.loc 1 388 0
 630 01ea E618     		adds	r6, r4, r3
 631              		.loc 1 389 0
 632 01ec FDEEE77A 		ftosizs	s15, s15
 633              		.loc 1 388 0
 634 01f0 0233     		adds	r3, r3, #2
 635 01f2 95F83970 		ldrb	r7, [r5, #57]	@ zero_extendqisi2
 636              	.LVL34:
 637 01f6 0393     		str	r3, [sp, #12]
 638              		.loc 1 389 0
 639 01f8 17EE901A 		fmrs	r1, s15	@ int
 640 01fc 2046     		mov	r0, r4
 641 01fe 03AA     		add	r2, sp, #12
 642              		.loc 1 388 0
 643 0200 7770     		strb	r7, [r6, #1]
 644              		.loc 1 389 0
 645 0202 FFF7FEFF 		bl	buffer_append_int32
 646              	.LVL35:
 647              		.loc 1 390 0
 648 0206 D5ED107A 		flds	s15, [r5, #64]
 649 020a 67EE887A 		fmuls	s15, s15, s16
 650 020e 2046     		mov	r0, r4
 651 0210 FDEEE77A 		ftosizs	s15, s15
 652 0214 03AA     		add	r2, sp, #12
 653 0216 17EE901A 		fmrs	r1, s15	@ int
 654 021a FFF7FEFF 		bl	buffer_append_int32
 655              	.LVL36:
 656              		.loc 1 391 0
 657 021e D5ED117A 		flds	s15, [r5, #68]
 658 0222 67EE887A 		fmuls	s15, s15, s16
 659 0226 2046     		mov	r0, r4
 660 0228 FDEEE77A 		ftosizs	s15, s15
 661 022c 03AA     		add	r2, sp, #12
 662 022e 17EE901A 		fmrs	r1, s15	@ int
 663 0232 FFF7FEFF 		bl	buffer_append_int32
 664              	.LVL37:
 665              		.loc 1 392 0
 666 0236 D5ED127A 		flds	s15, [r5, #72]
 667 023a 67EE887A 		fmuls	s15, s15, s16
 668 023e 2046     		mov	r0, r4
 669 0240 FDEEE77A 		ftosizs	s15, s15
 670 0244 03AA     		add	r2, sp, #12
 671 0246 17EE901A 		fmrs	r1, s15	@ int
 672 024a FFF7FEFF 		bl	buffer_append_int32
 673              	.LVL38:
 674              		.loc 1 393 0
 675 024e D5ED137A 		flds	s15, [r5, #76]
 676 0252 67EEA87A 		fmuls	s15, s15, s17
 677 0256 2046     		mov	r0, r4
 678 0258 FDEEE77A 		ftosizs	s15, s15
 679 025c 03AA     		add	r2, sp, #12
 680 025e 17EE901A 		fmrs	r1, s15	@ int
 681 0262 FFF7FEFF 		bl	buffer_append_int32
 682              	.LVL39:
 683              		.loc 1 394 0
 684 0266 D5ED147A 		flds	s15, [r5, #80]
ARM GAS  /tmp/cc0XcXNK.s 			page 13


 685 026a 67EEA87A 		fmuls	s15, s15, s17
 686 026e 2046     		mov	r0, r4
 687 0270 FDEEE77A 		ftosizs	s15, s15
 688 0274 03AA     		add	r2, sp, #12
 689 0276 17EE901A 		fmrs	r1, s15	@ int
 690 027a FFF7FEFF 		bl	buffer_append_int32
 691              	.LVL40:
 692              		.loc 1 396 0
 693 027e D5ED197A 		flds	s15, [r5, #100]
 694 0282 67EE887A 		fmuls	s15, s15, s16
 695 0286 2046     		mov	r0, r4
 696 0288 FDEEE77A 		ftosizs	s15, s15
 697 028c 03AA     		add	r2, sp, #12
 698 028e 17EE901A 		fmrs	r1, s15	@ int
 699 0292 FFF7FEFF 		bl	buffer_append_int32
 700              	.LVL41:
 701              		.loc 1 397 0
 702 0296 D5ED1A7A 		flds	s15, [r5, #104]
 703 029a 67EE887A 		fmuls	s15, s15, s16
 704 029e 2046     		mov	r0, r4
 705 02a0 FDEEE77A 		ftosizs	s15, s15
 706 02a4 03AA     		add	r2, sp, #12
 707 02a6 17EE901A 		fmrs	r1, s15	@ int
 708 02aa FFF7FEFF 		bl	buffer_append_int32
 709              	.LVL42:
 710              		.loc 1 398 0
 711 02ae D5ED1B7A 		flds	s15, [r5, #108]
 712 02b2 67EE887A 		fmuls	s15, s15, s16
 713 02b6 2046     		mov	r0, r4
 714 02b8 FDEEE77A 		ftosizs	s15, s15
 715 02bc 03AA     		add	r2, sp, #12
 716 02be 17EE901A 		fmrs	r1, s15	@ int
 717 02c2 FFF7FEFF 		bl	buffer_append_int32
 718              	.LVL43:
 719              		.loc 1 399 0
 720 02c6 D5ED1C7A 		flds	s15, [r5, #112]
 721 02ca 67EE887A 		fmuls	s15, s15, s16
 722 02ce 2046     		mov	r0, r4
 723 02d0 FDEEE77A 		ftosizs	s15, s15
 724 02d4 03AA     		add	r2, sp, #12
 725 02d6 17EE901A 		fmrs	r1, s15	@ int
 726 02da FFF7FEFF 		bl	buffer_append_int32
 727              	.LVL44:
 728              		.loc 1 400 0
 729 02de D5ED1D7A 		flds	s15, [r5, #116]
 730 02e2 67EE887A 		fmuls	s15, s15, s16
 731 02e6 2046     		mov	r0, r4
 732 02e8 FDEEE77A 		ftosizs	s15, s15
 733 02ec 03AA     		add	r2, sp, #12
 734 02ee 17EE901A 		fmrs	r1, s15	@ int
 735 02f2 FFF7FEFF 		bl	buffer_append_int32
 736              	.LVL45:
 737              		.loc 1 401 0
 738 02f6 D5ED1E7A 		flds	s15, [r5, #120]
 739 02fa 67EE887A 		fmuls	s15, s15, s16
 740 02fe 2046     		mov	r0, r4
 741 0300 FDEEE77A 		ftosizs	s15, s15
ARM GAS  /tmp/cc0XcXNK.s 			page 14


 742 0304 03AA     		add	r2, sp, #12
 743 0306 17EE901A 		fmrs	r1, s15	@ int
 744 030a FFF7FEFF 		bl	buffer_append_int32
 745              	.LVL46:
 746              		.loc 1 402 0
 747 030e D5ED1F7A 		flds	s15, [r5, #124]
 748 0312 67EE887A 		fmuls	s15, s15, s16
 749 0316 2046     		mov	r0, r4
 750 0318 FDEEE77A 		ftosizs	s15, s15
 751 031c 03AA     		add	r2, sp, #12
 752 031e 17EE901A 		fmrs	r1, s15	@ int
 753 0322 FFF7FEFF 		bl	buffer_append_int32
 754              	.LVL47:
 755              		.loc 1 406 0
 756 0326 D5ED227A 		flds	s15, [r5, #136]
 757              		.loc 1 404 0
 758 032a 039B     		ldr	r3, [sp, #12]
 759 032c 05F18002 		add	r2, r5, #128
 760              		.loc 1 406 0
 761 0330 67EE887A 		fmuls	s15, s15, s16
 762              		.loc 1 404 0
 763 0334 03CA     		ldmia	r2!, {r0, r1}
 764              		.loc 1 406 0
 765 0336 FDEEE77A 		ftosizs	s15, s15
 766              		.loc 1 404 0
 767 033a E218     		adds	r2, r4, r3
 768 033c E050     		str	r0, [r4, r3]	@ unaligned
 769              		.loc 1 405 0
 770 033e 0833     		adds	r3, r3, #8
 771              		.loc 1 404 0
 772 0340 5160     		str	r1, [r2, #4]	@ unaligned
 773              		.loc 1 406 0
 774 0342 2046     		mov	r0, r4
 775 0344 17EE901A 		fmrs	r1, s15	@ int
 776 0348 03AA     		add	r2, sp, #12
 777              		.loc 1 405 0
 778 034a 0393     		str	r3, [sp, #12]
 779              		.loc 1 406 0
 780 034c FFF7FEFF 		bl	buffer_append_int32
 781              	.LVL48:
 782              		.loc 1 408 0
 783 0350 95ED230A 		flds	s0, [r5, #140]
 784 0354 DFED330A 		flds	s1, .L216+20
 785 0358 2046     		mov	r0, r4
 786 035a 03A9     		add	r1, sp, #12
 787 035c FFF7FEFF 		bl	buffer_append_float32
 788              	.LVL49:
 789              		.loc 1 409 0
 790 0360 95ED240A 		flds	s0, [r5, #144]
 791 0364 DFED2F0A 		flds	s1, .L216+20
 792 0368 2046     		mov	r0, r4
 793 036a 03A9     		add	r1, sp, #12
 794 036c FFF7FEFF 		bl	buffer_append_float32
 795              	.LVL50:
 796              		.loc 1 410 0
 797 0370 95ED250A 		flds	s0, [r5, #148]
 798 0374 F0EE480A 		fcpys	s1, s16
ARM GAS  /tmp/cc0XcXNK.s 			page 15


 799 0378 2046     		mov	r0, r4
 800 037a 03A9     		add	r1, sp, #12
 801 037c FFF7FEFF 		bl	buffer_append_float32
 802              	.LVL51:
 803              		.loc 1 411 0
 804 0380 95ED260A 		flds	s0, [r5, #152]
 805 0384 2046     		mov	r0, r4
 806 0386 F0EE680A 		fcpys	s1, s17
 807 038a 03A9     		add	r1, sp, #12
 808 038c FFF7FEFF 		bl	buffer_append_float32
 809              	.LVL52:
 810              		.loc 1 412 0
 811 0390 039B     		ldr	r3, [sp, #12]
 812 0392 95F8A020 		ldrb	r2, [r5, #160]	@ zero_extendqisi2
 813 0396 E254     		strb	r2, [r4, r3]
 814              		.loc 1 413 0
 815 0398 95ED270A 		flds	s0, [r5, #156]
 816              		.loc 1 412 0
 817 039c 0133     		adds	r3, r3, #1
 818              		.loc 1 413 0
 819 039e F0EE480A 		fcpys	s1, s16
 820 03a2 2046     		mov	r0, r4
 821 03a4 03A9     		add	r1, sp, #12
 822              		.loc 1 412 0
 823 03a6 0393     		str	r3, [sp, #12]
 824              		.loc 1 413 0
 825 03a8 FFF7FEFF 		bl	buffer_append_float32
 826              	.LVL53:
 827              		.loc 1 414 0
 828 03ac 95ED290A 		flds	s0, [r5, #164]
 829 03b0 F0EE480A 		fcpys	s1, s16
 830 03b4 2046     		mov	r0, r4
 831 03b6 03A9     		add	r1, sp, #12
 832 03b8 FFF7FEFF 		bl	buffer_append_float32
 833              	.LVL54:
 834              		.loc 1 415 0
 835 03bc 039B     		ldr	r3, [sp, #12]
 836 03be 95F8DC20 		ldrb	r2, [r5, #220]	@ zero_extendqisi2
 837 03c2 E254     		strb	r2, [r4, r3]
 838              		.loc 1 416 0
 839 03c4 95ED2E0A 		flds	s0, [r5, #184]
 840              		.loc 1 415 0
 841 03c8 0133     		adds	r3, r3, #1
 842              		.loc 1 416 0
 843 03ca F0EE480A 		fcpys	s1, s16
 844 03ce 2046     		mov	r0, r4
 845 03d0 03A9     		add	r1, sp, #12
 846              		.loc 1 415 0
 847 03d2 0393     		str	r3, [sp, #12]
 848              		.loc 1 416 0
 849 03d4 FFF7FEFF 		bl	buffer_append_float32
 850              	.LVL55:
 851              		.loc 1 417 0
 852 03d8 95ED2F0A 		flds	s0, [r5, #188]
 853 03dc F0EE480A 		fcpys	s1, s16
 854 03e0 2046     		mov	r0, r4
 855 03e2 03A9     		add	r1, sp, #12
ARM GAS  /tmp/cc0XcXNK.s 			page 16


 856 03e4 FFF7FEFF 		bl	buffer_append_float32
 857              	.LVL56:
 858              		.loc 1 418 0
 859 03e8 95ED2A0A 		flds	s0, [r5, #168]
 860 03ec DFED0C0A 		flds	s1, .L216+16
 861 03f0 2046     		mov	r0, r4
 862 03f2 03A9     		add	r1, sp, #12
 863 03f4 FFF7FEFF 		bl	buffer_append_float32
 864              	.LVL57:
 865              		.loc 1 419 0
 866 03f8 95ED2B0A 		flds	s0, [r5, #172]
 867 03fc DFED090A 		flds	s1, .L216+20
 868 0400 2046     		mov	r0, r4
 869 0402 03A9     		add	r1, sp, #12
 870 0404 FFF7FEFF 		bl	buffer_append_float32
 871              	.LVL58:
 872              		.loc 1 420 0
 873 0408 95ED2C0A 		flds	s0, [r5, #176]
 874 040c 0CE0     		b	.L217
 875              	.L218:
 876 040e 00BF     		.align	2
 877              	.L216:
 878 0410 00000000 		.word	.LANCHOR12
 879 0414 00007A44 		.word	1148846080
 880 0418 00000000 		.word	.LANCHOR8
 881 041c 00247449 		.word	1232348160
 882 0420 20BCBE4C 		.word	1287568416
 883 0424 0050C347 		.word	1203982336
 884              	.L217:
 885 0428 5FED020A 		flds	s1, .L216+20
 886 042c 2046     		mov	r0, r4
 887 042e 03A9     		add	r1, sp, #12
 888 0430 FFF7FEFF 		bl	buffer_append_float32
 889              	.LVL59:
 890              		.loc 1 421 0
 891 0434 95ED2D0A 		flds	s0, [r5, #180]
 892 0438 2046     		mov	r0, r4
 893 043a F7EE000A 		fconsts	s1, #112
 894 043e 03A9     		add	r1, sp, #12
 895 0440 FFF7FEFF 		bl	buffer_append_float32
 896              	.LVL60:
 897              		.loc 1 422 0
 898 0444 95ED300A 		flds	s0, [r5, #192]
 899 0448 F0EE480A 		fcpys	s1, s16
 900 044c 2046     		mov	r0, r4
 901 044e 03A9     		add	r1, sp, #12
 902 0450 FFF7FEFF 		bl	buffer_append_float32
 903              	.LVL61:
 904              		.loc 1 423 0
 905 0454 95ED310A 		flds	s0, [r5, #196]
 906 0458 F0EE480A 		fcpys	s1, s16
 907 045c 2046     		mov	r0, r4
 908 045e 03A9     		add	r1, sp, #12
 909 0460 FFF7FEFF 		bl	buffer_append_float32
 910              	.LVL62:
 911              		.loc 1 424 0
 912 0464 95ED320A 		flds	s0, [r5, #200]
ARM GAS  /tmp/cc0XcXNK.s 			page 17


 913 0468 F0EE480A 		fcpys	s1, s16
 914 046c 2046     		mov	r0, r4
 915 046e 03A9     		add	r1, sp, #12
 916 0470 FFF7FEFF 		bl	buffer_append_float32
 917              	.LVL63:
 918              		.loc 1 425 0
 919 0474 95ED330A 		flds	s0, [r5, #204]
 920 0478 F0EE480A 		fcpys	s1, s16
 921 047c 2046     		mov	r0, r4
 922 047e 03A9     		add	r1, sp, #12
 923 0480 FFF7FEFF 		bl	buffer_append_float32
 924              	.LVL64:
 925              		.loc 1 426 0
 926 0484 95ED340A 		flds	s0, [r5, #208]
 927 0488 F0EE480A 		fcpys	s1, s16
 928 048c 2046     		mov	r0, r4
 929 048e 03A9     		add	r1, sp, #12
 930 0490 FFF7FEFF 		bl	buffer_append_float32
 931              	.LVL65:
 932              		.loc 1 427 0
 933 0494 95ED350A 		flds	s0, [r5, #212]
 934 0498 F0EE480A 		fcpys	s1, s16
 935 049c 2046     		mov	r0, r4
 936 049e 03A9     		add	r1, sp, #12
 937 04a0 FFF7FEFF 		bl	buffer_append_float32
 938              	.LVL66:
 939              		.loc 1 428 0
 940 04a4 95ED360A 		flds	s0, [r5, #216]
 941 04a8 F0EE480A 		fcpys	s1, s16
 942 04ac 2046     		mov	r0, r4
 943 04ae 03A9     		add	r1, sp, #12
 944 04b0 FFF7FEFF 		bl	buffer_append_float32
 945              	.LVL67:
 946              		.loc 1 431 0
 947 04b4 D5ED3A7A 		flds	s15, [r5, #232]
 948              		.loc 1 429 0
 949 04b8 039B     		ldr	r3, [sp, #12]
 950 04ba 2A46     		mov	r2, r5
 951              		.loc 1 431 0
 952 04bc 67EE887A 		fmuls	s15, s15, s16
 953              		.loc 1 429 0
 954 04c0 52F8DD1F 		ldr	r1, [r2, #221]!	@ unaligned
 955 04c4 E150     		str	r1, [r4, r3]	@ unaligned
 956              		.loc 1 431 0
 957 04c6 FDEEE77A 		ftosizs	s15, s15
 958              		.loc 1 429 0
 959 04ca E118     		adds	r1, r4, r3
 960 04cc 5268     		ldr	r2, [r2, #4]	@ unaligned
 961 04ce 4A60     		str	r2, [r1, #4]	@ unaligned
 962              		.loc 1 430 0
 963 04d0 0833     		adds	r3, r3, #8
 964              		.loc 1 431 0
 965 04d2 17EE901A 		fmrs	r1, s15	@ int
 966 04d6 2046     		mov	r0, r4
 967 04d8 03AA     		add	r2, sp, #12
 968              		.loc 1 430 0
 969 04da 0393     		str	r3, [sp, #12]
ARM GAS  /tmp/cc0XcXNK.s 			page 18


 970              		.loc 1 431 0
 971 04dc FFF7FEFF 		bl	buffer_append_int32
 972              	.LVL68:
 973              		.loc 1 433 0
 974 04e0 D5ED3B7A 		flds	s15, [r5, #236]
 975 04e4 67EEA87A 		fmuls	s15, s15, s17
 976 04e8 2046     		mov	r0, r4
 977 04ea FDEEE77A 		ftosizs	s15, s15
 978 04ee 03AA     		add	r2, sp, #12
 979 04f0 17EE901A 		fmrs	r1, s15	@ int
 980 04f4 FFF7FEFF 		bl	buffer_append_int32
 981              	.LVL69:
 982              		.loc 1 434 0
 983 04f8 D5ED3C7A 		flds	s15, [r5, #240]
 984 04fc 67EEA87A 		fmuls	s15, s15, s17
 985 0500 2046     		mov	r0, r4
 986 0502 FDEEE77A 		ftosizs	s15, s15
 987 0506 03AA     		add	r2, sp, #12
 988 0508 17EE901A 		fmrs	r1, s15	@ int
 989 050c FFF7FEFF 		bl	buffer_append_int32
 990              	.LVL70:
 991              		.loc 1 435 0
 992 0510 D5ED3D7A 		flds	s15, [r5, #244]
 993 0514 67EEA87A 		fmuls	s15, s15, s17
 994 0518 2046     		mov	r0, r4
 995 051a FDEEE77A 		ftosizs	s15, s15
 996 051e 03AA     		add	r2, sp, #12
 997 0520 17EE901A 		fmrs	r1, s15	@ int
 998 0524 FFF7FEFF 		bl	buffer_append_int32
 999              	.LVL71:
 1000              		.loc 1 436 0
 1001 0528 D5ED3E7A 		flds	s15, [r5, #248]
 1002 052c 67EE887A 		fmuls	s15, s15, s16
 1003 0530 2046     		mov	r0, r4
 1004 0532 FDEEE77A 		ftosizs	s15, s15
 1005 0536 03AA     		add	r2, sp, #12
 1006 0538 17EE901A 		fmrs	r1, s15	@ int
 1007 053c FFF7FEFF 		bl	buffer_append_int32
 1008              	.LVL72:
 1009              		.loc 1 438 0
 1010 0540 D5ED407A 		flds	s15, [r5, #256]
 1011 0544 67EEA87A 		fmuls	s15, s15, s17
 1012 0548 2046     		mov	r0, r4
 1013 054a FDEEE77A 		ftosizs	s15, s15
 1014 054e 03AA     		add	r2, sp, #12
 1015 0550 17EE901A 		fmrs	r1, s15	@ int
 1016 0554 FFF7FEFF 		bl	buffer_append_int32
 1017              	.LVL73:
 1018              		.loc 1 439 0
 1019 0558 D5ED417A 		flds	s15, [r5, #260]
 1020 055c 67EEA87A 		fmuls	s15, s15, s17
 1021 0560 2046     		mov	r0, r4
 1022 0562 FDEEE77A 		ftosizs	s15, s15
 1023 0566 03AA     		add	r2, sp, #12
 1024 0568 17EE901A 		fmrs	r1, s15	@ int
 1025 056c FFF7FEFF 		bl	buffer_append_int32
 1026              	.LVL74:
ARM GAS  /tmp/cc0XcXNK.s 			page 19


 1027              		.loc 1 440 0
 1028 0570 D5ED427A 		flds	s15, [r5, #264]
 1029 0574 67EEA87A 		fmuls	s15, s15, s17
 1030 0578 03AA     		add	r2, sp, #12
 1031 057a FDEEE77A 		ftosizs	s15, s15
 1032 057e 2046     		mov	r0, r4
 1033 0580 17EE901A 		fmrs	r1, s15	@ int
 1034 0584 FFF7FEFF 		bl	buffer_append_int32
 1035              	.LVL75:
 1036              		.loc 1 441 0
 1037 0588 95ED430A 		flds	s0, [r5, #268]
 1038 058c 5FED5B0A 		flds	s1, .L216+20
 1039 0590 2046     		mov	r0, r4
 1040 0592 03A9     		add	r1, sp, #12
 1041 0594 FFF7FEFF 		bl	buffer_append_float32
 1042              	.LVL76:
 1043              		.loc 1 443 0
 1044 0598 D5ED447A 		flds	s15, [r5, #272]
 1045 059c 67EEA87A 		fmuls	s15, s15, s17
 1046 05a0 2046     		mov	r0, r4
 1047 05a2 FDEEE77A 		ftosizs	s15, s15
 1048 05a6 03AA     		add	r2, sp, #12
 1049 05a8 17EE901A 		fmrs	r1, s15	@ int
 1050 05ac FFF7FEFF 		bl	buffer_append_int32
 1051              	.LVL77:
 1052              		.loc 1 444 0
 1053 05b0 D5ED457A 		flds	s15, [r5, #276]
 1054 05b4 27EE888A 		fmuls	s16, s15, s16
 1055 05b8 2046     		mov	r0, r4
 1056 05ba FDEEC87A 		ftosizs	s15, s16
 1057 05be 03AA     		add	r2, sp, #12
 1058 05c0 17EE901A 		fmrs	r1, s15	@ int
 1059 05c4 FFF7FEFF 		bl	buffer_append_int32
 1060              	.LVL78:
 1061              		.loc 1 445 0
 1062 05c8 D5ED467A 		flds	s15, [r5, #280]
 1063 05cc 67EEA87A 		fmuls	s15, s15, s17
 1064 05d0 2046     		mov	r0, r4
 1065 05d2 FDEEE77A 		ftosizs	s15, s15
 1066 05d6 03AA     		add	r2, sp, #12
 1067 05d8 17EE901A 		fmrs	r1, s15	@ int
 1068 05dc FFF7FEFF 		bl	buffer_append_int32
 1069              	.LVL79:
 1070              		.loc 1 446 0
 1071 05e0 D5ED477A 		flds	s15, [r5, #284]
 1072 05e4 67EEA87A 		fmuls	s15, s15, s17
 1073 05e8 2046     		mov	r0, r4
 1074 05ea FDEEE77A 		ftosizs	s15, s15
 1075 05ee 03AA     		add	r2, sp, #12
 1076 05f0 17EE901A 		fmrs	r1, s15	@ int
 1077 05f4 FFF7FEFF 		bl	buffer_append_int32
 1078              	.LVL80:
 1079              		.loc 1 448 0
 1080 05f8 03AA     		add	r2, sp, #12
 1081 05fa D5F82011 		ldr	r1, [r5, #288]
 1082 05fe 2046     		mov	r0, r4
 1083 0600 FFF7FEFF 		bl	buffer_append_int32
ARM GAS  /tmp/cc0XcXNK.s 			page 20


 1084              	.LVL81:
 1085              		.loc 1 449 0
 1086 0604 95ED490A 		flds	s0, [r5, #292]
 1087 0608 2046     		mov	r0, r4
 1088 060a F0EE680A 		fcpys	s1, s17
 1089 060e 03A9     		add	r1, sp, #12
 1090 0610 FFF7FEFF 		bl	buffer_append_float32
 1091              	.LVL82:
 1092              		.loc 1 450 0
 1093 0614 95ED4A0A 		flds	s0, [r5, #296]
 1094 0618 2046     		mov	r0, r4
 1095 061a F0EE680A 		fcpys	s1, s17
 1096 061e 03A9     		add	r1, sp, #12
 1097 0620 FFF7FEFF 		bl	buffer_append_float32
 1098              	.LVL83:
 1099              		.loc 1 451 0
 1100 0624 95ED4B0A 		flds	s0, [r5, #300]
 1101 0628 2046     		mov	r0, r4
 1102 062a F0EE680A 		fcpys	s1, s17
 1103 062e 03A9     		add	r1, sp, #12
 1104 0630 FFF7FEFF 		bl	buffer_append_float32
 1105              	.LVL84:
 1106              		.loc 1 452 0
 1107 0634 D5F83011 		ldr	r1, [r5, #304]
 1108 0638 2046     		mov	r0, r4
 1109 063a 03AA     		add	r2, sp, #12
 1110 063c FFF7FEFF 		bl	buffer_append_uint32
 1111              	.LVL85:
 1112              		.loc 1 453 0
 1113 0640 039B     		ldr	r3, [sp, #12]
 1114              	.LBB101:
 1115              	.LBB102:
 1116              		.loc 1 97 0
 1117 0642 C54A     		ldr	r2, .L219
 1118              	.LBE102:
 1119              	.LBE101:
 1120              		.loc 1 453 0
 1121 0644 95F83411 		ldrb	r1, [r5, #308]	@ zero_extendqisi2
 1122              	.LBB105:
 1123              	.LBB103:
 1124              		.loc 1 97 0
 1125 0648 1268     		ldr	r2, [r2]
 1126              	.LBE103:
 1127              	.LBE105:
 1128              		.loc 1 453 0
 1129 064a E154     		strb	r1, [r4, r3]
 1130              		.loc 1 456 0
 1131 064c E018     		adds	r0, r4, r3
 1132 064e 95F8FC50 		ldrb	r5, [r5, #252]	@ zero_extendqisi2
 1133 0652 4570     		strb	r5, [r0, #1]
 1134              	.LVL86:
 1135 0654 991C     		adds	r1, r3, #2
 1136              	.LVL87:
 1137 0656 0391     		str	r1, [sp, #12]
 1138              	.LBB106:
 1139              	.LBB104:
 1140              		.loc 1 97 0
ARM GAS  /tmp/cc0XcXNK.s 			page 21


 1141 0658 0AB1     		cbz	r2, .L24
 1142              		.loc 1 98 0
 1143 065a 2046     		mov	r0, r4
 1144 065c 9047     		blx	r2
 1145              	.LVL88:
 1146              	.L24:
 1147              	.LBE104:
 1148              	.LBE106:
 1149              	.LBE100:
 1150              		.loc 1 1081 0
 1151 065e 0DF24C7D 		addw	sp, sp, #1868
 1152              		.cfi_remember_state
 1153              		.cfi_def_cfa_offset 60
 1154              		@ sp needed
 1155 0662 BDEC068B 		fldmfdd	sp!, {d8-d10}
 1156              		.cfi_restore 84
 1157              		.cfi_restore 85
 1158              		.cfi_restore 82
 1159              		.cfi_restore 83
 1160              		.cfi_restore 80
 1161              		.cfi_restore 81
 1162              		.cfi_def_cfa_offset 36
 1163 0666 BDE8F08F 		pop	{r4, r5, r6, r7, r8, r9, r10, fp, pc}
 1164              	.LVL89:
 1165              	.L38:
 1166              		.cfi_restore_state
 1167              	.LBB214:
 1168              		.loc 1 224 0
 1169 066a FFF7FEFF 		bl	mc_interface_get_configuration
 1170              	.LVL90:
 1171 066e BB4C     		ldr	r4, .L219+4
 1172              	.LVL91:
 1173 0670 0146     		mov	r1, r0
 1174 0672 4FF49C72 		mov	r2, #312
 1175 0676 2046     		mov	r0, r4
 1176 0678 FFF7FEFF 		bl	memcpy
 1177              	.LVL92:
 1178              		.loc 1 227 0
 1179 067c B849     		ldr	r1, .L219+8
 1180 067e 7378     		ldrb	r3, [r6, #1]	@ zero_extendqisi2
 1181              		.loc 1 229 0
 1182 0680 A278     		ldrb	r2, [r4, #2]	@ zero_extendqisi2
 1183              		.loc 1 227 0
 1184 0682 0B70     		strb	r3, [r1]
 1185 0684 0121     		movs	r1, #1
 1186 0686 0391     		str	r1, [sp, #12]
 1187              		.loc 1 229 0
 1188 0688 32B9     		cbnz	r2, .L51
 1189              		.loc 1 230 0
 1190 068a 002B     		cmp	r3, #0
 1191 068c 01F02187 		beq	.L211
 1192              		.loc 1 232 0
 1193 0690 012B     		cmp	r3, #1
 1194 0692 01D1     		bne	.L51
 1195              		.loc 1 233 0
 1196 0694 FFF7FEFF 		bl	mcpwm_set_detect
 1197              	.LVL93:
ARM GAS  /tmp/cc0XcXNK.s 			page 22


 1198              	.L51:
 1199              		.loc 1 815 0
 1200 0698 FFF7FEFF 		bl	timeout_reset
 1201              	.LVL94:
 1202              		.loc 1 816 0
 1203 069c DFE7     		b	.L24
 1204              	.LVL95:
 1205              	.L52:
 1206              		.loc 1 820 0
 1207 069e B14C     		ldr	r4, .L219+12
 1208              	.LVL96:
 1209              		.loc 1 821 0
 1210 06a0 9FEDB18A 		flds	s16, .L219+16
 1211              		.loc 1 820 0
 1212 06a4 0123     		movs	r3, #1
 1213 06a6 1E22     		movs	r2, #30
 1214              		.loc 1 821 0
 1215 06a8 0020     		movs	r0, #0
 1216              	.LVL97:
 1217              		.loc 1 820 0
 1218 06aa 0393     		str	r3, [sp, #12]
 1219 06ac 2270     		strb	r2, [r4]
 1220              		.loc 1 821 0
 1221 06ae FFF7FEFF 		bl	servodec_get_servo
 1222              	.LVL98:
 1223 06b2 20EE080A 		fmuls	s0, s0, s16
 1224 06b6 2046     		mov	r0, r4
 1225 06b8 FDEEC07A 		ftosizs	s15, s0
 1226 06bc 03AA     		add	r2, sp, #12
 1227 06be 17EE901A 		fmrs	r1, s15	@ int
 1228 06c2 FFF7FEFF 		bl	buffer_append_int32
 1229              	.LVL99:
 1230              		.loc 1 822 0
 1231 06c6 0020     		movs	r0, #0
 1232 06c8 FFF7FEFF 		bl	servodec_get_last_pulse_len
 1233              	.LVL100:
 1234 06cc 20EE080A 		fmuls	s0, s0, s16
 1235              	.L208:
 1236              		.loc 1 839 0
 1237 06d0 FDEEC07A 		ftosizs	s15, s0
 1238 06d4 2046     		mov	r0, r4
 1239 06d6 17EE901A 		fmrs	r1, s15	@ int
 1240 06da 03AA     		add	r2, sp, #12
 1241 06dc FFF7FEFF 		bl	buffer_append_int32
 1242              	.LVL101:
 1243              	.LBB107:
 1244              	.LBB108:
 1245              		.loc 1 97 0
 1246 06e0 9D4B     		ldr	r3, .L219
 1247              	.LBE108:
 1248              	.LBE107:
 1249              		.loc 1 840 0
 1250 06e2 0399     		ldr	r1, [sp, #12]
 1251              	.LVL102:
 1252              	.LBB110:
 1253              	.LBB109:
 1254              		.loc 1 97 0
ARM GAS  /tmp/cc0XcXNK.s 			page 23


 1255 06e4 1B68     		ldr	r3, [r3]
 1256 06e6 002B     		cmp	r3, #0
 1257 06e8 B9D0     		beq	.L24
 1258              	.LVL103:
 1259              	.L204:
 1260              		.loc 1 98 0
 1261 06ea 2046     		mov	r0, r4
 1262 06ec 9847     		blx	r3
 1263              	.LVL104:
 1264              	.LBE109:
 1265              	.LBE110:
 1266              	.LBE214:
 1267              		.loc 1 1081 0
 1268 06ee 0DF24C7D 		addw	sp, sp, #1868
 1269              		.cfi_remember_state
 1270              		.cfi_def_cfa_offset 60
 1271              		@ sp needed
 1272 06f2 BDEC068B 		fldmfdd	sp!, {d8-d10}
 1273              		.cfi_restore 80
 1274              		.cfi_restore 81
 1275              		.cfi_restore 82
 1276              		.cfi_restore 83
 1277              		.cfi_restore 84
 1278              		.cfi_restore 85
 1279              		.cfi_def_cfa_offset 36
 1280 06f6 BDE8F08F 		pop	{r4, r5, r6, r7, r8, r9, r10, fp, pc}
 1281              	.LVL105:
 1282              	.L54:
 1283              		.cfi_restore_state
 1284              	.LBB215:
 1285              		.loc 1 838 0
 1286 06fa 9A4C     		ldr	r4, .L219+12
 1287              	.LVL106:
 1288 06fc 2022     		movs	r2, #32
 1289 06fe 0123     		movs	r3, #1
 1290 0700 2270     		strb	r2, [r4]
 1291 0702 0393     		str	r3, [sp, #12]
 1292              		.loc 1 839 0
 1293 0704 FFF7FEFF 		bl	app_nunchuk_get_decoded_chuk
 1294              	.LVL107:
 1295 0708 DFED977A 		flds	s15, .L219+16
 1296 070c 20EE270A 		fmuls	s0, s0, s15
 1297 0710 DEE7     		b	.L208
 1298              	.LVL108:
 1299              	.L53:
 1300              		.loc 1 828 0
 1301 0712 944C     		ldr	r4, .L219+12
 1302              	.LVL109:
 1303              		.loc 1 829 0
 1304 0714 9FED948A 		flds	s16, .L219+16
 1305              		.loc 1 828 0
 1306 0718 0123     		movs	r3, #1
 1307 071a 1F22     		movs	r2, #31
 1308 071c 0393     		str	r3, [sp, #12]
 1309 071e 2270     		strb	r2, [r4]
 1310              		.loc 1 829 0
 1311 0720 FFF7FEFF 		bl	app_adc_get_decoded_level
ARM GAS  /tmp/cc0XcXNK.s 			page 24


 1312              	.LVL110:
 1313 0724 20EE080A 		fmuls	s0, s0, s16
 1314 0728 2046     		mov	r0, r4
 1315 072a FDEEC07A 		ftosizs	s15, s0
 1316 072e 03AA     		add	r2, sp, #12
 1317 0730 17EE901A 		fmrs	r1, s15	@ int
 1318 0734 FFF7FEFF 		bl	buffer_append_int32
 1319              	.LVL111:
 1320              		.loc 1 830 0
 1321 0738 FFF7FEFF 		bl	app_adc_get_voltage
 1322              	.LVL112:
 1323 073c 20EE080A 		fmuls	s0, s0, s16
 1324 0740 2046     		mov	r0, r4
 1325 0742 FDEEC07A 		ftosizs	s15, s0
 1326 0746 03AA     		add	r2, sp, #12
 1327 0748 17EE901A 		fmrs	r1, s15	@ int
 1328 074c FFF7FEFF 		bl	buffer_append_int32
 1329              	.LVL113:
 1330              		.loc 1 831 0
 1331 0750 FFF7FEFF 		bl	app_adc_get_decoded_level2
 1332              	.LVL114:
 1333 0754 20EE080A 		fmuls	s0, s0, s16
 1334 0758 2046     		mov	r0, r4
 1335 075a FDEEC07A 		ftosizs	s15, s0
 1336 075e 03AA     		add	r2, sp, #12
 1337 0760 17EE901A 		fmrs	r1, s15	@ int
 1338 0764 FFF7FEFF 		bl	buffer_append_int32
 1339              	.LVL115:
 1340              		.loc 1 832 0
 1341 0768 FFF7FEFF 		bl	app_adc_get_voltage2
 1342              	.LVL116:
 1343 076c 20EE080A 		fmuls	s0, s0, s16
 1344 0770 AEE7     		b	.L208
 1345              	.LVL117:
 1346              	.L50:
 1347              	.LBB111:
 1348              	.LBB112:
 1349              		.file 3 "ChibiOS_3.0.2/os/ext/CMSIS/include/core_cmFunc.h"
 1350              		.loc 3 342 0
 1351              	@ 342 "ChibiOS_3.0.2/os/ext/CMSIS/include/core_cmFunc.h" 1
 1352 0772 72B6     		cpsid i
 1353              	@ 0 "" 2
 1354              		.thumb
 1355              	.L79:
 1356              	.LBE112:
 1357              	.LBE111:
 1358              		.loc 1 811 0 discriminator 3
 1359 0774 FEE7     		b	.L79
 1360              	.L49:
 1361              		.loc 1 774 0
 1362 0776 FFF7FEFF 		bl	mc_interface_get_configuration
 1363              	.LVL118:
 1364 077a 784D     		ldr	r5, .L219+4
 1365 077c 0146     		mov	r1, r0
 1366 077e 4FF49C72 		mov	r2, #312
 1367 0782 2846     		mov	r0, r5
 1368 0784 FFF7FEFF 		bl	memcpy
ARM GAS  /tmp/cc0XcXNK.s 			page 25


 1369              	.LVL119:
 1370              		.loc 1 776 0
 1371 0788 95F83461 		ldrb	r6, [r5, #308]	@ zero_extendqisi2
 1372 078c 002E     		cmp	r6, #0
 1373 078e 41F07486 		bne	.L77
 1374              	.LBB113:
 1375              		.loc 1 777 0
 1376 0792 2946     		mov	r1, r5
 1377 0794 4FF49C72 		mov	r2, #312
 1378 0798 7448     		ldr	r0, .L219+20
 1379 079a FFF7FEFF 		bl	memcpy
 1380              	.LVL120:
 1381              		.loc 1 779 0
 1382 079e 2046     		mov	r0, r4
 1383 07a0 03A9     		add	r1, sp, #12
 1384 07a2 9FED730A 		flds	s0, .L219+24
 1385              		.loc 1 778 0
 1386 07a6 0396     		str	r6, [sp, #12]
 1387              		.loc 1 779 0
 1388 07a8 FFF7FEFF 		bl	buffer_get_float32
 1389              	.LVL121:
 1390              		.loc 1 782 0
 1391 07ac 714B     		ldr	r3, .L219+28
 1392              		.loc 1 783 0
 1393 07ae 7249     		ldr	r1, .L219+32
 1394              		.loc 1 782 0
 1395 07b0 C5F89430 		str	r3, [r5, #148]	@ float
 1396              		.loc 1 781 0
 1397 07b4 0222     		movs	r2, #2
 1398              		.loc 1 784 0
 1399 07b6 714B     		ldr	r3, .L219+36
 1400              		.loc 1 783 0
 1401 07b8 C5F88C10 		str	r1, [r5, #140]	@ float
 1402              		.loc 1 785 0
 1403 07bc 2846     		mov	r0, r5
 1404              		.loc 1 779 0
 1405 07be B0EE408A 		fcpys	s16, s0
 1406              	.LVL122:
 1407              		.loc 1 781 0
 1408 07c2 AA70     		strb	r2, [r5, #2]
 1409              		.loc 1 784 0
 1410 07c4 C5F89030 		str	r3, [r5, #144]	@ float
 1411              		.loc 1 785 0
 1412 07c8 FFF7FEFF 		bl	mc_interface_set_configuration
 1413              	.LVL123:
 1414              		.loc 1 788 0
 1415 07cc B0EE480A 		fcpys	s0, s16
 1416 07d0 D2A8     		add	r0, sp, #840
 1417 07d2 FFF7FEFF 		bl	mcpwm_foc_hall_detect
 1418              	.LVL124:
 1419 07d6 0446     		mov	r4, r0
 1420              	.LVL125:
 1421              		.loc 1 789 0
 1422 07d8 6448     		ldr	r0, .L219+20
 1423              	.LBB114:
 1424              	.LBB115:
 1425              		.loc 1 97 0
ARM GAS  /tmp/cc0XcXNK.s 			page 26


 1426 07da 5F4E     		ldr	r6, .L219
 1427              	.LBE115:
 1428              	.LBE114:
 1429              		.loc 1 789 0
 1430 07dc FFF7FEFF 		bl	mc_interface_set_configuration
 1431              	.LVL126:
 1432              		.loc 1 792 0
 1433 07e0 604A     		ldr	r2, .L219+12
 1434              		.loc 1 793 0
 1435 07e2 D2AB     		add	r3, sp, #840
 1436              		.loc 1 792 0
 1437 07e4 1546     		mov	r5, r2
 1438              		.loc 1 793 0
 1439 07e6 03CB     		ldmia	r3!, {r0, r1}
 1440              		.loc 1 792 0
 1441 07e8 1B23     		movs	r3, #27
 1442 07ea 05F8013B 		strb	r3, [r5], #1
 1443              	.LBB118:
 1444              	.LBB116:
 1445              		.loc 1 97 0
 1446 07ee 3368     		ldr	r3, [r6]
 1447              	.LBE116:
 1448              	.LBE118:
 1449              		.loc 1 793 0
 1450 07f0 C2F80100 		str	r0, [r2, #1]	@ unaligned
 1451              		.loc 1 795 0
 1452 07f4 84F00104 		eor	r4, r4, #1
 1453              	.LVL127:
 1454 07f8 0A26     		movs	r6, #10
 1455              		.loc 1 793 0
 1456 07fa 6960     		str	r1, [r5, #4]	@ unaligned
 1457              		.loc 1 795 0
 1458 07fc 0396     		str	r6, [sp, #12]
 1459 07fe 5472     		strb	r4, [r2, #9]
 1460              	.LVL128:
 1461              	.LBB119:
 1462              	.LBB117:
 1463              		.loc 1 97 0
 1464 0800 002B     		cmp	r3, #0
 1465 0802 3FF42CAF 		beq	.L24
 1466              		.loc 1 98 0
 1467 0806 1046     		mov	r0, r2
 1468 0808 3146     		mov	r1, r6
 1469 080a 9847     		blx	r3
 1470              	.LVL129:
 1471 080c 27E7     		b	.L24
 1472              	.LVL130:
 1473              	.L48:
 1474              	.LBE117:
 1475              	.LBE119:
 1476              	.LBE113:
 1477              		.loc 1 737 0
 1478 080e FFF7FEFF 		bl	encoder_is_configured
 1479              	.LVL131:
 1480 0812 0546     		mov	r5, r0
 1481 0814 0028     		cmp	r0, #0
 1482 0816 01F03A86 		beq	.L75
ARM GAS  /tmp/cc0XcXNK.s 			page 27


 1483              	.LBB120:
 1484              		.loc 1 738 0
 1485 081a FFF7FEFF 		bl	mc_interface_get_configuration
 1486              	.LVL132:
 1487 081e 4F4D     		ldr	r5, .L219+4
 1488              		.loc 1 757 0
 1489 0820 504E     		ldr	r6, .L219+12
 1490              		.loc 1 738 0
 1491 0822 0146     		mov	r1, r0
 1492 0824 4FF49C72 		mov	r2, #312
 1493 0828 2846     		mov	r0, r5
 1494 082a FFF7FEFF 		bl	memcpy
 1495              	.LVL133:
 1496              		.loc 1 739 0
 1497 082e 4FF49C72 		mov	r2, #312
 1498 0832 2946     		mov	r1, r5
 1499 0834 4D48     		ldr	r0, .L219+20
 1500 0836 FFF7FEFF 		bl	memcpy
 1501              	.LVL134:
 1502              		.loc 1 741 0
 1503 083a 0027     		movs	r7, #0
 1504              	.LVL135:
 1505              		.loc 1 742 0
 1506 083c 2046     		mov	r0, r4
 1507 083e 03A9     		add	r1, sp, #12
 1508 0840 9FED4B0A 		flds	s0, .L219+24
 1509              		.loc 1 741 0
 1510 0844 0397     		str	r7, [sp, #12]
 1511              		.loc 1 742 0
 1512 0846 FFF7FEFF 		bl	buffer_get_float32
 1513              	.LVL136:
 1514              		.loc 1 745 0
 1515 084a 4A4B     		ldr	r3, .L219+28
 1516              		.loc 1 746 0
 1517 084c 4A4A     		ldr	r2, .L219+32
 1518              		.loc 1 745 0
 1519 084e C5F89430 		str	r3, [r5, #148]	@ float
 1520              		.loc 1 744 0
 1521 0852 0221     		movs	r1, #2
 1522              		.loc 1 747 0
 1523 0854 494B     		ldr	r3, .L219+36
 1524              		.loc 1 744 0
 1525 0856 A970     		strb	r1, [r5, #2]
 1526              		.loc 1 742 0
 1527 0858 B0EE408A 		fcpys	s16, s0
 1528              	.LVL137:
 1529              		.loc 1 748 0
 1530 085c 2846     		mov	r0, r5
 1531              		.loc 1 746 0
 1532 085e C5F88C20 		str	r2, [r5, #140]	@ float
 1533              		.loc 1 747 0
 1534 0862 C5F89030 		str	r3, [r5, #144]	@ float
 1535              		.loc 1 750 0
 1536 0866 0024     		movs	r4, #0
 1537              	.LVL138:
 1538              		.loc 1 748 0
 1539 0868 FFF7FEFF 		bl	mc_interface_set_configuration
ARM GAS  /tmp/cc0XcXNK.s 			page 28


 1540              	.LVL139:
 1541              		.loc 1 753 0
 1542 086c B0EE480A 		fcpys	s0, s16
 1543 0870 44AB     		add	r3, sp, #272
 1544 0872 84A9     		add	r1, sp, #528
 1545 0874 D2AA     		add	r2, sp, #840
 1546 0876 3846     		mov	r0, r7
 1547              		.loc 1 752 0
 1548 0878 8DF81071 		strb	r7, [sp, #272]
 1549              		.loc 1 750 0
 1550 087c 8494     		str	r4, [sp, #528]	@ float
 1551              		.loc 1 751 0
 1552 087e D294     		str	r4, [sp, #840]	@ float
 1553              		.loc 1 753 0
 1554 0880 FFF7FEFF 		bl	mcpwm_foc_encoder_detect
 1555              	.LVL140:
 1556              		.loc 1 754 0
 1557 0884 3948     		ldr	r0, .L219+20
 1558 0886 FFF7FEFF 		bl	mc_interface_set_configuration
 1559              	.LVL141:
 1560              		.loc 1 757 0
 1561 088a 1A22     		movs	r2, #26
 1562 088c 0123     		movs	r3, #1
 1563              		.loc 1 758 0
 1564 088e 9DED840A 		flds	s0, [sp, #528]
 1565 0892 DFED350A 		flds	s1, .L219+16
 1566              		.loc 1 757 0
 1567 0896 3270     		strb	r2, [r6]
 1568              		.loc 1 758 0
 1569 0898 3046     		mov	r0, r6
 1570 089a 03A9     		add	r1, sp, #12
 1571              		.loc 1 757 0
 1572 089c 0393     		str	r3, [sp, #12]
 1573              		.loc 1 758 0
 1574 089e FFF7FEFF 		bl	buffer_append_float32
 1575              	.LVL142:
 1576              		.loc 1 759 0
 1577 08a2 03A9     		add	r1, sp, #12
 1578 08a4 3046     		mov	r0, r6
 1579 08a6 9DEDD20A 		flds	s0, [sp, #840]
 1580 08aa DFED2F0A 		flds	s1, .L219+16
 1581 08ae FFF7FEFF 		bl	buffer_append_float32
 1582              	.LVL143:
 1583              	.LBB121:
 1584              	.LBB122:
 1585              		.loc 1 97 0
 1586 08b2 294B     		ldr	r3, .L219
 1587              	.LBE122:
 1588              	.LBE121:
 1589              		.loc 1 760 0
 1590 08b4 0399     		ldr	r1, [sp, #12]
 1591 08b6 9DF81021 		ldrb	r2, [sp, #272]	@ zero_extendqisi2
 1592              	.LBB125:
 1593              	.LBB123:
 1594              		.loc 1 97 0
 1595 08ba 1B68     		ldr	r3, [r3]
 1596              	.LBE123:
ARM GAS  /tmp/cc0XcXNK.s 			page 29


 1597              	.LBE125:
 1598              		.loc 1 760 0
 1599 08bc 7254     		strb	r2, [r6, r1]
 1600              	.LVL144:
 1601 08be 0131     		adds	r1, r1, #1
 1602              	.LVL145:
 1603 08c0 0391     		str	r1, [sp, #12]
 1604              	.LBB126:
 1605              	.LBB124:
 1606              		.loc 1 97 0
 1607 08c2 002B     		cmp	r3, #0
 1608 08c4 3FF4CBAE 		beq	.L24
 1609              		.loc 1 98 0
 1610 08c8 3046     		mov	r0, r6
 1611 08ca 9847     		blx	r3
 1612              	.LVL146:
 1613 08cc C7E6     		b	.L24
 1614              	.LVL147:
 1615              	.L47:
 1616              	.LBE124:
 1617              	.LBE126:
 1618              	.LBE120:
 1619              	.LBB127:
 1620              		.loc 1 717 0
 1621 08ce 2046     		mov	r0, r4
 1622 08d0 03A9     		add	r1, sp, #12
 1623 08d2 9FED270A 		flds	s0, .L219+24
 1624 08d6 FFF7FEFF 		bl	buffer_get_float32
 1625              	.LVL148:
 1626              		.loc 1 718 0
 1627 08da 2046     		mov	r0, r4
 1628              		.loc 1 717 0
 1629 08dc B0EE408A 		fcpys	s16, s0
 1630              	.LVL149:
 1631              		.loc 1 718 0
 1632 08e0 03A9     		add	r1, sp, #12
 1633 08e2 9FED230A 		flds	s0, .L219+24
 1634              	.LVL150:
 1635 08e6 FFF7FEFF 		bl	buffer_get_float32
 1636              	.LVL151:
 1637              		.loc 1 719 0
 1638 08ea 2046     		mov	r0, r4
 1639              		.loc 1 718 0
 1640 08ec F0EE408A 		fcpys	s17, s0
 1641              	.LVL152:
 1642              		.loc 1 719 0
 1643 08f0 03A9     		add	r1, sp, #12
 1644 08f2 9FED1F0A 		flds	s0, .L219+24
 1645              	.LVL153:
 1646 08f6 FFF7FEFF 		bl	buffer_get_float32
 1647              	.LVL154:
 1648              		.loc 1 720 0
 1649 08fa 2046     		mov	r0, r4
 1650              		.loc 1 719 0
 1651 08fc B0EE409A 		fcpys	s18, s0
 1652              	.LVL155:
 1653              		.loc 1 720 0
ARM GAS  /tmp/cc0XcXNK.s 			page 30


 1654 0900 03A9     		add	r1, sp, #12
 1655 0902 9FED190A 		flds	s0, .L219+16
 1656              	.LVL156:
 1657 0906 FFF7FEFF 		bl	buffer_get_float32
 1658              	.LVL157:
 1659              		.loc 1 723 0
 1660 090a F0EE490A 		fcpys	s1, s18
 1661              		.loc 1 720 0
 1662 090e F0EE401A 		fcpys	s3, s0
 1663              	.LVL158:
 1664              		.loc 1 723 0
 1665 0912 B0EE681A 		fcpys	s2, s17
 1666 0916 B0EE480A 		fcpys	s0, s16
 1667              	.LVL159:
 1668 091a D2A8     		add	r0, sp, #840
 1669 091c FFF7FEFF 		bl	conf_general_measure_flux_linkage
 1670              	.LVL160:
 1671              		.loc 1 725 0
 1672 0920 0028     		cmp	r0, #0
 1673 0922 41F08185 		bne	.L212
 1674              		.loc 1 726 0
 1675 0926 DFED167A 		flds	s15, .L219+40
 1676 092a B0EE670A 		fcpys	s0, s15
 1677 092e CDEDD27A 		fsts	s15, [sp, #840]
 1678              	.L73:
 1679              		.loc 1 730 0
 1680 0932 0C4C     		ldr	r4, .L219+12
 1681              	.LVL161:
 1682              		.loc 1 731 0
 1683 0934 DFED130A 		flds	s1, .L219+44
 1684              		.loc 1 730 0
 1685 0938 1922     		movs	r2, #25
 1686 093a 0123     		movs	r3, #1
 1687              		.loc 1 731 0
 1688 093c 2046     		mov	r0, r4
 1689              	.LVL162:
 1690 093e 03A9     		add	r1, sp, #12
 1691              		.loc 1 730 0
 1692 0940 2270     		strb	r2, [r4]
 1693 0942 0393     		str	r3, [sp, #12]
 1694              	.LVL163:
 1695              	.L206:
 1696              		.loc 1 731 0
 1697 0944 FFF7FEFF 		bl	buffer_append_float32
 1698              	.LVL164:
 1699              	.LBB128:
 1700              	.LBB129:
 1701              		.loc 1 97 0
 1702 0948 034B     		ldr	r3, .L219
 1703              	.LBE129:
 1704              	.LBE128:
 1705              		.loc 1 732 0
 1706 094a 0399     		ldr	r1, [sp, #12]
 1707              	.LVL165:
 1708              	.LBB131:
 1709              	.LBB130:
 1710              		.loc 1 97 0
ARM GAS  /tmp/cc0XcXNK.s 			page 31


 1711 094c 1B68     		ldr	r3, [r3]
 1712 094e 002B     		cmp	r3, #0
 1713 0950 7FF4CBAE 		bne	.L204
 1714 0954 83E6     		b	.L24
 1715              	.L220:
 1716 0956 00BF     		.align	2
 1717              	.L219:
 1718 0958 00000000 		.word	.LANCHOR9
 1719 095c 00000000 		.word	.LANCHOR12
 1720 0960 00000000 		.word	.LANCHOR13
 1721 0964 00000000 		.word	.LANCHOR8
 1722 0968 00247449 		.word	1232348160
 1723 096c 00000000 		.word	.LANCHOR14
 1724 0970 00007A44 		.word	1148846080
 1725 0974 00401C46 		.word	1176256512
 1726 0978 0AD7233C 		.word	1008981770
 1727 097c 00002041 		.word	1092616192
 1728 0980 00000000 		.word	0
 1729 0984 8096184B 		.word	1259902592
 1730              	.LVL166:
 1731              	.L46:
 1732              	.LBE130:
 1733              	.LBE131:
 1734              	.LBE127:
 1735              	.LBB132:
 1736              		.loc 1 691 0
 1737 0988 FFF7FEFF 		bl	mc_interface_get_configuration
 1738              	.LVL167:
 1739 098c 1D4C     		ldr	r4, .L221
 1740              	.LVL168:
 1741              		.loc 1 697 0
 1742 098e 9FED1E8A 		flds	s16, .L221+4
 1743              		.loc 1 691 0
 1744 0992 0146     		mov	r1, r0
 1745 0994 4FF49C72 		mov	r2, #312
 1746 0998 2046     		mov	r0, r4
 1747 099a FFF7FEFF 		bl	memcpy
 1748              	.LVL169:
 1749              		.loc 1 692 0
 1750 099e 2146     		mov	r1, r4
 1751 09a0 4FF49C72 		mov	r2, #312
 1752 09a4 1948     		ldr	r0, .L221+8
 1753 09a6 FFF7FEFF 		bl	memcpy
 1754              	.LVL170:
 1755              		.loc 1 698 0
 1756 09aa D2AF     		add	r7, sp, #840
 1757              	.LVL171:
 1758              		.loc 1 694 0
 1759 09ac 0223     		movs	r3, #2
 1760              		.loc 1 695 0
 1761 09ae 2046     		mov	r0, r4
 1762              		.loc 1 694 0
 1763 09b0 A370     		strb	r3, [r4, #2]
 1764              		.loc 1 695 0
 1765 09b2 FFF7FEFF 		bl	mc_interface_set_configuration
 1766              	.LVL172:
 1767              		.loc 1 699 0
ARM GAS  /tmp/cc0XcXNK.s 			page 32


 1768 09b6 84A8     		add	r0, sp, #528
 1769 09b8 3946     		mov	r1, r7
 1770              		.loc 1 697 0
 1771 09ba 8DED848A 		fsts	s16, [sp, #528]
 1772              		.loc 1 698 0
 1773 09be 87ED008A 		fsts	s16, [r7]
 1774              		.loc 1 699 0
 1775 09c2 FFF7FEFF 		bl	mcpwm_foc_measure_res_ind
 1776              	.LVL173:
 1777 09c6 0446     		mov	r4, r0
 1778              	.LVL174:
 1779              		.loc 1 700 0
 1780 09c8 1048     		ldr	r0, .L221+8
 1781 09ca FFF7FEFF 		bl	mc_interface_set_configuration
 1782              	.LVL175:
 1783              		.loc 1 702 0
 1784 09ce 002C     		cmp	r4, #0
 1785 09d0 41F00585 		bne	.L213
 1786              		.loc 1 704 0
 1787 09d4 B0EE480A 		fcpys	s0, s16
 1788              		.loc 1 703 0
 1789 09d8 8DED848A 		fsts	s16, [sp, #528]
 1790              		.loc 1 704 0
 1791 09dc 87ED008A 		fsts	s16, [r7]
 1792              	.L70:
 1793              		.loc 1 708 0
 1794 09e0 0B4C     		ldr	r4, .L221+12
 1795              	.LVL176:
 1796              		.loc 1 709 0
 1797 09e2 DFED0C0A 		flds	s1, .L221+16
 1798              		.loc 1 708 0
 1799 09e6 1822     		movs	r2, #24
 1800              		.loc 1 709 0
 1801 09e8 2046     		mov	r0, r4
 1802              		.loc 1 708 0
 1803 09ea 0123     		movs	r3, #1
 1804              		.loc 1 709 0
 1805 09ec 03A9     		add	r1, sp, #12
 1806              		.loc 1 708 0
 1807 09ee 2270     		strb	r2, [r4]
 1808 09f0 0393     		str	r3, [sp, #12]
 1809              		.loc 1 709 0
 1810 09f2 FFF7FEFF 		bl	buffer_append_float32
 1811              	.LVL177:
 1812              		.loc 1 710 0
 1813 09f6 2046     		mov	r0, r4
 1814 09f8 97ED000A 		flds	s0, [r7]
 1815 09fc DFED060A 		flds	s1, .L221+20
 1816 0a00 03A9     		add	r1, sp, #12
 1817 0a02 9FE7     		b	.L206
 1818              	.L222:
 1819              		.align	2
 1820              	.L221:
 1821 0a04 00000000 		.word	.LANCHOR12
 1822 0a08 00000000 		.word	0
 1823 0a0c 00000000 		.word	.LANCHOR14
 1824 0a10 00000000 		.word	.LANCHOR8
ARM GAS  /tmp/cc0XcXNK.s 			page 33


 1825 0a14 00247449 		.word	1232348160
 1826 0a18 00007A44 		.word	1148846080
 1827              	.LVL178:
 1828              	.L42:
 1829              	.LBE132:
 1830              		.loc 1 567 0
 1831 0a1c 102F     		cmp	r7, #16
 1832 0a1e 01F02185 		beq	.L214
 1833              		.loc 1 570 0
 1834 0a22 04AC     		add	r4, sp, #16
 1835              	.LVL179:
 1836 0a24 2046     		mov	r0, r4
 1837              	.LVL180:
 1838 0a26 FFF7FEFF 		bl	conf_general_get_default_app_configuration
 1839              	.LVL181:
 1840              	.L68:
 1841              		.loc 1 574 0
 1842 0a2a E04D     		ldr	r5, .L223
 1843              		.loc 1 575 0
 1844 0a2c 2678     		ldrb	r6, [r4]	@ zero_extendqisi2
 1845              	.LVL182:
 1846              		.loc 1 576 0
 1847 0a2e 6168     		ldr	r1, [r4, #4]
 1848              		.loc 1 577 0
 1849 0a30 9FEDDF8A 		flds	s16, .L223+4
 1850              		.loc 1 574 0
 1851 0a34 2F70     		strb	r7, [r5]
 1852              		.loc 1 575 0
 1853 0a36 0223     		movs	r3, #2
 1854              		.loc 1 576 0
 1855 0a38 2846     		mov	r0, r5
 1856 0a3a 03AA     		add	r2, sp, #12
 1857              		.loc 1 575 0
 1858 0a3c 0393     		str	r3, [sp, #12]
 1859 0a3e 6E70     		strb	r6, [r5, #1]
 1860              		.loc 1 576 0
 1861 0a40 FFF7FEFF 		bl	buffer_append_uint32
 1862              	.LVL183:
 1863              		.loc 1 577 0
 1864 0a44 D4ED027A 		flds	s15, [r4, #8]
 1865              		.loc 1 655 0
 1866 0a48 DFEDDA8A 		flds	s17, .L223+8
 1867              		.loc 1 577 0
 1868 0a4c 67EE887A 		fmuls	s15, s15, s16
 1869 0a50 2846     		mov	r0, r5
 1870 0a52 FDEEE77A 		ftosizs	s15, s15
 1871 0a56 03AA     		add	r2, sp, #12
 1872 0a58 17EE901A 		fmrs	r1, s15	@ int
 1873 0a5c FFF7FEFF 		bl	buffer_append_int32
 1874              	.LVL184:
 1875              		.loc 1 578 0
 1876 0a60 039B     		ldr	r3, [sp, #12]
 1877 0a62 227B     		ldrb	r2, [r4, #12]	@ zero_extendqisi2
 1878 0a64 EA54     		strb	r2, [r5, r3]
 1879              		.loc 1 579 0
 1880 0a66 218A     		ldrh	r1, [r4, #16]
 1881              		.loc 1 578 0
ARM GAS  /tmp/cc0XcXNK.s 			page 34


 1882 0a68 0133     		adds	r3, r3, #1
 1883              		.loc 1 579 0
 1884 0a6a 2846     		mov	r0, r5
 1885 0a6c 03AA     		add	r2, sp, #12
 1886              		.loc 1 578 0
 1887 0a6e 0393     		str	r3, [sp, #12]
 1888              		.loc 1 579 0
 1889 0a70 FFF7FEFF 		bl	buffer_append_uint16
 1890              	.LVL185:
 1891              		.loc 1 584 0
 1892 0a74 D4ED077A 		flds	s15, [r4, #28]
 1893              		.loc 1 581 0
 1894 0a78 039B     		ldr	r3, [sp, #12]
 1895 0a7a 227D     		ldrb	r2, [r4, #20]	@ zero_extendqisi2
 1896 0a7c EA54     		strb	r2, [r5, r3]
 1897              		.loc 1 584 0
 1898 0a7e 67EE887A 		fmuls	s15, s15, s16
 1899              		.loc 1 583 0
 1900 0a82 EE18     		adds	r6, r5, r3
 1901              		.loc 1 584 0
 1902 0a84 FDEEE77A 		ftosizs	s15, s15
 1903              		.loc 1 583 0
 1904 0a88 0233     		adds	r3, r3, #2
 1905 0a8a 277E     		ldrb	r7, [r4, #24]	@ zero_extendqisi2
 1906              	.LVL186:
 1907 0a8c 0393     		str	r3, [sp, #12]
 1908              		.loc 1 584 0
 1909 0a8e 17EE901A 		fmrs	r1, s15	@ int
 1910 0a92 2846     		mov	r0, r5
 1911 0a94 03AA     		add	r2, sp, #12
 1912              		.loc 1 583 0
 1913 0a96 7770     		strb	r7, [r6, #1]
 1914              		.loc 1 584 0
 1915 0a98 FFF7FEFF 		bl	buffer_append_int32
 1916              	.LVL187:
 1917              		.loc 1 585 0
 1918 0a9c D4ED087A 		flds	s15, [r4, #32]
 1919 0aa0 67EE887A 		fmuls	s15, s15, s16
 1920 0aa4 2846     		mov	r0, r5
 1921 0aa6 FDEEE77A 		ftosizs	s15, s15
 1922 0aaa 03AA     		add	r2, sp, #12
 1923 0aac 17EE901A 		fmrs	r1, s15	@ int
 1924 0ab0 FFF7FEFF 		bl	buffer_append_int32
 1925              	.LVL188:
 1926              		.loc 1 586 0
 1927 0ab4 D4ED097A 		flds	s15, [r4, #36]
 1928 0ab8 67EE887A 		fmuls	s15, s15, s16
 1929 0abc 2846     		mov	r0, r5
 1930 0abe FDEEE77A 		ftosizs	s15, s15
 1931 0ac2 03AA     		add	r2, sp, #12
 1932 0ac4 17EE901A 		fmrs	r1, s15	@ int
 1933 0ac8 FFF7FEFF 		bl	buffer_append_int32
 1934              	.LVL189:
 1935              		.loc 1 587 0
 1936 0acc D4ED0A7A 		flds	s15, [r4, #40]
 1937 0ad0 67EE887A 		fmuls	s15, s15, s16
 1938 0ad4 2846     		mov	r0, r5
ARM GAS  /tmp/cc0XcXNK.s 			page 35


 1939 0ad6 FDEEE77A 		ftosizs	s15, s15
 1940 0ada 03AA     		add	r2, sp, #12
 1941 0adc 17EE901A 		fmrs	r1, s15	@ int
 1942 0ae0 FFF7FEFF 		bl	buffer_append_int32
 1943              	.LVL190:
 1944              		.loc 1 590 0
 1945 0ae4 D4ED0C7A 		flds	s15, [r4, #48]
 1946              		.loc 1 588 0
 1947 0ae8 039B     		ldr	r3, [sp, #12]
 1948 0aea 94F82C20 		ldrb	r2, [r4, #44]	@ zero_extendqisi2
 1949 0aee EA54     		strb	r2, [r5, r3]
 1950              		.loc 1 590 0
 1951 0af0 67EE887A 		fmuls	s15, s15, s16
 1952              		.loc 1 589 0
 1953 0af4 EE18     		adds	r6, r5, r3
 1954              		.loc 1 590 0
 1955 0af6 FDEEE77A 		ftosizs	s15, s15
 1956              		.loc 1 589 0
 1957 0afa 0233     		adds	r3, r3, #2
 1958 0afc 94F82D70 		ldrb	r7, [r4, #45]	@ zero_extendqisi2
 1959 0b00 0393     		str	r3, [sp, #12]
 1960              		.loc 1 590 0
 1961 0b02 17EE901A 		fmrs	r1, s15	@ int
 1962 0b06 2846     		mov	r0, r5
 1963 0b08 03AA     		add	r2, sp, #12
 1964              		.loc 1 589 0
 1965 0b0a 7770     		strb	r7, [r6, #1]
 1966              		.loc 1 590 0
 1967 0b0c FFF7FEFF 		bl	buffer_append_int32
 1968              	.LVL191:
 1969              		.loc 1 591 0
 1970 0b10 D4ED0D7A 		flds	s15, [r4, #52]
 1971 0b14 67EE887A 		fmuls	s15, s15, s16
 1972 0b18 2846     		mov	r0, r5
 1973 0b1a FDEEE77A 		ftosizs	s15, s15
 1974 0b1e 03AA     		add	r2, sp, #12
 1975 0b20 17EE901A 		fmrs	r1, s15	@ int
 1976 0b24 FFF7FEFF 		bl	buffer_append_int32
 1977              	.LVL192:
 1978              		.loc 1 594 0
 1979 0b28 D4ED0F7A 		flds	s15, [r4, #60]
 1980              		.loc 1 592 0
 1981 0b2c 039B     		ldr	r3, [sp, #12]
 1982 0b2e 94F83820 		ldrb	r2, [r4, #56]	@ zero_extendqisi2
 1983 0b32 EA54     		strb	r2, [r5, r3]
 1984              		.loc 1 594 0
 1985 0b34 67EE887A 		fmuls	s15, s15, s16
 1986              		.loc 1 593 0
 1987 0b38 EE18     		adds	r6, r5, r3
 1988              		.loc 1 594 0
 1989 0b3a FDEEE77A 		ftosizs	s15, s15
 1990              		.loc 1 593 0
 1991 0b3e 94F83970 		ldrb	r7, [r4, #57]	@ zero_extendqisi2
 1992 0b42 7770     		strb	r7, [r6, #1]
 1993              		.loc 1 594 0
 1994 0b44 17EE901A 		fmrs	r1, s15	@ int
 1995              		.loc 1 593 0
ARM GAS  /tmp/cc0XcXNK.s 			page 36


 1996 0b48 0233     		adds	r3, r3, #2
 1997              		.loc 1 594 0
 1998 0b4a 2846     		mov	r0, r5
 1999 0b4c 03AA     		add	r2, sp, #12
 2000              		.loc 1 593 0
 2001 0b4e 0393     		str	r3, [sp, #12]
 2002              		.loc 1 594 0
 2003 0b50 FFF7FEFF 		bl	buffer_append_int32
 2004              	.LVL193:
 2005              		.loc 1 597 0
 2006 0b54 D4ED167A 		flds	s15, [r4, #88]
 2007              		.loc 1 596 0
 2008 0b58 039B     		ldr	r3, [sp, #12]
 2009 0b5a 94F85420 		ldrb	r2, [r4, #84]	@ zero_extendqisi2
 2010 0b5e EA54     		strb	r2, [r5, r3]
 2011              		.loc 1 597 0
 2012 0b60 67EE887A 		fmuls	s15, s15, s16
 2013              		.loc 1 596 0
 2014 0b64 0133     		adds	r3, r3, #1
 2015              		.loc 1 597 0
 2016 0b66 FDEEE77A 		ftosizs	s15, s15
 2017 0b6a 2846     		mov	r0, r5
 2018 0b6c 17EE901A 		fmrs	r1, s15	@ int
 2019 0b70 03AA     		add	r2, sp, #12
 2020              		.loc 1 596 0
 2021 0b72 0393     		str	r3, [sp, #12]
 2022              		.loc 1 597 0
 2023 0b74 FFF7FEFF 		bl	buffer_append_int32
 2024              	.LVL194:
 2025              		.loc 1 598 0
 2026 0b78 D4ED177A 		flds	s15, [r4, #92]
 2027 0b7c 67EE887A 		fmuls	s15, s15, s16
 2028 0b80 2846     		mov	r0, r5
 2029 0b82 FDEEE77A 		ftosizs	s15, s15
 2030 0b86 03AA     		add	r2, sp, #12
 2031 0b88 17EE901A 		fmrs	r1, s15	@ int
 2032 0b8c FFF7FEFF 		bl	buffer_append_int32
 2033              	.LVL195:
 2034              		.loc 1 599 0
 2035 0b90 D4ED187A 		flds	s15, [r4, #96]
 2036 0b94 67EE887A 		fmuls	s15, s15, s16
 2037 0b98 2846     		mov	r0, r5
 2038 0b9a FDEEE77A 		ftosizs	s15, s15
 2039 0b9e 03AA     		add	r2, sp, #12
 2040 0ba0 17EE901A 		fmrs	r1, s15	@ int
 2041 0ba4 FFF7FEFF 		bl	buffer_append_int32
 2042              	.LVL196:
 2043              		.loc 1 605 0
 2044 0ba8 D4ED1B7A 		flds	s15, [r4, #108]
 2045              		.loc 1 600 0
 2046 0bac 039B     		ldr	r3, [sp, #12]
 2047 0bae 94F86420 		ldrb	r2, [r4, #100]	@ zero_extendqisi2
 2048              		.loc 1 602 0
 2049 0bb2 94F866C0 		ldrb	ip, [r4, #102]	@ zero_extendqisi2
 2050              		.loc 1 603 0
 2051 0bb6 94F867E0 		ldrb	lr, [r4, #103]	@ zero_extendqisi2
 2052              		.loc 1 600 0
ARM GAS  /tmp/cc0XcXNK.s 			page 37


 2053 0bba EA54     		strb	r2, [r5, r3]
 2054              		.loc 1 605 0
 2055 0bbc 67EE887A 		fmuls	s15, s15, s16
 2056              		.loc 1 601 0
 2057 0bc0 EE18     		adds	r6, r5, r3
 2058              		.loc 1 605 0
 2059 0bc2 FDEEE77A 		ftosizs	s15, s15
 2060              		.loc 1 604 0
 2061 0bc6 0533     		adds	r3, r3, #5
 2062              		.loc 1 601 0
 2063 0bc8 94F86580 		ldrb	r8, [r4, #101]	@ zero_extendqisi2
 2064              	.LVL197:
 2065              		.loc 1 604 0
 2066 0bcc 94F86870 		ldrb	r7, [r4, #104]	@ zero_extendqisi2
 2067              		.loc 1 602 0
 2068 0bd0 86F802C0 		strb	ip, [r6, #2]
 2069              		.loc 1 605 0
 2070 0bd4 17EE901A 		fmrs	r1, s15	@ int
 2071 0bd8 2846     		mov	r0, r5
 2072 0bda 03AA     		add	r2, sp, #12
 2073              		.loc 1 603 0
 2074 0bdc 86F803E0 		strb	lr, [r6, #3]
 2075              		.loc 1 604 0
 2076 0be0 0393     		str	r3, [sp, #12]
 2077              		.loc 1 601 0
 2078 0be2 86F80180 		strb	r8, [r6, #1]
 2079              		.loc 1 604 0
 2080 0be6 3771     		strb	r7, [r6, #4]
 2081              		.loc 1 605 0
 2082 0be8 FFF7FEFF 		bl	buffer_append_int32
 2083              	.LVL198:
 2084              		.loc 1 606 0
 2085 0bec D4ED1C7A 		flds	s15, [r4, #112]
 2086 0bf0 67EE887A 		fmuls	s15, s15, s16
 2087 0bf4 2846     		mov	r0, r5
 2088 0bf6 FDEEE77A 		ftosizs	s15, s15
 2089 0bfa 03AA     		add	r2, sp, #12
 2090 0bfc 17EE901A 		fmrs	r1, s15	@ int
 2091 0c00 FFF7FEFF 		bl	buffer_append_int32
 2092              	.LVL199:
 2093              		.loc 1 609 0
 2094 0c04 D4ED1E7A 		flds	s15, [r4, #120]
 2095              		.loc 1 607 0
 2096 0c08 039B     		ldr	r3, [sp, #12]
 2097 0c0a 94F87420 		ldrb	r2, [r4, #116]	@ zero_extendqisi2
 2098 0c0e EA54     		strb	r2, [r5, r3]
 2099              		.loc 1 609 0
 2100 0c10 67EE887A 		fmuls	s15, s15, s16
 2101              		.loc 1 608 0
 2102 0c14 EE18     		adds	r6, r5, r3
 2103              		.loc 1 609 0
 2104 0c16 FDEEE77A 		ftosizs	s15, s15
 2105              		.loc 1 608 0
 2106 0c1a 0233     		adds	r3, r3, #2
 2107              		.loc 1 609 0
 2108 0c1c 17EE901A 		fmrs	r1, s15	@ int
 2109              		.loc 1 608 0
ARM GAS  /tmp/cc0XcXNK.s 			page 38


 2110 0c20 94F87570 		ldrb	r7, [r4, #117]	@ zero_extendqisi2
 2111 0c24 0393     		str	r3, [sp, #12]
 2112              		.loc 1 609 0
 2113 0c26 2846     		mov	r0, r5
 2114 0c28 03AA     		add	r2, sp, #12
 2115              		.loc 1 608 0
 2116 0c2a 7770     		strb	r7, [r6, #1]
 2117              		.loc 1 609 0
 2118 0c2c FFF7FEFF 		bl	buffer_append_int32
 2119              	.LVL200:
 2120              		.loc 1 610 0
 2121 0c30 2846     		mov	r0, r5
 2122 0c32 B4F87C10 		ldrh	r1, [r4, #124]
 2123 0c36 03AA     		add	r2, sp, #12
 2124 0c38 FFF7FEFF 		bl	buffer_append_uint16
 2125              	.LVL201:
 2126              		.loc 1 612 0
 2127 0c3c 2846     		mov	r0, r5
 2128 0c3e D4F88010 		ldr	r1, [r4, #128]
 2129 0c42 03AA     		add	r2, sp, #12
 2130 0c44 FFF7FEFF 		bl	buffer_append_uint32
 2131              	.LVL202:
 2132              		.loc 1 614 0
 2133 0c48 039B     		ldr	r3, [sp, #12]
 2134 0c4a 94F88420 		ldrb	r2, [r4, #132]	@ zero_extendqisi2
 2135 0c4e EA54     		strb	r2, [r5, r3]
 2136              		.loc 1 615 0
 2137 0c50 F0EE480A 		fcpys	s1, s16
 2138              		.loc 1 614 0
 2139 0c54 0133     		adds	r3, r3, #1
 2140              		.loc 1 615 0
 2141 0c56 94ED220A 		flds	s0, [r4, #136]
 2142              		.loc 1 614 0
 2143 0c5a 0393     		str	r3, [sp, #12]
 2144              		.loc 1 615 0
 2145 0c5c 2846     		mov	r0, r5
 2146 0c5e 03A9     		add	r1, sp, #12
 2147 0c60 FFF7FEFF 		bl	buffer_append_float32
 2148              	.LVL203:
 2149              		.loc 1 616 0
 2150 0c64 F0EE480A 		fcpys	s1, s16
 2151 0c68 2846     		mov	r0, r5
 2152 0c6a 94ED230A 		flds	s0, [r4, #140]
 2153 0c6e 03A9     		add	r1, sp, #12
 2154 0c70 FFF7FEFF 		bl	buffer_append_float32
 2155              	.LVL204:
 2156              		.loc 1 617 0
 2157 0c74 F0EE480A 		fcpys	s1, s16
 2158 0c78 2846     		mov	r0, r5
 2159 0c7a 94ED240A 		flds	s0, [r4, #144]
 2160 0c7e 03A9     		add	r1, sp, #12
 2161 0c80 FFF7FEFF 		bl	buffer_append_float32
 2162              	.LVL205:
 2163              		.loc 1 618 0
 2164 0c84 F0EE480A 		fcpys	s1, s16
 2165 0c88 2846     		mov	r0, r5
 2166 0c8a 94ED250A 		flds	s0, [r4, #148]
ARM GAS  /tmp/cc0XcXNK.s 			page 39


 2167 0c8e 03A9     		add	r1, sp, #12
 2168 0c90 FFF7FEFF 		bl	buffer_append_float32
 2169              	.LVL206:
 2170              		.loc 1 619 0
 2171 0c94 F0EE480A 		fcpys	s1, s16
 2172 0c98 2846     		mov	r0, r5
 2173 0c9a 94ED260A 		flds	s0, [r4, #152]
 2174 0c9e 03A9     		add	r1, sp, #12
 2175 0ca0 FFF7FEFF 		bl	buffer_append_float32
 2176              	.LVL207:
 2177              		.loc 1 620 0
 2178 0ca4 F0EE480A 		fcpys	s1, s16
 2179 0ca8 94ED270A 		flds	s0, [r4, #156]
 2180 0cac 2846     		mov	r0, r5
 2181 0cae 03A9     		add	r1, sp, #12
 2182 0cb0 FFF7FEFF 		bl	buffer_append_float32
 2183              	.LVL208:
 2184              		.loc 1 623 0
 2185 0cb4 D4ED297A 		flds	s15, [r4, #164]
 2186              		.loc 1 621 0
 2187 0cb8 039B     		ldr	r3, [sp, #12]
 2188 0cba 94F8A020 		ldrb	r2, [r4, #160]	@ zero_extendqisi2
 2189 0cbe EA54     		strb	r2, [r5, r3]
 2190              		.loc 1 623 0
 2191 0cc0 67EE887A 		fmuls	s15, s15, s16
 2192              		.loc 1 622 0
 2193 0cc4 EE18     		adds	r6, r5, r3
 2194              		.loc 1 623 0
 2195 0cc6 FDEEE77A 		ftosizs	s15, s15
 2196              		.loc 1 622 0
 2197 0cca 94F8A170 		ldrb	r7, [r4, #161]	@ zero_extendqisi2
 2198 0cce 7770     		strb	r7, [r6, #1]
 2199              		.loc 1 623 0
 2200 0cd0 17EE901A 		fmrs	r1, s15	@ int
 2201              		.loc 1 622 0
 2202 0cd4 0233     		adds	r3, r3, #2
 2203              		.loc 1 623 0
 2204 0cd6 2846     		mov	r0, r5
 2205 0cd8 03AA     		add	r2, sp, #12
 2206              		.loc 1 622 0
 2207 0cda 0393     		str	r3, [sp, #12]
 2208              		.loc 1 623 0
 2209 0cdc FFF7FEFF 		bl	buffer_append_int32
 2210              	.LVL209:
 2211              		.loc 1 636 0
 2212 0ce0 D4ED107A 		flds	s15, [r4, #64]
 2213              		.loc 1 625 0
 2214 0ce4 039A     		ldr	r2, [sp, #12]
 2215 0ce6 94F8B830 		ldrb	r3, [r4, #184]	@ zero_extendqisi2
 2216 0cea AB54     		strb	r3, [r5, r2]
 2217              		.loc 1 636 0
 2218 0cec 67EE887A 		fmuls	s15, s15, s16
 2219              		.loc 1 626 0
 2220 0cf0 AB18     		adds	r3, r5, r2
 2221              		.loc 1 636 0
 2222 0cf2 FDEEE77A 		ftosizs	s15, s15
 2223              		.loc 1 631 0
ARM GAS  /tmp/cc0XcXNK.s 			page 40


 2224 0cf6 BDF8CEE0 		ldrh	lr, [sp, #206]	@ unaligned
 2225 0cfa 9DF8D070 		ldrb	r7, [sp, #208]	@ zero_extendqisi2
 2226              		.loc 1 630 0
 2227 0cfe 94F8BDC0 		ldrb	ip, [r4, #189]	@ zero_extendqisi2
 2228              		.loc 1 631 0
 2229 0d02 A3F806E0 		strh	lr, [r3, #6]	@ unaligned
 2230              		.loc 1 633 0
 2231 0d06 0A32     		adds	r2, r2, #10
 2232              		.loc 1 636 0
 2233 0d08 17EE901A 		fmrs	r1, s15	@ int
 2234              		.loc 1 631 0
 2235 0d0c 1F72     		strb	r7, [r3, #8]
 2236              		.loc 1 626 0
 2237 0d0e 94F8B9B0 		ldrb	fp, [r4, #185]	@ zero_extendqisi2
 2238              		.loc 1 627 0
 2239 0d12 94F8BAA0 		ldrb	r10, [r4, #186]	@ zero_extendqisi2
 2240              		.loc 1 628 0
 2241 0d16 94F8BB90 		ldrb	r9, [r4, #187]	@ zero_extendqisi2
 2242              		.loc 1 629 0
 2243 0d1a 94F8BC80 		ldrb	r8, [r4, #188]	@ zero_extendqisi2
 2244              		.loc 1 633 0
 2245 0d1e 94F8C160 		ldrb	r6, [r4, #193]	@ zero_extendqisi2
 2246 0d22 0392     		str	r2, [sp, #12]
 2247              		.loc 1 636 0
 2248 0d24 2846     		mov	r0, r5
 2249 0d26 03AA     		add	r2, sp, #12
 2250              		.loc 1 630 0
 2251 0d28 83F805C0 		strb	ip, [r3, #5]
 2252              		.loc 1 626 0
 2253 0d2c 83F801B0 		strb	fp, [r3, #1]
 2254              		.loc 1 627 0
 2255 0d30 83F802A0 		strb	r10, [r3, #2]
 2256              		.loc 1 628 0
 2257 0d34 83F80390 		strb	r9, [r3, #3]
 2258              		.loc 1 629 0
 2259 0d38 83F80480 		strb	r8, [r3, #4]
 2260              		.loc 1 633 0
 2261 0d3c 5E72     		strb	r6, [r3, #9]
 2262              		.loc 1 636 0
 2263 0d3e FFF7FEFF 		bl	buffer_append_int32
 2264              	.LVL210:
 2265              		.loc 1 638 0
 2266 0d42 D4ED117A 		flds	s15, [r4, #68]
 2267 0d46 67EE887A 		fmuls	s15, s15, s16
 2268 0d4a 2846     		mov	r0, r5
 2269 0d4c FDEEE77A 		ftosizs	s15, s15
 2270 0d50 03AA     		add	r2, sp, #12
 2271 0d52 17EE901A 		fmrs	r1, s15	@ int
 2272 0d56 FFF7FEFF 		bl	buffer_append_int32
 2273              	.LVL211:
 2274              		.loc 1 640 0
 2275 0d5a D4ED137A 		flds	s15, [r4, #76]
 2276              		.loc 1 639 0
 2277 0d5e 039B     		ldr	r3, [sp, #12]
 2278 0d60 94F84820 		ldrb	r2, [r4, #72]	@ zero_extendqisi2
 2279 0d64 EA54     		strb	r2, [r5, r3]
 2280              		.loc 1 640 0
ARM GAS  /tmp/cc0XcXNK.s 			page 41


 2281 0d66 67EE887A 		fmuls	s15, s15, s16
 2282              		.loc 1 639 0
 2283 0d6a 0133     		adds	r3, r3, #1
 2284              		.loc 1 640 0
 2285 0d6c FDEEE77A 		ftosizs	s15, s15
 2286 0d70 2846     		mov	r0, r5
 2287 0d72 17EE901A 		fmrs	r1, s15	@ int
 2288 0d76 03AA     		add	r2, sp, #12
 2289              		.loc 1 639 0
 2290 0d78 0393     		str	r3, [sp, #12]
 2291              		.loc 1 640 0
 2292 0d7a FFF7FEFF 		bl	buffer_append_int32
 2293              	.LVL212:
 2294              		.loc 1 641 0
 2295 0d7e D4ED147A 		flds	s15, [r4, #80]
 2296 0d82 67EE887A 		fmuls	s15, s15, s16
 2297 0d86 2846     		mov	r0, r5
 2298 0d88 FDEEE77A 		ftosizs	s15, s15
 2299 0d8c 03AA     		add	r2, sp, #12
 2300 0d8e 17EE901A 		fmrs	r1, s15	@ int
 2301 0d92 FFF7FEFF 		bl	buffer_append_int32
 2302              	.LVL213:
 2303              		.loc 1 643 0
 2304 0d96 D4ED2A7A 		flds	s15, [r4, #168]
 2305 0d9a 67EE887A 		fmuls	s15, s15, s16
 2306 0d9e 2846     		mov	r0, r5
 2307 0da0 FDEEE77A 		ftosizs	s15, s15
 2308 0da4 03AA     		add	r2, sp, #12
 2309 0da6 17EE901A 		fmrs	r1, s15	@ int
 2310 0daa 05E0     		b	.L224
 2311              	.L225:
 2312              		.align	2
 2313              	.L223:
 2314 0dac 00000000 		.word	.LANCHOR8
 2315 0db0 00007A44 		.word	1148846080
 2316 0db4 0000C842 		.word	1120403456
 2317              	.L224:
 2318 0db8 FFF7FEFF 		bl	buffer_append_int32
 2319              	.LVL214:
 2320              		.loc 1 645 0
 2321 0dbc D4ED2C7A 		flds	s15, [r4, #176]
 2322              		.loc 1 644 0
 2323 0dc0 039B     		ldr	r3, [sp, #12]
 2324 0dc2 94F8AC20 		ldrb	r2, [r4, #172]	@ zero_extendqisi2
 2325 0dc6 EA54     		strb	r2, [r5, r3]
 2326              		.loc 1 645 0
 2327 0dc8 67EE887A 		fmuls	s15, s15, s16
 2328              		.loc 1 644 0
 2329 0dcc 0133     		adds	r3, r3, #1
 2330              		.loc 1 645 0
 2331 0dce FDEEE77A 		ftosizs	s15, s15
 2332 0dd2 2846     		mov	r0, r5
 2333 0dd4 17EE901A 		fmrs	r1, s15	@ int
 2334 0dd8 03AA     		add	r2, sp, #12
 2335              		.loc 1 644 0
 2336 0dda 0393     		str	r3, [sp, #12]
 2337              		.loc 1 645 0
ARM GAS  /tmp/cc0XcXNK.s 			page 42


 2338 0ddc FFF7FEFF 		bl	buffer_append_int32
 2339              	.LVL215:
 2340              		.loc 1 646 0
 2341 0de0 D4ED2D7A 		flds	s15, [r4, #180]
 2342 0de4 67EE887A 		fmuls	s15, s15, s16
 2343 0de8 2846     		mov	r0, r5
 2344 0dea FDEEE77A 		ftosizs	s15, s15
 2345 0dee 03AA     		add	r2, sp, #12
 2346 0df0 17EE901A 		fmrs	r1, s15	@ int
 2347 0df4 FFF7FEFF 		bl	buffer_append_int32
 2348              	.LVL216:
 2349              		.loc 1 649 0
 2350 0df8 D4ED327A 		flds	s15, [r4, #200]
 2351              		.loc 1 648 0
 2352 0dfc 039B     		ldr	r3, [sp, #12]
 2353 0dfe 94F8C420 		ldrb	r2, [r4, #196]	@ zero_extendqisi2
 2354 0e02 EA54     		strb	r2, [r5, r3]
 2355              		.loc 1 649 0
 2356 0e04 67EE887A 		fmuls	s15, s15, s16
 2357              		.loc 1 648 0
 2358 0e08 0133     		adds	r3, r3, #1
 2359              		.loc 1 649 0
 2360 0e0a FDEEE77A 		ftosizs	s15, s15
 2361 0e0e 2846     		mov	r0, r5
 2362 0e10 17EE901A 		fmrs	r1, s15	@ int
 2363 0e14 03AA     		add	r2, sp, #12
 2364              		.loc 1 648 0
 2365 0e16 0393     		str	r3, [sp, #12]
 2366              		.loc 1 649 0
 2367 0e18 FFF7FEFF 		bl	buffer_append_int32
 2368              	.LVL217:
 2369              		.loc 1 650 0
 2370 0e1c D4ED337A 		flds	s15, [r4, #204]
 2371 0e20 67EE887A 		fmuls	s15, s15, s16
 2372 0e24 2846     		mov	r0, r5
 2373 0e26 FDEEE77A 		ftosizs	s15, s15
 2374 0e2a 03AA     		add	r2, sp, #12
 2375 0e2c 17EE901A 		fmrs	r1, s15	@ int
 2376 0e30 FFF7FEFF 		bl	buffer_append_int32
 2377              	.LVL218:
 2378              		.loc 1 651 0
 2379 0e34 D4ED347A 		flds	s15, [r4, #208]
 2380 0e38 67EE887A 		fmuls	s15, s15, s16
 2381 0e3c 2846     		mov	r0, r5
 2382 0e3e FDEEE77A 		ftosizs	s15, s15
 2383 0e42 03AA     		add	r2, sp, #12
 2384 0e44 17EE901A 		fmrs	r1, s15	@ int
 2385 0e48 FFF7FEFF 		bl	buffer_append_int32
 2386              	.LVL219:
 2387              		.loc 1 652 0
 2388 0e4c D4ED357A 		flds	s15, [r4, #212]
 2389 0e50 67EE887A 		fmuls	s15, s15, s16
 2390 0e54 2846     		mov	r0, r5
 2391 0e56 FDEEE77A 		ftosizs	s15, s15
 2392 0e5a 03AA     		add	r2, sp, #12
 2393 0e5c 17EE901A 		fmrs	r1, s15	@ int
 2394 0e60 FFF7FEFF 		bl	buffer_append_int32
ARM GAS  /tmp/cc0XcXNK.s 			page 43


 2395              	.LVL220:
 2396              		.loc 1 653 0
 2397 0e64 D4ED367A 		flds	s15, [r4, #216]
 2398 0e68 67EE887A 		fmuls	s15, s15, s16
 2399 0e6c 2846     		mov	r0, r5
 2400 0e6e FDEEE77A 		ftosizs	s15, s15
 2401 0e72 03AA     		add	r2, sp, #12
 2402 0e74 17EE901A 		fmrs	r1, s15	@ int
 2403 0e78 FFF7FEFF 		bl	buffer_append_int32
 2404              	.LVL221:
 2405              		.loc 1 654 0
 2406 0e7c D4ED377A 		flds	s15, [r4, #220]
 2407 0e80 67EE887A 		fmuls	s15, s15, s16
 2408 0e84 2846     		mov	r0, r5
 2409 0e86 FDEEE77A 		ftosizs	s15, s15
 2410 0e8a 03AA     		add	r2, sp, #12
 2411 0e8c 17EE901A 		fmrs	r1, s15	@ int
 2412 0e90 FFF7FEFF 		bl	buffer_append_int32
 2413              	.LVL222:
 2414              		.loc 1 655 0
 2415 0e94 D4ED387A 		flds	s15, [r4, #224]
 2416 0e98 67EEA87A 		fmuls	s15, s15, s17
 2417 0e9c 2846     		mov	r0, r5
 2418 0e9e FDEEE77A 		ftosizs	s15, s15
 2419 0ea2 03AA     		add	r2, sp, #12
 2420 0ea4 17EE901A 		fmrs	r1, s15	@ int
 2421 0ea8 FFF7FEFF 		bl	buffer_append_int32
 2422              	.LVL223:
 2423              		.loc 1 656 0
 2424 0eac D4ED397A 		flds	s15, [r4, #228]
 2425 0eb0 67EE887A 		fmuls	s15, s15, s16
 2426 0eb4 2846     		mov	r0, r5
 2427 0eb6 FDEEE77A 		ftosizs	s15, s15
 2428 0eba 03AA     		add	r2, sp, #12
 2429 0ebc 17EE901A 		fmrs	r1, s15	@ int
 2430 0ec0 FFF7FEFF 		bl	buffer_append_int32
 2431              	.LVL224:
 2432              		.loc 1 657 0
 2433 0ec4 D4ED3A7A 		flds	s15, [r4, #232]
 2434 0ec8 67EE887A 		fmuls	s15, s15, s16
 2435 0ecc 2846     		mov	r0, r5
 2436 0ece FDEEE77A 		ftosizs	s15, s15
 2437 0ed2 03AA     		add	r2, sp, #12
 2438 0ed4 17EE901A 		fmrs	r1, s15	@ int
 2439 0ed8 FFF7FEFF 		bl	buffer_append_int32
 2440              	.LVL225:
 2441              		.loc 1 658 0
 2442 0edc D4ED3B7A 		flds	s15, [r4, #236]
 2443 0ee0 67EE887A 		fmuls	s15, s15, s16
 2444 0ee4 2846     		mov	r0, r5
 2445 0ee6 FDEEE77A 		ftosizs	s15, s15
 2446 0eea 03AA     		add	r2, sp, #12
 2447 0eec 17EE901A 		fmrs	r1, s15	@ int
 2448 0ef0 FFF7FEFF 		bl	buffer_append_int32
 2449              	.LVL226:
 2450              		.loc 1 659 0
 2451 0ef4 D4ED3C7A 		flds	s15, [r4, #240]
ARM GAS  /tmp/cc0XcXNK.s 			page 44


 2452 0ef8 67EE887A 		fmuls	s15, s15, s16
 2453 0efc 2846     		mov	r0, r5
 2454 0efe FDEEE77A 		ftosizs	s15, s15
 2455 0f02 03AA     		add	r2, sp, #12
 2456 0f04 17EE901A 		fmrs	r1, s15	@ int
 2457 0f08 FFF7FEFF 		bl	buffer_append_int32
 2458              	.LVL227:
 2459              		.loc 1 660 0
 2460 0f0c D4ED3D7A 		flds	s15, [r4, #244]
 2461 0f10 67EE887A 		fmuls	s15, s15, s16
 2462 0f14 2846     		mov	r0, r5
 2463 0f16 FDEEE77A 		ftosizs	s15, s15
 2464 0f1a 03AA     		add	r2, sp, #12
 2465 0f1c 17EE901A 		fmrs	r1, s15	@ int
 2466 0f20 FFF7FEFF 		bl	buffer_append_int32
 2467              	.LVL228:
 2468              		.loc 1 661 0
 2469 0f24 D4ED3E7A 		flds	s15, [r4, #248]
 2470 0f28 27EE888A 		fmuls	s16, s15, s16
 2471 0f2c 2846     		mov	r0, r5
 2472 0f2e FDEEC87A 		ftosizs	s15, s16
 2473 0f32 03AA     		add	r2, sp, #12
 2474 0f34 17EE901A 		fmrs	r1, s15	@ int
 2475 0f38 FFF7FEFF 		bl	buffer_append_int32
 2476              	.LVL229:
 2477              		.loc 1 662 0
 2478 0f3c D4ED3F7A 		flds	s15, [r4, #252]
 2479 0f40 67EEA87A 		fmuls	s15, s15, s17
 2480 0f44 2846     		mov	r0, r5
 2481 0f46 FDEEE77A 		ftosizs	s15, s15
 2482 0f4a 03AA     		add	r2, sp, #12
 2483 0f4c 17EE901A 		fmrs	r1, s15	@ int
 2484 0f50 FFF7FEFF 		bl	buffer_append_int32
 2485              	.LVL230:
 2486              	.LBB133:
 2487              	.LBB134:
 2488              		.loc 1 97 0
 2489 0f54 0A4B     		ldr	r3, .L226
 2490              	.LBE134:
 2491              	.LBE133:
 2492              		.loc 1 665 0
 2493 0f56 0399     		ldr	r1, [sp, #12]
 2494              	.LVL231:
 2495              	.LBB136:
 2496              	.LBB135:
 2497              		.loc 1 97 0
 2498 0f58 1B68     		ldr	r3, [r3]
 2499 0f5a 002B     		cmp	r3, #0
 2500 0f5c 3FF47FAB 		beq	.L24
 2501              	.LVL232:
 2502              	.L203:
 2503              	.LBE135:
 2504              	.LBE136:
 2505              	.LBE215:
 2506              	.LBB216:
 2507              	.LBB217:
 2508              		.loc 1 98 0
ARM GAS  /tmp/cc0XcXNK.s 			page 45


 2509 0f60 2846     		mov	r0, r5
 2510 0f62 9847     		blx	r3
 2511              	.LVL233:
 2512              	.LBE217:
 2513              	.LBE216:
 2514              		.loc 1 1081 0
 2515 0f64 0DF24C7D 		addw	sp, sp, #1868
 2516              		.cfi_remember_state
 2517              		.cfi_def_cfa_offset 60
 2518              		@ sp needed
 2519 0f68 BDEC068B 		fldmfdd	sp!, {d8-d10}
 2520              		.cfi_restore 80
 2521              		.cfi_restore 81
 2522              		.cfi_restore 82
 2523              		.cfi_restore 83
 2524              		.cfi_restore 84
 2525              		.cfi_restore 85
 2526              		.cfi_def_cfa_offset 36
 2527 0f6c BDE8F08F 		pop	{r4, r5, r6, r7, r8, r9, r10, fp, pc}
 2528              	.LVL234:
 2529              	.L44:
 2530              		.cfi_restore_state
 2531              	.LBB220:
 2532              		.loc 1 677 0
 2533 0f70 0023     		movs	r3, #0
 2534 0f72 04F80830 		strb	r3, [r4, r8]
 2535              		.loc 1 678 0
 2536 0f76 2046     		mov	r0, r4
 2537 0f78 FFF7FEFF 		bl	terminal_process_string
 2538              	.LVL235:
 2539              		.loc 1 679 0
 2540 0f7c FFF76FBB 		b	.L24
 2541              	.L227:
 2542              		.align	2
 2543              	.L226:
 2544 0f80 00000000 		.word	.LANCHOR9
 2545              	.L39:
 2546              		.loc 1 252 0
 2547 0f84 FFF7FEFF 		bl	mc_interface_get_configuration
 2548              	.LVL236:
 2549 0f88 D94D     		ldr	r5, .L228
 2550              		.loc 1 260 0
 2551 0f8a 9FEDDA8A 		flds	s16, .L228+4
 2552              		.loc 1 279 0
 2553 0f8e DFEDDA8A 		flds	s17, .L228+8
 2554              		.loc 1 299 0
 2555 0f92 9FEDDA9A 		flds	s18, .L228+12
 2556              		.loc 1 252 0
 2557 0f96 0146     		mov	r1, r0
 2558 0f98 4FF49C72 		mov	r2, #312
 2559 0f9c 2846     		mov	r0, r5
 2560 0f9e FFF7FEFF 		bl	memcpy
 2561              	.LVL237:
 2562              		.loc 1 255 0
 2563 0fa2 7378     		ldrb	r3, [r6, #1]	@ zero_extendqisi2
 2564              		.loc 1 256 0
 2565 0fa4 96F802E0 		ldrb	lr, [r6, #2]	@ zero_extendqisi2
ARM GAS  /tmp/cc0XcXNK.s 			page 46


 2566              		.loc 1 258 0
 2567 0fa8 3279     		ldrb	r2, [r6, #4]	@ zero_extendqisi2
 2568              		.loc 1 257 0
 2569 0faa F778     		ldrb	r7, [r6, #3]	@ zero_extendqisi2
 2570              	.LVL238:
 2571              		.loc 1 255 0
 2572 0fac 2B70     		strb	r3, [r5]
 2573              		.loc 1 260 0
 2574 0fae B0EE480A 		fcpys	s0, s16
 2575              		.loc 1 258 0
 2576 0fb2 0423     		movs	r3, #4
 2577              		.loc 1 260 0
 2578 0fb4 2046     		mov	r0, r4
 2579 0fb6 03A9     		add	r1, sp, #12
 2580              		.loc 1 256 0
 2581 0fb8 85F801E0 		strb	lr, [r5, #1]
 2582              		.loc 1 258 0
 2583 0fbc EA70     		strb	r2, [r5, #3]
 2584 0fbe 0393     		str	r3, [sp, #12]
 2585              		.loc 1 257 0
 2586 0fc0 AF70     		strb	r7, [r5, #2]
 2587              		.loc 1 260 0
 2588 0fc2 FFF7FEFF 		bl	buffer_get_float32
 2589              	.LVL239:
 2590              		.loc 1 261 0
 2591 0fc6 2046     		mov	r0, r4
 2592              		.loc 1 260 0
 2593 0fc8 85ED010A 		fsts	s0, [r5, #4]
 2594              		.loc 1 261 0
 2595 0fcc 03A9     		add	r1, sp, #12
 2596 0fce B0EE480A 		fcpys	s0, s16
 2597 0fd2 FFF7FEFF 		bl	buffer_get_float32
 2598              	.LVL240:
 2599              		.loc 1 262 0
 2600 0fd6 2046     		mov	r0, r4
 2601              		.loc 1 261 0
 2602 0fd8 85ED020A 		fsts	s0, [r5, #8]
 2603              		.loc 1 262 0
 2604 0fdc 03A9     		add	r1, sp, #12
 2605 0fde B0EE480A 		fcpys	s0, s16
 2606 0fe2 FFF7FEFF 		bl	buffer_get_float32
 2607              	.LVL241:
 2608              		.loc 1 263 0
 2609 0fe6 2046     		mov	r0, r4
 2610              		.loc 1 262 0
 2611 0fe8 85ED030A 		fsts	s0, [r5, #12]
 2612              		.loc 1 263 0
 2613 0fec 03A9     		add	r1, sp, #12
 2614 0fee B0EE480A 		fcpys	s0, s16
 2615 0ff2 FFF7FEFF 		bl	buffer_get_float32
 2616              	.LVL242:
 2617              		.loc 1 264 0
 2618 0ff6 2046     		mov	r0, r4
 2619              		.loc 1 263 0
 2620 0ff8 85ED040A 		fsts	s0, [r5, #16]
 2621              		.loc 1 264 0
 2622 0ffc 03A9     		add	r1, sp, #12
ARM GAS  /tmp/cc0XcXNK.s 			page 47


 2623 0ffe B0EE480A 		fcpys	s0, s16
 2624 1002 FFF7FEFF 		bl	buffer_get_float32
 2625              	.LVL243:
 2626              		.loc 1 265 0
 2627 1006 2046     		mov	r0, r4
 2628              		.loc 1 264 0
 2629 1008 85ED050A 		fsts	s0, [r5, #20]
 2630              		.loc 1 265 0
 2631 100c 03A9     		add	r1, sp, #12
 2632 100e B0EE480A 		fcpys	s0, s16
 2633 1012 FFF7FEFF 		bl	buffer_get_float32
 2634              	.LVL244:
 2635              		.loc 1 266 0
 2636 1016 2046     		mov	r0, r4
 2637              		.loc 1 265 0
 2638 1018 85ED060A 		fsts	s0, [r5, #24]
 2639              		.loc 1 266 0
 2640 101c 03A9     		add	r1, sp, #12
 2641 101e B0EE480A 		fcpys	s0, s16
 2642 1022 FFF7FEFF 		bl	buffer_get_float32
 2643              	.LVL245:
 2644              		.loc 1 267 0
 2645 1026 2046     		mov	r0, r4
 2646              		.loc 1 266 0
 2647 1028 85ED070A 		fsts	s0, [r5, #28]
 2648              		.loc 1 267 0
 2649 102c 03A9     		add	r1, sp, #12
 2650 102e B0EE480A 		fcpys	s0, s16
 2651 1032 FFF7FEFF 		bl	buffer_get_float32
 2652              	.LVL246:
 2653              		.loc 1 268 0
 2654 1036 2046     		mov	r0, r4
 2655              		.loc 1 267 0
 2656 1038 85ED080A 		fsts	s0, [r5, #32]
 2657              		.loc 1 268 0
 2658 103c 03A9     		add	r1, sp, #12
 2659 103e B0EE480A 		fcpys	s0, s16
 2660 1042 FFF7FEFF 		bl	buffer_get_float32
 2661              	.LVL247:
 2662              		.loc 1 269 0
 2663 1046 2046     		mov	r0, r4
 2664              		.loc 1 268 0
 2665 1048 85ED090A 		fsts	s0, [r5, #36]
 2666              		.loc 1 269 0
 2667 104c 03A9     		add	r1, sp, #12
 2668 104e B0EE480A 		fcpys	s0, s16
 2669 1052 FFF7FEFF 		bl	buffer_get_float32
 2670              	.LVL248:
 2671              		.loc 1 270 0
 2672 1056 2046     		mov	r0, r4
 2673              		.loc 1 269 0
 2674 1058 85ED0A0A 		fsts	s0, [r5, #40]
 2675              		.loc 1 270 0
 2676 105c 03A9     		add	r1, sp, #12
 2677 105e B0EE480A 		fcpys	s0, s16
 2678 1062 FFF7FEFF 		bl	buffer_get_float32
 2679              	.LVL249:
ARM GAS  /tmp/cc0XcXNK.s 			page 48


 2680              		.loc 1 271 0
 2681 1066 2046     		mov	r0, r4
 2682              		.loc 1 270 0
 2683 1068 85ED0B0A 		fsts	s0, [r5, #44]
 2684              		.loc 1 271 0
 2685 106c 03A9     		add	r1, sp, #12
 2686 106e B0EE480A 		fcpys	s0, s16
 2687 1072 FFF7FEFF 		bl	buffer_get_float32
 2688              	.LVL250:
 2689              		.loc 1 272 0
 2690 1076 2046     		mov	r0, r4
 2691              		.loc 1 271 0
 2692 1078 85ED0C0A 		fsts	s0, [r5, #48]
 2693              		.loc 1 272 0
 2694 107c 03A9     		add	r1, sp, #12
 2695 107e B0EE480A 		fcpys	s0, s16
 2696 1082 FFF7FEFF 		bl	buffer_get_float32
 2697              	.LVL251:
 2698              		.loc 1 273 0
 2699 1086 039B     		ldr	r3, [sp, #12]
 2700              		.loc 1 272 0
 2701 1088 85ED0D0A 		fsts	s0, [r5, #52]
 2702              		.loc 1 273 0
 2703 108c E25C     		ldrb	r2, [r4, r3]	@ zero_extendqisi2
 2704 108e 0032     		adds	r2, r2, #0
 2705 1090 03F10101 		add	r1, r3, #1
 2706 1094 18BF     		it	ne
 2707 1096 0122     		movne	r2, #1
 2708 1098 85F83820 		strb	r2, [r5, #56]
 2709              		.loc 1 274 0
 2710 109c 625C     		ldrb	r2, [r4, r1]	@ zero_extendqisi2
 2711 109e 0032     		adds	r2, r2, #0
 2712 10a0 18BF     		it	ne
 2713 10a2 0122     		movne	r2, #1
 2714 10a4 0233     		adds	r3, r3, #2
 2715              		.loc 1 275 0
 2716 10a6 B0EE480A 		fcpys	s0, s16
 2717 10aa 2046     		mov	r0, r4
 2718 10ac 03A9     		add	r1, sp, #12
 2719              		.loc 1 274 0
 2720 10ae 85F83920 		strb	r2, [r5, #57]
 2721 10b2 0393     		str	r3, [sp, #12]
 2722              		.loc 1 275 0
 2723 10b4 FFF7FEFF 		bl	buffer_get_float32
 2724              	.LVL252:
 2725              		.loc 1 276 0
 2726 10b8 2046     		mov	r0, r4
 2727              		.loc 1 275 0
 2728 10ba 85ED0F0A 		fsts	s0, [r5, #60]
 2729              		.loc 1 276 0
 2730 10be 03A9     		add	r1, sp, #12
 2731 10c0 B0EE480A 		fcpys	s0, s16
 2732 10c4 FFF7FEFF 		bl	buffer_get_float32
 2733              	.LVL253:
 2734              		.loc 1 277 0
 2735 10c8 2046     		mov	r0, r4
 2736              		.loc 1 276 0
ARM GAS  /tmp/cc0XcXNK.s 			page 49


 2737 10ca 85ED100A 		fsts	s0, [r5, #64]
 2738              		.loc 1 277 0
 2739 10ce 03A9     		add	r1, sp, #12
 2740 10d0 B0EE480A 		fcpys	s0, s16
 2741 10d4 FFF7FEFF 		bl	buffer_get_float32
 2742              	.LVL254:
 2743              		.loc 1 278 0
 2744 10d8 2046     		mov	r0, r4
 2745              		.loc 1 277 0
 2746 10da 85ED110A 		fsts	s0, [r5, #68]
 2747              		.loc 1 278 0
 2748 10de 03A9     		add	r1, sp, #12
 2749 10e0 B0EE480A 		fcpys	s0, s16
 2750 10e4 FFF7FEFF 		bl	buffer_get_float32
 2751              	.LVL255:
 2752              		.loc 1 279 0
 2753 10e8 2046     		mov	r0, r4
 2754              		.loc 1 278 0
 2755 10ea 85ED120A 		fsts	s0, [r5, #72]
 2756              		.loc 1 279 0
 2757 10ee 03A9     		add	r1, sp, #12
 2758 10f0 B0EE680A 		fcpys	s0, s17
 2759 10f4 FFF7FEFF 		bl	buffer_get_float32
 2760              	.LVL256:
 2761              		.loc 1 280 0
 2762 10f8 2046     		mov	r0, r4
 2763              		.loc 1 279 0
 2764 10fa 85ED130A 		fsts	s0, [r5, #76]
 2765              		.loc 1 280 0
 2766 10fe 03A9     		add	r1, sp, #12
 2767 1100 B0EE680A 		fcpys	s0, s17
 2768 1104 FFF7FEFF 		bl	buffer_get_float32
 2769              	.LVL257:
 2770              		.loc 1 284 0
 2771 1108 EA68     		ldr	r2, [r5, #12]	@ float
 2772              		.loc 1 285 0
 2773 110a 2B69     		ldr	r3, [r5, #16]	@ float
 2774              		.loc 1 283 0
 2775 110c AE68     		ldr	r6, [r5, #8]	@ float
 2776              		.loc 1 282 0
 2777 110e 6F68     		ldr	r7, [r5, #4]	@ float
 2778              		.loc 1 280 0
 2779 1110 85ED140A 		fsts	s0, [r5, #80]
 2780              		.loc 1 287 0
 2781 1114 03A9     		add	r1, sp, #12
 2782 1116 2046     		mov	r0, r4
 2783              		.loc 1 284 0
 2784 1118 EA65     		str	r2, [r5, #92]	@ float
 2785              		.loc 1 285 0
 2786 111a 2B66     		str	r3, [r5, #96]	@ float
 2787              		.loc 1 283 0
 2788 111c AE65     		str	r6, [r5, #88]	@ float
 2789              		.loc 1 282 0
 2790 111e 6F65     		str	r7, [r5, #84]	@ float
 2791              		.loc 1 287 0
 2792 1120 FFF7FEFF 		bl	buffer_get_int32
 2793              	.LVL258:
ARM GAS  /tmp/cc0XcXNK.s 			page 50


 2794 1124 07EE900A 		fmsr	s15, r0	@ int
 2795 1128 F8EEE77A 		fsitos	s15, s15
 2796              		.loc 1 288 0
 2797 112c 03A9     		add	r1, sp, #12
 2798              		.loc 1 287 0
 2799 112e C7EE887A 		fdivs	s15, s15, s16
 2800              		.loc 1 288 0
 2801 1132 2046     		mov	r0, r4
 2802              		.loc 1 287 0
 2803 1134 C5ED197A 		fsts	s15, [r5, #100]
 2804              		.loc 1 288 0
 2805 1138 FFF7FEFF 		bl	buffer_get_int32
 2806              	.LVL259:
 2807 113c 07EE900A 		fmsr	s15, r0	@ int
 2808 1140 F8EEE77A 		fsitos	s15, s15
 2809              		.loc 1 289 0
 2810 1144 03A9     		add	r1, sp, #12
 2811              		.loc 1 288 0
 2812 1146 C7EE887A 		fdivs	s15, s15, s16
 2813              		.loc 1 289 0
 2814 114a 2046     		mov	r0, r4
 2815              		.loc 1 288 0
 2816 114c C5ED1A7A 		fsts	s15, [r5, #104]
 2817              		.loc 1 289 0
 2818 1150 FFF7FEFF 		bl	buffer_get_int32
 2819              	.LVL260:
 2820 1154 07EE900A 		fmsr	s15, r0	@ int
 2821 1158 F8EEE77A 		fsitos	s15, s15
 2822              		.loc 1 290 0
 2823 115c 03A9     		add	r1, sp, #12
 2824              		.loc 1 289 0
 2825 115e C7EE887A 		fdivs	s15, s15, s16
 2826              		.loc 1 290 0
 2827 1162 2046     		mov	r0, r4
 2828              		.loc 1 289 0
 2829 1164 C5ED1B7A 		fsts	s15, [r5, #108]
 2830              		.loc 1 290 0
 2831 1168 FFF7FEFF 		bl	buffer_get_int32
 2832              	.LVL261:
 2833 116c 07EE900A 		fmsr	s15, r0	@ int
 2834 1170 F8EEE77A 		fsitos	s15, s15
 2835              		.loc 1 291 0
 2836 1174 03A9     		add	r1, sp, #12
 2837              		.loc 1 290 0
 2838 1176 C7EE887A 		fdivs	s15, s15, s16
 2839              		.loc 1 291 0
 2840 117a 2046     		mov	r0, r4
 2841              		.loc 1 290 0
 2842 117c C5ED1C7A 		fsts	s15, [r5, #112]
 2843              		.loc 1 291 0
 2844 1180 FFF7FEFF 		bl	buffer_get_int32
 2845              	.LVL262:
 2846 1184 07EE900A 		fmsr	s15, r0	@ int
 2847 1188 F8EEE77A 		fsitos	s15, s15
 2848              		.loc 1 292 0
 2849 118c 03A9     		add	r1, sp, #12
 2850              		.loc 1 291 0
ARM GAS  /tmp/cc0XcXNK.s 			page 51


 2851 118e C7EE887A 		fdivs	s15, s15, s16
 2852              		.loc 1 292 0
 2853 1192 2046     		mov	r0, r4
 2854              		.loc 1 291 0
 2855 1194 C5ED1D7A 		fsts	s15, [r5, #116]
 2856              		.loc 1 292 0
 2857 1198 FFF7FEFF 		bl	buffer_get_int32
 2858              	.LVL263:
 2859 119c 07EE900A 		fmsr	s15, r0	@ int
 2860 11a0 F8EEE77A 		fsitos	s15, s15
 2861              		.loc 1 293 0
 2862 11a4 03A9     		add	r1, sp, #12
 2863              		.loc 1 292 0
 2864 11a6 C7EE887A 		fdivs	s15, s15, s16
 2865              		.loc 1 293 0
 2866 11aa 2046     		mov	r0, r4
 2867              		.loc 1 292 0
 2868 11ac C5ED1E7A 		fsts	s15, [r5, #120]
 2869              		.loc 1 293 0
 2870 11b0 FFF7FEFF 		bl	buffer_get_int32
 2871              	.LVL264:
 2872 11b4 07EE900A 		fmsr	s15, r0	@ int
 2873 11b8 F8EEE77A 		fsitos	s15, s15
 2874              		.loc 1 295 0
 2875 11bc 039A     		ldr	r2, [sp, #12]
 2876              		.loc 1 293 0
 2877 11be C7EE887A 		fdivs	s15, s15, s16
 2878              		.loc 1 295 0
 2879 11c2 A118     		adds	r1, r4, r2
 2880              		.loc 1 296 0
 2881 11c4 0832     		adds	r2, r2, #8
 2882 11c6 0392     		str	r2, [sp, #12]
 2883              		.loc 1 295 0
 2884 11c8 05F18003 		add	r3, r5, #128
 2885              		.loc 1 293 0
 2886 11cc C5ED1F7A 		fsts	s15, [r5, #124]
 2887              		.loc 1 295 0
 2888 11d0 0868     		ldr	r0, [r1]	@ unaligned
 2889 11d2 4968     		ldr	r1, [r1, #4]	@ unaligned
 2890 11d4 03C3     		stmia	r3!, {r0, r1}
 2891              		.loc 1 297 0
 2892 11d6 03A9     		add	r1, sp, #12
 2893 11d8 2046     		mov	r0, r4
 2894 11da FFF7FEFF 		bl	buffer_get_int32
 2895              	.LVL265:
 2896 11de 07EE900A 		fmsr	s15, r0	@ int
 2897 11e2 F8EEE77A 		fsitos	s15, s15
 2898              		.loc 1 299 0
 2899 11e6 B0EE490A 		fcpys	s0, s18
 2900              		.loc 1 297 0
 2901 11ea C7EE887A 		fdivs	s15, s15, s16
 2902              		.loc 1 299 0
 2903 11ee 2046     		mov	r0, r4
 2904 11f0 03A9     		add	r1, sp, #12
 2905              		.loc 1 297 0
 2906 11f2 C5ED227A 		fsts	s15, [r5, #136]
 2907              		.loc 1 299 0
ARM GAS  /tmp/cc0XcXNK.s 			page 52


 2908 11f6 FFF7FEFF 		bl	buffer_get_float32
 2909              	.LVL266:
 2910              		.loc 1 300 0
 2911 11fa 2046     		mov	r0, r4
 2912              		.loc 1 299 0
 2913 11fc 85ED230A 		fsts	s0, [r5, #140]
 2914              		.loc 1 300 0
 2915 1200 03A9     		add	r1, sp, #12
 2916 1202 B0EE490A 		fcpys	s0, s18
 2917 1206 FFF7FEFF 		bl	buffer_get_float32
 2918              	.LVL267:
 2919              		.loc 1 301 0
 2920 120a 2046     		mov	r0, r4
 2921              		.loc 1 300 0
 2922 120c 85ED240A 		fsts	s0, [r5, #144]
 2923              		.loc 1 301 0
 2924 1210 03A9     		add	r1, sp, #12
 2925 1212 B0EE480A 		fcpys	s0, s16
 2926 1216 FFF7FEFF 		bl	buffer_get_float32
 2927              	.LVL268:
 2928              		.loc 1 302 0
 2929 121a 2046     		mov	r0, r4
 2930              		.loc 1 301 0
 2931 121c 85ED250A 		fsts	s0, [r5, #148]
 2932              		.loc 1 302 0
 2933 1220 03A9     		add	r1, sp, #12
 2934 1222 B0EE680A 		fcpys	s0, s17
 2935 1226 FFF7FEFF 		bl	buffer_get_float32
 2936              	.LVL269:
 2937              		.loc 1 303 0
 2938 122a 039B     		ldr	r3, [sp, #12]
 2939              		.loc 1 302 0
 2940 122c 85ED260A 		fsts	s0, [r5, #152]
 2941              		.loc 1 303 0
 2942 1230 E25C     		ldrb	r2, [r4, r3]	@ zero_extendqisi2
 2943 1232 0032     		adds	r2, r2, #0
 2944 1234 18BF     		it	ne
 2945 1236 0122     		movne	r2, #1
 2946 1238 0133     		adds	r3, r3, #1
 2947              		.loc 1 304 0
 2948 123a B0EE480A 		fcpys	s0, s16
 2949 123e 2046     		mov	r0, r4
 2950 1240 03A9     		add	r1, sp, #12
 2951              		.loc 1 303 0
 2952 1242 85F8A020 		strb	r2, [r5, #160]
 2953 1246 0393     		str	r3, [sp, #12]
 2954              		.loc 1 304 0
 2955 1248 FFF7FEFF 		bl	buffer_get_float32
 2956              	.LVL270:
 2957              		.loc 1 305 0
 2958 124c 2046     		mov	r0, r4
 2959              		.loc 1 304 0
 2960 124e 85ED270A 		fsts	s0, [r5, #156]
 2961              		.loc 1 305 0
 2962 1252 03A9     		add	r1, sp, #12
 2963 1254 B0EE480A 		fcpys	s0, s16
 2964 1258 FFF7FEFF 		bl	buffer_get_float32
ARM GAS  /tmp/cc0XcXNK.s 			page 53


 2965              	.LVL271:
 2966              		.loc 1 306 0
 2967 125c 039B     		ldr	r3, [sp, #12]
 2968              		.loc 1 305 0
 2969 125e 85ED290A 		fsts	s0, [r5, #164]
 2970              		.loc 1 306 0
 2971 1262 E25C     		ldrb	r2, [r4, r3]	@ zero_extendqisi2
 2972 1264 85F8DC20 		strb	r2, [r5, #220]
 2973 1268 0133     		adds	r3, r3, #1
 2974              		.loc 1 307 0
 2975 126a B0EE480A 		fcpys	s0, s16
 2976 126e 2046     		mov	r0, r4
 2977 1270 03A9     		add	r1, sp, #12
 2978              		.loc 1 306 0
 2979 1272 0393     		str	r3, [sp, #12]
 2980              		.loc 1 307 0
 2981 1274 FFF7FEFF 		bl	buffer_get_float32
 2982              	.LVL272:
 2983              		.loc 1 308 0
 2984 1278 2046     		mov	r0, r4
 2985              		.loc 1 307 0
 2986 127a 85ED2E0A 		fsts	s0, [r5, #184]
 2987              		.loc 1 308 0
 2988 127e 03A9     		add	r1, sp, #12
 2989 1280 B0EE480A 		fcpys	s0, s16
 2990 1284 FFF7FEFF 		bl	buffer_get_float32
 2991              	.LVL273:
 2992              		.loc 1 309 0
 2993 1288 2046     		mov	r0, r4
 2994              		.loc 1 308 0
 2995 128a 85ED2F0A 		fsts	s0, [r5, #188]
 2996              		.loc 1 309 0
 2997 128e 03A9     		add	r1, sp, #12
 2998 1290 9FED1B0A 		flds	s0, .L228+16
 2999 1294 FFF7FEFF 		bl	buffer_get_float32
 3000              	.LVL274:
 3001              		.loc 1 310 0
 3002 1298 2046     		mov	r0, r4
 3003              		.loc 1 309 0
 3004 129a 85ED2A0A 		fsts	s0, [r5, #168]
 3005              		.loc 1 310 0
 3006 129e 03A9     		add	r1, sp, #12
 3007 12a0 B0EE490A 		fcpys	s0, s18
 3008 12a4 FFF7FEFF 		bl	buffer_get_float32
 3009              	.LVL275:
 3010              		.loc 1 311 0
 3011 12a8 2046     		mov	r0, r4
 3012              		.loc 1 310 0
 3013 12aa 85ED2B0A 		fsts	s0, [r5, #172]
 3014              		.loc 1 311 0
 3015 12ae 03A9     		add	r1, sp, #12
 3016 12b0 B0EE490A 		fcpys	s0, s18
 3017 12b4 FFF7FEFF 		bl	buffer_get_float32
 3018              	.LVL276:
 3019              		.loc 1 312 0
 3020 12b8 2046     		mov	r0, r4
 3021              		.loc 1 311 0
ARM GAS  /tmp/cc0XcXNK.s 			page 54


 3022 12ba 85ED2C0A 		fsts	s0, [r5, #176]
 3023              		.loc 1 312 0
 3024 12be 03A9     		add	r1, sp, #12
 3025 12c0 B7EE000A 		fconsts	s0, #112
 3026 12c4 FFF7FEFF 		bl	buffer_get_float32
 3027              	.LVL277:
 3028              		.loc 1 313 0
 3029 12c8 2046     		mov	r0, r4
 3030              		.loc 1 312 0
 3031 12ca 85ED2D0A 		fsts	s0, [r5, #180]
 3032              		.loc 1 313 0
 3033 12ce 03A9     		add	r1, sp, #12
 3034 12d0 B0EE480A 		fcpys	s0, s16
 3035 12d4 FFF7FEFF 		bl	buffer_get_float32
 3036              	.LVL278:
 3037              		.loc 1 314 0
 3038 12d8 2046     		mov	r0, r4
 3039              		.loc 1 313 0
 3040 12da 85ED300A 		fsts	s0, [r5, #192]
 3041              		.loc 1 314 0
 3042 12de 03A9     		add	r1, sp, #12
 3043 12e0 B0EE480A 		fcpys	s0, s16
 3044 12e4 FFF7FEFF 		bl	buffer_get_float32
 3045              	.LVL279:
 3046              		.loc 1 315 0
 3047 12e8 2046     		mov	r0, r4
 3048              		.loc 1 314 0
 3049 12ea 85ED310A 		fsts	s0, [r5, #196]
 3050 12ee 09E0     		b	.L229
 3051              	.L230:
 3052              		.align	2
 3053              	.L228:
 3054 12f0 00000000 		.word	.LANCHOR12
 3055 12f4 00007A44 		.word	1148846080
 3056 12f8 00247449 		.word	1232348160
 3057 12fc 0050C347 		.word	1203982336
 3058 1300 20BCBE4C 		.word	1287568416
 3059              	.L229:
 3060              		.loc 1 315 0
 3061 1304 03A9     		add	r1, sp, #12
 3062 1306 B0EE480A 		fcpys	s0, s16
 3063 130a FFF7FEFF 		bl	buffer_get_float32
 3064              	.LVL280:
 3065              		.loc 1 316 0
 3066 130e 2046     		mov	r0, r4
 3067              		.loc 1 315 0
 3068 1310 85ED320A 		fsts	s0, [r5, #200]
 3069              		.loc 1 316 0
 3070 1314 03A9     		add	r1, sp, #12
 3071 1316 B0EE480A 		fcpys	s0, s16
 3072 131a FFF7FEFF 		bl	buffer_get_float32
 3073              	.LVL281:
 3074              		.loc 1 317 0
 3075 131e 2046     		mov	r0, r4
 3076              		.loc 1 316 0
 3077 1320 85ED330A 		fsts	s0, [r5, #204]
 3078              		.loc 1 317 0
ARM GAS  /tmp/cc0XcXNK.s 			page 55


 3079 1324 03A9     		add	r1, sp, #12
 3080 1326 B0EE480A 		fcpys	s0, s16
 3081 132a FFF7FEFF 		bl	buffer_get_float32
 3082              	.LVL282:
 3083              		.loc 1 318 0
 3084 132e 2046     		mov	r0, r4
 3085              		.loc 1 317 0
 3086 1330 85ED340A 		fsts	s0, [r5, #208]
 3087              		.loc 1 318 0
 3088 1334 03A9     		add	r1, sp, #12
 3089 1336 B0EE480A 		fcpys	s0, s16
 3090 133a FFF7FEFF 		bl	buffer_get_float32
 3091              	.LVL283:
 3092              		.loc 1 319 0
 3093 133e 2046     		mov	r0, r4
 3094              		.loc 1 318 0
 3095 1340 85ED350A 		fsts	s0, [r5, #212]
 3096              		.loc 1 319 0
 3097 1344 03A9     		add	r1, sp, #12
 3098 1346 B0EE480A 		fcpys	s0, s16
 3099 134a FFF7FEFF 		bl	buffer_get_float32
 3100              	.LVL284:
 3101              		.loc 1 320 0
 3102 134e 039B     		ldr	r3, [sp, #12]
 3103              		.loc 1 319 0
 3104 1350 85ED360A 		fsts	s0, [r5, #216]
 3105              		.loc 1 320 0
 3106 1354 E218     		adds	r2, r4, r3
 3107              		.loc 1 322 0
 3108 1356 03A9     		add	r1, sp, #12
 3109              		.loc 1 320 0
 3110 1358 1668     		ldr	r6, [r2]	@ unaligned
 3111 135a 5268     		ldr	r2, [r2, #4]	@ unaligned
 3112 135c C5F8E120 		str	r2, [r5, #225]	@ unaligned
 3113              		.loc 1 321 0
 3114 1360 0833     		adds	r3, r3, #8
 3115              		.loc 1 322 0
 3116 1362 2046     		mov	r0, r4
 3117              		.loc 1 320 0
 3118 1364 C5F8DD60 		str	r6, [r5, #221]	@ unaligned
 3119              		.loc 1 321 0
 3120 1368 0393     		str	r3, [sp, #12]
 3121              		.loc 1 322 0
 3122 136a FFF7FEFF 		bl	buffer_get_int32
 3123              	.LVL285:
 3124 136e 07EE900A 		fmsr	s15, r0	@ int
 3125 1372 F8EEE77A 		fsitos	s15, s15
 3126              		.loc 1 324 0
 3127 1376 03A9     		add	r1, sp, #12
 3128              		.loc 1 322 0
 3129 1378 C7EE887A 		fdivs	s15, s15, s16
 3130              		.loc 1 324 0
 3131 137c 2046     		mov	r0, r4
 3132              		.loc 1 322 0
 3133 137e C5ED3A7A 		fsts	s15, [r5, #232]
 3134              		.loc 1 324 0
 3135 1382 FFF7FEFF 		bl	buffer_get_int32
ARM GAS  /tmp/cc0XcXNK.s 			page 56


 3136              	.LVL286:
 3137 1386 07EE900A 		fmsr	s15, r0	@ int
 3138 138a F8EEE77A 		fsitos	s15, s15
 3139              		.loc 1 325 0
 3140 138e 03A9     		add	r1, sp, #12
 3141              		.loc 1 324 0
 3142 1390 C7EEA87A 		fdivs	s15, s15, s17
 3143              		.loc 1 325 0
 3144 1394 2046     		mov	r0, r4
 3145              		.loc 1 324 0
 3146 1396 C5ED3B7A 		fsts	s15, [r5, #236]
 3147              		.loc 1 325 0
 3148 139a FFF7FEFF 		bl	buffer_get_int32
 3149              	.LVL287:
 3150 139e 07EE900A 		fmsr	s15, r0	@ int
 3151 13a2 F8EEE77A 		fsitos	s15, s15
 3152              		.loc 1 326 0
 3153 13a6 03A9     		add	r1, sp, #12
 3154              		.loc 1 325 0
 3155 13a8 C7EEA87A 		fdivs	s15, s15, s17
 3156              		.loc 1 326 0
 3157 13ac 2046     		mov	r0, r4
 3158              		.loc 1 325 0
 3159 13ae C5ED3C7A 		fsts	s15, [r5, #240]
 3160              		.loc 1 326 0
 3161 13b2 FFF7FEFF 		bl	buffer_get_int32
 3162              	.LVL288:
 3163 13b6 07EE900A 		fmsr	s15, r0	@ int
 3164 13ba F8EEE77A 		fsitos	s15, s15
 3165              		.loc 1 327 0
 3166 13be 03A9     		add	r1, sp, #12
 3167              		.loc 1 326 0
 3168 13c0 C7EEA87A 		fdivs	s15, s15, s17
 3169              		.loc 1 327 0
 3170 13c4 2046     		mov	r0, r4
 3171              		.loc 1 326 0
 3172 13c6 C5ED3D7A 		fsts	s15, [r5, #244]
 3173              		.loc 1 327 0
 3174 13ca FFF7FEFF 		bl	buffer_get_int32
 3175              	.LVL289:
 3176 13ce 07EE900A 		fmsr	s15, r0	@ int
 3177 13d2 F8EEE77A 		fsitos	s15, s15
 3178              		.loc 1 329 0
 3179 13d6 03A9     		add	r1, sp, #12
 3180              		.loc 1 327 0
 3181 13d8 C7EE887A 		fdivs	s15, s15, s16
 3182              		.loc 1 329 0
 3183 13dc 2046     		mov	r0, r4
 3184              		.loc 1 327 0
 3185 13de C5ED3E7A 		fsts	s15, [r5, #248]
 3186              		.loc 1 329 0
 3187 13e2 FFF7FEFF 		bl	buffer_get_int32
 3188              	.LVL290:
 3189 13e6 07EE900A 		fmsr	s15, r0	@ int
 3190 13ea F8EEE77A 		fsitos	s15, s15
 3191              		.loc 1 330 0
 3192 13ee 03A9     		add	r1, sp, #12
ARM GAS  /tmp/cc0XcXNK.s 			page 57


 3193              		.loc 1 329 0
 3194 13f0 C7EEA87A 		fdivs	s15, s15, s17
 3195              		.loc 1 330 0
 3196 13f4 2046     		mov	r0, r4
 3197              		.loc 1 329 0
 3198 13f6 C5ED407A 		fsts	s15, [r5, #256]
 3199              		.loc 1 330 0
 3200 13fa FFF7FEFF 		bl	buffer_get_int32
 3201              	.LVL291:
 3202 13fe 07EE900A 		fmsr	s15, r0	@ int
 3203 1402 F8EEE77A 		fsitos	s15, s15
 3204              		.loc 1 331 0
 3205 1406 03A9     		add	r1, sp, #12
 3206              		.loc 1 330 0
 3207 1408 C7EEA87A 		fdivs	s15, s15, s17
 3208              		.loc 1 331 0
 3209 140c 2046     		mov	r0, r4
 3210              		.loc 1 330 0
 3211 140e C5ED417A 		fsts	s15, [r5, #260]
 3212              		.loc 1 331 0
 3213 1412 FFF7FEFF 		bl	buffer_get_int32
 3214              	.LVL292:
 3215 1416 07EE900A 		fmsr	s15, r0	@ int
 3216 141a F8EEE77A 		fsitos	s15, s15
 3217              		.loc 1 332 0
 3218 141e 03A9     		add	r1, sp, #12
 3219              		.loc 1 331 0
 3220 1420 C7EEA87A 		fdivs	s15, s15, s17
 3221              		.loc 1 332 0
 3222 1424 2046     		mov	r0, r4
 3223              		.loc 1 331 0
 3224 1426 C5ED427A 		fsts	s15, [r5, #264]
 3225              		.loc 1 332 0
 3226 142a FFF7FEFF 		bl	buffer_get_int32
 3227              	.LVL293:
 3228 142e 07EE900A 		fmsr	s15, r0	@ int
 3229 1432 F8EEE77A 		fsitos	s15, s15
 3230              		.loc 1 334 0
 3231 1436 03A9     		add	r1, sp, #12
 3232              		.loc 1 332 0
 3233 1438 87EE899A 		fdivs	s18, s15, s18
 3234              		.loc 1 334 0
 3235 143c 2046     		mov	r0, r4
 3236              		.loc 1 332 0
 3237 143e 85ED439A 		fsts	s18, [r5, #268]
 3238              		.loc 1 334 0
 3239 1442 FFF7FEFF 		bl	buffer_get_int32
 3240              	.LVL294:
 3241 1446 07EE900A 		fmsr	s15, r0	@ int
 3242 144a F8EEE77A 		fsitos	s15, s15
 3243              		.loc 1 335 0
 3244 144e 03A9     		add	r1, sp, #12
 3245              		.loc 1 334 0
 3246 1450 C7EEA87A 		fdivs	s15, s15, s17
 3247              		.loc 1 335 0
 3248 1454 2046     		mov	r0, r4
 3249              		.loc 1 334 0
ARM GAS  /tmp/cc0XcXNK.s 			page 58


 3250 1456 C5ED447A 		fsts	s15, [r5, #272]
 3251              		.loc 1 335 0
 3252 145a FFF7FEFF 		bl	buffer_get_int32
 3253              	.LVL295:
 3254 145e 07EE900A 		fmsr	s15, r0	@ int
 3255 1462 F8EEE77A 		fsitos	s15, s15
 3256              		.loc 1 336 0
 3257 1466 03A9     		add	r1, sp, #12
 3258              		.loc 1 335 0
 3259 1468 87EE888A 		fdivs	s16, s15, s16
 3260              		.loc 1 336 0
 3261 146c 2046     		mov	r0, r4
 3262              		.loc 1 335 0
 3263 146e 85ED458A 		fsts	s16, [r5, #276]
 3264              		.loc 1 336 0
 3265 1472 FFF7FEFF 		bl	buffer_get_int32
 3266              	.LVL296:
 3267 1476 07EE900A 		fmsr	s15, r0	@ int
 3268 147a F8EEE77A 		fsitos	s15, s15
 3269              		.loc 1 337 0
 3270 147e 2046     		mov	r0, r4
 3271              		.loc 1 336 0
 3272 1480 C7EEA87A 		fdivs	s15, s15, s17
 3273              		.loc 1 337 0
 3274 1484 03A9     		add	r1, sp, #12
 3275 1486 B0EE680A 		fcpys	s0, s17
 3276              		.loc 1 336 0
 3277 148a C5ED467A 		fsts	s15, [r5, #280]
 3278              		.loc 1 337 0
 3279 148e FFF7FEFF 		bl	buffer_get_float32
 3280              	.LVL297:
 3281              		.loc 1 339 0
 3282 1492 03A9     		add	r1, sp, #12
 3283 1494 2046     		mov	r0, r4
 3284              		.loc 1 337 0
 3285 1496 85ED470A 		fsts	s0, [r5, #284]
 3286              		.loc 1 339 0
 3287 149a FFF7FEFF 		bl	buffer_get_int32
 3288              	.LVL298:
 3289              		.loc 1 340 0
 3290 149e 03A9     		add	r1, sp, #12
 3291              		.loc 1 339 0
 3292 14a0 C5F82001 		str	r0, [r5, #288]
 3293              		.loc 1 340 0
 3294 14a4 B0EE680A 		fcpys	s0, s17
 3295 14a8 2046     		mov	r0, r4
 3296 14aa FFF7FEFF 		bl	buffer_get_float32
 3297              	.LVL299:
 3298              		.loc 1 341 0
 3299 14ae 2046     		mov	r0, r4
 3300              		.loc 1 340 0
 3301 14b0 85ED490A 		fsts	s0, [r5, #292]
 3302              		.loc 1 341 0
 3303 14b4 03A9     		add	r1, sp, #12
 3304 14b6 B0EE680A 		fcpys	s0, s17
 3305 14ba FFF7FEFF 		bl	buffer_get_float32
 3306              	.LVL300:
ARM GAS  /tmp/cc0XcXNK.s 			page 59


 3307              		.loc 1 342 0
 3308 14be 2046     		mov	r0, r4
 3309              		.loc 1 341 0
 3310 14c0 85ED4A0A 		fsts	s0, [r5, #296]
 3311              		.loc 1 342 0
 3312 14c4 03A9     		add	r1, sp, #12
 3313 14c6 B0EE680A 		fcpys	s0, s17
 3314 14ca FFF7FEFF 		bl	buffer_get_float32
 3315              	.LVL301:
 3316              		.loc 1 343 0
 3317 14ce 03A9     		add	r1, sp, #12
 3318 14d0 2046     		mov	r0, r4
 3319              		.loc 1 342 0
 3320 14d2 85ED4B0A 		fsts	s0, [r5, #300]
 3321              		.loc 1 343 0
 3322 14d6 FFF7FEFF 		bl	buffer_get_uint32
 3323              	.LVL302:
 3324              		.loc 1 344 0
 3325 14da 039B     		ldr	r3, [sp, #12]
 3326              		.loc 1 343 0
 3327 14dc C5F83001 		str	r0, [r5, #304]
 3328              		.loc 1 344 0
 3329 14e0 E25C     		ldrb	r2, [r4, r3]	@ zero_extendqisi2
 3330 14e2 85F83421 		strb	r2, [r5, #308]
 3331 14e6 5A1C     		adds	r2, r3, #1
 3332              		.loc 1 347 0
 3333 14e8 0233     		adds	r3, r3, #2
 3334 14ea A25C     		ldrb	r2, [r4, r2]	@ zero_extendqisi2
 3335 14ec 0393     		str	r3, [sp, #12]
 3336 14ee 131C     		adds	r3, r2, #0
 3337 14f0 18BF     		it	ne
 3338 14f2 0123     		movne	r3, #1
 3339              		.loc 1 350 0
 3340 14f4 2846     		mov	r0, r5
 3341              		.loc 1 347 0
 3342 14f6 85F8FC30 		strb	r3, [r5, #252]
 3343              		.loc 1 350 0
 3344 14fa FFF7FEFF 		bl	conf_general_store_mc_configuration
 3345              	.LVL303:
 3346              		.loc 1 351 0
 3347 14fe 2846     		mov	r0, r5
 3348 1500 FFF7FEFF 		bl	mc_interface_set_configuration
 3349              	.LVL304:
 3350              	.LBB137:
 3351              	.LBB138:
 3352              		.loc 1 97 0
 3353 1504 214B     		ldr	r3, .L231
 3354              	.LBE138:
 3355              	.LBE137:
 3356              		.loc 1 354 0
 3357 1506 2248     		ldr	r0, .L231+4
 3358              	.LBB141:
 3359              	.LBB139:
 3360              		.loc 1 97 0
 3361 1508 1B68     		ldr	r3, [r3]
 3362              	.LBE139:
 3363              	.LBE141:
ARM GAS  /tmp/cc0XcXNK.s 			page 60


 3364              		.loc 1 354 0
 3365 150a 0C22     		movs	r2, #12
 3366 150c 0121     		movs	r1, #1
 3367 150e 0270     		strb	r2, [r0]
 3368              	.LVL305:
 3369 1510 0391     		str	r1, [sp, #12]
 3370              	.LBB142:
 3371              	.LBB140:
 3372              		.loc 1 97 0
 3373 1512 002B     		cmp	r3, #0
 3374 1514 3FF4A3A8 		beq	.L24
 3375              	.LVL306:
 3376              	.L200:
 3377              	.LBE140:
 3378              	.LBE142:
 3379              		.loc 1 861 0
 3380 1518 9847     		blx	r3
 3381              	.LVL307:
 3382 151a FFF7A0B8 		b	.L24
 3383              	.LVL308:
 3384              	.L45:
 3385              		.loc 1 683 0
 3386 151e 2046     		mov	r0, r4
 3387 1520 03A9     		add	r1, sp, #12
 3388 1522 9FED200A 		flds	s0, .L231+24
 3389 1526 FFF7FEFF 		bl	buffer_get_float32
 3390              	.LVL309:
 3391 152a 1A4B     		ldr	r3, .L231+8
 3392              		.loc 1 684 0
 3393 152c 2046     		mov	r0, r4
 3394              		.loc 1 683 0
 3395 152e 83ED000A 		fsts	s0, [r3]
 3396              		.loc 1 684 0
 3397 1532 03A9     		add	r1, sp, #12
 3398 1534 9FED1B0A 		flds	s0, .L231+24
 3399 1538 FFF7FEFF 		bl	buffer_get_float32
 3400              	.LVL310:
 3401 153c 164B     		ldr	r3, .L231+12
 3402              		.loc 1 685 0
 3403 153e 2046     		mov	r0, r4
 3404 1540 03A9     		add	r1, sp, #12
 3405              		.loc 1 684 0
 3406 1542 83ED000A 		fsts	s0, [r3]
 3407              		.loc 1 685 0
 3408 1546 9FED170A 		flds	s0, .L231+24
 3409 154a FFF7FEFF 		bl	buffer_get_float32
 3410              	.LVL311:
 3411              		.loc 1 687 0
 3412 154e 134A     		ldr	r2, .L231+16
 3413              		.loc 1 685 0
 3414 1550 134B     		ldr	r3, .L231+20
 3415              		.loc 1 687 0
 3416 1552 1068     		ldr	r0, [r2]
 3417              		.loc 1 685 0
 3418 1554 83ED000A 		fsts	s0, [r3]
 3419              		.loc 1 687 0
 3420 1558 0121     		movs	r1, #1
ARM GAS  /tmp/cc0XcXNK.s 			page 61


 3421 155a FFF7FEFF 		bl	chEvtSignal
 3422              	.LVL312:
 3423              		.loc 1 688 0
 3424 155e FFF77EB8 		b	.L24
 3425              	.L43:
 3426              		.loc 1 670 0
 3427 1562 4578     		ldrb	r5, [r0, #1]	@ zero_extendqisi2
 3428 1564 0123     		movs	r3, #1
 3429 1566 0035     		adds	r5, r5, #0
 3430              		.loc 1 671 0
 3431 1568 03A9     		add	r1, sp, #12
 3432 156a 2046     		mov	r0, r4
 3433              		.loc 1 670 0
 3434 156c 18BF     		it	ne
 3435 156e 0125     		movne	r5, #1
 3436              	.LVL313:
 3437 1570 0393     		str	r3, [sp, #12]
 3438              		.loc 1 671 0
 3439 1572 FFF7FEFF 		bl	buffer_get_uint16
 3440              	.LVL314:
 3441              		.loc 1 672 0
 3442 1576 039B     		ldr	r3, [sp, #12]
 3443              		.loc 1 671 0
 3444 1578 0146     		mov	r1, r0
 3445              	.LVL315:
 3446              		.loc 1 673 0
 3447 157a E25C     		ldrb	r2, [r4, r3]	@ zero_extendqisi2
 3448 157c 2846     		mov	r0, r5
 3449              		.loc 1 672 0
 3450 157e 0133     		adds	r3, r3, #1
 3451 1580 0393     		str	r3, [sp, #12]
 3452              	.LVL316:
 3453              		.loc 1 673 0
 3454 1582 FFF7FEFF 		bl	mc_interface_sample_print_data
 3455              	.LVL317:
 3456              		.loc 1 674 0
 3457 1586 FFF76AB8 		b	.L24
 3458              	.L232:
 3459 158a 00BF     		.align	2
 3460              	.L231:
 3461 158c 00000000 		.word	.LANCHOR9
 3462 1590 00000000 		.word	.LANCHOR8
 3463 1594 00000000 		.word	.LANCHOR1
 3464 1598 00000000 		.word	.LANCHOR2
 3465 159c 00000000 		.word	.LANCHOR0
 3466 15a0 00000000 		.word	.LANCHOR3
 3467 15a4 00007A44 		.word	1148846080
 3468 15a8 0000C842 		.word	1120403456
 3469              	.LVL318:
 3470              	.L41:
 3471              		.loc 1 463 0
 3472 15ac FFF7FEFF 		bl	app_get_configuration
 3473              	.LVL319:
 3474 15b0 4FF48072 		mov	r2, #256
 3475 15b4 0146     		mov	r1, r0
 3476 15b6 04A8     		add	r0, sp, #16
 3477              		.loc 1 466 0
ARM GAS  /tmp/cc0XcXNK.s 			page 62


 3478 15b8 0125     		movs	r5, #1
 3479              		.loc 1 463 0
 3480 15ba FFF7FEFF 		bl	memcpy
 3481              	.LVL320:
 3482              		.loc 1 466 0
 3483 15be 7378     		ldrb	r3, [r6, #1]	@ zero_extendqisi2
 3484 15c0 8DF81030 		strb	r3, [sp, #16]
 3485              		.loc 1 467 0
 3486 15c4 03A9     		add	r1, sp, #12
 3487 15c6 2046     		mov	r0, r4
 3488              		.loc 1 466 0
 3489 15c8 0395     		str	r5, [sp, #12]
 3490              		.loc 1 467 0
 3491 15ca FFF7FEFF 		bl	buffer_get_uint32
 3492              	.LVL321:
 3493              		.loc 1 468 0
 3494 15ce 03A9     		add	r1, sp, #12
 3495              		.loc 1 467 0
 3496 15d0 0590     		str	r0, [sp, #20]
 3497              		.loc 1 468 0
 3498 15d2 2046     		mov	r0, r4
 3499 15d4 FFF7FEFF 		bl	buffer_get_int32
 3500              	.LVL322:
 3501 15d8 07EE900A 		fmsr	s15, r0	@ int
 3502 15dc 1FED0F8A 		flds	s16, .L231+24
 3503              		.loc 1 469 0
 3504 15e0 039B     		ldr	r3, [sp, #12]
 3505              		.loc 1 546 0
 3506 15e2 5FED0F8A 		flds	s17, .L231+28
 3507              		.loc 1 469 0
 3508 15e6 E25C     		ldrb	r2, [r4, r3]	@ zero_extendqisi2
 3509              		.loc 1 468 0
 3510 15e8 F8EEE77A 		fsitos	s15, s15
 3511              		.loc 1 469 0
 3512 15ec 0032     		adds	r2, r2, #0
 3513              		.loc 1 468 0
 3514 15ee C7EE887A 		fdivs	s15, s15, s16
 3515              		.loc 1 469 0
 3516 15f2 18BF     		it	ne
 3517 15f4 0122     		movne	r2, #1
 3518 15f6 2B44     		add	r3, r3, r5
 3519              		.loc 1 470 0
 3520 15f8 03A9     		add	r1, sp, #12
 3521 15fa 2046     		mov	r0, r4
 3522              		.loc 1 469 0
 3523 15fc 8DF81C20 		strb	r2, [sp, #28]
 3524 1600 0393     		str	r3, [sp, #12]
 3525              		.loc 1 468 0
 3526 1602 CDED067A 		fsts	s15, [sp, #24]
 3527              		.loc 1 470 0
 3528 1606 FFF7FEFF 		bl	buffer_get_uint16
 3529              	.LVL323:
 3530              		.loc 1 472 0
 3531 160a 039B     		ldr	r3, [sp, #12]
 3532              		.loc 1 470 0
 3533 160c 0890     		str	r0, [sp, #32]
 3534              		.loc 1 472 0
ARM GAS  /tmp/cc0XcXNK.s 			page 63


 3535 160e 5A19     		adds	r2, r3, r5
 3536 1610 E15C     		ldrb	r1, [r4, r3]	@ zero_extendqisi2
 3537              		.loc 1 474 0
 3538 1612 A25C     		ldrb	r2, [r4, r2]	@ zero_extendqisi2
 3539              		.loc 1 472 0
 3540 1614 8DF82410 		strb	r1, [sp, #36]
 3541              		.loc 1 474 0
 3542 1618 0233     		adds	r3, r3, #2
 3543              		.loc 1 475 0
 3544 161a 03A9     		add	r1, sp, #12
 3545 161c 2046     		mov	r0, r4
 3546              		.loc 1 474 0
 3547 161e 8DF82820 		strb	r2, [sp, #40]
 3548 1622 0393     		str	r3, [sp, #12]
 3549              		.loc 1 475 0
 3550 1624 FFF7FEFF 		bl	buffer_get_int32
 3551              	.LVL324:
 3552 1628 07EE900A 		fmsr	s15, r0	@ int
 3553 162c F8EEE77A 		fsitos	s15, s15
 3554              		.loc 1 476 0
 3555 1630 03A9     		add	r1, sp, #12
 3556              		.loc 1 475 0
 3557 1632 C7EE887A 		fdivs	s15, s15, s16
 3558              		.loc 1 476 0
 3559 1636 2046     		mov	r0, r4
 3560              		.loc 1 475 0
 3561 1638 CDED0B7A 		fsts	s15, [sp, #44]
 3562              		.loc 1 476 0
 3563 163c FFF7FEFF 		bl	buffer_get_int32
 3564              	.LVL325:
 3565 1640 07EE900A 		fmsr	s15, r0	@ int
 3566 1644 F8EEE77A 		fsitos	s15, s15
 3567              		.loc 1 477 0
 3568 1648 03A9     		add	r1, sp, #12
 3569              		.loc 1 476 0
 3570 164a C7EE887A 		fdivs	s15, s15, s16
 3571              		.loc 1 477 0
 3572 164e 2046     		mov	r0, r4
 3573              		.loc 1 476 0
 3574 1650 CDED0C7A 		fsts	s15, [sp, #48]
 3575              		.loc 1 477 0
 3576 1654 FFF7FEFF 		bl	buffer_get_int32
 3577              	.LVL326:
 3578 1658 07EE900A 		fmsr	s15, r0	@ int
 3579 165c F8EEE77A 		fsitos	s15, s15
 3580              		.loc 1 478 0
 3581 1660 03A9     		add	r1, sp, #12
 3582              		.loc 1 477 0
 3583 1662 C7EE887A 		fdivs	s15, s15, s16
 3584              		.loc 1 478 0
 3585 1666 2046     		mov	r0, r4
 3586              		.loc 1 477 0
 3587 1668 CDED0D7A 		fsts	s15, [sp, #52]
 3588              		.loc 1 478 0
 3589 166c FFF7FEFF 		bl	buffer_get_int32
 3590              	.LVL327:
 3591 1670 07EE900A 		fmsr	s15, r0	@ int
ARM GAS  /tmp/cc0XcXNK.s 			page 64


 3592 1674 F8EEE77A 		fsitos	s15, s15
 3593              		.loc 1 479 0
 3594 1678 039B     		ldr	r3, [sp, #12]
 3595              		.loc 1 478 0
 3596 167a C7EE887A 		fdivs	s15, s15, s16
 3597              		.loc 1 479 0
 3598 167e 5A19     		adds	r2, r3, r5
 3599 1680 E65C     		ldrb	r6, [r4, r3]	@ zero_extendqisi2
 3600              		.loc 1 480 0
 3601 1682 A25C     		ldrb	r2, [r4, r2]	@ zero_extendqisi2
 3602              		.loc 1 479 0
 3603 1684 0036     		adds	r6, r6, #0
 3604 1686 18BF     		it	ne
 3605 1688 0126     		movne	r6, #1
 3606              		.loc 1 480 0
 3607 168a 0032     		adds	r2, r2, #0
 3608 168c 18BF     		it	ne
 3609 168e 0122     		movne	r2, #1
 3610 1690 0233     		adds	r3, r3, #2
 3611              		.loc 1 481 0
 3612 1692 03A9     		add	r1, sp, #12
 3613 1694 2046     		mov	r0, r4
 3614              		.loc 1 480 0
 3615 1696 8DF83D20 		strb	r2, [sp, #61]
 3616 169a 0393     		str	r3, [sp, #12]
 3617              		.loc 1 479 0
 3618 169c 8DF83C60 		strb	r6, [sp, #60]
 3619              		.loc 1 478 0
 3620 16a0 CDED0E7A 		fsts	s15, [sp, #56]
 3621              		.loc 1 481 0
 3622 16a4 FFF7FEFF 		bl	buffer_get_int32
 3623              	.LVL328:
 3624 16a8 07EE900A 		fmsr	s15, r0	@ int
 3625 16ac F8EEE77A 		fsitos	s15, s15
 3626              		.loc 1 482 0
 3627 16b0 03A9     		add	r1, sp, #12
 3628              		.loc 1 481 0
 3629 16b2 C7EE887A 		fdivs	s15, s15, s16
 3630              		.loc 1 482 0
 3631 16b6 2046     		mov	r0, r4
 3632              		.loc 1 481 0
 3633 16b8 CDED107A 		fsts	s15, [sp, #64]
 3634              		.loc 1 482 0
 3635 16bc FFF7FEFF 		bl	buffer_get_int32
 3636              	.LVL329:
 3637 16c0 07EE900A 		fmsr	s15, r0	@ int
 3638 16c4 F8EEE77A 		fsitos	s15, s15
 3639              		.loc 1 483 0
 3640 16c8 039B     		ldr	r3, [sp, #12]
 3641              		.loc 1 482 0
 3642 16ca C7EE887A 		fdivs	s15, s15, s16
 3643              		.loc 1 483 0
 3644 16ce 5A19     		adds	r2, r3, r5
 3645 16d0 E65C     		ldrb	r6, [r4, r3]	@ zero_extendqisi2
 3646              		.loc 1 484 0
 3647 16d2 A25C     		ldrb	r2, [r4, r2]	@ zero_extendqisi2
 3648              		.loc 1 483 0
ARM GAS  /tmp/cc0XcXNK.s 			page 65


 3649 16d4 0036     		adds	r6, r6, #0
 3650 16d6 18BF     		it	ne
 3651 16d8 0126     		movne	r6, #1
 3652              		.loc 1 484 0
 3653 16da 0032     		adds	r2, r2, #0
 3654 16dc 18BF     		it	ne
 3655 16de 0122     		movne	r2, #1
 3656 16e0 0233     		adds	r3, r3, #2
 3657              		.loc 1 485 0
 3658 16e2 03A9     		add	r1, sp, #12
 3659 16e4 2046     		mov	r0, r4
 3660              		.loc 1 483 0
 3661 16e6 8DF84860 		strb	r6, [sp, #72]
 3662              		.loc 1 484 0
 3663 16ea 8DF84920 		strb	r2, [sp, #73]
 3664 16ee 0393     		str	r3, [sp, #12]
 3665              		.loc 1 482 0
 3666 16f0 CDED117A 		fsts	s15, [sp, #68]
 3667              		.loc 1 485 0
 3668 16f4 FFF7FEFF 		bl	buffer_get_int32
 3669              	.LVL330:
 3670 16f8 07EE900A 		fmsr	s15, r0	@ int
 3671 16fc F8EEE77A 		fsitos	s15, s15
 3672              		.loc 1 487 0
 3673 1700 039B     		ldr	r3, [sp, #12]
 3674              		.loc 1 485 0
 3675 1702 C7EE887A 		fdivs	s15, s15, s16
 3676              		.loc 1 487 0
 3677 1706 E25C     		ldrb	r2, [r4, r3]	@ zero_extendqisi2
 3678 1708 8DF86420 		strb	r2, [sp, #100]
 3679 170c 2B44     		add	r3, r3, r5
 3680              		.loc 1 488 0
 3681 170e 03A9     		add	r1, sp, #12
 3682 1710 2046     		mov	r0, r4
 3683              		.loc 1 487 0
 3684 1712 0393     		str	r3, [sp, #12]
 3685              		.loc 1 485 0
 3686 1714 CDED137A 		fsts	s15, [sp, #76]
 3687              		.loc 1 488 0
 3688 1718 FFF7FEFF 		bl	buffer_get_int32
 3689              	.LVL331:
 3690 171c 07EE900A 		fmsr	s15, r0	@ int
 3691 1720 F8EEE77A 		fsitos	s15, s15
 3692              		.loc 1 489 0
 3693 1724 03A9     		add	r1, sp, #12
 3694              		.loc 1 488 0
 3695 1726 C7EE887A 		fdivs	s15, s15, s16
 3696              		.loc 1 489 0
 3697 172a 2046     		mov	r0, r4
 3698              		.loc 1 488 0
 3699 172c CDED1A7A 		fsts	s15, [sp, #104]
 3700              		.loc 1 489 0
 3701 1730 FFF7FEFF 		bl	buffer_get_int32
 3702              	.LVL332:
 3703 1734 07EE900A 		fmsr	s15, r0	@ int
 3704 1738 F8EEE77A 		fsitos	s15, s15
 3705              		.loc 1 490 0
ARM GAS  /tmp/cc0XcXNK.s 			page 66


 3706 173c 03A9     		add	r1, sp, #12
 3707              		.loc 1 489 0
 3708 173e C7EE887A 		fdivs	s15, s15, s16
 3709              		.loc 1 490 0
 3710 1742 2046     		mov	r0, r4
 3711              		.loc 1 489 0
 3712 1744 CDED1B7A 		fsts	s15, [sp, #108]
 3713              		.loc 1 490 0
 3714 1748 FFF7FEFF 		bl	buffer_get_int32
 3715              	.LVL333:
 3716 174c 07EE900A 		fmsr	s15, r0	@ int
 3717 1750 F8EEE77A 		fsitos	s15, s15
 3718              		.loc 1 491 0
 3719 1754 039B     		ldr	r3, [sp, #12]
 3720              		.loc 1 490 0
 3721 1756 C7EE887A 		fdivs	s15, s15, s16
 3722              		.loc 1 491 0
 3723 175a 5E19     		adds	r6, r3, r5
 3724 175c 14F803C0 		ldrb	ip, [r4, r3]	@ zero_extendqisi2
 3725              		.loc 1 492 0
 3726 1760 14F806E0 		ldrb	lr, [r4, r6]	@ zero_extendqisi2
 3727 1764 981C     		adds	r0, r3, #2
 3728              		.loc 1 493 0
 3729 1766 D91C     		adds	r1, r3, #3
 3730              		.loc 1 491 0
 3731 1768 1CF1000C 		adds	ip, ip, #0
 3732              		.loc 1 493 0
 3733 176c 275C     		ldrb	r7, [r4, r0]	@ zero_extendqisi2
 3734              	.LVL334:
 3735              		.loc 1 494 0
 3736 176e 665C     		ldrb	r6, [r4, r1]	@ zero_extendqisi2
 3737 1770 03F10402 		add	r2, r3, #4
 3738              		.loc 1 491 0
 3739 1774 18BF     		it	ne
 3740 1776 4FF0010C 		movne	ip, #1
 3741              		.loc 1 492 0
 3742 177a 1EF1000E 		adds	lr, lr, #0
 3743 177e 18BF     		it	ne
 3744 1780 4FF0010E 		movne	lr, #1
 3745              		.loc 1 495 0
 3746 1784 A25C     		ldrb	r2, [r4, r2]	@ zero_extendqisi2
 3747              		.loc 1 491 0
 3748 1786 8DF874C0 		strb	ip, [sp, #116]
 3749              		.loc 1 493 0
 3750 178a 0037     		adds	r7, r7, #0
 3751 178c 18BF     		it	ne
 3752 178e 0127     		movne	r7, #1
 3753              		.loc 1 494 0
 3754 1790 0036     		adds	r6, r6, #0
 3755 1792 18BF     		it	ne
 3756 1794 0126     		movne	r6, #1
 3757              		.loc 1 495 0
 3758 1796 0032     		adds	r2, r2, #0
 3759 1798 18BF     		it	ne
 3760 179a 0122     		movne	r2, #1
 3761 179c 0533     		adds	r3, r3, #5
 3762              		.loc 1 496 0
ARM GAS  /tmp/cc0XcXNK.s 			page 67


 3763 179e 03A9     		add	r1, sp, #12
 3764 17a0 2046     		mov	r0, r4
 3765              		.loc 1 492 0
 3766 17a2 8DF875E0 		strb	lr, [sp, #117]
 3767              		.loc 1 495 0
 3768 17a6 8DF87820 		strb	r2, [sp, #120]
 3769 17aa 0393     		str	r3, [sp, #12]
 3770              		.loc 1 490 0
 3771 17ac CDED1C7A 		fsts	s15, [sp, #112]
 3772              		.loc 1 493 0
 3773 17b0 8DF87670 		strb	r7, [sp, #118]
 3774              		.loc 1 494 0
 3775 17b4 8DF87760 		strb	r6, [sp, #119]
 3776              		.loc 1 496 0
 3777 17b8 FFF7FEFF 		bl	buffer_get_int32
 3778              	.LVL335:
 3779 17bc 07EE900A 		fmsr	s15, r0	@ int
 3780 17c0 F8EEE77A 		fsitos	s15, s15
 3781              		.loc 1 497 0
 3782 17c4 03A9     		add	r1, sp, #12
 3783              		.loc 1 496 0
 3784 17c6 C7EE887A 		fdivs	s15, s15, s16
 3785              		.loc 1 497 0
 3786 17ca 2046     		mov	r0, r4
 3787              		.loc 1 496 0
 3788 17cc CDED1F7A 		fsts	s15, [sp, #124]
 3789              		.loc 1 497 0
 3790 17d0 FFF7FEFF 		bl	buffer_get_int32
 3791              	.LVL336:
 3792 17d4 07EE900A 		fmsr	s15, r0	@ int
 3793 17d8 F8EEE77A 		fsitos	s15, s15
 3794              		.loc 1 498 0
 3795 17dc 039B     		ldr	r3, [sp, #12]
 3796              		.loc 1 497 0
 3797 17de C7EE887A 		fdivs	s15, s15, s16
 3798              		.loc 1 498 0
 3799 17e2 5A19     		adds	r2, r3, r5
 3800 17e4 E65C     		ldrb	r6, [r4, r3]	@ zero_extendqisi2
 3801              		.loc 1 499 0
 3802 17e6 A25C     		ldrb	r2, [r4, r2]	@ zero_extendqisi2
 3803              		.loc 1 498 0
 3804 17e8 0036     		adds	r6, r6, #0
 3805 17ea 18BF     		it	ne
 3806 17ec 0126     		movne	r6, #1
 3807              		.loc 1 499 0
 3808 17ee 0032     		adds	r2, r2, #0
 3809 17f0 18BF     		it	ne
 3810 17f2 0122     		movne	r2, #1
 3811 17f4 0233     		adds	r3, r3, #2
 3812              		.loc 1 500 0
 3813 17f6 03A9     		add	r1, sp, #12
 3814 17f8 2046     		mov	r0, r4
 3815              		.loc 1 499 0
 3816 17fa 8DF88520 		strb	r2, [sp, #133]
 3817 17fe 0393     		str	r3, [sp, #12]
 3818              		.loc 1 498 0
 3819 1800 8DF88460 		strb	r6, [sp, #132]
ARM GAS  /tmp/cc0XcXNK.s 			page 68


 3820              		.loc 1 497 0
 3821 1804 CDED207A 		fsts	s15, [sp, #128]
 3822              		.loc 1 500 0
 3823 1808 FFF7FEFF 		bl	buffer_get_int32
 3824              	.LVL337:
 3825 180c 07EE900A 		fmsr	s15, r0	@ int
 3826 1810 F8EEE77A 		fsitos	s15, s15
 3827              		.loc 1 501 0
 3828 1814 03A9     		add	r1, sp, #12
 3829              		.loc 1 500 0
 3830 1816 C7EE887A 		fdivs	s15, s15, s16
 3831              		.loc 1 501 0
 3832 181a 2046     		mov	r0, r4
 3833              		.loc 1 500 0
 3834 181c CDED227A 		fsts	s15, [sp, #136]
 3835              		.loc 1 501 0
 3836 1820 FFF7FEFF 		bl	buffer_get_uint16
 3837              	.LVL338:
 3838              		.loc 1 503 0
 3839 1824 03A9     		add	r1, sp, #12
 3840              		.loc 1 501 0
 3841 1826 2390     		str	r0, [sp, #140]
 3842              		.loc 1 503 0
 3843 1828 2046     		mov	r0, r4
 3844 182a FFF7FEFF 		bl	buffer_get_uint32
 3845              	.LVL339:
 3846              		.loc 1 505 0
 3847 182e 039B     		ldr	r3, [sp, #12]
 3848              		.loc 1 503 0
 3849 1830 2490     		str	r0, [sp, #144]
 3850              		.loc 1 505 0
 3851 1832 E25C     		ldrb	r2, [r4, r3]	@ zero_extendqisi2
 3852 1834 8DF89420 		strb	r2, [sp, #148]
 3853 1838 2B44     		add	r3, r3, r5
 3854              		.loc 1 506 0
 3855 183a B0EE480A 		fcpys	s0, s16
 3856 183e 2046     		mov	r0, r4
 3857 1840 03A9     		add	r1, sp, #12
 3858              		.loc 1 505 0
 3859 1842 0393     		str	r3, [sp, #12]
 3860              		.loc 1 506 0
 3861 1844 FFF7FEFF 		bl	buffer_get_float32
 3862              	.LVL340:
 3863              		.loc 1 507 0
 3864 1848 2046     		mov	r0, r4
 3865              		.loc 1 506 0
 3866 184a 8DED260A 		fsts	s0, [sp, #152]
 3867              		.loc 1 507 0
 3868 184e 03A9     		add	r1, sp, #12
 3869 1850 B0EE480A 		fcpys	s0, s16
 3870 1854 FFF7FEFF 		bl	buffer_get_float32
 3871              	.LVL341:
 3872              		.loc 1 508 0
 3873 1858 2046     		mov	r0, r4
 3874              		.loc 1 507 0
 3875 185a 8DED270A 		fsts	s0, [sp, #156]
 3876              		.loc 1 508 0
ARM GAS  /tmp/cc0XcXNK.s 			page 69


 3877 185e 03A9     		add	r1, sp, #12
 3878 1860 B0EE480A 		fcpys	s0, s16
 3879 1864 FFF7FEFF 		bl	buffer_get_float32
 3880              	.LVL342:
 3881              		.loc 1 509 0
 3882 1868 2046     		mov	r0, r4
 3883              		.loc 1 508 0
 3884 186a 8DED280A 		fsts	s0, [sp, #160]
 3885              		.loc 1 509 0
 3886 186e 03A9     		add	r1, sp, #12
 3887 1870 B0EE480A 		fcpys	s0, s16
 3888 1874 FFF7FEFF 		bl	buffer_get_float32
 3889              	.LVL343:
 3890              		.loc 1 510 0
 3891 1878 2046     		mov	r0, r4
 3892              		.loc 1 509 0
 3893 187a 8DED290A 		fsts	s0, [sp, #164]
 3894              		.loc 1 510 0
 3895 187e 03A9     		add	r1, sp, #12
 3896 1880 B0EE480A 		fcpys	s0, s16
 3897 1884 FFF7FEFF 		bl	buffer_get_float32
 3898              	.LVL344:
 3899              		.loc 1 511 0
 3900 1888 2046     		mov	r0, r4
 3901              		.loc 1 510 0
 3902 188a 8DED2A0A 		fsts	s0, [sp, #168]
 3903              		.loc 1 511 0
 3904 188e 03A9     		add	r1, sp, #12
 3905 1890 B0EE480A 		fcpys	s0, s16
 3906 1894 FFF7FEFF 		bl	buffer_get_float32
 3907              	.LVL345:
 3908              		.loc 1 512 0
 3909 1898 039B     		ldr	r3, [sp, #12]
 3910              		.loc 1 511 0
 3911 189a 8DED2B0A 		fsts	s0, [sp, #172]
 3912              		.loc 1 512 0
 3913 189e 5A19     		adds	r2, r3, r5
 3914 18a0 E65C     		ldrb	r6, [r4, r3]	@ zero_extendqisi2
 3915              		.loc 1 513 0
 3916 18a2 A25C     		ldrb	r2, [r4, r2]	@ zero_extendqisi2
 3917              		.loc 1 512 0
 3918 18a4 0036     		adds	r6, r6, #0
 3919 18a6 18BF     		it	ne
 3920 18a8 0126     		movne	r6, #1
 3921              		.loc 1 513 0
 3922 18aa 0032     		adds	r2, r2, #0
 3923 18ac 18BF     		it	ne
 3924 18ae 0122     		movne	r2, #1
 3925 18b0 0233     		adds	r3, r3, #2
 3926              		.loc 1 514 0
 3927 18b2 B0EE480A 		fcpys	s0, s16
 3928 18b6 2046     		mov	r0, r4
 3929 18b8 03A9     		add	r1, sp, #12
 3930              		.loc 1 512 0
 3931 18ba 8DF8B060 		strb	r6, [sp, #176]
 3932              		.loc 1 513 0
 3933 18be 8DF8B120 		strb	r2, [sp, #177]
ARM GAS  /tmp/cc0XcXNK.s 			page 70


 3934 18c2 0393     		str	r3, [sp, #12]
 3935              		.loc 1 514 0
 3936 18c4 FFF7FEFF 		bl	buffer_get_float32
 3937              	.LVL346:
 3938              		.loc 1 516 0
 3939 18c8 039B     		ldr	r3, [sp, #12]
 3940              		.loc 1 514 0
 3941 18ca 8DED2D0A 		fsts	s0, [sp, #180]
 3942              		.loc 1 516 0
 3943 18ce 03EB0508 		add	r8, r3, r5
 3944              	.LVL347:
 3945              		.loc 1 517 0
 3946 18d2 03F1020C 		add	ip, r3, #2
 3947              		.loc 1 518 0
 3948 18d6 03F1030E 		add	lr, r3, #3
 3949              		.loc 1 519 0
 3950 18da 1F1D     		adds	r7, r3, #4
 3951              		.loc 1 520 0
 3952 18dc 5E1D     		adds	r6, r3, #5
 3953              		.loc 1 524 0
 3954 18de E218     		adds	r2, r4, r3
 3955              		.loc 1 516 0
 3956 18e0 E15C     		ldrb	r1, [r4, r3]	@ zero_extendqisi2
 3957              		.loc 1 518 0
 3958 18e2 14F80CC0 		ldrb	ip, [r4, ip]	@ zero_extendqisi2
 3959              		.loc 1 519 0
 3960 18e6 14F80EE0 		ldrb	lr, [r4, lr]	@ zero_extendqisi2
 3961              		.loc 1 521 0
 3962 18ea A65D     		ldrb	r6, [r4, r6]	@ zero_extendqisi2
 3963              		.loc 1 524 0
 3964 18ec 527A     		ldrb	r2, [r2, #9]	@ zero_extendqisi2
 3965              		.loc 1 517 0
 3966 18ee 14F80880 		ldrb	r8, [r4, r8]	@ zero_extendqisi2
 3967              		.loc 1 520 0
 3968 18f2 E75D     		ldrb	r7, [r4, r7]	@ zero_extendqisi2
 3969              		.loc 1 516 0
 3970 18f4 8DF8C810 		strb	r1, [sp, #200]
 3971              		.loc 1 521 0
 3972 18f8 981D     		adds	r0, r3, #6
 3973              		.loc 1 522 0
 3974 18fa 2118     		adds	r1, r4, r0
 3975              		.loc 1 518 0
 3976 18fc 8DF8CAC0 		strb	ip, [sp, #202]
 3977              		.loc 1 519 0
 3978 1900 8DF8CBE0 		strb	lr, [sp, #203]
 3979              		.loc 1 521 0
 3980 1904 0390     		str	r0, [sp, #12]
 3981              		.loc 1 517 0
 3982 1906 8DF8C980 		strb	r8, [sp, #201]
 3983              		.loc 1 520 0
 3984 190a 8DF8CC70 		strb	r7, [sp, #204]
 3985              		.loc 1 521 0
 3986 190e 8DF8CD60 		strb	r6, [sp, #205]
 3987              		.loc 1 522 0
 3988 1912 8878     		ldrb	r0, [r1, #2]	@ zero_extendqisi2
 3989 1914 0E88     		ldrh	r6, [r1]	@ unaligned
 3990 1916 8DF8D000 		strb	r0, [sp, #208]
ARM GAS  /tmp/cc0XcXNK.s 			page 71


 3991              		.loc 1 524 0
 3992 191a 0032     		adds	r2, r2, #0
 3993 191c 18BF     		it	ne
 3994 191e 0122     		movne	r2, #1
 3995 1920 0A33     		adds	r3, r3, #10
 3996              		.loc 1 527 0
 3997 1922 03A9     		add	r1, sp, #12
 3998 1924 2046     		mov	r0, r4
 3999              		.loc 1 524 0
 4000 1926 8DF8D120 		strb	r2, [sp, #209]
 4001 192a 0393     		str	r3, [sp, #12]
 4002              		.loc 1 522 0
 4003 192c ADF8CE60 		strh	r6, [sp, #206]	@ unaligned
 4004              		.loc 1 527 0
 4005 1930 FFF7FEFF 		bl	buffer_get_int32
 4006              	.LVL348:
 4007 1934 07EE900A 		fmsr	s15, r0	@ int
 4008 1938 F8EEE77A 		fsitos	s15, s15
 4009              		.loc 1 529 0
 4010 193c 03A9     		add	r1, sp, #12
 4011              		.loc 1 527 0
 4012 193e C7EE887A 		fdivs	s15, s15, s16
 4013              		.loc 1 529 0
 4014 1942 2046     		mov	r0, r4
 4015              		.loc 1 527 0
 4016 1944 CDED147A 		fsts	s15, [sp, #80]
 4017              		.loc 1 529 0
 4018 1948 FFF7FEFF 		bl	buffer_get_int32
 4019              	.LVL349:
 4020 194c 07EE900A 		fmsr	s15, r0	@ int
 4021 1950 F8EEE77A 		fsitos	s15, s15
 4022              		.loc 1 530 0
 4023 1954 039B     		ldr	r3, [sp, #12]
 4024              		.loc 1 529 0
 4025 1956 C7EE887A 		fdivs	s15, s15, s16
 4026              		.loc 1 530 0
 4027 195a E25C     		ldrb	r2, [r4, r3]	@ zero_extendqisi2
 4028 195c 0032     		adds	r2, r2, #0
 4029 195e 18BF     		it	ne
 4030 1960 0122     		movne	r2, #1
 4031 1962 2B44     		add	r3, r3, r5
 4032              		.loc 1 531 0
 4033 1964 03A9     		add	r1, sp, #12
 4034 1966 2046     		mov	r0, r4
 4035              		.loc 1 530 0
 4036 1968 8DF85820 		strb	r2, [sp, #88]
 4037 196c 0393     		str	r3, [sp, #12]
 4038              		.loc 1 529 0
 4039 196e CDED157A 		fsts	s15, [sp, #84]
 4040              		.loc 1 531 0
 4041 1972 FFF7FEFF 		bl	buffer_get_int32
 4042              	.LVL350:
 4043 1976 07EE900A 		fmsr	s15, r0	@ int
 4044 197a F8EEE77A 		fsitos	s15, s15
 4045              		.loc 1 532 0
 4046 197e 03A9     		add	r1, sp, #12
 4047              		.loc 1 531 0
ARM GAS  /tmp/cc0XcXNK.s 			page 72


 4048 1980 C7EE887A 		fdivs	s15, s15, s16
 4049              		.loc 1 532 0
 4050 1984 2046     		mov	r0, r4
 4051              		.loc 1 531 0
 4052 1986 CDED177A 		fsts	s15, [sp, #92]
 4053              		.loc 1 532 0
 4054 198a FFF7FEFF 		bl	buffer_get_int32
 4055              	.LVL351:
 4056 198e 07EE900A 		fmsr	s15, r0	@ int
 4057 1992 F8EEE77A 		fsitos	s15, s15
 4058              		.loc 1 534 0
 4059 1996 03A9     		add	r1, sp, #12
 4060              		.loc 1 532 0
 4061 1998 C7EE887A 		fdivs	s15, s15, s16
 4062              		.loc 1 534 0
 4063 199c 2046     		mov	r0, r4
 4064              		.loc 1 532 0
 4065 199e CDED187A 		fsts	s15, [sp, #96]
 4066              		.loc 1 534 0
 4067 19a2 FFF7FEFF 		bl	buffer_get_int32
 4068              	.LVL352:
 4069 19a6 07EE900A 		fmsr	s15, r0	@ int
 4070 19aa F8EEE77A 		fsitos	s15, s15
 4071              		.loc 1 535 0
 4072 19ae 039B     		ldr	r3, [sp, #12]
 4073              		.loc 1 534 0
 4074 19b0 C7EE887A 		fdivs	s15, s15, s16
 4075              		.loc 1 535 0
 4076 19b4 E25C     		ldrb	r2, [r4, r3]	@ zero_extendqisi2
 4077 19b6 0032     		adds	r2, r2, #0
 4078 19b8 18BF     		it	ne
 4079 19ba 0122     		movne	r2, #1
 4080 19bc 2B44     		add	r3, r3, r5
 4081              		.loc 1 536 0
 4082 19be 03A9     		add	r1, sp, #12
 4083 19c0 2046     		mov	r0, r4
 4084              		.loc 1 535 0
 4085 19c2 8DF8BC20 		strb	r2, [sp, #188]
 4086 19c6 0393     		str	r3, [sp, #12]
 4087              		.loc 1 534 0
 4088 19c8 CDED2E7A 		fsts	s15, [sp, #184]
 4089              		.loc 1 536 0
 4090 19cc FFF7FEFF 		bl	buffer_get_int32
 4091              	.LVL353:
 4092 19d0 07EE900A 		fmsr	s15, r0	@ int
 4093 19d4 F8EEE77A 		fsitos	s15, s15
 4094              		.loc 1 537 0
 4095 19d8 03A9     		add	r1, sp, #12
 4096              		.loc 1 536 0
 4097 19da C7EE887A 		fdivs	s15, s15, s16
 4098              		.loc 1 537 0
 4099 19de 2046     		mov	r0, r4
 4100              		.loc 1 536 0
 4101 19e0 CDED307A 		fsts	s15, [sp, #192]
 4102              		.loc 1 537 0
 4103 19e4 FFF7FEFF 		bl	buffer_get_int32
 4104              	.LVL354:
ARM GAS  /tmp/cc0XcXNK.s 			page 73


 4105 19e8 07EE900A 		fmsr	s15, r0	@ int
 4106 19ec F8EEE77A 		fsitos	s15, s15
 4107              		.loc 1 539 0
 4108 19f0 039B     		ldr	r3, [sp, #12]
 4109              		.loc 1 537 0
 4110 19f2 C7EE887A 		fdivs	s15, s15, s16
 4111              		.loc 1 539 0
 4112 19f6 E25C     		ldrb	r2, [r4, r3]	@ zero_extendqisi2
 4113 19f8 0032     		adds	r2, r2, #0
 4114 19fa 2B44     		add	r3, r3, r5
 4115 19fc 18BF     		it	ne
 4116 19fe 0122     		movne	r2, #1
 4117              		.loc 1 540 0
 4118 1a00 03A9     		add	r1, sp, #12
 4119 1a02 2046     		mov	r0, r4
 4120              		.loc 1 539 0
 4121 1a04 8DF8D420 		strb	r2, [sp, #212]
 4122 1a08 0393     		str	r3, [sp, #12]
 4123              		.loc 1 537 0
 4124 1a0a CDED317A 		fsts	s15, [sp, #196]
 4125              		.loc 1 540 0
 4126 1a0e FFF7FEFF 		bl	buffer_get_int32
 4127              	.LVL355:
 4128 1a12 07EE900A 		fmsr	s15, r0	@ int
 4129 1a16 F8EEE77A 		fsitos	s15, s15
 4130              		.loc 1 541 0
 4131 1a1a 03A9     		add	r1, sp, #12
 4132              		.loc 1 540 0
 4133 1a1c C7EE887A 		fdivs	s15, s15, s16
 4134              		.loc 1 541 0
 4135 1a20 2046     		mov	r0, r4
 4136              		.loc 1 540 0
 4137 1a22 CDED367A 		fsts	s15, [sp, #216]
 4138              		.loc 1 541 0
 4139 1a26 FFF7FEFF 		bl	buffer_get_int32
 4140              	.LVL356:
 4141 1a2a 07EE900A 		fmsr	s15, r0	@ int
 4142 1a2e F8EEE77A 		fsitos	s15, s15
 4143              		.loc 1 542 0
 4144 1a32 03A9     		add	r1, sp, #12
 4145              		.loc 1 541 0
 4146 1a34 C7EE887A 		fdivs	s15, s15, s16
 4147              		.loc 1 542 0
 4148 1a38 2046     		mov	r0, r4
 4149              		.loc 1 541 0
 4150 1a3a CDED377A 		fsts	s15, [sp, #220]
 4151              		.loc 1 542 0
 4152 1a3e FFF7FEFF 		bl	buffer_get_int32
 4153              	.LVL357:
 4154 1a42 07EE900A 		fmsr	s15, r0	@ int
 4155 1a46 F8EEE77A 		fsitos	s15, s15
 4156              		.loc 1 543 0
 4157 1a4a 03A9     		add	r1, sp, #12
 4158              		.loc 1 542 0
 4159 1a4c C7EE887A 		fdivs	s15, s15, s16
 4160              		.loc 1 543 0
 4161 1a50 2046     		mov	r0, r4
ARM GAS  /tmp/cc0XcXNK.s 			page 74


 4162              		.loc 1 542 0
 4163 1a52 CDED387A 		fsts	s15, [sp, #224]
 4164              		.loc 1 543 0
 4165 1a56 FFF7FEFF 		bl	buffer_get_int32
 4166              	.LVL358:
 4167 1a5a 07EE900A 		fmsr	s15, r0	@ int
 4168 1a5e F8EEE77A 		fsitos	s15, s15
 4169              		.loc 1 544 0
 4170 1a62 03A9     		add	r1, sp, #12
 4171              		.loc 1 543 0
 4172 1a64 C7EE887A 		fdivs	s15, s15, s16
 4173              		.loc 1 544 0
 4174 1a68 2046     		mov	r0, r4
 4175              		.loc 1 543 0
 4176 1a6a CDED397A 		fsts	s15, [sp, #228]
 4177              		.loc 1 544 0
 4178 1a6e FFF7FEFF 		bl	buffer_get_int32
 4179              	.LVL359:
 4180 1a72 07EE900A 		fmsr	s15, r0	@ int
 4181 1a76 F8EEE77A 		fsitos	s15, s15
 4182              		.loc 1 545 0
 4183 1a7a 03A9     		add	r1, sp, #12
 4184              		.loc 1 544 0
 4185 1a7c C7EE887A 		fdivs	s15, s15, s16
 4186              		.loc 1 545 0
 4187 1a80 2046     		mov	r0, r4
 4188              		.loc 1 544 0
 4189 1a82 CDED3A7A 		fsts	s15, [sp, #232]
 4190              		.loc 1 545 0
 4191 1a86 FFF7FEFF 		bl	buffer_get_int32
 4192              	.LVL360:
 4193 1a8a 07EE900A 		fmsr	s15, r0	@ int
 4194 1a8e F8EEE77A 		fsitos	s15, s15
 4195              		.loc 1 546 0
 4196 1a92 03A9     		add	r1, sp, #12
 4197              		.loc 1 545 0
 4198 1a94 C7EE887A 		fdivs	s15, s15, s16
 4199              		.loc 1 546 0
 4200 1a98 2046     		mov	r0, r4
 4201              		.loc 1 545 0
 4202 1a9a CDED3B7A 		fsts	s15, [sp, #236]
 4203              		.loc 1 546 0
 4204 1a9e FFF7FEFF 		bl	buffer_get_int32
 4205              	.LVL361:
 4206 1aa2 07EE900A 		fmsr	s15, r0	@ int
 4207 1aa6 F8EEE77A 		fsitos	s15, s15
 4208              		.loc 1 547 0
 4209 1aaa 03A9     		add	r1, sp, #12
 4210              		.loc 1 546 0
 4211 1aac C7EEA87A 		fdivs	s15, s15, s17
 4212              		.loc 1 547 0
 4213 1ab0 2046     		mov	r0, r4
 4214              		.loc 1 546 0
 4215 1ab2 CDED3C7A 		fsts	s15, [sp, #240]
 4216              		.loc 1 547 0
 4217 1ab6 FFF7FEFF 		bl	buffer_get_int32
 4218              	.LVL362:
ARM GAS  /tmp/cc0XcXNK.s 			page 75


 4219 1aba 07EE900A 		fmsr	s15, r0	@ int
 4220 1abe F8EEE77A 		fsitos	s15, s15
 4221              		.loc 1 548 0
 4222 1ac2 03A9     		add	r1, sp, #12
 4223              		.loc 1 547 0
 4224 1ac4 C7EE887A 		fdivs	s15, s15, s16
 4225              		.loc 1 548 0
 4226 1ac8 2046     		mov	r0, r4
 4227              		.loc 1 547 0
 4228 1aca CDED3D7A 		fsts	s15, [sp, #244]
 4229              		.loc 1 548 0
 4230 1ace FFF7FEFF 		bl	buffer_get_int32
 4231              	.LVL363:
 4232 1ad2 07EE900A 		fmsr	s15, r0	@ int
 4233 1ad6 F8EEE77A 		fsitos	s15, s15
 4234              		.loc 1 549 0
 4235 1ada 03A9     		add	r1, sp, #12
 4236              		.loc 1 548 0
 4237 1adc C7EE887A 		fdivs	s15, s15, s16
 4238              		.loc 1 549 0
 4239 1ae0 2046     		mov	r0, r4
 4240              		.loc 1 548 0
 4241 1ae2 CDED3E7A 		fsts	s15, [sp, #248]
 4242              		.loc 1 549 0
 4243 1ae6 FFF7FEFF 		bl	buffer_get_int32
 4244              	.LVL364:
 4245 1aea 07EE900A 		fmsr	s15, r0	@ int
 4246 1aee F8EEE77A 		fsitos	s15, s15
 4247              		.loc 1 550 0
 4248 1af2 03A9     		add	r1, sp, #12
 4249              		.loc 1 549 0
 4250 1af4 C7EE887A 		fdivs	s15, s15, s16
 4251              		.loc 1 550 0
 4252 1af8 2046     		mov	r0, r4
 4253              		.loc 1 549 0
 4254 1afa CDED3F7A 		fsts	s15, [sp, #252]
 4255              		.loc 1 550 0
 4256 1afe FFF7FEFF 		bl	buffer_get_int32
 4257              	.LVL365:
 4258 1b02 07EE900A 		fmsr	s15, r0	@ int
 4259 1b06 F8EEE77A 		fsitos	s15, s15
 4260              		.loc 1 551 0
 4261 1b0a 03A9     		add	r1, sp, #12
 4262              		.loc 1 550 0
 4263 1b0c C7EE887A 		fdivs	s15, s15, s16
 4264              		.loc 1 551 0
 4265 1b10 2046     		mov	r0, r4
 4266              		.loc 1 550 0
 4267 1b12 CDED407A 		fsts	s15, [sp, #256]
 4268              		.loc 1 551 0
 4269 1b16 FFF7FEFF 		bl	buffer_get_int32
 4270              	.LVL366:
 4271 1b1a 07EE900A 		fmsr	s15, r0	@ int
 4272 1b1e F8EEE77A 		fsitos	s15, s15
 4273              		.loc 1 552 0
 4274 1b22 03A9     		add	r1, sp, #12
 4275              		.loc 1 551 0
ARM GAS  /tmp/cc0XcXNK.s 			page 76


 4276 1b24 C7EE887A 		fdivs	s15, s15, s16
 4277              		.loc 1 552 0
 4278 1b28 2046     		mov	r0, r4
 4279              		.loc 1 551 0
 4280 1b2a CDED417A 		fsts	s15, [sp, #260]
 4281              		.loc 1 552 0
 4282 1b2e FFF7FEFF 		bl	buffer_get_int32
 4283              	.LVL367:
 4284 1b32 07EE900A 		fmsr	s15, r0	@ int
 4285 1b36 F8EEE77A 		fsitos	s15, s15
 4286              		.loc 1 553 0
 4287 1b3a 03A9     		add	r1, sp, #12
 4288              		.loc 1 552 0
 4289 1b3c 87EE888A 		fdivs	s16, s15, s16
 4290              		.loc 1 553 0
 4291 1b40 2046     		mov	r0, r4
 4292              		.loc 1 552 0
 4293 1b42 8DED428A 		fsts	s16, [sp, #264]
 4294              		.loc 1 553 0
 4295 1b46 FFF7FEFF 		bl	buffer_get_int32
 4296              	.LVL368:
 4297 1b4a 07EE900A 		fmsr	s15, r0	@ int
 4298 1b4e F8EEE77A 		fsitos	s15, s15
 4299              		.loc 1 556 0
 4300 1b52 04A8     		add	r0, sp, #16
 4301              		.loc 1 553 0
 4302 1b54 C7EEA87A 		fdivs	s15, s15, s17
 4303 1b58 CDED437A 		fsts	s15, [sp, #268]
 4304              		.loc 1 556 0
 4305 1b5c FFF7FEFF 		bl	conf_general_store_app_configuration
 4306              	.LVL369:
 4307              		.loc 1 557 0
 4308 1b60 04A8     		add	r0, sp, #16
 4309 1b62 FFF7FEFF 		bl	app_set_configuration
 4310              	.LVL370:
 4311              		.loc 1 558 0
 4312 1b66 0598     		ldr	r0, [sp, #20]
 4313 1b68 9DED060A 		flds	s0, [sp, #24]
 4314 1b6c FFF7FEFF 		bl	timeout_configure
 4315              	.LVL371:
 4316              	.LBB143:
 4317              	.LBB144:
 4318              		.loc 1 97 0
 4319 1b70 D74B     		ldr	r3, .L233
 4320              	.LBE144:
 4321              	.LBE143:
 4322              		.loc 1 561 0
 4323 1b72 D848     		ldr	r0, .L233+4
 4324              	.LBB147:
 4325              	.LBB145:
 4326              		.loc 1 97 0
 4327 1b74 1B68     		ldr	r3, [r3]
 4328              	.LBE145:
 4329              	.LBE147:
 4330              		.loc 1 561 0
 4331 1b76 0395     		str	r5, [sp, #12]
 4332 1b78 0F22     		movs	r2, #15
ARM GAS  /tmp/cc0XcXNK.s 			page 77


 4333 1b7a 0270     		strb	r2, [r0]
 4334              	.LVL372:
 4335              	.LBB148:
 4336              	.LBB146:
 4337              		.loc 1 97 0
 4338 1b7c 002B     		cmp	r3, #0
 4339 1b7e 3EF46EAD 		beq	.L24
 4340              		.loc 1 98 0
 4341 1b82 2946     		mov	r1, r5
 4342 1b84 9847     		blx	r3
 4343              	.LVL373:
 4344 1b86 FEF76ABD 		b	.L24
 4345              	.LVL374:
 4346              	.L37:
 4347              	.LBE146:
 4348              	.LBE148:
 4349              		.loc 1 219 0
 4350 1b8a 03A9     		add	r1, sp, #12
 4351 1b8c 2046     		mov	r0, r4
 4352 1b8e FFF7FEFF 		bl	buffer_get_int32
 4353              	.LVL375:
 4354 1b92 07EE100A 		fmsr	s14, r0	@ int
 4355 1b96 DFEDD07A 		flds	s15, .L233+8
 4356 1b9a B8EEC70A 		fsitos	s0, s14
 4357 1b9e 80EE270A 		fdivs	s0, s0, s15
 4358 1ba2 FFF7FEFF 		bl	mc_interface_set_pid_pos
 4359              	.LVL376:
 4360              		.loc 1 220 0
 4361 1ba6 FFF7FEFF 		bl	timeout_reset
 4362              	.LVL377:
 4363              		.loc 1 221 0
 4364 1baa FEF758BD 		b	.L24
 4365              	.L36:
 4366              		.loc 1 213 0
 4367 1bae 03A9     		add	r1, sp, #12
 4368 1bb0 2046     		mov	r0, r4
 4369 1bb2 FFF7FEFF 		bl	buffer_get_int32
 4370              	.LVL378:
 4371 1bb6 07EE900A 		fmsr	s15, r0	@ int
 4372 1bba B8EEE70A 		fsitos	s0, s15
 4373 1bbe FFF7FEFF 		bl	mc_interface_set_pid_speed
 4374              	.LVL379:
 4375              		.loc 1 214 0
 4376 1bc2 FFF7FEFF 		bl	timeout_reset
 4377              	.LVL380:
 4378              		.loc 1 215 0
 4379 1bc6 FEF74ABD 		b	.L24
 4380              	.L35:
 4381              		.loc 1 207 0
 4382 1bca 03A9     		add	r1, sp, #12
 4383 1bcc 2046     		mov	r0, r4
 4384 1bce FFF7FEFF 		bl	buffer_get_int32
 4385              	.LVL381:
 4386 1bd2 07EE100A 		fmsr	s14, r0	@ int
 4387 1bd6 DFEDC17A 		flds	s15, .L233+12
 4388 1bda B8EEC70A 		fsitos	s0, s14
 4389 1bde 80EE270A 		fdivs	s0, s0, s15
ARM GAS  /tmp/cc0XcXNK.s 			page 78


 4390 1be2 FFF7FEFF 		bl	mc_interface_set_brake_current
 4391              	.LVL382:
 4392              		.loc 1 208 0
 4393 1be6 FFF7FEFF 		bl	timeout_reset
 4394              	.LVL383:
 4395              		.loc 1 209 0
 4396 1bea FEF738BD 		b	.L24
 4397              	.L34:
 4398              		.loc 1 201 0
 4399 1bee 03A9     		add	r1, sp, #12
 4400 1bf0 2046     		mov	r0, r4
 4401 1bf2 FFF7FEFF 		bl	buffer_get_int32
 4402              	.LVL384:
 4403 1bf6 07EE100A 		fmsr	s14, r0	@ int
 4404 1bfa DFEDB87A 		flds	s15, .L233+12
 4405 1bfe B8EEC70A 		fsitos	s0, s14
 4406 1c02 80EE270A 		fdivs	s0, s0, s15
 4407 1c06 FFF7FEFF 		bl	mc_interface_set_current
 4408              	.LVL385:
 4409              		.loc 1 202 0
 4410 1c0a FFF7FEFF 		bl	timeout_reset
 4411              	.LVL386:
 4412              		.loc 1 203 0
 4413 1c0e FEF726BD 		b	.L24
 4414              	.L33:
 4415              		.loc 1 195 0
 4416 1c12 03A9     		add	r1, sp, #12
 4417 1c14 2046     		mov	r0, r4
 4418 1c16 FFF7FEFF 		bl	buffer_get_int32
 4419              	.LVL387:
 4420 1c1a 07EE100A 		fmsr	s14, r0	@ int
 4421 1c1e DFEDB07A 		flds	s15, .L233+16
 4422 1c22 B8EEC70A 		fsitos	s0, s14
 4423 1c26 80EE270A 		fdivs	s0, s0, s15
 4424 1c2a FFF7FEFF 		bl	mc_interface_set_duty
 4425              	.LVL388:
 4426              		.loc 1 196 0
 4427 1c2e FFF7FEFF 		bl	timeout_reset
 4428              	.LVL389:
 4429              		.loc 1 197 0
 4430 1c32 FEF714BD 		b	.L24
 4431              	.L32:
 4432              		.loc 1 170 0
 4433 1c36 AB4D     		ldr	r5, .L233+20
 4434 1c38 9FEDAB9A 		flds	s18, .L233+24
 4435 1c3c 6B89     		ldrh	r3, [r5, #10]
 4436 1c3e 9FEDAB8A 		flds	s16, .L233+28
 4437              		.loc 1 169 0
 4438 1c42 A44C     		ldr	r4, .L233+4
 4439              	.LVL390:
 4440              		.loc 1 170 0
 4441 1c44 DFEDAA8A 		flds	s17, .L233+32
 4442 1c48 DFEDAAAA 		flds	s21, .L233+36
 4443 1c4c 9FEDAAAA 		flds	s20, .L233+40
 4444 1c50 9BB2     		uxth	r3, r3
 4445 1c52 07EE903A 		fmsr	s15, r3	@ int
 4446 1c56 B8EEE70A 		fsitos	s0, s15
ARM GAS  /tmp/cc0XcXNK.s 			page 79


 4447              		.loc 1 169 0
 4448 1c5a 0422     		movs	r2, #4
 4449              		.loc 1 170 0
 4450 1c5c 89EE000A 		fdivs	s0, s18, s0
 4451              		.loc 1 169 0
 4452 1c60 0123     		movs	r3, #1
 4453 1c62 2270     		strb	r2, [r4]
 4454 1c64 0393     		str	r3, [sp, #12]
 4455              		.loc 1 170 0
 4456 1c66 F7EE009A 		fconsts	s19, #112
 4457 1c6a 30EE480A 		fsubs	s0, s0, s16
 4458 1c6e 80EE080A 		fdivs	s0, s0, s16
 4459 1c72 FFF7FEFF 		bl	logf
 4460              	.LVL391:
 4461 1c76 2046     		mov	r0, r4
 4462 1c78 03A9     		add	r1, sp, #12
 4463 1c7a 80EE280A 		fdivs	s0, s0, s17
 4464 1c7e F2EE040A 		fconsts	s1, #36
 4465 1c82 30EE2A0A 		fadds	s0, s0, s21
 4466 1c86 89EE800A 		fdivs	s0, s19, s0
 4467 1c8a 30EE4A0A 		fsubs	s0, s0, s20
 4468 1c8e FFF7FEFF 		bl	buffer_append_float16
 4469              	.LVL392:
 4470              		.loc 1 171 0
 4471 1c92 6B89     		ldrh	r3, [r5, #10]
 4472 1c94 9BB2     		uxth	r3, r3
 4473 1c96 07EE903A 		fmsr	s15, r3	@ int
 4474 1c9a B8EEE70A 		fsitos	s0, s15
 4475 1c9e 89EE000A 		fdivs	s0, s18, s0
 4476 1ca2 30EE480A 		fsubs	s0, s0, s16
 4477 1ca6 80EE080A 		fdivs	s0, s0, s16
 4478 1caa FFF7FEFF 		bl	logf
 4479              	.LVL393:
 4480 1cae 2046     		mov	r0, r4
 4481 1cb0 03A9     		add	r1, sp, #12
 4482 1cb2 80EE280A 		fdivs	s0, s0, s17
 4483 1cb6 F2EE040A 		fconsts	s1, #36
 4484 1cba 30EE2A0A 		fadds	s0, s0, s21
 4485 1cbe 89EE800A 		fdivs	s0, s19, s0
 4486 1cc2 30EE4A0A 		fsubs	s0, s0, s20
 4487 1cc6 FFF7FEFF 		bl	buffer_append_float16
 4488              	.LVL394:
 4489              		.loc 1 172 0
 4490 1cca 6B89     		ldrh	r3, [r5, #10]
 4491 1ccc 9BB2     		uxth	r3, r3
 4492 1cce 07EE903A 		fmsr	s15, r3	@ int
 4493 1cd2 B8EEE70A 		fsitos	s0, s15
 4494 1cd6 89EE000A 		fdivs	s0, s18, s0
 4495 1cda 30EE480A 		fsubs	s0, s0, s16
 4496 1cde 80EE080A 		fdivs	s0, s0, s16
 4497 1ce2 FFF7FEFF 		bl	logf
 4498              	.LVL395:
 4499 1ce6 2046     		mov	r0, r4
 4500 1ce8 03A9     		add	r1, sp, #12
 4501 1cea 80EE280A 		fdivs	s0, s0, s17
 4502 1cee F2EE040A 		fconsts	s1, #36
 4503 1cf2 30EE2A0A 		fadds	s0, s0, s21
ARM GAS  /tmp/cc0XcXNK.s 			page 80


 4504 1cf6 89EE800A 		fdivs	s0, s19, s0
 4505 1cfa 30EE4A0A 		fsubs	s0, s0, s20
 4506 1cfe FFF7FEFF 		bl	buffer_append_float16
 4507              	.LVL396:
 4508              		.loc 1 173 0
 4509 1d02 6B89     		ldrh	r3, [r5, #10]
 4510 1d04 9BB2     		uxth	r3, r3
 4511 1d06 07EE903A 		fmsr	s15, r3	@ int
 4512 1d0a B8EEE70A 		fsitos	s0, s15
 4513 1d0e 89EE000A 		fdivs	s0, s18, s0
 4514 1d12 30EE480A 		fsubs	s0, s0, s16
 4515 1d16 80EE080A 		fdivs	s0, s0, s16
 4516 1d1a FFF7FEFF 		bl	logf
 4517              	.LVL397:
 4518 1d1e 2046     		mov	r0, r4
 4519 1d20 03A9     		add	r1, sp, #12
 4520 1d22 80EE280A 		fdivs	s0, s0, s17
 4521 1d26 F2EE040A 		fconsts	s1, #36
 4522 1d2a 30EE2A0A 		fadds	s0, s0, s21
 4523 1d2e 89EE800A 		fdivs	s0, s19, s0
 4524 1d32 30EE4A0A 		fsubs	s0, s0, s20
 4525 1d36 FFF7FEFF 		bl	buffer_append_float16
 4526              	.LVL398:
 4527              		.loc 1 174 0
 4528 1d3a 6B89     		ldrh	r3, [r5, #10]
 4529 1d3c 9BB2     		uxth	r3, r3
 4530 1d3e 07EE903A 		fmsr	s15, r3	@ int
 4531 1d42 B8EEE70A 		fsitos	s0, s15
 4532 1d46 89EE000A 		fdivs	s0, s18, s0
 4533 1d4a 30EE480A 		fsubs	s0, s0, s16
 4534 1d4e 80EE080A 		fdivs	s0, s0, s16
 4535 1d52 FFF7FEFF 		bl	logf
 4536              	.LVL399:
 4537 1d56 2046     		mov	r0, r4
 4538 1d58 03A9     		add	r1, sp, #12
 4539 1d5a 80EE280A 		fdivs	s0, s0, s17
 4540 1d5e F2EE040A 		fconsts	s1, #36
 4541 1d62 30EE2A0A 		fadds	s0, s0, s21
 4542 1d66 89EE800A 		fdivs	s0, s19, s0
 4543 1d6a 30EE4A0A 		fsubs	s0, s0, s20
 4544 1d6e FFF7FEFF 		bl	buffer_append_float16
 4545              	.LVL400:
 4546              		.loc 1 175 0
 4547 1d72 6B89     		ldrh	r3, [r5, #10]
 4548 1d74 9BB2     		uxth	r3, r3
 4549 1d76 07EE903A 		fmsr	s15, r3	@ int
 4550 1d7a B8EEE70A 		fsitos	s0, s15
 4551 1d7e 89EE000A 		fdivs	s0, s18, s0
 4552 1d82 30EE480A 		fsubs	s0, s0, s16
 4553 1d86 80EE080A 		fdivs	s0, s0, s16
 4554 1d8a FFF7FEFF 		bl	logf
 4555              	.LVL401:
 4556 1d8e 2046     		mov	r0, r4
 4557 1d90 03A9     		add	r1, sp, #12
 4558 1d92 80EE280A 		fdivs	s0, s0, s17
 4559 1d96 F2EE040A 		fconsts	s1, #36
 4560 1d9a 30EE2A0A 		fadds	s0, s0, s21
ARM GAS  /tmp/cc0XcXNK.s 			page 81


 4561 1d9e 89EE800A 		fdivs	s0, s19, s0
 4562 1da2 30EE4A0A 		fsubs	s0, s0, s20
 4563 1da6 FFF7FEFF 		bl	buffer_append_float16
 4564              	.LVL402:
 4565              		.loc 1 176 0
 4566 1daa 6B89     		ldrh	r3, [r5, #10]
 4567 1dac 9BB2     		uxth	r3, r3
 4568 1dae 07EE903A 		fmsr	s15, r3	@ int
 4569 1db2 B8EEE70A 		fsitos	s0, s15
 4570 1db6 89EE000A 		fdivs	s0, s18, s0
 4571 1dba 30EE480A 		fsubs	s0, s0, s16
 4572 1dbe 80EE080A 		fdivs	s0, s0, s16
 4573 1dc2 FFF7FEFF 		bl	logf
 4574              	.LVL403:
 4575 1dc6 2046     		mov	r0, r4
 4576 1dc8 03A9     		add	r1, sp, #12
 4577 1dca 80EE280A 		fdivs	s0, s0, s17
 4578 1dce F2EE040A 		fconsts	s1, #36
 4579 1dd2 30EE2A0A 		fadds	s0, s0, s21
 4580 1dd6 89EE800A 		fdivs	s0, s19, s0
 4581 1dda 30EE4A0A 		fsubs	s0, s0, s20
 4582 1dde FFF7FEFF 		bl	buffer_append_float16
 4583              	.LVL404:
 4584              		.loc 1 177 0
 4585 1de2 FFF7FEFF 		bl	mc_interface_read_reset_avg_motor_current
 4586              	.LVL405:
 4587 1de6 2046     		mov	r0, r4
 4588 1de8 DFED440A 		flds	s1, .L233+44
 4589 1dec 03A9     		add	r1, sp, #12
 4590 1dee FFF7FEFF 		bl	buffer_append_float32
 4591              	.LVL406:
 4592              		.loc 1 178 0
 4593 1df2 FFF7FEFF 		bl	mc_interface_read_reset_avg_input_current
 4594              	.LVL407:
 4595 1df6 2046     		mov	r0, r4
 4596 1df8 DFED400A 		flds	s1, .L233+44
 4597 1dfc 03A9     		add	r1, sp, #12
 4598 1dfe FFF7FEFF 		bl	buffer_append_float32
 4599              	.LVL408:
 4600              		.loc 1 179 0
 4601 1e02 FFF7FEFF 		bl	mc_interface_get_duty_cycle_now
 4602              	.LVL409:
 4603 1e06 2046     		mov	r0, r4
 4604 1e08 DFED340A 		flds	s1, .L233+12
 4605 1e0c 03A9     		add	r1, sp, #12
 4606 1e0e FFF7FEFF 		bl	buffer_append_float16
 4607              	.LVL410:
 4608              		.loc 1 180 0
 4609 1e12 FFF7FEFF 		bl	mc_interface_get_rpm
 4610              	.LVL411:
 4611 1e16 2046     		mov	r0, r4
 4612 1e18 F0EE690A 		fcpys	s1, s19
 4613 1e1c 03A9     		add	r1, sp, #12
 4614 1e1e FFF7FEFF 		bl	buffer_append_float32
 4615              	.LVL412:
 4616              		.loc 1 181 0
 4617 1e22 2B8A     		ldrh	r3, [r5, #16]
ARM GAS  /tmp/cc0XcXNK.s 			page 82


 4618 1e24 9FED367A 		flds	s14, .L233+48
 4619 1e28 9FED360A 		flds	s0, .L233+52
 4620 1e2c 9BB2     		uxth	r3, r3
 4621 1e2e 07EE903A 		fmsr	s15, r3	@ int
 4622 1e32 F8EE677A 		fuitos	s15, s15
 4623 1e36 F2EE040A 		fconsts	s1, #36
 4624 1e3a 67EE877A 		fmuls	s15, s15, s14
 4625 1e3e 03A9     		add	r1, sp, #12
 4626 1e40 27EE800A 		fmuls	s0, s15, s0
 4627 1e44 2046     		mov	r0, r4
 4628 1e46 FFF7FEFF 		bl	buffer_append_float16
 4629              	.LVL413:
 4630              		.loc 1 182 0
 4631 1e4a 0020     		movs	r0, #0
 4632 1e4c FFF7FEFF 		bl	mc_interface_get_amp_hours
 4633              	.LVL414:
 4634 1e50 F0EE480A 		fcpys	s1, s16
 4635 1e54 03A9     		add	r1, sp, #12
 4636 1e56 2046     		mov	r0, r4
 4637 1e58 FFF7FEFF 		bl	buffer_append_float32
 4638              	.LVL415:
 4639              		.loc 1 183 0
 4640 1e5c 0020     		movs	r0, #0
 4641 1e5e FFF7FEFF 		bl	mc_interface_get_amp_hours_charged
 4642              	.LVL416:
 4643 1e62 F0EE480A 		fcpys	s1, s16
 4644 1e66 03A9     		add	r1, sp, #12
 4645 1e68 2046     		mov	r0, r4
 4646 1e6a FFF7FEFF 		bl	buffer_append_float32
 4647              	.LVL417:
 4648              		.loc 1 184 0
 4649 1e6e 0020     		movs	r0, #0
 4650 1e70 FFF7FEFF 		bl	mc_interface_get_watt_hours
 4651              	.LVL418:
 4652 1e74 F0EE480A 		fcpys	s1, s16
 4653 1e78 03A9     		add	r1, sp, #12
 4654 1e7a 2046     		mov	r0, r4
 4655 1e7c FFF7FEFF 		bl	buffer_append_float32
 4656              	.LVL419:
 4657              		.loc 1 185 0
 4658 1e80 0020     		movs	r0, #0
 4659 1e82 FFF7FEFF 		bl	mc_interface_get_watt_hours_charged
 4660              	.LVL420:
 4661 1e86 F0EE480A 		fcpys	s1, s16
 4662 1e8a 03A9     		add	r1, sp, #12
 4663 1e8c 2046     		mov	r0, r4
 4664 1e8e FFF7FEFF 		bl	buffer_append_float32
 4665              	.LVL421:
 4666              		.loc 1 186 0
 4667 1e92 0020     		movs	r0, #0
 4668 1e94 FFF7FEFF 		bl	mc_interface_get_tachometer_value
 4669              	.LVL422:
 4670 1e98 03AA     		add	r2, sp, #12
 4671 1e9a 0146     		mov	r1, r0
 4672 1e9c 2046     		mov	r0, r4
 4673 1e9e FFF7FEFF 		bl	buffer_append_int32
 4674              	.LVL423:
ARM GAS  /tmp/cc0XcXNK.s 			page 83


 4675              		.loc 1 187 0
 4676 1ea2 0020     		movs	r0, #0
 4677 1ea4 FFF7FEFF 		bl	mc_interface_get_tachometer_abs_value
 4678              	.LVL424:
 4679 1ea8 03AA     		add	r2, sp, #12
 4680 1eaa 0146     		mov	r1, r0
 4681 1eac 2046     		mov	r0, r4
 4682 1eae FFF7FEFF 		bl	buffer_append_int32
 4683              	.LVL425:
 4684              		.loc 1 188 0
 4685 1eb2 039D     		ldr	r5, [sp, #12]
 4686 1eb4 6B1C     		adds	r3, r5, #1
 4687 1eb6 0393     		str	r3, [sp, #12]
 4688 1eb8 FFF7FEFF 		bl	mc_interface_get_fault
 4689              	.LVL426:
 4690              	.LBB149:
 4691              	.LBB150:
 4692              		.loc 1 97 0
 4693 1ebc 044B     		ldr	r3, .L233
 4694              	.LBE150:
 4695              	.LBE149:
 4696              		.loc 1 188 0
 4697 1ebe 6055     		strb	r0, [r4, r5]
 4698              	.LBB153:
 4699              	.LBB151:
 4700              		.loc 1 97 0
 4701 1ec0 1B68     		ldr	r3, [r3]
 4702              	.LBE151:
 4703              	.LBE153:
 4704              		.loc 1 190 0
 4705 1ec2 0399     		ldr	r1, [sp, #12]
 4706              	.LVL427:
 4707              	.LBB154:
 4708              	.LBB152:
 4709              		.loc 1 97 0
 4710 1ec4 002B     		cmp	r3, #0
 4711 1ec6 7EF410AC 		bne	.L204
 4712 1eca FEF7C8BB 		b	.L24
 4713              	.L234:
 4714 1ece 00BF     		.align	2
 4715              	.L233:
 4716 1ed0 00000000 		.word	.LANCHOR9
 4717 1ed4 00000000 		.word	.LANCHOR8
 4718 1ed8 00247449 		.word	1232348160
 4719 1edc 00007A44 		.word	1148846080
 4720 1ee0 0050C347 		.word	1203982336
 4721 1ee4 00000000 		.word	ADC_Value
 4722 1ee8 3C361C4C 		.word	1276917308
 4723 1eec 00401C46 		.word	1176256512
 4724 1ef0 00A05645 		.word	1163304960
 4725 1ef4 0FCF5B3B 		.word	995872527
 4726 1ef8 33938843 		.word	1133024051
 4727 1efc 0000C842 		.word	1120403456
 4728 1f00 6740533A 		.word	978534503
 4729 1f04 74D19541 		.word	1100337524
 4730              	.LVL428:
 4731              	.L31:
ARM GAS  /tmp/cc0XcXNK.s 			page 84


 4732              	.LBE152:
 4733              	.LBE154:
 4734              		.loc 1 158 0
 4735 1f08 2046     		mov	r0, r4
 4736 1f0a 03A9     		add	r1, sp, #12
 4737 1f0c FFF7FEFF 		bl	buffer_get_uint32
 4738              	.LVL429:
 4739              		.loc 1 159 0
 4740 1f10 039A     		ldr	r2, [sp, #12]
 4741 1f12 A118     		adds	r1, r4, r2
 4742 1f14 C2EB0802 		rsb	r2, r2, r8
 4743 1f18 FFF7FEFF 		bl	flash_helper_write_new_app_data
 4744              	.LVL430:
 4745              	.LBB155:
 4746              	.LBB156:
 4747              		.loc 1 97 0
 4748 1f1c 744A     		ldr	r2, .L235
 4749              	.LBE156:
 4750              	.LBE155:
 4751              		.loc 1 162 0
 4752 1f1e 754B     		ldr	r3, .L235+4
 4753              	.LBB159:
 4754              	.LBB157:
 4755              		.loc 1 97 0
 4756 1f20 1268     		ldr	r2, [r2]
 4757              	.LBE157:
 4758              	.LBE159:
 4759              		.loc 1 163 0
 4760 1f22 A0F10900 		sub	r0, #9
 4761              	.LVL431:
 4762              		.loc 1 162 0
 4763 1f26 0324     		movs	r4, #3
 4764              	.LVL432:
 4765              		.loc 1 163 0
 4766 1f28 B0FA80F0 		clz	r0, r0
 4767 1f2c 0221     		movs	r1, #2
 4768 1f2e 4009     		lsrs	r0, r0, #5
 4769 1f30 5870     		strb	r0, [r3, #1]
 4770              	.LVL433:
 4771              		.loc 1 162 0
 4772 1f32 1C70     		strb	r4, [r3]
 4773              		.loc 1 163 0
 4774 1f34 0391     		str	r1, [sp, #12]
 4775              	.LBB160:
 4776              	.LBB158:
 4777              		.loc 1 97 0
 4778 1f36 002A     		cmp	r2, #0
 4779 1f38 3EF491AB 		beq	.L24
 4780              	.LVL434:
 4781              	.L201:
 4782              		.loc 1 98 0
 4783 1f3c 1846     		mov	r0, r3
 4784 1f3e 9047     		blx	r2
 4785              	.LVL435:
 4786 1f40 FEF78DBB 		b	.L24
 4787              	.LVL436:
 4788              	.L30:
ARM GAS  /tmp/cc0XcXNK.s 			page 85


 4789              	.LBE158:
 4790              	.LBE160:
 4791              		.loc 1 148 0
 4792 1f44 03A9     		add	r1, sp, #12
 4793 1f46 2046     		mov	r0, r4
 4794 1f48 FFF7FEFF 		bl	buffer_get_uint32
 4795              	.LVL437:
 4796 1f4c FFF7FEFF 		bl	flash_helper_erase_new_app
 4797              	.LVL438:
 4798              	.LBB161:
 4799              	.LBB162:
 4800              		.loc 1 97 0
 4801 1f50 674A     		ldr	r2, .L235
 4802              	.LBE162:
 4803              	.LBE161:
 4804              		.loc 1 151 0
 4805 1f52 684B     		ldr	r3, .L235+4
 4806              	.LBB165:
 4807              	.LBB163:
 4808              		.loc 1 97 0
 4809 1f54 1268     		ldr	r2, [r2]
 4810              	.LBE163:
 4811              	.LBE165:
 4812              		.loc 1 151 0
 4813 1f56 0221     		movs	r1, #2
 4814              		.loc 1 152 0
 4815 1f58 A0F10900 		sub	r0, #9
 4816              	.LVL439:
 4817 1f5c B0FA80F0 		clz	r0, r0
 4818 1f60 4009     		lsrs	r0, r0, #5
 4819 1f62 5870     		strb	r0, [r3, #1]
 4820              	.LVL440:
 4821              		.loc 1 151 0
 4822 1f64 1970     		strb	r1, [r3]
 4823              		.loc 1 152 0
 4824 1f66 0391     		str	r1, [sp, #12]
 4825              	.LBB166:
 4826              	.LBB164:
 4827              		.loc 1 97 0
 4828 1f68 002A     		cmp	r2, #0
 4829 1f6a E7D1     		bne	.L201
 4830 1f6c FEF777BB 		b	.L24
 4831              	.LVL441:
 4832              	.L29:
 4833              	.LBE164:
 4834              	.LBE166:
 4835              		.loc 1 143 0
 4836 1f70 FFF7FEFF 		bl	flash_helper_jump_to_bootloader
 4837              	.LVL442:
 4838              		.loc 1 144 0
 4839 1f74 FEF773BB 		b	.L24
 4840              	.L27:
 4841              	.LBB167:
 4842              	.LBB168:
 4843              		.loc 1 97 0
 4844 1f78 5D4B     		ldr	r3, .L235
 4845              	.LBE168:
ARM GAS  /tmp/cc0XcXNK.s 			page 86


 4846              	.LBE167:
 4847              		.loc 1 136 0
 4848 1f7a 5E48     		ldr	r0, .L235+4
 4849              	.LBB171:
 4850              	.LBB169:
 4851              		.loc 1 97 0
 4852 1f7c 1B68     		ldr	r3, [r3]
 4853              	.LBE169:
 4854              	.LBE171:
 4855              		.loc 1 136 0
 4856 1f7e 0025     		movs	r5, #0
 4857              		.loc 1 137 0
 4858 1f80 0224     		movs	r4, #2
 4859              	.LVL443:
 4860              		.loc 1 138 0
 4861 1f82 3422     		movs	r2, #52
 4862 1f84 0321     		movs	r1, #3
 4863              		.loc 1 136 0
 4864 1f86 0570     		strb	r5, [r0]
 4865              		.loc 1 137 0
 4866 1f88 4470     		strb	r4, [r0, #1]
 4867              		.loc 1 138 0
 4868 1f8a 8270     		strb	r2, [r0, #2]
 4869              	.LVL444:
 4870 1f8c 0391     		str	r1, [sp, #12]
 4871              	.LBB172:
 4872              	.LBB170:
 4873              		.loc 1 97 0
 4874 1f8e 002B     		cmp	r3, #0
 4875 1f90 7FF4C2AA 		bne	.L200
 4876 1f94 FEF763BB 		b	.L24
 4877              	.LVL445:
 4878              	.L59:
 4879              	.LBE170:
 4880              	.LBE172:
 4881              		.loc 1 1030 0
 4882 1f98 FFF7FEFF 		bl	app_get_configuration
 4883              	.LVL446:
 4884 1f9c 04AC     		add	r4, sp, #16
 4885              	.LVL447:
 4886 1f9e 0146     		mov	r1, r0
 4887 1fa0 4FF48072 		mov	r2, #256
 4888 1fa4 2046     		mov	r0, r4
 4889 1fa6 FFF7FEFF 		bl	memcpy
 4890              	.LVL448:
 4891              		.loc 1 1031 0
 4892 1faa FFF7FEFF 		bl	mc_interface_get_configuration
 4893              	.LVL449:
 4894 1fae 4FF49C72 		mov	r2, #312
 4895 1fb2 0146     		mov	r1, r0
 4896 1fb4 5048     		ldr	r0, .L235+8
 4897 1fb6 DFF84891 		ldr	r9, .L235+16
 4898 1fba FFF7FEFF 		bl	memcpy
 4899              	.LVL450:
 4900              	.L111:
 4901              	.LBE220:
 4902              		.loc 1 1073 0
ARM GAS  /tmp/cc0XcXNK.s 			page 87


 4903 1fbe D4ED137A 		flds	s15, [r4, #76]
 4904              		.loc 1 1070 0
 4905 1fc2 4C4D     		ldr	r5, .L235+4
 4906              		.loc 1 1074 0
 4907 1fc4 4C4E     		ldr	r6, .L235+8
 4908              		.loc 1 1071 0
 4909 1fc6 99F80030 		ldrb	r3, [r9]	@ zero_extendqisi2
 4910              		.loc 1 1072 0
 4911 1fca 247E     		ldrb	r4, [r4, #24]	@ zero_extendqisi2
 4912              		.loc 1 1071 0
 4913 1fcc 6B70     		strb	r3, [r5, #1]
 4914              		.loc 1 1073 0
 4915 1fce FDEEE77A 		ftosizs	s15, s15
 4916              		.loc 1 1072 0
 4917 1fd2 0323     		movs	r3, #3
 4918              		.loc 1 1073 0
 4919 1fd4 CDED017A 		fsts	s15, [sp, #4]	@ int
 4920 1fd8 BDF90410 		ldrsh	r1, [sp, #4]
 4921              		.loc 1 1072 0
 4922 1fdc 0393     		str	r3, [sp, #12]
 4923              		.loc 1 1073 0
 4924 1fde 2846     		mov	r0, r5
 4925 1fe0 03AA     		add	r2, sp, #12
 4926              		.loc 1 1070 0
 4927 1fe2 2627     		movs	r7, #38
 4928 1fe4 2F70     		strb	r7, [r5]
 4929              		.loc 1 1072 0
 4930 1fe6 AC70     		strb	r4, [r5, #2]
 4931              		.loc 1 1073 0
 4932 1fe8 FFF7FEFF 		bl	buffer_append_int16
 4933              	.LVL451:
 4934              		.loc 1 1074 0
 4935 1fec D6ED017A 		flds	s15, [r6, #4]
 4936 1ff0 B2EE048A 		fconsts	s16, #36
 4937 1ff4 67EE887A 		fmuls	s15, s15, s16
 4938 1ff8 2846     		mov	r0, r5
 4939 1ffa FDEEE77A 		ftosizs	s15, s15
 4940 1ffe 03AA     		add	r2, sp, #12
 4941 2000 CDED017A 		fsts	s15, [sp, #4]	@ int
 4942 2004 BDF90410 		ldrsh	r1, [sp, #4]
 4943 2008 FFF7FEFF 		bl	buffer_append_int16
 4944              	.LVL452:
 4945              		.loc 1 1075 0
 4946 200c D6ED037A 		flds	s15, [r6, #12]
 4947 2010 67EE887A 		fmuls	s15, s15, s16
 4948 2014 2846     		mov	r0, r5
 4949 2016 FDEEE77A 		ftosizs	s15, s15
 4950 201a 03AA     		add	r2, sp, #12
 4951 201c CDED017A 		fsts	s15, [sp, #4]	@ int
 4952 2020 BDF90410 		ldrsh	r1, [sp, #4]
 4953 2024 FFF7FEFF 		bl	buffer_append_int16
 4954              	.LVL453:
 4955              		.loc 1 1076 0
 4956 2028 D6ED027A 		flds	s15, [r6, #8]
 4957 202c 67EE887A 		fmuls	s15, s15, s16
 4958 2030 2846     		mov	r0, r5
 4959 2032 FDEEE77A 		ftosizs	s15, s15
ARM GAS  /tmp/cc0XcXNK.s 			page 88


 4960 2036 03AA     		add	r2, sp, #12
 4961 2038 CDED017A 		fsts	s15, [sp, #4]	@ int
 4962 203c BDF90410 		ldrsh	r1, [sp, #4]
 4963 2040 FFF7FEFF 		bl	buffer_append_int16
 4964              	.LVL454:
 4965              		.loc 1 1077 0
 4966 2044 D6ED047A 		flds	s15, [r6, #16]
 4967 2048 67EE887A 		fmuls	s15, s15, s16
 4968 204c 2846     		mov	r0, r5
 4969 204e FDEEE77A 		ftosizs	s15, s15
 4970 2052 03AA     		add	r2, sp, #12
 4971 2054 CDED017A 		fsts	s15, [sp, #4]	@ int
 4972 2058 BDF90410 		ldrsh	r1, [sp, #4]
 4973 205c FFF7FEFF 		bl	buffer_append_int16
 4974              	.LVL455:
 4975              		.loc 1 1078 0
 4976 2060 D6ED077A 		flds	s15, [r6, #28]
 4977 2064 C7EE887A 		fdivs	s15, s15, s16
 4978 2068 2846     		mov	r0, r5
 4979 206a 03AA     		add	r2, sp, #12
 4980 206c FDEEE77A 		ftosizs	s15, s15
 4981 2070 CDED017A 		fsts	s15, [sp, #4]	@ int
 4982 2074 BDF90410 		ldrsh	r1, [sp, #4]
 4983 2078 FFF7FEFF 		bl	buffer_append_int16
 4984              	.LVL456:
 4985              	.LBB221:
 4986              	.LBB218:
 4987              		.loc 1 97 0
 4988 207c 1C4B     		ldr	r3, .L235
 4989              	.LBE218:
 4990              	.LBE221:
 4991              		.loc 1 1079 0
 4992 207e 0399     		ldr	r1, [sp, #12]
 4993              	.LVL457:
 4994              	.LBB222:
 4995              	.LBB219:
 4996              		.loc 1 97 0
 4997 2080 1B68     		ldr	r3, [r3]
 4998 2082 002B     		cmp	r3, #0
 4999 2084 7EF46CAF 		bne	.L203
 5000 2088 FEF7E9BA 		b	.L24
 5001              	.LVL458:
 5002              	.L60:
 5003              	.LBE219:
 5004              	.LBE222:
 5005              	.LBB223:
 5006              		.loc 1 1036 0
 5007 208c 04AC     		add	r4, sp, #16
 5008              	.LVL459:
 5009 208e 267B     		ldrb	r6, [r4, #12]	@ zero_extendqisi2
 5010 2090 002E     		cmp	r6, #0
 5011 2092 40F0A881 		bne	.L120
 5012              	.LVL460:
 5013              	.LBB173:
 5014              		.loc 1 1043 0
 5015 2096 D2AF     		add	r7, sp, #840
 5016              	.LVL461:
ARM GAS  /tmp/cc0XcXNK.s 			page 89


 5017 2098 2722     		movs	r2, #39
 5018 209a 0123     		movs	r3, #1
 5019              	.LBB174:
 5020              	.LBB175:
 5021              	.LBB176:
 5022              	.LBB177:
 5023              	.LBB178:
 5024              	.LBB179:
 5025              		.file 4 "ChibiOS_3.0.2/os/rt/include/chvt.h"
 5026              		.loc 4 231 0
 5027 209c DFF86480 		ldr	r8, .L235+20
 5028              	.LVL462:
 5029              	.LBE179:
 5030              	.LBE178:
 5031              	.LBE177:
 5032              	.LBE176:
 5033              		.loc 1 1048 0
 5034 20a0 DFED168A 		flds	s17, .L235+12
 5035              	.LBE175:
 5036              	.LBE174:
 5037              		.loc 1 1043 0
 5038 20a4 3A70     		strb	r2, [r7]
 5039              	.LVL463:
 5040 20a6 0393     		str	r3, [sp, #12]
 5041              	.LBB187:
 5042              	.LBB184:
 5043              		.loc 1 1048 0
 5044 20a8 B7EE008A 		fconsts	s16, #112
 5045 20ac 02E0     		b	.L115
 5046              	.LVL464:
 5047              	.L113:
 5048              	.LBE184:
 5049              		.loc 1 1045 0 discriminator 2
 5050 20ae 032E     		cmp	r6, #3
 5051 20b0 00F00D82 		beq	.L215
 5052              	.LVL465:
 5053              	.L115:
 5054              	.LBB185:
 5055              		.loc 1 1046 0
 5056 20b4 3046     		mov	r0, r6
 5057 20b6 FFF7FEFF 		bl	comm_can_get_status_msg_index
 5058              	.LVL466:
 5059              		.loc 1 1048 0
 5060 20ba 0268     		ldr	r2, [r0]
 5061 20bc 002A     		cmp	r2, #0
 5062              	.LBE185:
 5063              		.loc 1 1045 0
 5064 20be 06F10106 		add	r6, r6, #1
 5065              	.LVL467:
 5066              	.LBB186:
 5067              		.loc 1 1048 0
 5068 20c2 F4DB     		blt	.L113
 5069              	.LBB183:
 5070              	.LBB182:
 5071              		.loc 4 267 0 discriminator 1
 5072 20c4 4168     		ldr	r1, [r0, #4]
 5073              	.LBB181:
ARM GAS  /tmp/cc0XcXNK.s 			page 90


 5074              	.LBB180:
 5075              		.loc 4 231 0 discriminator 1
 5076 20c6 D8F82830 		ldr	r3, [r8, #40]
 5077              	.LBE180:
 5078              	.LBE181:
 5079              		.loc 4 267 0 discriminator 1
 5080 20ca 5B1A     		subs	r3, r3, r1
 5081 20cc 07EE903A 		fmsr	s15, r3	@ int
 5082              	.LBE182:
 5083              	.LBE183:
 5084              		.loc 1 1048 0 discriminator 1
 5085 20d0 F8EE677A 		fuitos	s15, s15
 5086 20d4 C7EEA87A 		fdivs	s15, s15, s17
 5087 20d8 F4EEC87A 		fcmpes	s15, s16
 5088 20dc F1EE10FA 		fmstat
 5089 20e0 E5D5     		bpl	.L113
 5090              		.loc 1 1049 0
 5091 20e2 D0B2     		uxtb	r0, r2
 5092              	.LVL468:
 5093 20e4 3946     		mov	r1, r7
 5094              	.LVL469:
 5095 20e6 2A46     		mov	r2, r5
 5096 20e8 0023     		movs	r3, #0
 5097 20ea FFF7FEFF 		bl	comm_can_send_buffer
 5098              	.LVL470:
 5099 20ee DEE7     		b	.L113
 5100              	.L236:
 5101              		.align	2
 5102              	.L235:
 5103 20f0 00000000 		.word	.LANCHOR9
 5104 20f4 00000000 		.word	.LANCHOR8
 5105 20f8 00000000 		.word	.LANCHOR12
 5106 20fc 00401C46 		.word	1176256512
 5107 2100 00000000 		.word	.LANCHOR11
 5108 2104 00000000 		.word	ch
 5109 2108 CDCCCC3D 		.word	1036831949
 5110              	.LVL471:
 5111              	.L58:
 5112              	.LBE186:
 5113              	.LBE187:
 5114              	.LBE173:
 5115              		.loc 1 868 0
 5116 210c 0223     		movs	r3, #2
 5117              		.loc 1 869 0
 5118 210e 2046     		mov	r0, r4
 5119 2110 03A9     		add	r1, sp, #12
 5120 2112 B7EE000A 		fconsts	s0, #112
 5121              		.loc 1 868 0
 5122 2116 0393     		str	r3, [sp, #12]
 5123              		.loc 1 867 0
 5124 2118 96F801A0 		ldrb	r10, [r6, #1]	@ zero_extendqisi2
 5125              	.LVL472:
 5126              		.loc 1 868 0
 5127 211c 96F80290 		ldrb	r9, [r6, #2]	@ zero_extendqisi2
 5128              	.LVL473:
 5129              		.loc 1 869 0
 5130 2120 FFF7FEFF 		bl	buffer_get_float16
ARM GAS  /tmp/cc0XcXNK.s 			page 91


 5131              	.LVL474:
 5132              		.loc 1 870 0
 5133 2124 2046     		mov	r0, r4
 5134 2126 03A9     		add	r1, sp, #12
 5135              		.loc 1 869 0
 5136 2128 F0EE40AA 		fcpys	s21, s0
 5137              	.LVL475:
 5138              		.loc 1 870 0
 5139 212c B2EE040A 		fconsts	s0, #36
 5140              	.LVL476:
 5141 2130 FFF7FEFF 		bl	buffer_get_float16
 5142              	.LVL477:
 5143              		.loc 1 871 0
 5144 2134 2046     		mov	r0, r4
 5145 2136 03A9     		add	r1, sp, #12
 5146              		.loc 1 870 0
 5147 2138 B0EE40AA 		fcpys	s20, s0
 5148              	.LVL478:
 5149              		.loc 1 871 0
 5150 213c B2EE040A 		fconsts	s0, #36
 5151              	.LVL479:
 5152 2140 FFF7FEFF 		bl	buffer_get_float16
 5153              	.LVL480:
 5154              		.loc 1 872 0
 5155 2144 2046     		mov	r0, r4
 5156 2146 03A9     		add	r1, sp, #12
 5157              		.loc 1 871 0
 5158 2148 F0EE409A 		fcpys	s19, s0
 5159              	.LVL481:
 5160              		.loc 1 872 0
 5161 214c B2EE040A 		fconsts	s0, #36
 5162              	.LVL482:
 5163 2150 FFF7FEFF 		bl	buffer_get_float16
 5164              	.LVL483:
 5165              		.loc 1 873 0
 5166 2154 2046     		mov	r0, r4
 5167 2156 03A9     		add	r1, sp, #12
 5168              		.loc 1 872 0
 5169 2158 B0EE409A 		fcpys	s18, s0
 5170              	.LVL484:
 5171              		.loc 1 873 0
 5172 215c B2EE040A 		fconsts	s0, #36
 5173              	.LVL485:
 5174 2160 FFF7FEFF 		bl	buffer_get_float16
 5175              	.LVL486:
 5176              		.loc 1 874 0
 5177 2164 2046     		mov	r0, r4
 5178 2166 03A9     		add	r1, sp, #12
 5179              		.loc 1 873 0
 5180 2168 F0EE408A 		fcpys	s17, s0
 5181              	.LVL487:
 5182              		.loc 1 874 0
 5183 216c 1FED1A0A 		flds	s0, .L235+24
 5184              	.LVL488:
 5185 2170 FFF7FEFF 		bl	buffer_get_float16
 5186              	.LVL489:
 5187 2174 B0EE408A 		fcpys	s16, s0
ARM GAS  /tmp/cc0XcXNK.s 			page 92


 5188              	.LVL490:
 5189              		.loc 1 876 0
 5190 2178 FFF7FEFF 		bl	app_get_configuration
 5191              	.LVL491:
 5192 217c 04AC     		add	r4, sp, #16
 5193              	.LVL492:
 5194 217e 0146     		mov	r1, r0
 5195 2180 4FF48072 		mov	r2, #256
 5196 2184 2046     		mov	r0, r4
 5197 2186 FFF7FEFF 		bl	memcpy
 5198              	.LVL493:
 5199              		.loc 1 878 0
 5200 218a 237D     		ldrb	r3, [r4, #20]	@ zero_extendqisi2
 5201 218c 042B     		cmp	r3, #4
 5202 218e 02D0     		beq	.L80
 5203              		.loc 1 878 0 is_stmt 0 discriminator 1
 5204 2190 012B     		cmp	r3, #1
 5205 2192 7EF464AA 		bne	.L24
 5206              	.L80:
 5207              	.LBB188:
 5208              		.loc 1 882 0 is_stmt 1
 5209 2196 44A8     		add	r0, sp, #272
 5210 2198 FFF7FEFF 		bl	conf_general_read_app_configuration
 5211              	.LVL494:
 5212              		.loc 1 884 0
 5213 219c FFF7FEFF 		bl	mc_interface_get_configuration
 5214              	.LVL495:
 5215 21a0 D34F     		ldr	r7, .L237
 5216              	.LVL496:
 5217 21a2 0146     		mov	r1, r0
 5218 21a4 4FF49C72 		mov	r2, #312
 5219 21a8 3846     		mov	r0, r7
 5220 21aa FFF7FEFF 		bl	memcpy
 5221              	.LVL497:
 5222              		.loc 1 888 0
 5223 21ae 84A8     		add	r0, sp, #528
 5224 21b0 FFF7FEFF 		bl	conf_general_read_mc_configuration
 5225              	.LVL498:
 5226              		.loc 1 894 0
 5227 21b4 859A     		ldr	r2, [sp, #532]	@ float
 5228              		.loc 1 895 0
 5229 21b6 869B     		ldr	r3, [sp, #536]	@ float
 5230              		.loc 1 896 0
 5231 21b8 DDF81CC2 		ldr	ip, [sp, #540]	@ float
 5232              		.loc 1 897 0
 5233 21bc DDF820E2 		ldr	lr, [sp, #544]	@ float
 5234              		.loc 1 898 0
 5235 21c0 8B98     		ldr	r0, [sp, #556]	@ float
 5236              		.loc 1 894 0
 5237 21c2 7A60     		str	r2, [r7, #4]	@ float
 5238              		.loc 1 892 0
 5239 21c4 5799     		ldr	r1, [sp, #348]	@ float
 5240              		.loc 1 895 0
 5241 21c6 BB60     		str	r3, [r7, #8]	@ float
 5242              		.loc 1 890 0
 5243 21c8 9DF85821 		ldrb	r2, [sp, #344]	@ zero_extendqisi2
 5244              		.loc 1 891 0
ARM GAS  /tmp/cc0XcXNK.s 			page 93


 5245 21cc 9DF82831 		ldrb	r3, [sp, #296]	@ zero_extendqisi2
 5246              		.loc 1 896 0
 5247 21d0 C7F80CC0 		str	ip, [r7, #12]	@ float
 5248              		.loc 1 897 0
 5249 21d4 C7F810E0 		str	lr, [r7, #16]	@ float
 5250              		.loc 1 898 0
 5251 21d8 F861     		str	r0, [r7, #28]	@ float
 5252              		.loc 1 892 0
 5253 21da E164     		str	r1, [r4, #76]	@ float
 5254              		.loc 1 890 0
 5255 21dc 84F84820 		strb	r2, [r4, #72]
 5256              		.loc 1 891 0
 5257 21e0 2376     		strb	r3, [r4, #24]
 5258              		.loc 1 900 0
 5259 21e2 B9F1000F 		cmp	r9, #0
 5260 21e6 00F03681 		beq	.L81
 5261 21ea B9F1080F 		cmp	r9, #8
 5262 21ee 06D9     		bls	.L82
 5263 21f0 B9F1090F 		cmp	r9, #9
 5264 21f4 40F02F81 		bne	.L81
 5265              		.loc 1 902 0
 5266 21f8 0123     		movs	r3, #1
 5267 21fa 84F84830 		strb	r3, [r4, #72]
 5268              	.L82:
 5269              		.loc 1 911 0
 5270 21fe 237B     		ldrb	r3, [r4, #12]	@ zero_extendqisi2
 5271 2200 0BB9     		cbnz	r3, .L84
 5272              		.loc 1 912 0
 5273 2202 84F81890 		strb	r9, [r4, #24]
 5274              	.L84:
 5275              		.loc 1 914 0
 5276 2206 DFEDBB7A 		flds	s15, .L237+4
 5277 220a F4EEE7AA 		fcmpes	s21, s15
 5278 220e F1EE10FA 		fmstat
 5279 2212 08DB     		blt	.L85
 5280              		.loc 1 914 0 is_stmt 0 discriminator 1
 5281 2214 DFEDB87A 		flds	s15, .L237+8
 5282 2218 F4EEE7AA 		fcmpes	s21, s15
 5283 221c F1EE10FA 		fmstat
 5284 2220 98BF     		it	ls
 5285 2222 C4ED13AA 		fstsls	s21, [r4, #76]
 5286              	.L85:
 5287              		.loc 1 916 0 is_stmt 1
 5288 2226 D7ED457A 		flds	s15, [r7, #276]
 5289 222a B14A     		ldr	r2, .L237
 5290 222c B4EEE7AA 		fcmpes	s20, s15
 5291 2230 F1EE10FA 		fmstat
 5292 2234 08DB     		blt	.L88
 5293              		.loc 1 916 0 is_stmt 0 discriminator 1
 5294 2236 9FEDB17A 		flds	s14, .L237+12
 5295 223a B4EEC7AA 		fcmpes	s20, s14
 5296 223e F1EE10FA 		fmstat
 5297 2242 98BF     		it	ls
 5298 2244 82ED01AA 		fstsls	s20, [r2, #4]
 5299              	.L88:
 5300              		.loc 1 918 0 is_stmt 1
 5301 2248 F4EEE79A 		fcmpes	s19, s15
ARM GAS  /tmp/cc0XcXNK.s 			page 94


 5302 224c F1EE10FA 		fmstat
 5303 2250 08DB     		blt	.L91
 5304              		.loc 1 918 0 is_stmt 0 discriminator 1
 5305 2252 9FEDAA7A 		flds	s14, .L237+12
 5306 2256 F4EEC79A 		fcmpes	s19, s14
 5307 225a F1EE10FA 		fmstat
 5308 225e 98BF     		it	ls
 5309 2260 C7ED039A 		fstsls	s19, [r7, #12]
 5310              	.L91:
 5311              		.loc 1 920 0 is_stmt 1
 5312 2264 F1EE677A 		fnegs	s15, s15
 5313 2268 B4EEE79A 		fcmpes	s18, s15
 5314 226c F1EE10FA 		fmstat
 5315 2270 08D8     		bhi	.L94
 5316              		.loc 1 920 0 is_stmt 0 discriminator 1
 5317 2272 9FEDA37A 		flds	s14, .L237+16
 5318 2276 B4EEC79A 		fcmpes	s18, s14
 5319 227a F1EE10FA 		fmstat
 5320 227e A8BF     		it	ge
 5321 2280 87ED029A 		fstsge	s18, [r7, #8]
 5322              	.L94:
 5323              		.loc 1 922 0 is_stmt 1
 5324 2284 F4EEE78A 		fcmpes	s17, s15
 5325 2288 F1EE10FA 		fmstat
 5326 228c 08D8     		bhi	.L97
 5327              		.loc 1 922 0 is_stmt 0 discriminator 1
 5328 228e DFED9C7A 		flds	s15, .L237+16
 5329 2292 F4EEE78A 		fcmpes	s17, s15
 5330 2296 F1EE10FA 		fmstat
 5331 229a A8BF     		it	ge
 5332 229c C7ED048A 		fstsge	s17, [r7, #16]
 5333              	.L97:
 5334              		.loc 1 924 0 is_stmt 1
 5335 22a0 B5EEC08A 		fcmpezs	s16
 5336 22a4 F1EE10FA 		fmstat
 5337 22a8 1CDB     		blt	.L100
 5338              		.loc 1 924 0 is_stmt 0 discriminator 1
 5339 22aa DFED967A 		flds	s15, .L237+20
 5340 22ae B4EEE78A 		fcmpes	s16, s15
 5341 22b2 F1EE10FA 		fmstat
 5342 22b6 15D8     		bhi	.L100
 5343              		.loc 1 927 0 is_stmt 1
 5344 22b8 F3EE097A 		fconsts	s15, #57
 5345 22bc C8EE277A 		fdivs	s15, s16, s15
 5346              		.loc 1 925 0
 5347 22c0 84ED078A 		fsts	s16, [r4, #28]
 5348              		.loc 1 927 0
 5349 22c4 FDEEE77A 		ftosizs	s15, s15
 5350              		.loc 1 926 0
 5351 22c8 84ED0D8A 		fsts	s16, [r4, #52]
 5352              		.loc 1 927 0
 5353 22cc CDED017A 		fsts	s15, [sp, #4]	@ int
 5354 22d0 BDF90420 		ldrsh	r2, [sp, #4]
 5355 22d4 07EE902A 		fmsr	s15, r2	@ int
 5356 22d8 F8EEE77A 		fsitos	s15, s15
 5357 22dc 78EE677A 		fsubs	s15, s16, s15
 5358 22e0 C4ED0C7A 		fsts	s15, [r4, #48]
ARM GAS  /tmp/cc0XcXNK.s 			page 95


 5359              	.L100:
 5360              		.loc 1 930 0
 5361 22e4 DFF83C92 		ldr	r9, .L237+52
 5362              	.LVL499:
 5363 22e8 89F800A0 		strb	r10, [r9]
 5364              	.L103:
 5365              		.loc 1 937 0
 5366 22ec 002B     		cmp	r3, #0
 5367 22ee 40F09F80 		bne	.L119
 5368              	.LVL500:
 5369              	.LBB189:
 5370              		.loc 1 944 0
 5371 22f2 D2AF     		add	r7, sp, #840
 5372 22f4 2422     		movs	r2, #36
 5373 22f6 0123     		movs	r3, #1
 5374 22f8 3A70     		strb	r2, [r7]
 5375              	.LVL501:
 5376 22fa 0393     		str	r3, [sp, #12]
 5377              	.LBB190:
 5378              		.loc 1 945 0
 5379 22fc B8F1000F 		cmp	r8, #0
 5380 2300 0ED0     		beq	.L105
 5381 2302 3346     		mov	r3, r6
 5382 2304 C3F10201 		rsb	r1, r3, #2
 5383 2308 4644     		add	r6, r6, r8
 5384              	.LVL502:
 5385 230a 3A46     		mov	r2, r7
 5386              	.LVL503:
 5387              	.L106:
 5388 230c 01EB030E 		add	lr, r1, r3
 5389              		.loc 1 946 0 discriminator 3
 5390 2310 13F8010F 		ldrb	r0, [r3, #1]!	@ zero_extendqisi2
 5391              	.LVL504:
 5392 2314 02F8010F 		strb	r0, [r2, #1]!
 5393              	.LVL505:
 5394              		.loc 1 945 0 discriminator 3
 5395 2318 B342     		cmp	r3, r6
 5396              		.loc 1 946 0 discriminator 3
 5397 231a CDF80CE0 		str	lr, [sp, #12]
 5398              		.loc 1 945 0 discriminator 3
 5399 231e F5D1     		bne	.L106
 5400              	.LVL506:
 5401              	.L105:
 5402              	.LBE190:
 5403              	.LBB191:
 5404              	.LBB192:
 5405              	.LBB193:
 5406              	.LBB194:
 5407              	.LBB195:
 5408              	.LBB196:
 5409              		.loc 4 231 0
 5410 2320 DFF80482 		ldr	r8, .L237+56
 5411              	.LVL507:
 5412              	.LBE196:
 5413              	.LBE195:
 5414              	.LBE194:
 5415              	.LBE193:
ARM GAS  /tmp/cc0XcXNK.s 			page 96


 5416              		.loc 1 952 0
 5417 2324 DFED788A 		flds	s17, .L237+24
 5418              	.LVL508:
 5419              	.LBE192:
 5420              	.LBE191:
 5421              	.LBB203:
 5422              		.loc 1 945 0
 5423 2328 0026     		movs	r6, #0
 5424              	.LBE203:
 5425              	.LBB204:
 5426              	.LBB201:
 5427              		.loc 1 952 0
 5428 232a B7EE008A 		fconsts	s16, #112
 5429              	.LVL509:
 5430              	.L109:
 5431              		.loc 1 950 0
 5432 232e 3046     		mov	r0, r6
 5433 2330 FFF7FEFF 		bl	comm_can_get_status_msg_index
 5434              	.LVL510:
 5435              		.loc 1 952 0
 5436 2334 0268     		ldr	r2, [r0]
 5437 2336 002A     		cmp	r2, #0
 5438              	.LBE201:
 5439              		.loc 1 949 0
 5440 2338 06F10106 		add	r6, r6, #1
 5441              	.LVL511:
 5442              	.LBB202:
 5443              		.loc 1 952 0
 5444 233c 14DB     		blt	.L107
 5445              	.LBB200:
 5446              	.LBB199:
 5447              		.loc 4 267 0 discriminator 1
 5448 233e 4168     		ldr	r1, [r0, #4]
 5449              	.LBB198:
 5450              	.LBB197:
 5451              		.loc 4 231 0 discriminator 1
 5452 2340 D8F82830 		ldr	r3, [r8, #40]
 5453              	.LBE197:
 5454              	.LBE198:
 5455              		.loc 4 267 0 discriminator 1
 5456 2344 5B1A     		subs	r3, r3, r1
 5457 2346 07EE903A 		fmsr	s15, r3	@ int
 5458              	.LBE199:
 5459              	.LBE200:
 5460              		.loc 1 952 0 discriminator 1
 5461 234a F8EE677A 		fuitos	s15, s15
 5462 234e C7EEA87A 		fdivs	s15, s15, s17
 5463 2352 F4EEC87A 		fcmpes	s15, s16
 5464 2356 F1EE10FA 		fmstat
 5465 235a 05D5     		bpl	.L107
 5466              		.loc 1 953 0
 5467 235c D0B2     		uxtb	r0, r2
 5468              	.LVL512:
 5469 235e 3946     		mov	r1, r7
 5470              	.LVL513:
 5471 2360 2A46     		mov	r2, r5
 5472 2362 0023     		movs	r3, #0
ARM GAS  /tmp/cc0XcXNK.s 			page 97


 5473 2364 FFF7FEFF 		bl	comm_can_send_buffer
 5474              	.LVL514:
 5475              	.L107:
 5476              	.LBE202:
 5477              		.loc 1 949 0 discriminator 2
 5478 2368 032E     		cmp	r6, #3
 5479 236a E0D1     		bne	.L109
 5480              	.LBE204:
 5481              		.loc 1 938 0
 5482 236c 0125     		movs	r5, #1
 5483              	.LVL515:
 5484 236e 60E0     		b	.L104
 5485              	.LVL516:
 5486              	.L56:
 5487              	.LBE189:
 5488              	.LBE188:
 5489              		.loc 1 851 0
 5490 2370 C278     		ldrb	r2, [r0, #3]	@ zero_extendqisi2
 5491              		.loc 1 852 0
 5492 2372 0379     		ldrb	r3, [r0, #4]	@ zero_extendqisi2
 5493              		.loc 1 849 0
 5494 2374 4778     		ldrb	r7, [r0, #1]	@ zero_extendqisi2
 5495              	.LVL517:
 5496              		.loc 1 850 0
 5497 2376 8678     		ldrb	r6, [r0, #2]	@ zero_extendqisi2
 5498              		.loc 1 849 0
 5499 2378 D297     		str	r7, [sp, #840]
 5500              		.loc 1 851 0
 5501 237a 0032     		adds	r2, r2, #0
 5502 237c 18BF     		it	ne
 5503 237e 0122     		movne	r2, #1
 5504              		.loc 1 852 0
 5505 2380 0033     		adds	r3, r3, #0
 5506 2382 18BF     		it	ne
 5507 2384 0123     		movne	r3, #1
 5508              		.loc 1 853 0
 5509 2386 03A9     		add	r1, sp, #12
 5510              		.loc 1 852 0
 5511 2388 0425     		movs	r5, #4
 5512              		.loc 1 853 0
 5513 238a 2046     		mov	r0, r4
 5514              	.LVL518:
 5515              		.loc 1 851 0
 5516 238c 8DF85C23 		strb	r2, [sp, #860]
 5517              		.loc 1 852 0
 5518 2390 8DF85D33 		strb	r3, [sp, #861]
 5519              		.loc 1 850 0
 5520 2394 D396     		str	r6, [sp, #844]
 5521              		.loc 1 852 0
 5522 2396 0395     		str	r5, [sp, #12]
 5523              		.loc 1 853 0
 5524 2398 FFF7FEFF 		bl	buffer_get_int16
 5525              	.LVL519:
 5526              		.loc 1 854 0
 5527 239c 03A9     		add	r1, sp, #12
 5528              		.loc 1 853 0
 5529 239e D490     		str	r0, [sp, #848]
ARM GAS  /tmp/cc0XcXNK.s 			page 98


 5530              		.loc 1 854 0
 5531 23a0 2046     		mov	r0, r4
 5532 23a2 FFF7FEFF 		bl	buffer_get_int16
 5533              	.LVL520:
 5534              		.loc 1 855 0
 5535 23a6 03A9     		add	r1, sp, #12
 5536              		.loc 1 854 0
 5537 23a8 D590     		str	r0, [sp, #852]
 5538              		.loc 1 855 0
 5539 23aa 2046     		mov	r0, r4
 5540 23ac FFF7FEFF 		bl	buffer_get_int16
 5541              	.LVL521:
 5542 23b0 D690     		str	r0, [sp, #856]
 5543              		.loc 1 856 0
 5544 23b2 D2A8     		add	r0, sp, #840
 5545 23b4 FFF7FEFF 		bl	app_nunchuk_update_output
 5546              	.LVL522:
 5547              		.loc 1 857 0
 5548 23b8 FEF751B9 		b	.L24
 5549              	.LVL523:
 5550              	.L55:
 5551              		.loc 1 844 0
 5552 23bc 8A1E     		subs	r2, r1, #2
 5553 23be 4078     		ldrb	r0, [r0, #1]	@ zero_extendqisi2
 5554 23c0 B11C     		adds	r1, r6, #2
 5555 23c2 0023     		movs	r3, #0
 5556 23c4 FFF7FEFF 		bl	comm_can_send_buffer
 5557              	.LVL524:
 5558              		.loc 1 845 0
 5559 23c8 FEF749B9 		b	.L24
 5560              	.L57:
 5561              		.loc 1 860 0
 5562 23cc 4F4B     		ldr	r3, .L237+28
 5563 23ce 1B68     		ldr	r3, [r3]
 5564 23d0 002B     		cmp	r3, #0
 5565 23d2 3EF444A9 		beq	.L24
 5566              		.loc 1 861 0
 5567 23d6 2046     		mov	r0, r4
 5568 23d8 4146     		mov	r1, r8
 5569 23da FFF79DB8 		b	.L200
 5570              	.LVL525:
 5571              	.L213:
 5572 23de 9DED840A 		flds	s0, [sp, #528]
 5573 23e2 FEF7FDBA 		b	.L70
 5574              	.LVL526:
 5575              	.L120:
 5576              	.LBE223:
 5577              		.loc 1 127 0
 5578 23e6 0025     		movs	r5, #0
 5579              	.LVL527:
 5580              	.L112:
 5581              	.LBB224:
 5582              		.loc 1 1053 0
 5583 23e8 FFF7FEFF 		bl	mc_interface_get_configuration
 5584              	.LVL528:
 5585 23ec 4FF49C72 		mov	r2, #312
 5586 23f0 0146     		mov	r1, r0
ARM GAS  /tmp/cc0XcXNK.s 			page 99


 5587 23f2 3F48     		ldr	r0, .L237
 5588              		.loc 1 1061 0
 5589 23f4 DFF82C91 		ldr	r9, .L237+52
 5590              		.loc 1 1053 0
 5591 23f8 FFF7FEFF 		bl	memcpy
 5592              	.LVL529:
 5593              		.loc 1 1055 0
 5594 23fc FFF7FEFF 		bl	app_get_configuration
 5595              	.LVL530:
 5596 2400 4FF48072 		mov	r2, #256
 5597 2404 0146     		mov	r1, r0
 5598 2406 2046     		mov	r0, r4
 5599 2408 FFF7FEFF 		bl	memcpy
 5600              	.LVL531:
 5601              		.loc 1 1057 0
 5602 240c 3848     		ldr	r0, .L237
 5603 240e FFF7FEFF 		bl	conf_general_store_mc_configuration
 5604              	.LVL532:
 5605              		.loc 1 1059 0
 5606 2412 2046     		mov	r0, r4
 5607 2414 FFF7FEFF 		bl	conf_general_store_app_configuration
 5608              	.LVL533:
 5609              		.loc 1 1061 0
 5610 2418 0023     		movs	r3, #0
 5611 241a 89F80030 		strb	r3, [r9]
 5612              	.LBE224:
 5613              		.loc 1 1068 0
 5614 241e 002D     		cmp	r5, #0
 5615 2420 7FF4CDAD 		bne	.L111
 5616 2424 FEF71BB9 		b	.L24
 5617              	.LVL534:
 5618              	.L212:
 5619 2428 9DEDD20A 		flds	s0, [sp, #840]
 5620 242c FEF781BA 		b	.L73
 5621              	.LVL535:
 5622              	.L119:
 5623              		.loc 1 127 0
 5624 2430 0025     		movs	r5, #0
 5625              	.LVL536:
 5626              	.L104:
 5627              	.LBB225:
 5628              	.LBB205:
 5629              		.loc 1 958 0 discriminator 4
 5630 2432 2F48     		ldr	r0, .L237
 5631 2434 FFF7FEFF 		bl	mc_interface_set_configuration
 5632              	.LVL537:
 5633              		.loc 1 959 0 discriminator 4
 5634 2438 2046     		mov	r0, r4
 5635 243a FFF7FEFF 		bl	app_set_configuration
 5636              	.LVL538:
 5637              		.loc 1 961 0 discriminator 4
 5638 243e 6068     		ldr	r0, [r4, #4]
 5639 2440 94ED020A 		flds	s0, [r4, #8]
 5640 2444 FFF7FEFF 		bl	timeout_configure
 5641              	.LVL539:
 5642              		.loc 1 963 0 discriminator 4
 5643 2448 FFF7FEFF 		bl	timeout_reset
ARM GAS  /tmp/cc0XcXNK.s 			page 100


 5644              	.LVL540:
 5645              	.LBE205:
 5646              	.LBE225:
 5647              		.loc 1 1068 0 discriminator 4
 5648 244c 002D     		cmp	r5, #0
 5649 244e 7FF4B6AD 		bne	.L111
 5650 2452 FEF704B9 		b	.L24
 5651              	.LVL541:
 5652              	.L81:
 5653              	.LBB226:
 5654              	.LBB206:
 5655              		.loc 1 934 0
 5656 2456 DFF8CC90 		ldr	r9, .L237+52
 5657              	.LVL542:
 5658 245a 237B     		ldrb	r3, [r4, #12]	@ zero_extendqisi2
 5659 245c 0022     		movs	r2, #0
 5660 245e 89F80020 		strb	r2, [r9]
 5661              		.loc 1 935 0
 5662 2462 43E7     		b	.L103
 5663              	.LVL543:
 5664              	.L214:
 5665              	.LBE206:
 5666              		.loc 1 568 0
 5667 2464 FFF7FEFF 		bl	app_get_configuration
 5668              	.LVL544:
 5669 2468 04AC     		add	r4, sp, #16
 5670              	.LVL545:
 5671 246a 0146     		mov	r1, r0
 5672 246c 4FF48072 		mov	r2, #256
 5673 2470 2046     		mov	r0, r4
 5674 2472 FFF7FEFF 		bl	memcpy
 5675              	.LVL546:
 5676 2476 FEF7D8BA 		b	.L68
 5677              	.LVL547:
 5678              	.L77:
 5679              		.loc 1 801 0
 5680 247a 254B     		ldr	r3, .L237+32
 5681 247c 0822     		movs	r2, #8
 5682 247e FF21     		movs	r1, #255
 5683 2480 1846     		mov	r0, r3
 5684 2482 FFF7FEFF 		bl	memset
 5685              	.LVL548:
 5686              		.loc 1 803 0
 5687 2486 0022     		movs	r2, #0
 5688 2488 4272     		strb	r2, [r0, #9]
 5689 248a FEF7E8B8 		b	.L24
 5690              	.LVL549:
 5691              	.L75:
 5692              		.loc 1 764 0
 5693 248e 204C     		ldr	r4, .L237+32
 5694              	.LVL550:
 5695              		.loc 1 765 0
 5696 2490 9FED200A 		flds	s0, .L237+36
 5697 2494 DFED200A 		flds	s1, .L237+40
 5698              		.loc 1 764 0
 5699 2498 0123     		movs	r3, #1
 5700 249a 1A22     		movs	r2, #26
ARM GAS  /tmp/cc0XcXNK.s 			page 101


 5701              		.loc 1 765 0
 5702 249c 2046     		mov	r0, r4
 5703 249e 03A9     		add	r1, sp, #12
 5704              		.loc 1 764 0
 5705 24a0 0393     		str	r3, [sp, #12]
 5706 24a2 2270     		strb	r2, [r4]
 5707              		.loc 1 765 0
 5708 24a4 FFF7FEFF 		bl	buffer_append_float32
 5709              	.LVL551:
 5710              		.loc 1 766 0
 5711 24a8 03A9     		add	r1, sp, #12
 5712 24aa 2046     		mov	r0, r4
 5713 24ac 9FED1B0A 		flds	s0, .L237+44
 5714 24b0 DFED190A 		flds	s1, .L237+40
 5715 24b4 FFF7FEFF 		bl	buffer_append_float32
 5716              	.LVL552:
 5717              	.LBB207:
 5718              	.LBB208:
 5719              		.loc 1 97 0
 5720 24b8 194B     		ldr	r3, .L237+48
 5721              	.LBE208:
 5722              	.LBE207:
 5723              		.loc 1 767 0
 5724 24ba 0399     		ldr	r1, [sp, #12]
 5725              	.LBB211:
 5726              	.LBB209:
 5727              		.loc 1 97 0
 5728 24bc 1B68     		ldr	r3, [r3]
 5729              	.LBE209:
 5730              	.LBE211:
 5731              		.loc 1 767 0
 5732 24be 6554     		strb	r5, [r4, r1]
 5733              	.LVL553:
 5734 24c0 0131     		adds	r1, r1, #1
 5735              	.LVL554:
 5736 24c2 0391     		str	r1, [sp, #12]
 5737              	.LBB212:
 5738              	.LBB210:
 5739              		.loc 1 97 0
 5740 24c4 002B     		cmp	r3, #0
 5741 24c6 7EF410A9 		bne	.L204
 5742 24ca FEF7C8B8 		b	.L24
 5743              	.LVL555:
 5744              	.L215:
 5745              	.LBE210:
 5746              	.LBE212:
 5747              	.LBB213:
 5748              		.loc 1 1037 0
 5749 24ce 0125     		movs	r5, #1
 5750              	.LVL556:
 5751 24d0 8AE7     		b	.L112
 5752              	.LVL557:
 5753              	.L211:
 5754              	.LBE213:
 5755              		.loc 1 231 0
 5756 24d2 FFF7FEFF 		bl	mc_interface_release_motor
 5757              	.LVL558:
ARM GAS  /tmp/cc0XcXNK.s 			page 102


 5758 24d6 FEF7DFB8 		b	.L51
 5759              	.LVL559:
 5760              	.L210:
 5761              		.loc 1 361 0
 5762 24da FFF7FEFF 		bl	mc_interface_get_configuration
 5763              	.LVL560:
 5764 24de 4FF49C72 		mov	r2, #312
 5765 24e2 0146     		mov	r1, r0
 5766 24e4 0248     		ldr	r0, .L237
 5767 24e6 FFF7FEFF 		bl	memcpy
 5768              	.LVL561:
 5769 24ea FDF7CDBD 		b	.L66
 5770              	.L238:
 5771 24ee 00BF     		.align	2
 5772              	.L237:
 5773 24f0 00000000 		.word	.LANCHOR12
 5774 24f4 00004842 		.word	1112014848
 5775 24f8 00409C45 		.word	1167867904
 5776 24fc 00004843 		.word	1128792064
 5777 2500 000048C3 		.word	-1018691584
 5778 2504 0050C347 		.word	1203982336
 5779 2508 00401C46 		.word	1176256512
 5780 250c 00000000 		.word	.LANCHOR15
 5781 2510 00000000 		.word	.LANCHOR8
 5782 2514 00407A44 		.word	1148862464
 5783 2518 00247449 		.word	1232348160
 5784 251c 00000000 		.word	0
 5785 2520 00000000 		.word	.LANCHOR9
 5786 2524 00000000 		.word	.LANCHOR11
 5787 2528 00000000 		.word	ch
 5788              	.LBE226:
 5789              		.cfi_endproc
 5790              	.LFE259:
 5791              		.size	commands_process_packet, .-commands_process_packet
 5792              		.section	.text.commands_printf,"ax",%progbits
 5793              		.align	2
 5794              		.p2align 4,,15
 5795              		.global	commands_printf
 5796              		.thumb
 5797              		.thumb_func
 5798              		.type	commands_printf, %function
 5799              	commands_printf:
 5800              	.LFB260:
 5801              		.loc 1 1083 0
 5802              		.cfi_startproc
 5803              		@ args = 4, pretend = 16, frame = 8
 5804              		@ frame_needed = 0, uses_anonymous_args = 1
 5805              	.LVL562:
 5806 0000 0FB4     		push	{r0, r1, r2, r3}
 5807              		.cfi_def_cfa_offset 16
 5808              		.cfi_offset 0, -16
 5809              		.cfi_offset 1, -12
 5810              		.cfi_offset 2, -8
 5811              		.cfi_offset 3, -4
 5812 0002 00B5     		push	{lr}
 5813              		.cfi_def_cfa_offset 20
 5814              		.cfi_offset 14, -20
ARM GAS  /tmp/cc0XcXNK.s 			page 103


 5815 0004 83B0     		sub	sp, sp, #12
 5816              		.cfi_def_cfa_offset 32
 5817              		.loc 1 1083 0
 5818 0006 04AB     		add	r3, sp, #16
 5819              		.loc 1 1089 0
 5820 0008 0C48     		ldr	r0, .L247
 5821              		.loc 1 1083 0
 5822 000a 53F8042B 		ldr	r2, [r3], #4
 5823              		.loc 1 1085 0
 5824 000e 0193     		str	r3, [sp, #4]
 5825              		.loc 1 1089 0
 5826 0010 1421     		movs	r1, #20
 5827 0012 00F8011B 		strb	r1, [r0], #1
 5828              		.loc 1 1090 0
 5829 0016 FE21     		movs	r1, #254
 5830 0018 FFF7FEFF 		bl	vsnprintf
 5831              	.LVL563:
 5832              		.loc 1 1093 0
 5833 001c 0028     		cmp	r0, #0
 5834 001e 08DD     		ble	.L239
 5835              	.LVL564:
 5836              	.LBB227:
 5837              	.LBB228:
 5838              		.loc 1 97 0
 5839 0020 074B     		ldr	r3, .L247+4
 5840 0022 1B68     		ldr	r3, [r3]
 5841              	.LBE228:
 5842              	.LBE227:
 5843              		.loc 1 1094 0
 5844 0024 FD28     		cmp	r0, #253
 5845 0026 D4BF     		ite	le
 5846 0028 411C     		addle	r1, r0, #1
 5847 002a FF21     		movgt	r1, #255
 5848              	.LVL565:
 5849              	.LBB230:
 5850              	.LBB229:
 5851              		.loc 1 97 0
 5852 002c 0BB1     		cbz	r3, .L239
 5853              		.loc 1 98 0
 5854 002e 0348     		ldr	r0, .L247
 5855              	.LVL566:
 5856 0030 9847     		blx	r3
 5857              	.LVL567:
 5858              	.L239:
 5859              	.LBE229:
 5860              	.LBE230:
 5861              		.loc 1 1096 0
 5862 0032 03B0     		add	sp, sp, #12
 5863              		.cfi_def_cfa_offset 20
 5864              		@ sp needed
 5865 0034 5DF804EB 		ldr	lr, [sp], #4
 5866              		.cfi_restore 14
 5867              		.cfi_def_cfa_offset 16
 5868 0038 04B0     		add	sp, sp, #16
 5869              		.cfi_restore 3
 5870              		.cfi_restore 2
 5871              		.cfi_restore 1
ARM GAS  /tmp/cc0XcXNK.s 			page 104


 5872              		.cfi_restore 0
 5873              		.cfi_def_cfa_offset 0
 5874 003a 7047     		bx	lr
 5875              	.L248:
 5876              		.align	2
 5877              	.L247:
 5878 003c 00000000 		.word	.LANCHOR16
 5879 0040 00000000 		.word	.LANCHOR9
 5880              		.cfi_endproc
 5881              	.LFE260:
 5882              		.size	commands_printf, .-commands_printf
 5883              		.section	.text.commands_send_samples,"ax",%progbits
 5884              		.align	2
 5885              		.p2align 4,,15
 5886              		.global	commands_send_samples
 5887              		.thumb
 5888              		.thumb_func
 5889              		.type	commands_send_samples, %function
 5890              	commands_send_samples:
 5891              	.LFB261:
 5892              		.loc 1 1098 0
 5893              		.cfi_startproc
 5894              		@ args = 0, pretend = 0, frame = 0
 5895              		@ frame_needed = 1, uses_anonymous_args = 0
 5896              	.LVL568:
 5897 0000 F8B5     		push	{r3, r4, r5, r6, r7, lr}
 5898              		.cfi_def_cfa_offset 24
 5899              		.cfi_offset 3, -24
 5900              		.cfi_offset 4, -20
 5901              		.cfi_offset 5, -16
 5902              		.cfi_offset 6, -12
 5903              		.cfi_offset 7, -8
 5904              		.cfi_offset 14, -4
 5905              		.loc 1 1099 0
 5906 0002 01F10803 		add	r3, r1, #8
 5907 0006 23F00703 		bic	r3, r3, #7
 5908              		.loc 1 1098 0
 5909 000a 00AF     		add	r7, sp, #0
 5910              		.cfi_def_cfa_register 7
 5911              		.loc 1 1099 0
 5912 000c ADEB030D 		sub	sp, sp, r3
 5913              	.LBB231:
 5914              		.loc 1 1104 0
 5915 0010 0029     		cmp	r1, #0
 5916              	.LBE231:
 5917              		.loc 1 1102 0
 5918 0012 4FF01203 		mov	r3, #18
 5919 0016 8DF80030 		strb	r3, [sp]
 5920              		.loc 1 1099 0
 5921 001a 6E46     		mov	r6, sp
 5922              	.LVL569:
 5923              	.LBB232:
 5924              		.loc 1 1104 0
 5925 001c 11DD     		ble	.L253
 5926 001e 421E     		subs	r2, r0, #1
 5927 0020 6B46     		mov	r3, sp
 5928 0022 0DEB0105 		add	r5, sp, r1
ARM GAS  /tmp/cc0XcXNK.s 			page 105


 5929              	.LVL570:
 5930              	.L251:
 5931              		.loc 1 1105 0 discriminator 3
 5932 0026 12F8014F 		ldrb	r4, [r2, #1]!	@ zero_extendqisi2
 5933              	.LVL571:
 5934 002a 03F8014F 		strb	r4, [r3, #1]!
 5935              	.LVL572:
 5936              		.loc 1 1104 0 discriminator 3
 5937 002e AB42     		cmp	r3, r5
 5938 0030 F9D1     		bne	.L251
 5939 0032 0131     		adds	r1, r1, #1
 5940              	.LVL573:
 5941              	.L250:
 5942              	.LBE232:
 5943              	.LBB233:
 5944              	.LBB234:
 5945              		.loc 1 97 0
 5946 0034 044B     		ldr	r3, .L259
 5947 0036 1B68     		ldr	r3, [r3]
 5948 0038 0BB1     		cbz	r3, .L249
 5949 003a 3046     		mov	r0, r6
 5950              	.LVL574:
 5951              		.loc 1 98 0
 5952 003c 9847     		blx	r3
 5953              	.LVL575:
 5954              	.L249:
 5955              	.LBE234:
 5956              	.LBE233:
 5957              		.loc 1 1109 0
 5958 003e BD46     		mov	sp, r7
 5959              		.cfi_remember_state
 5960              		.cfi_def_cfa_register 13
 5961              		@ sp needed
 5962 0040 F8BD     		pop	{r3, r4, r5, r6, r7, pc}
 5963              	.LVL576:
 5964              	.L253:
 5965              		.cfi_restore_state
 5966              	.LBB235:
 5967              		.loc 1 1104 0
 5968 0042 0121     		movs	r1, #1
 5969              	.LVL577:
 5970 0044 F6E7     		b	.L250
 5971              	.L260:
 5972 0046 00BF     		.align	2
 5973              	.L259:
 5974 0048 00000000 		.word	.LANCHOR9
 5975              	.LBE235:
 5976              		.cfi_endproc
 5977              	.LFE261:
 5978              		.size	commands_send_samples, .-commands_send_samples
 5979              		.section	.text.commands_send_rotor_pos,"ax",%progbits
 5980              		.align	2
 5981              		.p2align 4,,15
 5982              		.global	commands_send_rotor_pos
 5983              		.thumb
 5984              		.thumb_func
 5985              		.type	commands_send_rotor_pos, %function
ARM GAS  /tmp/cc0XcXNK.s 			page 106


 5986              	commands_send_rotor_pos:
 5987              	.LFB262:
 5988              		.loc 1 1111 0
 5989              		.cfi_startproc
 5990              		@ args = 0, pretend = 0, frame = 16
 5991              		@ frame_needed = 0, uses_anonymous_args = 0
 5992              	.LVL578:
 5993 0000 10B5     		push	{r4, lr}
 5994              		.cfi_def_cfa_offset 8
 5995              		.cfi_offset 4, -8
 5996              		.cfi_offset 14, -4
 5997              		.loc 1 1116 0
 5998 0002 DFED0D7A 		flds	s15, .L267
 5999              		.loc 1 1111 0
 6000 0006 84B0     		sub	sp, sp, #16
 6001              		.cfi_def_cfa_offset 24
 6002              		.loc 1 1115 0
 6003 0008 04AC     		add	r4, sp, #16
 6004              		.loc 1 1116 0
 6005 000a 20EE270A 		fmuls	s0, s0, s15
 6006              	.LVL579:
 6007              		.loc 1 1115 0
 6008 000e 1523     		movs	r3, #21
 6009 0010 04F8083D 		strb	r3, [r4, #-8]!
 6010              		.loc 1 1116 0
 6011 0014 FDEEC07A 		ftosizs	s15, s0
 6012              		.loc 1 1115 0
 6013 0018 0123     		movs	r3, #1
 6014              		.loc 1 1116 0
 6015 001a 17EE901A 		fmrs	r1, s15	@ int
 6016 001e 2046     		mov	r0, r4
 6017 0020 01AA     		add	r2, sp, #4
 6018              		.loc 1 1115 0
 6019 0022 0193     		str	r3, [sp, #4]
 6020              		.loc 1 1116 0
 6021 0024 FFF7FEFF 		bl	buffer_append_int32
 6022              	.LVL580:
 6023              	.LBB236:
 6024              	.LBB237:
 6025              		.loc 1 97 0
 6026 0028 044B     		ldr	r3, .L267+4
 6027              	.LBE237:
 6028              	.LBE236:
 6029              		.loc 1 1118 0
 6030 002a 0199     		ldr	r1, [sp, #4]
 6031              	.LVL581:
 6032              	.LBB239:
 6033              	.LBB238:
 6034              		.loc 1 97 0
 6035 002c 1B68     		ldr	r3, [r3]
 6036 002e 0BB1     		cbz	r3, .L261
 6037              		.loc 1 98 0
 6038 0030 2046     		mov	r0, r4
 6039 0032 9847     		blx	r3
 6040              	.LVL582:
 6041              	.L261:
 6042              	.LBE238:
ARM GAS  /tmp/cc0XcXNK.s 			page 107


 6043              	.LBE239:
 6044              		.loc 1 1119 0
 6045 0034 04B0     		add	sp, sp, #16
 6046              		.cfi_def_cfa_offset 8
 6047              		@ sp needed
 6048 0036 10BD     		pop	{r4, pc}
 6049              	.LVL583:
 6050              	.L268:
 6051              		.align	2
 6052              	.L267:
 6053 0038 0050C347 		.word	1203982336
 6054 003c 00000000 		.word	.LANCHOR9
 6055              		.cfi_endproc
 6056              	.LFE262:
 6057              		.size	commands_send_rotor_pos, .-commands_send_rotor_pos
 6058              		.section	.text.commands_send_experiment_samples,"ax",%progbits
 6059              		.align	2
 6060              		.p2align 4,,15
 6061              		.global	commands_send_experiment_samples
 6062              		.thumb
 6063              		.thumb_func
 6064              		.type	commands_send_experiment_samples, %function
 6065              	commands_send_experiment_samples:
 6066              	.LFB263:
 6067              		.loc 1 1121 0
 6068              		.cfi_startproc
 6069              		@ args = 0, pretend = 0, frame = 8
 6070              		@ frame_needed = 1, uses_anonymous_args = 0
 6071              	.LVL584:
 6072              		.loc 1 1122 0
 6073 0000 8B00     		lsls	r3, r1, #2
 6074 0002 FF2B     		cmp	r3, #255
 6075 0004 34DC     		bgt	.L281
 6076              	.LVL585:
 6077              		.loc 1 1121 0
 6078 0006 2DE9F043 		push	{r4, r5, r6, r7, r8, r9, lr}
 6079              		.cfi_def_cfa_offset 28
 6080              		.cfi_offset 4, -28
 6081              		.cfi_offset 5, -24
 6082              		.cfi_offset 6, -20
 6083              		.cfi_offset 7, -16
 6084              		.cfi_offset 8, -12
 6085              		.cfi_offset 9, -8
 6086              		.cfi_offset 14, -4
 6087 000a 2DED028B 		fstmfdd	sp!, {d8}
 6088              		.cfi_def_cfa_offset 36
 6089              		.cfi_offset 80, -36
 6090              		.cfi_offset 81, -32
 6091              		.loc 1 1126 0
 6092 000e 0833     		adds	r3, r3, #8
 6093              	.LVL586:
 6094              		.loc 1 1121 0
 6095 0010 83B0     		sub	sp, sp, #12
 6096              		.cfi_def_cfa_offset 48
 6097              		.loc 1 1126 0
 6098 0012 23F00703 		bic	r3, r3, #7
 6099              	.LVL587:
ARM GAS  /tmp/cc0XcXNK.s 			page 108


 6100              		.loc 1 1121 0
 6101 0016 0E46     		mov	r6, r1
 6102 0018 00AF     		add	r7, sp, #0
 6103              		.cfi_def_cfa_register 7
 6104 001a E946     		mov	r9, sp
 6105              		.loc 1 1126 0
 6106 001c ADEB030D 		sub	sp, sp, r3
 6107              		.loc 1 1129 0
 6108 0020 0121     		movs	r1, #1
 6109              	.LVL588:
 6110 0022 1623     		movs	r3, #22
 6111              	.LBB240:
 6112              		.loc 1 1131 0
 6113 0024 002E     		cmp	r6, #0
 6114              	.LBE240:
 6115              		.loc 1 1129 0
 6116 0026 8DF80030 		strb	r3, [sp]
 6117              		.loc 1 1126 0
 6118 002a E846     		mov	r8, sp
 6119              	.LVL589:
 6120              		.loc 1 1129 0
 6121 002c 7960     		str	r1, [r7, #4]
 6122              	.LBB241:
 6123              		.loc 1 1131 0
 6124 002e 13DD     		ble	.L271
 6125              		.loc 1 1132 0
 6126 0030 9FED108A 		flds	s16, .L282
 6127 0034 0546     		mov	r5, r0
 6128              		.loc 1 1131 0
 6129 0036 0024     		movs	r4, #0
 6130              	.LVL590:
 6131              	.L272:
 6132              		.loc 1 1132 0 discriminator 3
 6133 0038 F5EC017A 		fldmias	r5!, {s15}
 6134 003c 67EE887A 		fmuls	s15, s15, s16
 6135              		.loc 1 1131 0 discriminator 3
 6136 0040 0134     		adds	r4, r4, #1
 6137              	.LVL591:
 6138              		.loc 1 1132 0 discriminator 3
 6139 0042 FDEEE77A 		ftosizs	s15, s15
 6140 0046 4046     		mov	r0, r8
 6141 0048 17EE901A 		fmrs	r1, s15	@ int
 6142 004c 3A1D     		adds	r2, r7, #4
 6143 004e FFF7FEFF 		bl	buffer_append_int32
 6144              	.LVL592:
 6145              		.loc 1 1131 0 discriminator 3
 6146 0052 B442     		cmp	r4, r6
 6147 0054 F0D1     		bne	.L272
 6148 0056 7968     		ldr	r1, [r7, #4]
 6149              	.LVL593:
 6150              	.L271:
 6151              	.LBE241:
 6152              	.LBB242:
 6153              	.LBB243:
 6154              		.loc 1 97 0
 6155 0058 074B     		ldr	r3, .L282+4
 6156 005a 1B68     		ldr	r3, [r3]
ARM GAS  /tmp/cc0XcXNK.s 			page 109


 6157 005c 0BB1     		cbz	r3, .L273
 6158              		.loc 1 98 0
 6159 005e 4046     		mov	r0, r8
 6160 0060 9847     		blx	r3
 6161              	.LVL594:
 6162              	.L273:
 6163              	.LBE243:
 6164              	.LBE242:
 6165              		.loc 1 1136 0
 6166 0062 0C37     		adds	r7, r7, #12
 6167              		.cfi_def_cfa_offset 36
 6168 0064 CD46     		mov	sp, r9
 6169 0066 BD46     		mov	sp, r7
 6170              		.cfi_def_cfa_register 13
 6171              		@ sp needed
 6172 0068 BDEC028B 		fldmfdd	sp!, {d8}
 6173              		.cfi_restore 80
 6174              		.cfi_restore 81
 6175              		.cfi_def_cfa_offset 28
 6176 006c BDE8F083 		pop	{r4, r5, r6, r7, r8, r9, pc}
 6177              	.LVL595:
 6178              	.L281:
 6179              		.cfi_def_cfa_offset 0
 6180              		.cfi_restore 4
 6181              		.cfi_restore 5
 6182              		.cfi_restore 6
 6183              		.cfi_restore 7
 6184              		.cfi_restore 8
 6185              		.cfi_restore 9
 6186              		.cfi_restore 14
 6187 0070 7047     		bx	lr
 6188              	.L283:
 6189 0072 00BF     		.align	2
 6190              	.L282:
 6191 0074 00401C46 		.word	1176256512
 6192 0078 00000000 		.word	.LANCHOR9
 6193              		.cfi_endproc
 6194              	.LFE263:
 6195              		.size	commands_send_experiment_samples, .-commands_send_experiment_samples
 6196              		.section	.text.commands_get_disp_pos_mode,"ax",%progbits
 6197              		.align	2
 6198              		.p2align 4,,15
 6199              		.global	commands_get_disp_pos_mode
 6200              		.thumb
 6201              		.thumb_func
 6202              		.type	commands_get_disp_pos_mode, %function
 6203              	commands_get_disp_pos_mode:
 6204              	.LFB264:
 6205              		.loc 1 1138 0
 6206              		.cfi_startproc
 6207              		@ args = 0, pretend = 0, frame = 0
 6208              		@ frame_needed = 0, uses_anonymous_args = 0
 6209              		@ link register save eliminated.
 6210              		.loc 1 1139 0
 6211 0000 014B     		ldr	r3, .L285
 6212              		.loc 1 1140 0
 6213 0002 1878     		ldrb	r0, [r3]	@ zero_extendqisi2
ARM GAS  /tmp/cc0XcXNK.s 			page 110


 6214 0004 7047     		bx	lr
 6215              	.L286:
 6216 0006 00BF     		.align	2
 6217              	.L285:
 6218 0008 00000000 		.word	.LANCHOR13
 6219              		.cfi_endproc
 6220              	.LFE264:
 6221              		.size	commands_get_disp_pos_mode, .-commands_get_disp_pos_mode
 6222              		.section	.text.commands_set_app_data_handler,"ax",%progbits
 6223              		.align	2
 6224              		.p2align 4,,15
 6225              		.global	commands_set_app_data_handler
 6226              		.thumb
 6227              		.thumb_func
 6228              		.type	commands_set_app_data_handler, %function
 6229              	commands_set_app_data_handler:
 6230              	.LFB265:
 6231              		.loc 1 1142 0
 6232              		.cfi_startproc
 6233              		@ args = 0, pretend = 0, frame = 0
 6234              		@ frame_needed = 0, uses_anonymous_args = 0
 6235              		@ link register save eliminated.
 6236              	.LVL596:
 6237              		.loc 1 1143 0
 6238 0000 014B     		ldr	r3, .L288
 6239 0002 1860     		str	r0, [r3]
 6240 0004 7047     		bx	lr
 6241              	.L289:
 6242 0006 00BF     		.align	2
 6243              	.L288:
 6244 0008 00000000 		.word	.LANCHOR15
 6245              		.cfi_endproc
 6246              	.LFE265:
 6247              		.size	commands_set_app_data_handler, .-commands_set_app_data_handler
 6248              		.section	.text.commands_send_app_data,"ax",%progbits
 6249              		.align	2
 6250              		.p2align 4,,15
 6251              		.global	commands_send_app_data
 6252              		.thumb
 6253              		.thumb_func
 6254              		.type	commands_send_app_data, %function
 6255              	commands_send_app_data:
 6256              	.LFB266:
 6257              		.loc 1 1146 0
 6258              		.cfi_startproc
 6259              		@ args = 0, pretend = 0, frame = 0
 6260              		@ frame_needed = 0, uses_anonymous_args = 0
 6261              	.LVL597:
 6262 0000 70B5     		push	{r4, r5, r6, lr}
 6263              		.cfi_def_cfa_offset 16
 6264              		.cfi_offset 4, -16
 6265              		.cfi_offset 5, -12
 6266              		.cfi_offset 6, -8
 6267              		.cfi_offset 14, -4
 6268              		.loc 1 1149 0
 6269 0002 0A4D     		ldr	r5, .L293
 6270              		.loc 1 1146 0
ARM GAS  /tmp/cc0XcXNK.s 			page 111


 6271 0004 0246     		mov	r2, r0
 6272              		.loc 1 1149 0
 6273 0006 2846     		mov	r0, r5
 6274              	.LVL598:
 6275              		.loc 1 1146 0
 6276 0008 0C46     		mov	r4, r1
 6277              		.loc 1 1149 0
 6278 000a 2323     		movs	r3, #35
 6279              		.loc 1 1150 0
 6280 000c 1146     		mov	r1, r2
 6281              	.LVL599:
 6282              		.loc 1 1149 0
 6283 000e 00F8013B 		strb	r3, [r0], #1
 6284              		.loc 1 1150 0
 6285 0012 2246     		mov	r2, r4
 6286              	.LVL600:
 6287 0014 FFF7FEFF 		bl	memcpy
 6288              	.LVL601:
 6289              	.LBB244:
 6290              	.LBB245:
 6291              		.loc 1 97 0
 6292 0018 054B     		ldr	r3, .L293+4
 6293 001a 1B68     		ldr	r3, [r3]
 6294              	.LBE245:
 6295              	.LBE244:
 6296              		.loc 1 1151 0
 6297 001c 611C     		adds	r1, r4, #1
 6298              	.LVL602:
 6299              	.LBB248:
 6300              	.LBB246:
 6301              		.loc 1 97 0
 6302 001e 1BB1     		cbz	r3, .L290
 6303              		.loc 1 98 0
 6304 0020 2846     		mov	r0, r5
 6305              	.LBE246:
 6306              	.LBE248:
 6307              		.loc 1 1154 0
 6308 0022 BDE87040 		pop	{r4, r5, r6, lr}
 6309              		.cfi_remember_state
 6310              		.cfi_restore 14
 6311              		.cfi_restore 6
 6312              		.cfi_restore 5
 6313              		.cfi_restore 4
 6314              		.cfi_def_cfa_offset 0
 6315              	.LVL603:
 6316              	.LBB249:
 6317              	.LBB247:
 6318              		.loc 1 98 0
 6319 0026 1847     		bx	r3	@ indirect register sibling call
 6320              	.LVL604:
 6321              	.L290:
 6322              		.cfi_restore_state
 6323 0028 70BD     		pop	{r4, r5, r6, pc}
 6324              	.LVL605:
 6325              	.L294:
 6326 002a 00BF     		.align	2
 6327              	.L293:
ARM GAS  /tmp/cc0XcXNK.s 			page 112


 6328 002c 00000000 		.word	.LANCHOR8
 6329 0030 00000000 		.word	.LANCHOR9
 6330              	.LBE247:
 6331              	.LBE249:
 6332              		.cfi_endproc
 6333              	.LFE266:
 6334              		.size	commands_send_app_data, .-commands_send_app_data
 6335              		.section	.bss.send_func,"aw",%nobits
 6336              		.align	2
 6337              		.set	.LANCHOR9,. + 0
 6338              		.type	send_func, %object
 6339              		.size	send_func, 4
 6340              	send_func:
 6341 0000 00000000 		.space	4
 6342              		.section	.bss.detect_min_rpm,"aw",%nobits
 6343              		.align	2
 6344              		.set	.LANCHOR2,. + 0
 6345              		.type	detect_min_rpm, %object
 6346              		.size	detect_min_rpm, 4
 6347              	detect_min_rpm:
 6348 0000 00000000 		.space	4
 6349              		.section	.bss.appdata_func,"aw",%nobits
 6350              		.align	2
 6351              		.set	.LANCHOR15,. + 0
 6352              		.type	appdata_func, %object
 6353              		.size	appdata_func, 4
 6354              	appdata_func:
 6355 0000 00000000 		.space	4
 6356              		.section	.bss.detect_hall_table,"aw",%nobits
 6357              		.align	2
 6358              		.set	.LANCHOR6,. + 0
 6359              		.type	detect_hall_table, %object
 6360              		.size	detect_hall_table, 8
 6361              	detect_hall_table:
 6362 0000 00000000 		.space	8
 6362      00000000 
 6363              		.section	.bss.remote_Mode,"aw",%nobits
 6364              		.set	.LANCHOR11,. + 0
 6365              		.type	remote_Mode, %object
 6366              		.size	remote_Mode, 1
 6367              	remote_Mode:
 6368 0000 00       		.space	1
 6369              		.section	.bss.mcconf.11352,"aw",%nobits
 6370              		.align	2
 6371              		.set	.LANCHOR12,. + 0
 6372              		.type	mcconf.11352, %object
 6373              		.size	mcconf.11352, 312
 6374              	mcconf.11352:
 6375 0000 00000000 		.space	312
 6375      00000000 
 6375      00000000 
 6375      00000000 
 6375      00000000 
 6376              		.section	.bss.mcconf_old.11353,"aw",%nobits
 6377              		.align	2
 6378              		.set	.LANCHOR14,. + 0
 6379              		.type	mcconf_old.11353, %object
ARM GAS  /tmp/cc0XcXNK.s 			page 113


 6380              		.size	mcconf_old.11353, 312
 6381              	mcconf_old.11353:
 6382 0000 00000000 		.space	312
 6382      00000000 
 6382      00000000 
 6382      00000000 
 6382      00000000 
 6383              		.section	.bss.detect_hall_res,"aw",%nobits
 6384              		.align	2
 6385              		.set	.LANCHOR7,. + 0
 6386              		.type	detect_hall_res, %object
 6387              		.size	detect_hall_res, 4
 6388              	detect_hall_res:
 6389 0000 00000000 		.space	4
 6390              		.section	.bss.detect_thread_wa,"aw",%nobits
 6391              		.align	3
 6392              		.set	.LANCHOR10,. + 0
 6393              		.type	detect_thread_wa, %object
 6394              		.size	detect_thread_wa, 2456
 6395              	detect_thread_wa:
 6396 0000 00000000 		.space	2456
 6396      00000000 
 6396      00000000 
 6396      00000000 
 6396      00000000 
 6397              		.section	.bss.send_buffer,"aw",%nobits
 6398              		.align	2
 6399              		.set	.LANCHOR8,. + 0
 6400              		.type	send_buffer, %object
 6401              		.size	send_buffer, 1024
 6402              	send_buffer:
 6403 0000 00000000 		.space	1024
 6403      00000000 
 6403      00000000 
 6403      00000000 
 6403      00000000 
 6404              		.section	.rodata.str1.4,"aMS",%progbits,1
 6405              		.align	2
 6406              	.LC0:
 6407 0000 44657465 		.ascii	"Detect\000"
 6407      637400
 6408              		.section	.bss.detect_tp,"aw",%nobits
 6409              		.align	2
 6410              		.set	.LANCHOR0,. + 0
 6411              		.type	detect_tp, %object
 6412              		.size	detect_tp, 4
 6413              	detect_tp:
 6414 0000 00000000 		.space	4
 6415              		.section	.bss.detect_low_duty,"aw",%nobits
 6416              		.align	2
 6417              		.set	.LANCHOR3,. + 0
 6418              		.type	detect_low_duty, %object
 6419              		.size	detect_low_duty, 4
 6420              	detect_low_duty:
 6421 0000 00000000 		.space	4
 6422              		.section	.bss.print_buffer.11457,"aw",%nobits
 6423              		.align	2
ARM GAS  /tmp/cc0XcXNK.s 			page 114


 6424              		.set	.LANCHOR16,. + 0
 6425              		.type	print_buffer.11457, %object
 6426              		.size	print_buffer.11457, 255
 6427              	print_buffer.11457:
 6428 0000 00000000 		.space	255
 6428      00000000 
 6428      00000000 
 6428      00000000 
 6428      00000000 
 6429              		.section	.bss.detect_current,"aw",%nobits
 6430              		.align	2
 6431              		.set	.LANCHOR1,. + 0
 6432              		.type	detect_current, %object
 6433              		.size	detect_current, 4
 6434              	detect_current:
 6435 0000 00000000 		.space	4
 6436              		.section	.bss.detect_coupling_k,"aw",%nobits
 6437              		.align	2
 6438              		.set	.LANCHOR5,. + 0
 6439              		.type	detect_coupling_k, %object
 6440              		.size	detect_coupling_k, 4
 6441              	detect_coupling_k:
 6442 0000 00000000 		.space	4
 6443              		.section	.bss.detect_cycle_int_limit,"aw",%nobits
 6444              		.align	2
 6445              		.set	.LANCHOR4,. + 0
 6446              		.type	detect_cycle_int_limit, %object
 6447              		.size	detect_cycle_int_limit, 4
 6448              	detect_cycle_int_limit:
 6449 0000 00000000 		.space	4
 6450              		.section	.bss.display_position_mode,"aw",%nobits
 6451              		.set	.LANCHOR13,. + 0
 6452              		.type	display_position_mode, %object
 6453              		.size	display_position_mode, 1
 6454              	display_position_mode:
 6455 0000 00       		.space	1
 6456              		.text
 6457              	.Letext0:
 6458              		.file 5 "/usr/arm-none-eabi/include/machine/_default_types.h"
 6459              		.file 6 "/usr/arm-none-eabi/include/sys/_stdint.h"
 6460              		.file 7 "/usr/lib/gcc/arm-none-eabi/4.9.3/include/stddef.h"
 6461              		.file 8 "ChibiOS_3.0.2/os/rt/ports/ARMCMx/compilers/GCC/chtypes.h"
 6462              		.file 9 "ChibiOS_3.0.2/os/rt/include/chsystypes.h"
 6463              		.file 10 "ChibiOS_3.0.2/os/rt/include/chschd.h"
 6464              		.file 11 "ChibiOS_3.0.2/os/rt/ports/ARMCMx/chcore.h"
 6465              		.file 12 "ChibiOS_3.0.2/os/rt/ports/ARMCMx/chcore_v7m.h"
 6466              		.file 13 "ChibiOS_3.0.2/os/rt/include/chtm.h"
 6467              		.file 14 "ChibiOS_3.0.2/os/rt/include/chsem.h"
 6468              		.file 15 "ChibiOS_3.0.2/os/rt/include/chmtx.h"
 6469              		.file 16 "ChibiOS_3.0.2/os/rt/include/chthreads.h"
 6470              		.file 17 "datatypes.h"
 6471              		.file 18 "ChibiOS_3.0.2/ext/stdperiph_stm32f4/inc/stm32f4xx_flash.h"
 6472              		.file 19 "/usr/lib/gcc/arm-none-eabi/4.9.3/include/stdarg.h"
 6473              		.file 20 "<built-in>"
 6474              		.file 21 "ChibiOS_3.0.2/os/ext/CMSIS/include/core_cm4.h"
 6475              		.file 22 "mc_interface.h"
 6476              		.file 23 "ChibiOS_3.0.2/os/rt/include/chevents.h"
ARM GAS  /tmp/cc0XcXNK.s 			page 115


 6477              		.file 24 "conf_general.h"
 6478              		.file 25 "buffer.h"
 6479              		.file 26 "mcpwm_foc.h"
 6480              		.file 27 "comm_can.h"
 6481              		.file 28 "applications/app.h"
 6482              		.file 29 "timeout.h"
 6483              		.file 30 "mcpwm.h"
 6484              		.file 31 "servo_dec.h"
 6485              		.file 32 "encoder.h"
 6486              		.file 33 "terminal.h"
 6487              		.file 34 "/usr/arm-none-eabi/include/math.h"
 6488              		.file 35 "flash_helper.h"
 6489              		.file 36 "/usr/arm-none-eabi/include/string.h"
 6490              		.file 37 "/usr/arm-none-eabi/include/stdio.h"
 6491              		.section	.debug_info,"",%progbits
 6492              	.Ldebug_info0:
 6493 0000 53530000 		.4byte	0x5353
 6494 0004 0400     		.2byte	0x4
 6495 0006 00000000 		.4byte	.Ldebug_abbrev0
 6496 000a 04       		.byte	0x4
 6497 000b 01       		.uleb128 0x1
 6498 000c 0A240000 		.4byte	.LASF575
 6499 0010 01       		.byte	0x1
 6500 0011 C10F0000 		.4byte	.LASF576
 6501 0015 FC1C0000 		.4byte	.LASF577
 6502 0019 18040000 		.4byte	.Ldebug_ranges0+0x418
 6503 001d 00000000 		.4byte	0
 6504 0021 00000000 		.4byte	.Ldebug_line0
 6505 0025 02       		.uleb128 0x2
 6506 0026 04       		.byte	0x4
 6507 0027 04       		.byte	0x4
 6508 0028 C5070000 		.4byte	.LASF0
 6509 002c 03       		.uleb128 0x3
 6510 002d 04       		.byte	0x4
 6511 002e 05       		.byte	0x5
 6512 002f 696E7400 		.ascii	"int\000"
 6513 0033 04       		.uleb128 0x4
 6514 0034 B7230000 		.4byte	.LASF2
 6515 0038 05       		.byte	0x5
 6516 0039 1B       		.byte	0x1b
 6517 003a 3E000000 		.4byte	0x3e
 6518 003e 02       		.uleb128 0x2
 6519 003f 01       		.byte	0x1
 6520 0040 06       		.byte	0x6
 6521 0041 4A120000 		.4byte	.LASF1
 6522 0045 04       		.uleb128 0x4
 6523 0046 23010000 		.4byte	.LASF3
 6524 004a 05       		.byte	0x5
 6525 004b 1D       		.byte	0x1d
 6526 004c 50000000 		.4byte	0x50
 6527 0050 02       		.uleb128 0x2
 6528 0051 01       		.byte	0x1
 6529 0052 08       		.byte	0x8
 6530 0053 8B070000 		.4byte	.LASF4
 6531 0057 04       		.uleb128 0x4
 6532 0058 A7060000 		.4byte	.LASF5
 6533 005c 05       		.byte	0x5
ARM GAS  /tmp/cc0XcXNK.s 			page 116


 6534 005d 29       		.byte	0x29
 6535 005e 62000000 		.4byte	0x62
 6536 0062 02       		.uleb128 0x2
 6537 0063 02       		.byte	0x2
 6538 0064 05       		.byte	0x5
 6539 0065 CD250000 		.4byte	.LASF6
 6540 0069 04       		.uleb128 0x4
 6541 006a B1060000 		.4byte	.LASF7
 6542 006e 05       		.byte	0x5
 6543 006f 2B       		.byte	0x2b
 6544 0070 74000000 		.4byte	0x74
 6545 0074 02       		.uleb128 0x2
 6546 0075 02       		.byte	0x2
 6547 0076 07       		.byte	0x7
 6548 0077 37120000 		.4byte	.LASF8
 6549 007b 04       		.uleb128 0x4
 6550 007c BB1C0000 		.4byte	.LASF9
 6551 0080 05       		.byte	0x5
 6552 0081 3F       		.byte	0x3f
 6553 0082 86000000 		.4byte	0x86
 6554 0086 02       		.uleb128 0x2
 6555 0087 04       		.byte	0x4
 6556 0088 05       		.byte	0x5
 6557 0089 0E150000 		.4byte	.LASF10
 6558 008d 04       		.uleb128 0x4
 6559 008e C51C0000 		.4byte	.LASF11
 6560 0092 05       		.byte	0x5
 6561 0093 41       		.byte	0x41
 6562 0094 98000000 		.4byte	0x98
 6563 0098 02       		.uleb128 0x2
 6564 0099 04       		.byte	0x4
 6565 009a 07       		.byte	0x7
 6566 009b E0160000 		.4byte	.LASF12
 6567 009f 02       		.uleb128 0x2
 6568 00a0 08       		.byte	0x8
 6569 00a1 05       		.byte	0x5
 6570 00a2 B7210000 		.4byte	.LASF13
 6571 00a6 04       		.uleb128 0x4
 6572 00a7 F90E0000 		.4byte	.LASF14
 6573 00ab 05       		.byte	0x5
 6574 00ac 5B       		.byte	0x5b
 6575 00ad B1000000 		.4byte	0xb1
 6576 00b1 02       		.uleb128 0x2
 6577 00b2 08       		.byte	0x8
 6578 00b3 07       		.byte	0x7
 6579 00b4 B11E0000 		.4byte	.LASF15
 6580 00b8 02       		.uleb128 0x2
 6581 00b9 04       		.byte	0x4
 6582 00ba 07       		.byte	0x7
 6583 00bb 8D250000 		.4byte	.LASF16
 6584 00bf 04       		.uleb128 0x4
 6585 00c0 89110000 		.4byte	.LASF17
 6586 00c4 06       		.byte	0x6
 6587 00c5 13       		.byte	0x13
 6588 00c6 33000000 		.4byte	0x33
 6589 00ca 04       		.uleb128 0x4
 6590 00cb A80B0000 		.4byte	.LASF18
ARM GAS  /tmp/cc0XcXNK.s 			page 117


 6591 00cf 06       		.byte	0x6
 6592 00d0 14       		.byte	0x14
 6593 00d1 45000000 		.4byte	0x45
 6594 00d5 04       		.uleb128 0x4
 6595 00d6 2F120000 		.4byte	.LASF19
 6596 00da 06       		.byte	0x6
 6597 00db 19       		.byte	0x19
 6598 00dc 57000000 		.4byte	0x57
 6599 00e0 04       		.uleb128 0x4
 6600 00e1 D4010000 		.4byte	.LASF20
 6601 00e5 06       		.byte	0x6
 6602 00e6 1A       		.byte	0x1a
 6603 00e7 69000000 		.4byte	0x69
 6604 00eb 04       		.uleb128 0x4
 6605 00ec AC030000 		.4byte	.LASF21
 6606 00f0 06       		.byte	0x6
 6607 00f1 1F       		.byte	0x1f
 6608 00f2 7B000000 		.4byte	0x7b
 6609 00f6 04       		.uleb128 0x4
 6610 00f7 15160000 		.4byte	.LASF22
 6611 00fb 06       		.byte	0x6
 6612 00fc 20       		.byte	0x20
 6613 00fd 8D000000 		.4byte	0x8d
 6614 0101 04       		.uleb128 0x4
 6615 0102 F9080000 		.4byte	.LASF23
 6616 0106 06       		.byte	0x6
 6617 0107 26       		.byte	0x26
 6618 0108 A6000000 		.4byte	0xa6
 6619 010c 04       		.uleb128 0x4
 6620 010d 780B0000 		.4byte	.LASF24
 6621 0111 07       		.byte	0x7
 6622 0112 D4       		.byte	0xd4
 6623 0113 B8000000 		.4byte	0xb8
 6624 0117 05       		.uleb128 0x5
 6625 0118 EB000000 		.4byte	0xeb
 6626 011c 04       		.uleb128 0x4
 6627 011d B10A0000 		.4byte	.LASF25
 6628 0121 08       		.byte	0x8
 6629 0122 45       		.byte	0x45
 6630 0123 F6000000 		.4byte	0xf6
 6631 0127 04       		.uleb128 0x4
 6632 0128 50100000 		.4byte	.LASF26
 6633 012c 08       		.byte	0x8
 6634 012d 48       		.byte	0x48
 6635 012e CA000000 		.4byte	0xca
 6636 0132 04       		.uleb128 0x4
 6637 0133 B91F0000 		.4byte	.LASF27
 6638 0137 08       		.byte	0x8
 6639 0138 49       		.byte	0x49
 6640 0139 CA000000 		.4byte	0xca
 6641 013d 04       		.uleb128 0x4
 6642 013e B90F0000 		.4byte	.LASF28
 6643 0142 08       		.byte	0x8
 6644 0143 4A       		.byte	0x4a
 6645 0144 CA000000 		.4byte	0xca
 6646 0148 04       		.uleb128 0x4
 6647 0149 E8110000 		.4byte	.LASF29
ARM GAS  /tmp/cc0XcXNK.s 			page 118


 6648 014d 08       		.byte	0x8
 6649 014e 4B       		.byte	0x4b
 6650 014f CA000000 		.4byte	0xca
 6651 0153 04       		.uleb128 0x4
 6652 0154 E9050000 		.4byte	.LASF30
 6653 0158 08       		.byte	0x8
 6654 0159 4C       		.byte	0x4c
 6655 015a F6000000 		.4byte	0xf6
 6656 015e 04       		.uleb128 0x4
 6657 015f 85000000 		.4byte	.LASF31
 6658 0163 08       		.byte	0x8
 6659 0164 4D       		.byte	0x4d
 6660 0165 EB000000 		.4byte	0xeb
 6661 0169 04       		.uleb128 0x4
 6662 016a 96160000 		.4byte	.LASF32
 6663 016e 08       		.byte	0x8
 6664 016f 4F       		.byte	0x4f
 6665 0170 F6000000 		.4byte	0xf6
 6666 0174 04       		.uleb128 0x4
 6667 0175 52190000 		.4byte	.LASF33
 6668 0179 08       		.byte	0x8
 6669 017a 51       		.byte	0x51
 6670 017b EB000000 		.4byte	0xeb
 6671 017f 04       		.uleb128 0x4
 6672 0180 B4030000 		.4byte	.LASF34
 6673 0184 09       		.byte	0x9
 6674 0185 33       		.byte	0x33
 6675 0186 F6000000 		.4byte	0xf6
 6676 018a 04       		.uleb128 0x4
 6677 018b 8C030000 		.4byte	.LASF35
 6678 018f 09       		.byte	0x9
 6679 0190 3F       		.byte	0x3f
 6680 0191 95010000 		.4byte	0x195
 6681 0195 06       		.uleb128 0x6
 6682 0196 BB070000 		.4byte	.LASF57
 6683 019a 48       		.byte	0x48
 6684 019b 0A       		.byte	0xa
 6685 019c C2       		.byte	0xc2
 6686 019d 9A020000 		.4byte	0x29a
 6687 01a1 07       		.uleb128 0x7
 6688 01a2 8C0F0000 		.4byte	.LASF36
 6689 01a6 0A       		.byte	0xa
 6690 01a7 C3       		.byte	0xc3
 6691 01a8 A5020000 		.4byte	0x2a5
 6692 01ac 00       		.byte	0
 6693 01ad 07       		.uleb128 0x7
 6694 01ae DD0B0000 		.4byte	.LASF37
 6695 01b2 0A       		.byte	0xa
 6696 01b3 C5       		.byte	0xc5
 6697 01b4 A5020000 		.4byte	0x2a5
 6698 01b8 04       		.byte	0x4
 6699 01b9 07       		.uleb128 0x7
 6700 01ba CF0E0000 		.4byte	.LASF38
 6701 01be 0A       		.byte	0xa
 6702 01bf C7       		.byte	0xc7
 6703 01c0 53010000 		.4byte	0x153
 6704 01c4 08       		.byte	0x8
ARM GAS  /tmp/cc0XcXNK.s 			page 119


 6705 01c5 07       		.uleb128 0x7
 6706 01c6 49080000 		.4byte	.LASF39
 6707 01ca 0A       		.byte	0xa
 6708 01cb C8       		.byte	0xc8
 6709 01cc D5040000 		.4byte	0x4d5
 6710 01d0 0C       		.byte	0xc
 6711 01d1 07       		.uleb128 0x7
 6712 01d2 87020000 		.4byte	.LASF40
 6713 01d6 0A       		.byte	0xa
 6714 01d7 CA       		.byte	0xca
 6715 01d8 A5020000 		.4byte	0x2a5
 6716 01dc 10       		.byte	0x10
 6717 01dd 07       		.uleb128 0x7
 6718 01de 2F230000 		.4byte	.LASF41
 6719 01e2 0A       		.byte	0xa
 6720 01e3 CB       		.byte	0xcb
 6721 01e4 A5020000 		.4byte	0x2a5
 6722 01e8 14       		.byte	0x14
 6723 01e9 07       		.uleb128 0x7
 6724 01ea EE1F0000 		.4byte	.LASF42
 6725 01ee 0A       		.byte	0xa
 6726 01ef D2       		.byte	0xd2
 6727 01f0 1A070000 		.4byte	0x71a
 6728 01f4 18       		.byte	0x18
 6729 01f5 07       		.uleb128 0x7
 6730 01f6 11260000 		.4byte	.LASF43
 6731 01fa 0A       		.byte	0xa
 6732 01fb DD       		.byte	0xdd
 6733 01fc 32010000 		.4byte	0x132
 6734 0200 1C       		.byte	0x1c
 6735 0201 07       		.uleb128 0x7
 6736 0202 4A1F0000 		.4byte	.LASF44
 6737 0206 0A       		.byte	0xa
 6738 0207 E1       		.byte	0xe1
 6739 0208 27010000 		.4byte	0x127
 6740 020c 1D       		.byte	0x1d
 6741 020d 07       		.uleb128 0x7
 6742 020e CD140000 		.4byte	.LASF45
 6743 0212 0A       		.byte	0xa
 6744 0213 E6       		.byte	0xe6
 6745 0214 3D010000 		.4byte	0x13d
 6746 0218 1E       		.byte	0x1e
 6747 0219 07       		.uleb128 0x7
 6748 021a 66120000 		.4byte	.LASF46
 6749 021e 0A       		.byte	0xa
 6750 021f EC       		.byte	0xec
 6751 0220 48010000 		.4byte	0x148
 6752 0224 1F       		.byte	0x1f
 6753 0225 07       		.uleb128 0x7
 6754 0226 87120000 		.4byte	.LASF47
 6755 022a 0A       		.byte	0xa
 6756 022b F3       		.byte	0xf3
 6757 022c 2C070000 		.4byte	0x72c
 6758 0230 20       		.byte	0x20
 6759 0231 08       		.uleb128 0x8
 6760 0232 705F7500 		.ascii	"p_u\000"
 6761 0236 0A       		.byte	0xa
ARM GAS  /tmp/cc0XcXNK.s 			page 120


 6762 0237 3101     		.2byte	0x131
 6763 0239 55060000 		.4byte	0x655
 6764 023d 24       		.byte	0x24
 6765 023e 09       		.uleb128 0x9
 6766 023f B2040000 		.4byte	.LASF48
 6767 0243 0A       		.byte	0xa
 6768 0244 3601     		.2byte	0x136
 6769 0246 AB020000 		.4byte	0x2ab
 6770 024a 28       		.byte	0x28
 6771 024b 09       		.uleb128 0x9
 6772 024c 3A130000 		.4byte	.LASF49
 6773 0250 0A       		.byte	0xa
 6774 0251 3C01     		.2byte	0x13c
 6775 0253 CF020000 		.4byte	0x2cf
 6776 0257 2C       		.byte	0x2c
 6777 0258 09       		.uleb128 0x9
 6778 0259 D9060000 		.4byte	.LASF50
 6779 025d 0A       		.byte	0xa
 6780 025e 4001     		.2byte	0x140
 6781 0260 5E010000 		.4byte	0x15e
 6782 0264 34       		.byte	0x34
 6783 0265 09       		.uleb128 0x9
 6784 0266 891D0000 		.4byte	.LASF51
 6785 026a 0A       		.byte	0xa
 6786 026b 4601     		.2byte	0x146
 6787 026d 69010000 		.4byte	0x169
 6788 0271 38       		.byte	0x38
 6789 0272 09       		.uleb128 0x9
 6790 0273 9B1F0000 		.4byte	.LASF52
 6791 0277 0A       		.byte	0xa
 6792 0278 4D01     		.2byte	0x14d
 6793 027a 14070000 		.4byte	0x714
 6794 027e 3C       		.byte	0x3c
 6795 027f 09       		.uleb128 0x9
 6796 0280 821B0000 		.4byte	.LASF53
 6797 0284 0A       		.byte	0xa
 6798 0285 5101     		.2byte	0x151
 6799 0287 53010000 		.4byte	0x153
 6800 028b 40       		.byte	0x40
 6801 028c 09       		.uleb128 0x9
 6802 028d CC0F0000 		.4byte	.LASF54
 6803 0291 0A       		.byte	0xa
 6804 0292 5801     		.2byte	0x158
 6805 0294 82030000 		.4byte	0x382
 6806 0298 44       		.byte	0x44
 6807 0299 00       		.byte	0
 6808 029a 04       		.uleb128 0x4
 6809 029b 62230000 		.4byte	.LASF55
 6810 029f 09       		.byte	0x9
 6811 02a0 44       		.byte	0x44
 6812 02a1 A5020000 		.4byte	0x2a5
 6813 02a5 0A       		.uleb128 0xa
 6814 02a6 04       		.byte	0x4
 6815 02a7 8A010000 		.4byte	0x18a
 6816 02ab 04       		.uleb128 0x4
 6817 02ac E8040000 		.4byte	.LASF56
 6818 02b0 09       		.byte	0x9
ARM GAS  /tmp/cc0XcXNK.s 			page 121


 6819 02b1 49       		.byte	0x49
 6820 02b2 B6020000 		.4byte	0x2b6
 6821 02b6 06       		.uleb128 0x6
 6822 02b7 19260000 		.4byte	.LASF58
 6823 02bb 04       		.byte	0x4
 6824 02bc 0A       		.byte	0xa
 6825 02bd B0       		.byte	0xb0
 6826 02be CF020000 		.4byte	0x2cf
 6827 02c2 07       		.uleb128 0x7
 6828 02c3 8C0F0000 		.4byte	.LASF36
 6829 02c7 0A       		.byte	0xa
 6830 02c8 B1       		.byte	0xb1
 6831 02c9 A5020000 		.4byte	0x2a5
 6832 02cd 00       		.byte	0
 6833 02ce 00       		.byte	0
 6834 02cf 04       		.uleb128 0x4
 6835 02d0 79140000 		.4byte	.LASF59
 6836 02d4 09       		.byte	0x9
 6837 02d5 50       		.byte	0x50
 6838 02d6 DA020000 		.4byte	0x2da
 6839 02da 06       		.uleb128 0x6
 6840 02db 49020000 		.4byte	.LASF60
 6841 02df 08       		.byte	0x8
 6842 02e0 0A       		.byte	0xa
 6843 02e1 B7       		.byte	0xb7
 6844 02e2 FF020000 		.4byte	0x2ff
 6845 02e6 07       		.uleb128 0x7
 6846 02e7 8C0F0000 		.4byte	.LASF36
 6847 02eb 0A       		.byte	0xa
 6848 02ec B8       		.byte	0xb8
 6849 02ed A5020000 		.4byte	0x2a5
 6850 02f1 00       		.byte	0
 6851 02f2 07       		.uleb128 0x7
 6852 02f3 DD0B0000 		.4byte	.LASF37
 6853 02f7 0A       		.byte	0xa
 6854 02f8 B9       		.byte	0xb9
 6855 02f9 A5020000 		.4byte	0x2a5
 6856 02fd 04       		.byte	0x4
 6857 02fe 00       		.byte	0
 6858 02ff 04       		.uleb128 0x4
 6859 0300 AE070000 		.4byte	.LASF61
 6860 0304 09       		.byte	0x9
 6861 0305 57       		.byte	0x57
 6862 0306 0A030000 		.4byte	0x30a
 6863 030a 0B       		.uleb128 0xb
 6864 030b 971C0000 		.4byte	.LASF62
 6865 030f 1C       		.byte	0x1c
 6866 0310 0A       		.byte	0xa
 6867 0311 9001     		.2byte	0x190
 6868 0313 66030000 		.4byte	0x366
 6869 0317 09       		.uleb128 0x9
 6870 0318 EB170000 		.4byte	.LASF63
 6871 031c 0A       		.byte	0xa
 6872 031d 9101     		.2byte	0x191
 6873 031f CF020000 		.4byte	0x2cf
 6874 0323 00       		.byte	0
 6875 0324 09       		.uleb128 0x9
ARM GAS  /tmp/cc0XcXNK.s 			page 122


 6876 0325 651E0000 		.4byte	.LASF64
 6877 0329 0A       		.byte	0xa
 6878 032a 9201     		.2byte	0x192
 6879 032c 53010000 		.4byte	0x153
 6880 0330 08       		.byte	0x8
 6881 0331 09       		.uleb128 0x9
 6882 0332 780A0000 		.4byte	.LASF65
 6883 0336 0A       		.byte	0xa
 6884 0337 9401     		.2byte	0x194
 6885 0339 D5040000 		.4byte	0x4d5
 6886 033d 0C       		.byte	0xc
 6887 033e 09       		.uleb128 0x9
 6888 033f C0110000 		.4byte	.LASF66
 6889 0343 0A       		.byte	0xa
 6890 0344 9701     		.2byte	0x197
 6891 0346 A5020000 		.4byte	0x2a5
 6892 034a 10       		.byte	0x10
 6893 034b 09       		.uleb128 0x9
 6894 034c D50B0000 		.4byte	.LASF67
 6895 0350 0A       		.byte	0xa
 6896 0351 9801     		.2byte	0x198
 6897 0353 A5020000 		.4byte	0x2a5
 6898 0357 14       		.byte	0x14
 6899 0358 09       		.uleb128 0x9
 6900 0359 65080000 		.4byte	.LASF68
 6901 035d 0A       		.byte	0xa
 6902 035e 9B01     		.2byte	0x19b
 6903 0360 A5020000 		.4byte	0x2a5
 6904 0364 18       		.byte	0x18
 6905 0365 00       		.byte	0
 6906 0366 04       		.uleb128 0x4
 6907 0367 291B0000 		.4byte	.LASF69
 6908 036b 09       		.byte	0x9
 6909 036c 5C       		.byte	0x5c
 6910 036d 71030000 		.4byte	0x371
 6911 0371 0A       		.uleb128 0xa
 6912 0372 04       		.byte	0x4
 6913 0373 77030000 		.4byte	0x377
 6914 0377 0C       		.uleb128 0xc
 6915 0378 82030000 		.4byte	0x382
 6916 037c 0D       		.uleb128 0xd
 6917 037d 82030000 		.4byte	0x382
 6918 0381 00       		.byte	0
 6919 0382 0E       		.uleb128 0xe
 6920 0383 04       		.byte	0x4
 6921 0384 04       		.uleb128 0x4
 6922 0385 680A0000 		.4byte	.LASF70
 6923 0389 09       		.byte	0x9
 6924 038a 61       		.byte	0x61
 6925 038b 8F030000 		.4byte	0x38f
 6926 038f 0B       		.uleb128 0xb
 6927 0390 391F0000 		.4byte	.LASF71
 6928 0394 14       		.byte	0x14
 6929 0395 0A       		.byte	0xa
 6930 0396 6B01     		.2byte	0x16b
 6931 0398 DE030000 		.4byte	0x3de
 6932 039c 09       		.uleb128 0x9
ARM GAS  /tmp/cc0XcXNK.s 			page 123


 6933 039d 7E0A0000 		.4byte	.LASF72
 6934 03a1 0A       		.byte	0xa
 6935 03a2 6C01     		.2byte	0x16c
 6936 03a4 31070000 		.4byte	0x731
 6937 03a8 00       		.byte	0
 6938 03a9 09       		.uleb128 0x9
 6939 03aa 71070000 		.4byte	.LASF73
 6940 03ae 0A       		.byte	0xa
 6941 03af 6D01     		.2byte	0x16d
 6942 03b1 31070000 		.4byte	0x731
 6943 03b5 04       		.byte	0x4
 6944 03b6 09       		.uleb128 0x9
 6945 03b7 1D120000 		.4byte	.LASF74
 6946 03bb 0A       		.byte	0xa
 6947 03bc 6E01     		.2byte	0x16e
 6948 03be 7F010000 		.4byte	0x17f
 6949 03c2 08       		.byte	0x8
 6950 03c3 09       		.uleb128 0x9
 6951 03c4 FB1E0000 		.4byte	.LASF75
 6952 03c8 0A       		.byte	0xa
 6953 03c9 6F01     		.2byte	0x16f
 6954 03cb 66030000 		.4byte	0x366
 6955 03cf 0C       		.byte	0xc
 6956 03d0 09       		.uleb128 0x9
 6957 03d1 4F080000 		.4byte	.LASF76
 6958 03d5 0A       		.byte	0xa
 6959 03d6 7101     		.2byte	0x171
 6960 03d8 82030000 		.4byte	0x382
 6961 03dc 10       		.byte	0x10
 6962 03dd 00       		.byte	0
 6963 03de 04       		.uleb128 0x4
 6964 03df 89200000 		.4byte	.LASF77
 6965 03e3 09       		.byte	0x9
 6966 03e4 66       		.byte	0x66
 6967 03e5 E9030000 		.4byte	0x3e9
 6968 03e9 0B       		.uleb128 0xb
 6969 03ea 95030000 		.4byte	.LASF78
 6970 03ee 10       		.byte	0x10
 6971 03ef 0A       		.byte	0xa
 6972 03f0 7B01     		.2byte	0x17b
 6973 03f2 2B040000 		.4byte	0x42b
 6974 03f6 09       		.uleb128 0x9
 6975 03f7 7E0A0000 		.4byte	.LASF72
 6976 03fb 0A       		.byte	0xa
 6977 03fc 7C01     		.2byte	0x17c
 6978 03fe 31070000 		.4byte	0x731
 6979 0402 00       		.byte	0
 6980 0403 09       		.uleb128 0x9
 6981 0404 71070000 		.4byte	.LASF73
 6982 0408 0A       		.byte	0xa
 6983 0409 7E01     		.2byte	0x17e
 6984 040b 31070000 		.4byte	0x731
 6985 040f 04       		.byte	0x4
 6986 0410 09       		.uleb128 0x9
 6987 0411 1D120000 		.4byte	.LASF74
 6988 0415 0A       		.byte	0xa
 6989 0416 8001     		.2byte	0x180
ARM GAS  /tmp/cc0XcXNK.s 			page 124


 6990 0418 7F010000 		.4byte	0x17f
 6991 041c 08       		.byte	0x8
 6992 041d 09       		.uleb128 0x9
 6993 041e 60010000 		.4byte	.LASF79
 6994 0422 0A       		.byte	0xa
 6995 0423 8201     		.2byte	0x182
 6996 0425 2C070000 		.4byte	0x72c
 6997 0429 0C       		.byte	0xc
 6998 042a 00       		.byte	0
 6999 042b 04       		.uleb128 0x4
 7000 042c 07080000 		.4byte	.LASF80
 7001 0430 09       		.byte	0x9
 7002 0431 6B       		.byte	0x6b
 7003 0432 36040000 		.4byte	0x436
 7004 0436 0B       		.uleb128 0xb
 7005 0437 D01C0000 		.4byte	.LASF81
 7006 043b 04       		.byte	0x4
 7007 043c 0A       		.byte	0xa
 7008 043d A201     		.2byte	0x1a2
 7009 043f 51040000 		.4byte	0x451
 7010 0443 09       		.uleb128 0x9
 7011 0444 A0110000 		.4byte	.LASF82
 7012 0448 0A       		.byte	0xa
 7013 0449 AA01     		.2byte	0x1aa
 7014 044b 37070000 		.4byte	0x737
 7015 044f 00       		.byte	0
 7016 0450 00       		.byte	0
 7017 0451 04       		.uleb128 0x4
 7018 0452 17010000 		.4byte	.LASF83
 7019 0456 09       		.byte	0x9
 7020 0457 70       		.byte	0x70
 7021 0458 5C040000 		.4byte	0x45c
 7022 045c 0F       		.uleb128 0xf
 7023 045d D4130000 		.4byte	.LASF84
 7024 0461 5802     		.2byte	0x258
 7025 0463 0A       		.byte	0xa
 7026 0464 C201     		.2byte	0x1c2
 7027 0466 B8040000 		.4byte	0x4b8
 7028 046a 09       		.uleb128 0x9
 7029 046b E2040000 		.4byte	.LASF85
 7030 046f 0A       		.byte	0xa
 7031 0470 C601     		.2byte	0x1c6
 7032 0472 FF020000 		.4byte	0x2ff
 7033 0476 00       		.byte	0
 7034 0477 09       		.uleb128 0x9
 7035 0478 A3040000 		.4byte	.LASF86
 7036 047c 0A       		.byte	0xa
 7037 047d CA01     		.2byte	0x1ca
 7038 047f DE030000 		.4byte	0x3de
 7039 0483 1C       		.byte	0x1c
 7040 0484 08       		.uleb128 0x8
 7041 0485 64626700 		.ascii	"dbg\000"
 7042 0489 0A       		.byte	0xa
 7043 048a CE01     		.2byte	0x1ce
 7044 048c 2B040000 		.4byte	0x42b
 7045 0490 2C       		.byte	0x2c
 7046 0491 09       		.uleb128 0x9
ARM GAS  /tmp/cc0XcXNK.s 			page 125


 7047 0492 17150000 		.4byte	.LASF87
 7048 0496 0A       		.byte	0xa
 7049 0497 D201     		.2byte	0x1d2
 7050 0499 8A010000 		.4byte	0x18a
 7051 049d 30       		.byte	0x30
 7052 049e 08       		.uleb128 0x8
 7053 049f 746D00   		.ascii	"tm\000"
 7054 04a2 0A       		.byte	0xa
 7055 04a3 D701     		.2byte	0x1d7
 7056 04a5 4A060000 		.4byte	0x64a
 7057 04a9 78       		.byte	0x78
 7058 04aa 09       		.uleb128 0x9
 7059 04ab EC1E0000 		.4byte	.LASF88
 7060 04af 0A       		.byte	0xa
 7061 04b0 E301     		.2byte	0x1e3
 7062 04b2 3C070000 		.4byte	0x73c
 7063 04b6 80       		.byte	0x80
 7064 04b7 00       		.byte	0
 7065 04b8 02       		.uleb128 0x2
 7066 04b9 04       		.byte	0x4
 7067 04ba 07       		.byte	0x7
 7068 04bb 26120000 		.4byte	.LASF89
 7069 04bf 04       		.uleb128 0x4
 7070 04c0 8D160000 		.4byte	.LASF90
 7071 04c4 0B       		.byte	0xb
 7072 04c5 65       		.byte	0x65
 7073 04c6 82030000 		.4byte	0x382
 7074 04ca 04       		.uleb128 0x4
 7075 04cb 66070000 		.4byte	.LASF91
 7076 04cf 0B       		.byte	0xb
 7077 04d0 6D       		.byte	0x6d
 7078 04d1 01010000 		.4byte	0x101
 7079 04d5 06       		.uleb128 0x6
 7080 04d6 A3150000 		.4byte	.LASF92
 7081 04da 04       		.byte	0x4
 7082 04db 0B       		.byte	0xb
 7083 04dc 89       		.byte	0x89
 7084 04dd EE040000 		.4byte	0x4ee
 7085 04e1 10       		.uleb128 0x10
 7086 04e2 72313300 		.ascii	"r13\000"
 7087 04e6 0B       		.byte	0xb
 7088 04e7 8A       		.byte	0x8a
 7089 04e8 2F060000 		.4byte	0x62f
 7090 04ec 00       		.byte	0
 7091 04ed 00       		.byte	0
 7092 04ee 06       		.uleb128 0x6
 7093 04ef 17000000 		.4byte	.LASF93
 7094 04f3 64       		.byte	0x64
 7095 04f4 0C       		.byte	0xc
 7096 04f5 F4       		.byte	0xf4
 7097 04f6 2F060000 		.4byte	0x62f
 7098 04fa 10       		.uleb128 0x10
 7099 04fb 73313600 		.ascii	"s16\000"
 7100 04ff 0C       		.byte	0xc
 7101 0500 F6       		.byte	0xf6
 7102 0501 BF040000 		.4byte	0x4bf
 7103 0505 00       		.byte	0
ARM GAS  /tmp/cc0XcXNK.s 			page 126


 7104 0506 10       		.uleb128 0x10
 7105 0507 73313700 		.ascii	"s17\000"
 7106 050b 0C       		.byte	0xc
 7107 050c F7       		.byte	0xf7
 7108 050d BF040000 		.4byte	0x4bf
 7109 0511 04       		.byte	0x4
 7110 0512 10       		.uleb128 0x10
 7111 0513 73313800 		.ascii	"s18\000"
 7112 0517 0C       		.byte	0xc
 7113 0518 F8       		.byte	0xf8
 7114 0519 BF040000 		.4byte	0x4bf
 7115 051d 08       		.byte	0x8
 7116 051e 10       		.uleb128 0x10
 7117 051f 73313900 		.ascii	"s19\000"
 7118 0523 0C       		.byte	0xc
 7119 0524 F9       		.byte	0xf9
 7120 0525 BF040000 		.4byte	0x4bf
 7121 0529 0C       		.byte	0xc
 7122 052a 10       		.uleb128 0x10
 7123 052b 73323000 		.ascii	"s20\000"
 7124 052f 0C       		.byte	0xc
 7125 0530 FA       		.byte	0xfa
 7126 0531 BF040000 		.4byte	0x4bf
 7127 0535 10       		.byte	0x10
 7128 0536 10       		.uleb128 0x10
 7129 0537 73323100 		.ascii	"s21\000"
 7130 053b 0C       		.byte	0xc
 7131 053c FB       		.byte	0xfb
 7132 053d BF040000 		.4byte	0x4bf
 7133 0541 14       		.byte	0x14
 7134 0542 10       		.uleb128 0x10
 7135 0543 73323200 		.ascii	"s22\000"
 7136 0547 0C       		.byte	0xc
 7137 0548 FC       		.byte	0xfc
 7138 0549 BF040000 		.4byte	0x4bf
 7139 054d 18       		.byte	0x18
 7140 054e 10       		.uleb128 0x10
 7141 054f 73323300 		.ascii	"s23\000"
 7142 0553 0C       		.byte	0xc
 7143 0554 FD       		.byte	0xfd
 7144 0555 BF040000 		.4byte	0x4bf
 7145 0559 1C       		.byte	0x1c
 7146 055a 10       		.uleb128 0x10
 7147 055b 73323400 		.ascii	"s24\000"
 7148 055f 0C       		.byte	0xc
 7149 0560 FE       		.byte	0xfe
 7150 0561 BF040000 		.4byte	0x4bf
 7151 0565 20       		.byte	0x20
 7152 0566 10       		.uleb128 0x10
 7153 0567 73323500 		.ascii	"s25\000"
 7154 056b 0C       		.byte	0xc
 7155 056c FF       		.byte	0xff
 7156 056d BF040000 		.4byte	0x4bf
 7157 0571 24       		.byte	0x24
 7158 0572 08       		.uleb128 0x8
 7159 0573 73323600 		.ascii	"s26\000"
 7160 0577 0C       		.byte	0xc
ARM GAS  /tmp/cc0XcXNK.s 			page 127


 7161 0578 0001     		.2byte	0x100
 7162 057a BF040000 		.4byte	0x4bf
 7163 057e 28       		.byte	0x28
 7164 057f 08       		.uleb128 0x8
 7165 0580 73323700 		.ascii	"s27\000"
 7166 0584 0C       		.byte	0xc
 7167 0585 0101     		.2byte	0x101
 7168 0587 BF040000 		.4byte	0x4bf
 7169 058b 2C       		.byte	0x2c
 7170 058c 08       		.uleb128 0x8
 7171 058d 73323800 		.ascii	"s28\000"
 7172 0591 0C       		.byte	0xc
 7173 0592 0201     		.2byte	0x102
 7174 0594 BF040000 		.4byte	0x4bf
 7175 0598 30       		.byte	0x30
 7176 0599 08       		.uleb128 0x8
 7177 059a 73323900 		.ascii	"s29\000"
 7178 059e 0C       		.byte	0xc
 7179 059f 0301     		.2byte	0x103
 7180 05a1 BF040000 		.4byte	0x4bf
 7181 05a5 34       		.byte	0x34
 7182 05a6 08       		.uleb128 0x8
 7183 05a7 73333000 		.ascii	"s30\000"
 7184 05ab 0C       		.byte	0xc
 7185 05ac 0401     		.2byte	0x104
 7186 05ae BF040000 		.4byte	0x4bf
 7187 05b2 38       		.byte	0x38
 7188 05b3 08       		.uleb128 0x8
 7189 05b4 73333100 		.ascii	"s31\000"
 7190 05b8 0C       		.byte	0xc
 7191 05b9 0501     		.2byte	0x105
 7192 05bb BF040000 		.4byte	0x4bf
 7193 05bf 3C       		.byte	0x3c
 7194 05c0 08       		.uleb128 0x8
 7195 05c1 723400   		.ascii	"r4\000"
 7196 05c4 0C       		.byte	0xc
 7197 05c5 0701     		.2byte	0x107
 7198 05c7 BF040000 		.4byte	0x4bf
 7199 05cb 40       		.byte	0x40
 7200 05cc 08       		.uleb128 0x8
 7201 05cd 723500   		.ascii	"r5\000"
 7202 05d0 0C       		.byte	0xc
 7203 05d1 0801     		.2byte	0x108
 7204 05d3 BF040000 		.4byte	0x4bf
 7205 05d7 44       		.byte	0x44
 7206 05d8 08       		.uleb128 0x8
 7207 05d9 723600   		.ascii	"r6\000"
 7208 05dc 0C       		.byte	0xc
 7209 05dd 0901     		.2byte	0x109
 7210 05df BF040000 		.4byte	0x4bf
 7211 05e3 48       		.byte	0x48
 7212 05e4 08       		.uleb128 0x8
 7213 05e5 723700   		.ascii	"r7\000"
 7214 05e8 0C       		.byte	0xc
 7215 05e9 0A01     		.2byte	0x10a
 7216 05eb BF040000 		.4byte	0x4bf
 7217 05ef 4C       		.byte	0x4c
ARM GAS  /tmp/cc0XcXNK.s 			page 128


 7218 05f0 08       		.uleb128 0x8
 7219 05f1 723800   		.ascii	"r8\000"
 7220 05f4 0C       		.byte	0xc
 7221 05f5 0B01     		.2byte	0x10b
 7222 05f7 BF040000 		.4byte	0x4bf
 7223 05fb 50       		.byte	0x50
 7224 05fc 08       		.uleb128 0x8
 7225 05fd 723900   		.ascii	"r9\000"
 7226 0600 0C       		.byte	0xc
 7227 0601 0C01     		.2byte	0x10c
 7228 0603 BF040000 		.4byte	0x4bf
 7229 0607 54       		.byte	0x54
 7230 0608 08       		.uleb128 0x8
 7231 0609 72313000 		.ascii	"r10\000"
 7232 060d 0C       		.byte	0xc
 7233 060e 0D01     		.2byte	0x10d
 7234 0610 BF040000 		.4byte	0x4bf
 7235 0614 58       		.byte	0x58
 7236 0615 08       		.uleb128 0x8
 7237 0616 72313100 		.ascii	"r11\000"
 7238 061a 0C       		.byte	0xc
 7239 061b 0E01     		.2byte	0x10e
 7240 061d BF040000 		.4byte	0x4bf
 7241 0621 5C       		.byte	0x5c
 7242 0622 08       		.uleb128 0x8
 7243 0623 6C7200   		.ascii	"lr\000"
 7244 0626 0C       		.byte	0xc
 7245 0627 0F01     		.2byte	0x10f
 7246 0629 BF040000 		.4byte	0x4bf
 7247 062d 60       		.byte	0x60
 7248 062e 00       		.byte	0
 7249 062f 0A       		.uleb128 0xa
 7250 0630 04       		.byte	0x4
 7251 0631 EE040000 		.4byte	0x4ee
 7252 0635 11       		.uleb128 0x11
 7253 0636 04       		.byte	0x4
 7254 0637 0D       		.byte	0xd
 7255 0638 38       		.byte	0x38
 7256 0639 4A060000 		.4byte	0x64a
 7257 063d 07       		.uleb128 0x7
 7258 063e C81E0000 		.4byte	.LASF94
 7259 0642 0D       		.byte	0xd
 7260 0643 3C       		.byte	0x3c
 7261 0644 1C010000 		.4byte	0x11c
 7262 0648 00       		.byte	0
 7263 0649 00       		.byte	0
 7264 064a 04       		.uleb128 0x4
 7265 064b A6230000 		.4byte	.LASF95
 7266 064f 0D       		.byte	0xd
 7267 0650 3D       		.byte	0x3d
 7268 0651 35060000 		.4byte	0x635
 7269 0655 12       		.uleb128 0x12
 7270 0656 04       		.byte	0x4
 7271 0657 0A       		.byte	0xa
 7272 0658 FA       		.byte	0xfa
 7273 0659 B2060000 		.4byte	0x6b2
 7274 065d 13       		.uleb128 0x13
ARM GAS  /tmp/cc0XcXNK.s 			page 129


 7275 065e 880E0000 		.4byte	.LASF96
 7276 0662 0A       		.byte	0xa
 7277 0663 0101     		.2byte	0x101
 7278 0665 5E010000 		.4byte	0x15e
 7279 0669 13       		.uleb128 0x13
 7280 066a 570C0000 		.4byte	.LASF97
 7281 066e 0A       		.byte	0xa
 7282 066f 0801     		.2byte	0x108
 7283 0671 5E010000 		.4byte	0x15e
 7284 0675 13       		.uleb128 0x13
 7285 0676 671B0000 		.4byte	.LASF98
 7286 067a 0A       		.byte	0xa
 7287 067b 0F01     		.2byte	0x10f
 7288 067d 82030000 		.4byte	0x382
 7289 0681 13       		.uleb128 0x13
 7290 0682 9D150000 		.4byte	.LASF99
 7291 0686 0A       		.byte	0xa
 7292 0687 1601     		.2byte	0x116
 7293 0689 B2060000 		.4byte	0x6b2
 7294 068d 13       		.uleb128 0x13
 7295 068e 2D010000 		.4byte	.LASF100
 7296 0692 0A       		.byte	0xa
 7297 0693 1E01     		.2byte	0x11e
 7298 0695 DD060000 		.4byte	0x6dd
 7299 0699 13       		.uleb128 0x13
 7300 069a AE1B0000 		.4byte	.LASF101
 7301 069e 0A       		.byte	0xa
 7302 069f 2701     		.2byte	0x127
 7303 06a1 14070000 		.4byte	0x714
 7304 06a5 13       		.uleb128 0x13
 7305 06a6 521F0000 		.4byte	.LASF102
 7306 06aa 0A       		.byte	0xa
 7307 06ab 2F01     		.2byte	0x12f
 7308 06ad 69010000 		.4byte	0x169
 7309 06b1 00       		.byte	0
 7310 06b2 0A       		.uleb128 0xa
 7311 06b3 04       		.byte	0x4
 7312 06b4 9A020000 		.4byte	0x29a
 7313 06b8 06       		.uleb128 0x6
 7314 06b9 00140000 		.4byte	.LASF103
 7315 06bd 0C       		.byte	0xc
 7316 06be 0E       		.byte	0xe
 7317 06bf 34       		.byte	0x34
 7318 06c0 DD060000 		.4byte	0x6dd
 7319 06c4 07       		.uleb128 0x7
 7320 06c5 52210000 		.4byte	.LASF104
 7321 06c9 0E       		.byte	0xe
 7322 06ca 35       		.byte	0x35
 7323 06cb CF020000 		.4byte	0x2cf
 7324 06cf 00       		.byte	0
 7325 06d0 07       		.uleb128 0x7
 7326 06d1 A8070000 		.4byte	.LASF105
 7327 06d5 0E       		.byte	0xe
 7328 06d6 37       		.byte	0x37
 7329 06d7 74010000 		.4byte	0x174
 7330 06db 08       		.byte	0x8
 7331 06dc 00       		.byte	0
ARM GAS  /tmp/cc0XcXNK.s 			page 130


 7332 06dd 0A       		.uleb128 0xa
 7333 06de 04       		.byte	0x4
 7334 06df B8060000 		.4byte	0x6b8
 7335 06e3 06       		.uleb128 0x6
 7336 06e4 9F090000 		.4byte	.LASF106
 7337 06e8 10       		.byte	0x10
 7338 06e9 0F       		.byte	0xf
 7339 06ea 39       		.byte	0x39
 7340 06eb 14070000 		.4byte	0x714
 7341 06ef 07       		.uleb128 0x7
 7342 06f0 34150000 		.4byte	.LASF107
 7343 06f4 0F       		.byte	0xf
 7344 06f5 3A       		.byte	0x3a
 7345 06f6 CF020000 		.4byte	0x2cf
 7346 06fa 00       		.byte	0
 7347 06fb 07       		.uleb128 0x7
 7348 06fc 8B130000 		.4byte	.LASF108
 7349 0700 0F       		.byte	0xf
 7350 0701 3C       		.byte	0x3c
 7351 0702 A5020000 		.4byte	0x2a5
 7352 0706 08       		.byte	0x8
 7353 0707 07       		.uleb128 0x7
 7354 0708 86010000 		.4byte	.LASF109
 7355 070c 0F       		.byte	0xf
 7356 070d 3E       		.byte	0x3e
 7357 070e 62070000 		.4byte	0x762
 7358 0712 0C       		.byte	0xc
 7359 0713 00       		.byte	0
 7360 0714 0A       		.uleb128 0xa
 7361 0715 04       		.byte	0x4
 7362 0716 E3060000 		.4byte	0x6e3
 7363 071a 0A       		.uleb128 0xa
 7364 071b 04       		.byte	0x4
 7365 071c 20070000 		.4byte	0x720
 7366 0720 14       		.uleb128 0x14
 7367 0721 25070000 		.4byte	0x725
 7368 0725 02       		.uleb128 0x2
 7369 0726 01       		.byte	0x1
 7370 0727 08       		.byte	0x8
 7371 0728 E6170000 		.4byte	.LASF110
 7372 072c 05       		.uleb128 0x5
 7373 072d 7F010000 		.4byte	0x17f
 7374 0731 0A       		.uleb128 0xa
 7375 0732 04       		.byte	0x4
 7376 0733 84030000 		.4byte	0x384
 7377 0737 05       		.uleb128 0x5
 7378 0738 1A070000 		.4byte	0x71a
 7379 073c 15       		.uleb128 0x15
 7380 073d CA040000 		.4byte	0x4ca
 7381 0741 4C070000 		.4byte	0x74c
 7382 0745 16       		.uleb128 0x16
 7383 0746 B8040000 		.4byte	0x4b8
 7384 074a 3A       		.byte	0x3a
 7385 074b 00       		.byte	0
 7386 074c 04       		.uleb128 0x4
 7387 074d 95060000 		.4byte	.LASF111
 7388 0751 10       		.byte	0x10
ARM GAS  /tmp/cc0XcXNK.s 			page 131


 7389 0752 34       		.byte	0x34
 7390 0753 71030000 		.4byte	0x371
 7391 0757 04       		.uleb128 0x4
 7392 0758 811D0000 		.4byte	.LASF112
 7393 075c 0F       		.byte	0xf
 7394 075d 34       		.byte	0x34
 7395 075e E3060000 		.4byte	0x6e3
 7396 0762 0A       		.uleb128 0xa
 7397 0763 04       		.byte	0x4
 7398 0764 57070000 		.4byte	0x757
 7399 0768 0A       		.uleb128 0xa
 7400 0769 04       		.byte	0x4
 7401 076a CA000000 		.4byte	0xca
 7402 076e 0A       		.uleb128 0xa
 7403 076f 04       		.byte	0x4
 7404 0770 74070000 		.4byte	0x774
 7405 0774 14       		.uleb128 0x14
 7406 0775 CA000000 		.4byte	0xca
 7407 0779 17       		.uleb128 0x17
 7408 077a 01       		.byte	0x1
 7409 077b 11       		.byte	0x11
 7410 077c 28       		.byte	0x28
 7411 077d 94070000 		.4byte	0x794
 7412 0781 18       		.uleb128 0x18
 7413 0782 BC200000 		.4byte	.LASF113
 7414 0786 00       		.sleb128 0
 7415 0787 18       		.uleb128 0x18
 7416 0788 8C170000 		.4byte	.LASF114
 7417 078c 01       		.sleb128 1
 7418 078d 18       		.uleb128 0x18
 7419 078e F6030000 		.4byte	.LASF115
 7420 0792 02       		.sleb128 2
 7421 0793 00       		.byte	0
 7422 0794 04       		.uleb128 0x4
 7423 0795 07040000 		.4byte	.LASF116
 7424 0799 11       		.byte	0x11
 7425 079a 2C       		.byte	0x2c
 7426 079b 79070000 		.4byte	0x779
 7427 079f 17       		.uleb128 0x17
 7428 07a0 01       		.byte	0x1
 7429 07a1 11       		.byte	0x11
 7430 07a2 2E       		.byte	0x2e
 7431 07a3 B4070000 		.4byte	0x7b4
 7432 07a7 18       		.uleb128 0x18
 7433 07a8 77150000 		.4byte	.LASF117
 7434 07ac 00       		.sleb128 0
 7435 07ad 18       		.uleb128 0x18
 7436 07ae 29260000 		.4byte	.LASF118
 7437 07b2 01       		.sleb128 1
 7438 07b3 00       		.byte	0
 7439 07b4 04       		.uleb128 0x4
 7440 07b5 E11F0000 		.4byte	.LASF119
 7441 07b9 11       		.byte	0x11
 7442 07ba 31       		.byte	0x31
 7443 07bb 9F070000 		.4byte	0x79f
 7444 07bf 17       		.uleb128 0x17
 7445 07c0 01       		.byte	0x1
ARM GAS  /tmp/cc0XcXNK.s 			page 132


 7446 07c1 11       		.byte	0x11
 7447 07c2 33       		.byte	0x33
 7448 07c3 DA070000 		.4byte	0x7da
 7449 07c7 18       		.uleb128 0x18
 7450 07c8 7A1C0000 		.4byte	.LASF120
 7451 07cc 00       		.sleb128 0
 7452 07cd 18       		.uleb128 0x18
 7453 07ce FC090000 		.4byte	.LASF121
 7454 07d2 01       		.sleb128 1
 7455 07d3 18       		.uleb128 0x18
 7456 07d4 B90A0000 		.4byte	.LASF122
 7457 07d8 02       		.sleb128 2
 7458 07d9 00       		.byte	0
 7459 07da 04       		.uleb128 0x4
 7460 07db FF140000 		.4byte	.LASF123
 7461 07df 11       		.byte	0x11
 7462 07e0 37       		.byte	0x37
 7463 07e1 BF070000 		.4byte	0x7bf
 7464 07e5 17       		.uleb128 0x17
 7465 07e6 01       		.byte	0x1
 7466 07e7 11       		.byte	0x11
 7467 07e8 39       		.byte	0x39
 7468 07e9 00080000 		.4byte	0x800
 7469 07ed 18       		.uleb128 0x18
 7470 07ee B2140000 		.4byte	.LASF124
 7471 07f2 00       		.sleb128 0
 7472 07f3 18       		.uleb128 0x18
 7473 07f4 3E060000 		.4byte	.LASF125
 7474 07f8 01       		.sleb128 1
 7475 07f9 18       		.uleb128 0x18
 7476 07fa 9C1E0000 		.4byte	.LASF126
 7477 07fe 02       		.sleb128 2
 7478 07ff 00       		.byte	0
 7479 0800 04       		.uleb128 0x4
 7480 0801 7A250000 		.4byte	.LASF127
 7481 0805 11       		.byte	0x11
 7482 0806 3D       		.byte	0x3d
 7483 0807 E5070000 		.4byte	0x7e5
 7484 080b 17       		.uleb128 0x17
 7485 080c 01       		.byte	0x1
 7486 080d 11       		.byte	0x11
 7487 080e 3F       		.byte	0x3f
 7488 080f 26080000 		.4byte	0x826
 7489 0813 18       		.uleb128 0x18
 7490 0814 F7250000 		.4byte	.LASF128
 7491 0818 00       		.sleb128 0
 7492 0819 18       		.uleb128 0x18
 7493 081a F2100000 		.4byte	.LASF129
 7494 081e 01       		.sleb128 1
 7495 081f 18       		.uleb128 0x18
 7496 0820 180E0000 		.4byte	.LASF130
 7497 0824 02       		.sleb128 2
 7498 0825 00       		.byte	0
 7499 0826 04       		.uleb128 0x4
 7500 0827 B51B0000 		.4byte	.LASF131
 7501 082b 11       		.byte	0x11
 7502 082c 43       		.byte	0x43
ARM GAS  /tmp/cc0XcXNK.s 			page 133


 7503 082d 0B080000 		.4byte	0x80b
 7504 0831 17       		.uleb128 0x17
 7505 0832 01       		.byte	0x1
 7506 0833 11       		.byte	0x11
 7507 0834 45       		.byte	0x45
 7508 0835 64080000 		.4byte	0x864
 7509 0839 18       		.uleb128 0x18
 7510 083a 85190000 		.4byte	.LASF132
 7511 083e 00       		.sleb128 0
 7512 083f 18       		.uleb128 0x18
 7513 0840 330E0000 		.4byte	.LASF133
 7514 0844 01       		.sleb128 1
 7515 0845 18       		.uleb128 0x18
 7516 0846 FD180000 		.4byte	.LASF134
 7517 084a 02       		.sleb128 2
 7518 084b 18       		.uleb128 0x18
 7519 084c 891E0000 		.4byte	.LASF135
 7520 0850 03       		.sleb128 3
 7521 0851 18       		.uleb128 0x18
 7522 0852 99080000 		.4byte	.LASF136
 7523 0856 04       		.sleb128 4
 7524 0857 18       		.uleb128 0x18
 7525 0858 CE030000 		.4byte	.LASF137
 7526 085c 05       		.sleb128 5
 7527 085d 18       		.uleb128 0x18
 7528 085e 1F130000 		.4byte	.LASF138
 7529 0862 06       		.sleb128 6
 7530 0863 00       		.byte	0
 7531 0864 04       		.uleb128 0x4
 7532 0865 65210000 		.4byte	.LASF139
 7533 0869 11       		.byte	0x11
 7534 086a 4D       		.byte	0x4d
 7535 086b 31080000 		.4byte	0x831
 7536 086f 17       		.uleb128 0x17
 7537 0870 01       		.byte	0x1
 7538 0871 11       		.byte	0x11
 7539 0872 58       		.byte	0x58
 7540 0873 A2080000 		.4byte	0x8a2
 7541 0877 18       		.uleb128 0x18
 7542 0878 A8090000 		.4byte	.LASF140
 7543 087c 00       		.sleb128 0
 7544 087d 18       		.uleb128 0x18
 7545 087e 30020000 		.4byte	.LASF141
 7546 0882 01       		.sleb128 1
 7547 0883 18       		.uleb128 0x18
 7548 0884 5E090000 		.4byte	.LASF142
 7549 0888 02       		.sleb128 2
 7550 0889 18       		.uleb128 0x18
 7551 088a EE010000 		.4byte	.LASF143
 7552 088e 03       		.sleb128 3
 7553 088f 18       		.uleb128 0x18
 7554 0890 020E0000 		.4byte	.LASF144
 7555 0894 04       		.sleb128 4
 7556 0895 18       		.uleb128 0x18
 7557 0896 4C0D0000 		.4byte	.LASF145
 7558 089a 05       		.sleb128 5
 7559 089b 18       		.uleb128 0x18
ARM GAS  /tmp/cc0XcXNK.s 			page 134


 7560 089c AD170000 		.4byte	.LASF146
 7561 08a0 06       		.sleb128 6
 7562 08a1 00       		.byte	0
 7563 08a2 04       		.uleb128 0x4
 7564 08a3 7B200000 		.4byte	.LASF147
 7565 08a7 11       		.byte	0x11
 7566 08a8 60       		.byte	0x60
 7567 08a9 6F080000 		.4byte	0x86f
 7568 08ad 17       		.uleb128 0x17
 7569 08ae 01       		.byte	0x1
 7570 08af 11       		.byte	0x11
 7571 08b0 62       		.byte	0x62
 7572 08b1 C8080000 		.4byte	0x8c8
 7573 08b5 18       		.uleb128 0x18
 7574 08b6 89140000 		.4byte	.LASF148
 7575 08ba 00       		.sleb128 0
 7576 08bb 18       		.uleb128 0x18
 7577 08bc 1C0B0000 		.4byte	.LASF149
 7578 08c0 01       		.sleb128 1
 7579 08c1 18       		.uleb128 0x18
 7580 08c2 7F0B0000 		.4byte	.LASF150
 7581 08c6 02       		.sleb128 2
 7582 08c7 00       		.byte	0
 7583 08c8 04       		.uleb128 0x4
 7584 08c9 55250000 		.4byte	.LASF151
 7585 08cd 11       		.byte	0x11
 7586 08ce 66       		.byte	0x66
 7587 08cf AD080000 		.4byte	0x8ad
 7588 08d3 19       		.uleb128 0x19
 7589 08d4 3801     		.2byte	0x138
 7590 08d6 11       		.byte	0x11
 7591 08d7 72       		.byte	0x72
 7592 08d8 AB0C0000 		.4byte	0xcab
 7593 08dc 07       		.uleb128 0x7
 7594 08dd D40F0000 		.4byte	.LASF152
 7595 08e1 11       		.byte	0x11
 7596 08e2 74       		.byte	0x74
 7597 08e3 94070000 		.4byte	0x794
 7598 08e7 00       		.byte	0
 7599 08e8 07       		.uleb128 0x7
 7600 08e9 7A080000 		.4byte	.LASF153
 7601 08ed 11       		.byte	0x11
 7602 08ee 75       		.byte	0x75
 7603 08ef B4070000 		.4byte	0x7b4
 7604 08f3 01       		.byte	0x1
 7605 08f4 07       		.uleb128 0x7
 7606 08f5 FB0F0000 		.4byte	.LASF154
 7607 08f9 11       		.byte	0x11
 7608 08fa 76       		.byte	0x76
 7609 08fb 26080000 		.4byte	0x826
 7610 08ff 02       		.byte	0x2
 7611 0900 07       		.uleb128 0x7
 7612 0901 581C0000 		.4byte	.LASF155
 7613 0905 11       		.byte	0x11
 7614 0906 77       		.byte	0x77
 7615 0907 DA070000 		.4byte	0x7da
 7616 090b 03       		.byte	0x3
ARM GAS  /tmp/cc0XcXNK.s 			page 135


 7617 090c 07       		.uleb128 0x7
 7618 090d DE130000 		.4byte	.LASF156
 7619 0911 11       		.byte	0x11
 7620 0912 79       		.byte	0x79
 7621 0913 25000000 		.4byte	0x25
 7622 0917 04       		.byte	0x4
 7623 0918 07       		.uleb128 0x7
 7624 0919 D8180000 		.4byte	.LASF157
 7625 091d 11       		.byte	0x11
 7626 091e 7A       		.byte	0x7a
 7627 091f 25000000 		.4byte	0x25
 7628 0923 08       		.byte	0x8
 7629 0924 07       		.uleb128 0x7
 7630 0925 1E230000 		.4byte	.LASF158
 7631 0929 11       		.byte	0x11
 7632 092a 7B       		.byte	0x7b
 7633 092b 25000000 		.4byte	0x25
 7634 092f 0C       		.byte	0xc
 7635 0930 07       		.uleb128 0x7
 7636 0931 C3010000 		.4byte	.LASF159
 7637 0935 11       		.byte	0x11
 7638 0936 7C       		.byte	0x7c
 7639 0937 25000000 		.4byte	0x25
 7640 093b 10       		.byte	0x10
 7641 093c 07       		.uleb128 0x7
 7642 093d 3F000000 		.4byte	.LASF160
 7643 0941 11       		.byte	0x11
 7644 0942 7D       		.byte	0x7d
 7645 0943 25000000 		.4byte	0x25
 7646 0947 14       		.byte	0x14
 7647 0948 07       		.uleb128 0x7
 7648 0949 6C020000 		.4byte	.LASF161
 7649 094d 11       		.byte	0x11
 7650 094e 7E       		.byte	0x7e
 7651 094f 25000000 		.4byte	0x25
 7652 0953 18       		.byte	0x18
 7653 0954 07       		.uleb128 0x7
 7654 0955 7C120000 		.4byte	.LASF162
 7655 0959 11       		.byte	0x11
 7656 095a 7F       		.byte	0x7f
 7657 095b 25000000 		.4byte	0x25
 7658 095f 1C       		.byte	0x1c
 7659 0960 07       		.uleb128 0x7
 7660 0961 2D000000 		.4byte	.LASF163
 7661 0965 11       		.byte	0x11
 7662 0966 80       		.byte	0x80
 7663 0967 25000000 		.4byte	0x25
 7664 096b 20       		.byte	0x20
 7665 096c 07       		.uleb128 0x7
 7666 096d 0B220000 		.4byte	.LASF164
 7667 0971 11       		.byte	0x11
 7668 0972 81       		.byte	0x81
 7669 0973 25000000 		.4byte	0x25
 7670 0977 24       		.byte	0x24
 7671 0978 07       		.uleb128 0x7
 7672 0979 680D0000 		.4byte	.LASF165
 7673 097d 11       		.byte	0x11
ARM GAS  /tmp/cc0XcXNK.s 			page 136


 7674 097e 82       		.byte	0x82
 7675 097f 25000000 		.4byte	0x25
 7676 0983 28       		.byte	0x28
 7677 0984 07       		.uleb128 0x7
 7678 0985 3B0C0000 		.4byte	.LASF166
 7679 0989 11       		.byte	0x11
 7680 098a 83       		.byte	0x83
 7681 098b 25000000 		.4byte	0x25
 7682 098f 2C       		.byte	0x2c
 7683 0990 07       		.uleb128 0x7
 7684 0991 380D0000 		.4byte	.LASF167
 7685 0995 11       		.byte	0x11
 7686 0996 84       		.byte	0x84
 7687 0997 25000000 		.4byte	0x25
 7688 099b 30       		.byte	0x30
 7689 099c 07       		.uleb128 0x7
 7690 099d 58160000 		.4byte	.LASF168
 7691 09a1 11       		.byte	0x11
 7692 09a2 85       		.byte	0x85
 7693 09a3 25000000 		.4byte	0x25
 7694 09a7 34       		.byte	0x34
 7695 09a8 07       		.uleb128 0x7
 7696 09a9 96010000 		.4byte	.LASF169
 7697 09ad 11       		.byte	0x11
 7698 09ae 86       		.byte	0x86
 7699 09af AB0C0000 		.4byte	0xcab
 7700 09b3 38       		.byte	0x38
 7701 09b4 07       		.uleb128 0x7
 7702 09b5 84080000 		.4byte	.LASF170
 7703 09b9 11       		.byte	0x11
 7704 09ba 87       		.byte	0x87
 7705 09bb AB0C0000 		.4byte	0xcab
 7706 09bf 39       		.byte	0x39
 7707 09c0 07       		.uleb128 0x7
 7708 09c1 16080000 		.4byte	.LASF171
 7709 09c5 11       		.byte	0x11
 7710 09c6 88       		.byte	0x88
 7711 09c7 25000000 		.4byte	0x25
 7712 09cb 3C       		.byte	0x3c
 7713 09cc 07       		.uleb128 0x7
 7714 09cd 64030000 		.4byte	.LASF172
 7715 09d1 11       		.byte	0x11
 7716 09d2 89       		.byte	0x89
 7717 09d3 25000000 		.4byte	0x25
 7718 09d7 40       		.byte	0x40
 7719 09d8 07       		.uleb128 0x7
 7720 09d9 69180000 		.4byte	.LASF173
 7721 09dd 11       		.byte	0x11
 7722 09de 8A       		.byte	0x8a
 7723 09df 25000000 		.4byte	0x25
 7724 09e3 44       		.byte	0x44
 7725 09e4 07       		.uleb128 0x7
 7726 09e5 371C0000 		.4byte	.LASF174
 7727 09e9 11       		.byte	0x11
 7728 09ea 8B       		.byte	0x8b
 7729 09eb 25000000 		.4byte	0x25
 7730 09ef 48       		.byte	0x48
ARM GAS  /tmp/cc0XcXNK.s 			page 137


 7731 09f0 07       		.uleb128 0x7
 7732 09f1 2E250000 		.4byte	.LASF175
 7733 09f5 11       		.byte	0x11
 7734 09f6 8C       		.byte	0x8c
 7735 09f7 25000000 		.4byte	0x25
 7736 09fb 4C       		.byte	0x4c
 7737 09fc 07       		.uleb128 0x7
 7738 09fd 8F0E0000 		.4byte	.LASF176
 7739 0a01 11       		.byte	0x11
 7740 0a02 8D       		.byte	0x8d
 7741 0a03 25000000 		.4byte	0x25
 7742 0a07 50       		.byte	0x50
 7743 0a08 07       		.uleb128 0x7
 7744 0a09 D70A0000 		.4byte	.LASF177
 7745 0a0d 11       		.byte	0x11
 7746 0a0e 8F       		.byte	0x8f
 7747 0a0f 25000000 		.4byte	0x25
 7748 0a13 54       		.byte	0x54
 7749 0a14 07       		.uleb128 0x7
 7750 0a15 06100000 		.4byte	.LASF178
 7751 0a19 11       		.byte	0x11
 7752 0a1a 90       		.byte	0x90
 7753 0a1b 25000000 		.4byte	0x25
 7754 0a1f 58       		.byte	0x58
 7755 0a20 07       		.uleb128 0x7
 7756 0a21 0B1E0000 		.4byte	.LASF179
 7757 0a25 11       		.byte	0x11
 7758 0a26 91       		.byte	0x91
 7759 0a27 25000000 		.4byte	0x25
 7760 0a2b 5C       		.byte	0x5c
 7761 0a2c 07       		.uleb128 0x7
 7762 0a2d C0230000 		.4byte	.LASF180
 7763 0a31 11       		.byte	0x11
 7764 0a32 92       		.byte	0x92
 7765 0a33 25000000 		.4byte	0x25
 7766 0a37 60       		.byte	0x60
 7767 0a38 07       		.uleb128 0x7
 7768 0a39 270E0000 		.4byte	.LASF181
 7769 0a3d 11       		.byte	0x11
 7770 0a3e 94       		.byte	0x94
 7771 0a3f 25000000 		.4byte	0x25
 7772 0a43 64       		.byte	0x64
 7773 0a44 07       		.uleb128 0x7
 7774 0a45 F7040000 		.4byte	.LASF182
 7775 0a49 11       		.byte	0x11
 7776 0a4a 95       		.byte	0x95
 7777 0a4b 25000000 		.4byte	0x25
 7778 0a4f 68       		.byte	0x68
 7779 0a50 07       		.uleb128 0x7
 7780 0a51 15100000 		.4byte	.LASF183
 7781 0a55 11       		.byte	0x11
 7782 0a56 96       		.byte	0x96
 7783 0a57 25000000 		.4byte	0x25
 7784 0a5b 6C       		.byte	0x6c
 7785 0a5c 07       		.uleb128 0x7
 7786 0a5d 76110000 		.4byte	.LASF184
 7787 0a61 11       		.byte	0x11
ARM GAS  /tmp/cc0XcXNK.s 			page 138


 7788 0a62 97       		.byte	0x97
 7789 0a63 25000000 		.4byte	0x25
 7790 0a67 70       		.byte	0x70
 7791 0a68 07       		.uleb128 0x7
 7792 0a69 4C0F0000 		.4byte	.LASF185
 7793 0a6d 11       		.byte	0x11
 7794 0a6e 98       		.byte	0x98
 7795 0a6f 25000000 		.4byte	0x25
 7796 0a73 74       		.byte	0x74
 7797 0a74 07       		.uleb128 0x7
 7798 0a75 A51F0000 		.4byte	.LASF186
 7799 0a79 11       		.byte	0x11
 7800 0a7a 99       		.byte	0x99
 7801 0a7b 25000000 		.4byte	0x25
 7802 0a7f 78       		.byte	0x78
 7803 0a80 07       		.uleb128 0x7
 7804 0a81 F3170000 		.4byte	.LASF187
 7805 0a85 11       		.byte	0x11
 7806 0a86 9A       		.byte	0x9a
 7807 0a87 25000000 		.4byte	0x25
 7808 0a8b 7C       		.byte	0x7c
 7809 0a8c 07       		.uleb128 0x7
 7810 0a8d B8100000 		.4byte	.LASF188
 7811 0a91 11       		.byte	0x11
 7812 0a92 9C       		.byte	0x9c
 7813 0a93 B20C0000 		.4byte	0xcb2
 7814 0a97 80       		.byte	0x80
 7815 0a98 07       		.uleb128 0x7
 7816 0a99 9E190000 		.4byte	.LASF189
 7817 0a9d 11       		.byte	0x11
 7818 0a9e 9D       		.byte	0x9d
 7819 0a9f 25000000 		.4byte	0x25
 7820 0aa3 88       		.byte	0x88
 7821 0aa4 07       		.uleb128 0x7
 7822 0aa5 3B050000 		.4byte	.LASF190
 7823 0aa9 11       		.byte	0x11
 7824 0aaa 9F       		.byte	0x9f
 7825 0aab 25000000 		.4byte	0x25
 7826 0aaf 8C       		.byte	0x8c
 7827 0ab0 07       		.uleb128 0x7
 7828 0ab1 13050000 		.4byte	.LASF191
 7829 0ab5 11       		.byte	0x11
 7830 0ab6 A0       		.byte	0xa0
 7831 0ab7 25000000 		.4byte	0x25
 7832 0abb 90       		.byte	0x90
 7833 0abc 07       		.uleb128 0x7
 7834 0abd F0070000 		.4byte	.LASF192
 7835 0ac1 11       		.byte	0x11
 7836 0ac2 A1       		.byte	0xa1
 7837 0ac3 25000000 		.4byte	0x25
 7838 0ac7 94       		.byte	0x94
 7839 0ac8 07       		.uleb128 0x7
 7840 0ac9 CF1E0000 		.4byte	.LASF193
 7841 0acd 11       		.byte	0x11
 7842 0ace A2       		.byte	0xa2
 7843 0acf 25000000 		.4byte	0x25
 7844 0ad3 98       		.byte	0x98
ARM GAS  /tmp/cc0XcXNK.s 			page 139


 7845 0ad4 07       		.uleb128 0x7
 7846 0ad5 8F020000 		.4byte	.LASF194
 7847 0ad9 11       		.byte	0x11
 7848 0ada A3       		.byte	0xa3
 7849 0adb 25000000 		.4byte	0x25
 7850 0adf 9C       		.byte	0x9c
 7851 0ae0 07       		.uleb128 0x7
 7852 0ae1 E60A0000 		.4byte	.LASF195
 7853 0ae5 11       		.byte	0x11
 7854 0ae6 A4       		.byte	0xa4
 7855 0ae7 AB0C0000 		.4byte	0xcab
 7856 0aeb A0       		.byte	0xa0
 7857 0aec 07       		.uleb128 0x7
 7858 0aed 03160000 		.4byte	.LASF196
 7859 0af1 11       		.byte	0x11
 7860 0af2 A5       		.byte	0xa5
 7861 0af3 25000000 		.4byte	0x25
 7862 0af7 A4       		.byte	0xa4
 7863 0af8 07       		.uleb128 0x7
 7864 0af9 4E070000 		.4byte	.LASF197
 7865 0afd 11       		.byte	0x11
 7866 0afe A6       		.byte	0xa6
 7867 0aff 25000000 		.4byte	0x25
 7868 0b03 A8       		.byte	0xa8
 7869 0b04 07       		.uleb128 0x7
 7870 0b05 5A070000 		.4byte	.LASF198
 7871 0b09 11       		.byte	0x11
 7872 0b0a A7       		.byte	0xa7
 7873 0b0b 25000000 		.4byte	0x25
 7874 0b0f AC       		.byte	0xac
 7875 0b10 07       		.uleb128 0x7
 7876 0b11 5A110000 		.4byte	.LASF199
 7877 0b15 11       		.byte	0x11
 7878 0b16 A8       		.byte	0xa8
 7879 0b17 25000000 		.4byte	0x25
 7880 0b1b B0       		.byte	0xb0
 7881 0b1c 07       		.uleb128 0x7
 7882 0b1d B5080000 		.4byte	.LASF200
 7883 0b21 11       		.byte	0x11
 7884 0b22 A9       		.byte	0xa9
 7885 0b23 25000000 		.4byte	0x25
 7886 0b27 B4       		.byte	0xb4
 7887 0b28 07       		.uleb128 0x7
 7888 0b29 A71A0000 		.4byte	.LASF201
 7889 0b2d 11       		.byte	0x11
 7890 0b2e AA       		.byte	0xaa
 7891 0b2f 25000000 		.4byte	0x25
 7892 0b33 B8       		.byte	0xb8
 7893 0b34 07       		.uleb128 0x7
 7894 0b35 861A0000 		.4byte	.LASF202
 7895 0b39 11       		.byte	0x11
 7896 0b3a AB       		.byte	0xab
 7897 0b3b 25000000 		.4byte	0x25
 7898 0b3f BC       		.byte	0xbc
 7899 0b40 07       		.uleb128 0x7
 7900 0b41 93130000 		.4byte	.LASF203
 7901 0b45 11       		.byte	0x11
ARM GAS  /tmp/cc0XcXNK.s 			page 140


 7902 0b46 AC       		.byte	0xac
 7903 0b47 25000000 		.4byte	0x25
 7904 0b4b C0       		.byte	0xc0
 7905 0b4c 07       		.uleb128 0x7
 7906 0b4d 61130000 		.4byte	.LASF204
 7907 0b51 11       		.byte	0x11
 7908 0b52 AD       		.byte	0xad
 7909 0b53 25000000 		.4byte	0x25
 7910 0b57 C4       		.byte	0xc4
 7911 0b58 07       		.uleb128 0x7
 7912 0b59 5D1A0000 		.4byte	.LASF205
 7913 0b5d 11       		.byte	0x11
 7914 0b5e AE       		.byte	0xae
 7915 0b5f 25000000 		.4byte	0x25
 7916 0b63 C8       		.byte	0xc8
 7917 0b64 07       		.uleb128 0x7
 7918 0b65 941D0000 		.4byte	.LASF206
 7919 0b69 11       		.byte	0x11
 7920 0b6a AF       		.byte	0xaf
 7921 0b6b 25000000 		.4byte	0x25
 7922 0b6f CC       		.byte	0xcc
 7923 0b70 07       		.uleb128 0x7
 7924 0b71 91230000 		.4byte	.LASF207
 7925 0b75 11       		.byte	0x11
 7926 0b76 B0       		.byte	0xb0
 7927 0b77 25000000 		.4byte	0x25
 7928 0b7b D0       		.byte	0xd0
 7929 0b7c 07       		.uleb128 0x7
 7930 0b7d 58100000 		.4byte	.LASF208
 7931 0b81 11       		.byte	0x11
 7932 0b82 B1       		.byte	0xb1
 7933 0b83 25000000 		.4byte	0x25
 7934 0b87 D4       		.byte	0xd4
 7935 0b88 07       		.uleb128 0x7
 7936 0b89 6E1A0000 		.4byte	.LASF209
 7937 0b8d 11       		.byte	0x11
 7938 0b8e B2       		.byte	0xb2
 7939 0b8f 25000000 		.4byte	0x25
 7940 0b93 D8       		.byte	0xd8
 7941 0b94 07       		.uleb128 0x7
 7942 0b95 6C1E0000 		.4byte	.LASF210
 7943 0b99 11       		.byte	0x11
 7944 0b9a B3       		.byte	0xb3
 7945 0b9b 00080000 		.4byte	0x800
 7946 0b9f DC       		.byte	0xdc
 7947 0ba0 07       		.uleb128 0x7
 7948 0ba1 AB0D0000 		.4byte	.LASF211
 7949 0ba5 11       		.byte	0x11
 7950 0ba6 B4       		.byte	0xb4
 7951 0ba7 C20C0000 		.4byte	0xcc2
 7952 0bab DD       		.byte	0xdd
 7953 0bac 07       		.uleb128 0x7
 7954 0bad 2A0F0000 		.4byte	.LASF212
 7955 0bb1 11       		.byte	0x11
 7956 0bb2 B5       		.byte	0xb5
 7957 0bb3 25000000 		.4byte	0x25
 7958 0bb7 E8       		.byte	0xe8
ARM GAS  /tmp/cc0XcXNK.s 			page 141


 7959 0bb8 07       		.uleb128 0x7
 7960 0bb9 AB190000 		.4byte	.LASF213
 7961 0bbd 11       		.byte	0x11
 7962 0bbe B7       		.byte	0xb7
 7963 0bbf 25000000 		.4byte	0x25
 7964 0bc3 EC       		.byte	0xec
 7965 0bc4 07       		.uleb128 0x7
 7966 0bc5 95190000 		.4byte	.LASF214
 7967 0bc9 11       		.byte	0x11
 7968 0bca B8       		.byte	0xb8
 7969 0bcb 25000000 		.4byte	0x25
 7970 0bcf F0       		.byte	0xf0
 7971 0bd0 07       		.uleb128 0x7
 7972 0bd1 2A070000 		.4byte	.LASF215
 7973 0bd5 11       		.byte	0x11
 7974 0bd6 B9       		.byte	0xb9
 7975 0bd7 25000000 		.4byte	0x25
 7976 0bdb F4       		.byte	0xf4
 7977 0bdc 07       		.uleb128 0x7
 7978 0bdd 99070000 		.4byte	.LASF216
 7979 0be1 11       		.byte	0x11
 7980 0be2 BA       		.byte	0xba
 7981 0be3 25000000 		.4byte	0x25
 7982 0be7 F8       		.byte	0xf8
 7983 0be8 07       		.uleb128 0x7
 7984 0be9 2D1D0000 		.4byte	.LASF217
 7985 0bed 11       		.byte	0x11
 7986 0bee BB       		.byte	0xbb
 7987 0bef AB0C0000 		.4byte	0xcab
 7988 0bf3 FC       		.byte	0xfc
 7989 0bf4 1A       		.uleb128 0x1a
 7990 0bf5 52170000 		.4byte	.LASF218
 7991 0bf9 11       		.byte	0x11
 7992 0bfa BD       		.byte	0xbd
 7993 0bfb 25000000 		.4byte	0x25
 7994 0bff 0001     		.2byte	0x100
 7995 0c01 1A       		.uleb128 0x1a
 7996 0c02 38170000 		.4byte	.LASF219
 7997 0c06 11       		.byte	0x11
 7998 0c07 BE       		.byte	0xbe
 7999 0c08 25000000 		.4byte	0x25
 8000 0c0c 0401     		.2byte	0x104
 8001 0c0e 1A       		.uleb128 0x1a
 8002 0c0f 2F170000 		.4byte	.LASF220
 8003 0c13 11       		.byte	0x11
 8004 0c14 BF       		.byte	0xbf
 8005 0c15 25000000 		.4byte	0x25
 8006 0c19 0801     		.2byte	0x108
 8007 0c1b 1A       		.uleb128 0x1a
 8008 0c1c 75230000 		.4byte	.LASF221
 8009 0c20 11       		.byte	0x11
 8010 0c21 C0       		.byte	0xc0
 8011 0c22 25000000 		.4byte	0x25
 8012 0c26 0C01     		.2byte	0x10c
 8013 0c28 1A       		.uleb128 0x1a
 8014 0c29 1A020000 		.4byte	.LASF222
 8015 0c2d 11       		.byte	0x11
ARM GAS  /tmp/cc0XcXNK.s 			page 142


 8016 0c2e C2       		.byte	0xc2
 8017 0c2f 25000000 		.4byte	0x25
 8018 0c33 1001     		.2byte	0x110
 8019 0c35 1A       		.uleb128 0x1a
 8020 0c36 FB0A0000 		.4byte	.LASF223
 8021 0c3a 11       		.byte	0x11
 8022 0c3b C3       		.byte	0xc3
 8023 0c3c 25000000 		.4byte	0x25
 8024 0c40 1401     		.2byte	0x114
 8025 0c42 1A       		.uleb128 0x1a
 8026 0c43 9B0F0000 		.4byte	.LASF224
 8027 0c47 11       		.byte	0x11
 8028 0c48 C4       		.byte	0xc4
 8029 0c49 25000000 		.4byte	0x25
 8030 0c4d 1801     		.2byte	0x118
 8031 0c4f 1A       		.uleb128 0x1a
 8032 0c50 F2160000 		.4byte	.LASF225
 8033 0c54 11       		.byte	0x11
 8034 0c55 C5       		.byte	0xc5
 8035 0c56 25000000 		.4byte	0x25
 8036 0c5a 1C01     		.2byte	0x11c
 8037 0c5c 1A       		.uleb128 0x1a
 8038 0c5d DF060000 		.4byte	.LASF226
 8039 0c61 11       		.byte	0x11
 8040 0c62 C7       		.byte	0xc7
 8041 0c63 EB000000 		.4byte	0xeb
 8042 0c67 2001     		.2byte	0x120
 8043 0c69 1A       		.uleb128 0x1a
 8044 0c6a 73210000 		.4byte	.LASF227
 8045 0c6e 11       		.byte	0x11
 8046 0c6f C8       		.byte	0xc8
 8047 0c70 25000000 		.4byte	0x25
 8048 0c74 2401     		.2byte	0x124
 8049 0c76 1A       		.uleb128 0x1a
 8050 0c77 73030000 		.4byte	.LASF228
 8051 0c7b 11       		.byte	0x11
 8052 0c7c C9       		.byte	0xc9
 8053 0c7d 25000000 		.4byte	0x25
 8054 0c81 2801     		.2byte	0x128
 8055 0c83 1A       		.uleb128 0x1a
 8056 0c84 4B0E0000 		.4byte	.LASF229
 8057 0c88 11       		.byte	0x11
 8058 0c89 CA       		.byte	0xca
 8059 0c8a 25000000 		.4byte	0x25
 8060 0c8e 2C01     		.2byte	0x12c
 8061 0c90 1A       		.uleb128 0x1a
 8062 0c91 3F260000 		.4byte	.LASF230
 8063 0c95 11       		.byte	0x11
 8064 0c96 CB       		.byte	0xcb
 8065 0c97 F6000000 		.4byte	0xf6
 8066 0c9b 3001     		.2byte	0x130
 8067 0c9d 1A       		.uleb128 0x1a
 8068 0c9e 27080000 		.4byte	.LASF231
 8069 0ca2 11       		.byte	0x11
 8070 0ca3 CC       		.byte	0xcc
 8071 0ca4 C8080000 		.4byte	0x8c8
 8072 0ca8 3401     		.2byte	0x134
ARM GAS  /tmp/cc0XcXNK.s 			page 143


 8073 0caa 00       		.byte	0
 8074 0cab 02       		.uleb128 0x2
 8075 0cac 01       		.byte	0x1
 8076 0cad 02       		.byte	0x2
 8077 0cae 39010000 		.4byte	.LASF232
 8078 0cb2 15       		.uleb128 0x15
 8079 0cb3 BF000000 		.4byte	0xbf
 8080 0cb7 C20C0000 		.4byte	0xcc2
 8081 0cbb 16       		.uleb128 0x16
 8082 0cbc B8040000 		.4byte	0x4b8
 8083 0cc0 07       		.byte	0x7
 8084 0cc1 00       		.byte	0
 8085 0cc2 15       		.uleb128 0x15
 8086 0cc3 CA000000 		.4byte	0xca
 8087 0cc7 D20C0000 		.4byte	0xcd2
 8088 0ccb 16       		.uleb128 0x16
 8089 0ccc B8040000 		.4byte	0x4b8
 8090 0cd0 07       		.byte	0x7
 8091 0cd1 00       		.byte	0
 8092 0cd2 04       		.uleb128 0x4
 8093 0cd3 84210000 		.4byte	.LASF233
 8094 0cd7 11       		.byte	0x11
 8095 0cd8 CD       		.byte	0xcd
 8096 0cd9 D3080000 		.4byte	0x8d3
 8097 0cdd 17       		.uleb128 0x17
 8098 0cde 01       		.byte	0x1
 8099 0cdf 11       		.byte	0x11
 8100 0ce0 D0       		.byte	0xd0
 8101 0ce1 1C0D0000 		.4byte	0xd1c
 8102 0ce5 18       		.uleb128 0x18
 8103 0ce6 83170000 		.4byte	.LASF234
 8104 0cea 00       		.sleb128 0
 8105 0ceb 18       		.uleb128 0x18
 8106 0cec 770C0000 		.4byte	.LASF235
 8107 0cf0 01       		.sleb128 1
 8108 0cf1 18       		.uleb128 0x18
 8109 0cf2 F5180000 		.4byte	.LASF236
 8110 0cf6 02       		.sleb128 2
 8111 0cf7 18       		.uleb128 0x18
 8112 0cf8 6E1B0000 		.4byte	.LASF237
 8113 0cfc 03       		.sleb128 3
 8114 0cfd 18       		.uleb128 0x18
 8115 0cfe 5C180000 		.4byte	.LASF238
 8116 0d02 04       		.sleb128 4
 8117 0d03 18       		.uleb128 0x18
 8118 0d04 8D1B0000 		.4byte	.LASF239
 8119 0d08 05       		.sleb128 5
 8120 0d09 18       		.uleb128 0x18
 8121 0d0a 030C0000 		.4byte	.LASF240
 8122 0d0e 06       		.sleb128 6
 8123 0d0f 18       		.uleb128 0x18
 8124 0d10 ED180000 		.4byte	.LASF241
 8125 0d14 07       		.sleb128 7
 8126 0d15 18       		.uleb128 0x18
 8127 0d16 B21A0000 		.4byte	.LASF242
 8128 0d1a 08       		.sleb128 8
 8129 0d1b 00       		.byte	0
ARM GAS  /tmp/cc0XcXNK.s 			page 144


 8130 0d1c 04       		.uleb128 0x4
 8131 0d1d AA040000 		.4byte	.LASF243
 8132 0d21 11       		.byte	0x11
 8133 0d22 DA       		.byte	0xda
 8134 0d23 DD0C0000 		.4byte	0xcdd
 8135 0d27 17       		.uleb128 0x17
 8136 0d28 01       		.byte	0x1
 8137 0d29 11       		.byte	0x11
 8138 0d2a DD       		.byte	0xdd
 8139 0d2b 720D0000 		.4byte	0xd72
 8140 0d2f 18       		.uleb128 0x18
 8141 0d30 51000000 		.4byte	.LASF244
 8142 0d34 00       		.sleb128 0
 8143 0d35 18       		.uleb128 0x18
 8144 0d36 36110000 		.4byte	.LASF245
 8145 0d3a 01       		.sleb128 1
 8146 0d3b 18       		.uleb128 0x18
 8147 0d3c 39250000 		.4byte	.LASF246
 8148 0d40 02       		.sleb128 2
 8149 0d41 18       		.uleb128 0x18
 8150 0d42 0D140000 		.4byte	.LASF247
 8151 0d46 03       		.sleb128 3
 8152 0d47 18       		.uleb128 0x18
 8153 0d48 CE1F0000 		.4byte	.LASF248
 8154 0d4c 04       		.sleb128 4
 8155 0d4d 18       		.uleb128 0x18
 8156 0d4e F21D0000 		.4byte	.LASF249
 8157 0d52 05       		.sleb128 5
 8158 0d53 18       		.uleb128 0x18
 8159 0d54 8B150000 		.4byte	.LASF250
 8160 0d58 06       		.sleb128 6
 8161 0d59 18       		.uleb128 0x18
 8162 0d5a 6F060000 		.4byte	.LASF251
 8163 0d5e 07       		.sleb128 7
 8164 0d5f 18       		.uleb128 0x18
 8165 0d60 C3100000 		.4byte	.LASF252
 8166 0d64 08       		.sleb128 8
 8167 0d65 18       		.uleb128 0x18
 8168 0d66 81220000 		.4byte	.LASF253
 8169 0d6a 09       		.sleb128 9
 8170 0d6b 18       		.uleb128 0x18
 8171 0d6c 36200000 		.4byte	.LASF254
 8172 0d70 0A       		.sleb128 10
 8173 0d71 00       		.byte	0
 8174 0d72 04       		.uleb128 0x4
 8175 0d73 F10C0000 		.4byte	.LASF255
 8176 0d77 11       		.byte	0x11
 8177 0d78 E9       		.byte	0xe9
 8178 0d79 270D0000 		.4byte	0xd27
 8179 0d7d 11       		.uleb128 0x11
 8180 0d7e 3C       		.byte	0x3c
 8181 0d7f 11       		.byte	0x11
 8182 0d80 EB       		.byte	0xeb
 8183 0d81 510E0000 		.4byte	0xe51
 8184 0d85 07       		.uleb128 0x7
 8185 0d86 23000000 		.4byte	.LASF256
 8186 0d8a 11       		.byte	0x11
ARM GAS  /tmp/cc0XcXNK.s 			page 145


 8187 0d8b EC       		.byte	0xec
 8188 0d8c 720D0000 		.4byte	0xd72
 8189 0d90 00       		.byte	0
 8190 0d91 07       		.uleb128 0x7
 8191 0d92 4F220000 		.4byte	.LASF257
 8192 0d96 11       		.byte	0x11
 8193 0d97 ED       		.byte	0xed
 8194 0d98 25000000 		.4byte	0x25
 8195 0d9c 04       		.byte	0x4
 8196 0d9d 07       		.uleb128 0x7
 8197 0d9e 34010000 		.4byte	.LASF258
 8198 0da2 11       		.byte	0x11
 8199 0da3 EE       		.byte	0xee
 8200 0da4 25000000 		.4byte	0x25
 8201 0da8 08       		.byte	0x8
 8202 0da9 07       		.uleb128 0x7
 8203 0daa DA230000 		.4byte	.LASF259
 8204 0dae 11       		.byte	0x11
 8205 0daf EF       		.byte	0xef
 8206 0db0 25000000 		.4byte	0x25
 8207 0db4 0C       		.byte	0xc
 8208 0db5 07       		.uleb128 0x7
 8209 0db6 120B0000 		.4byte	.LASF260
 8210 0dba 11       		.byte	0x11
 8211 0dbb F0       		.byte	0xf0
 8212 0dbc 25000000 		.4byte	0x25
 8213 0dc0 10       		.byte	0x10
 8214 0dc1 07       		.uleb128 0x7
 8215 0dc2 F9070000 		.4byte	.LASF261
 8216 0dc6 11       		.byte	0x11
 8217 0dc7 F1       		.byte	0xf1
 8218 0dc8 AB0C0000 		.4byte	0xcab
 8219 0dcc 14       		.byte	0x14
 8220 0dcd 07       		.uleb128 0x7
 8221 0dce A91D0000 		.4byte	.LASF262
 8222 0dd2 11       		.byte	0x11
 8223 0dd3 F2       		.byte	0xf2
 8224 0dd4 AB0C0000 		.4byte	0xcab
 8225 0dd8 15       		.byte	0x15
 8226 0dd9 07       		.uleb128 0x7
 8227 0dda 58040000 		.4byte	.LASF263
 8228 0dde 11       		.byte	0x11
 8229 0ddf F3       		.byte	0xf3
 8230 0de0 25000000 		.4byte	0x25
 8231 0de4 18       		.byte	0x18
 8232 0de5 07       		.uleb128 0x7
 8233 0de6 55130000 		.4byte	.LASF264
 8234 0dea 11       		.byte	0x11
 8235 0deb F4       		.byte	0xf4
 8236 0dec 25000000 		.4byte	0x25
 8237 0df0 1C       		.byte	0x1c
 8238 0df1 07       		.uleb128 0x7
 8239 0df2 CC020000 		.4byte	.LASF265
 8240 0df6 11       		.byte	0x11
 8241 0df7 F5       		.byte	0xf5
 8242 0df8 AB0C0000 		.4byte	0xcab
 8243 0dfc 20       		.byte	0x20
ARM GAS  /tmp/cc0XcXNK.s 			page 146


 8244 0dfd 10       		.uleb128 0x10
 8245 0dfe 746300   		.ascii	"tc\000"
 8246 0e01 11       		.byte	0x11
 8247 0e02 F6       		.byte	0xf6
 8248 0e03 AB0C0000 		.4byte	0xcab
 8249 0e07 21       		.byte	0x21
 8250 0e08 07       		.uleb128 0x7
 8251 0e09 2F050000 		.4byte	.LASF266
 8252 0e0d 11       		.byte	0x11
 8253 0e0e F7       		.byte	0xf7
 8254 0e0f 25000000 		.4byte	0x25
 8255 0e13 24       		.byte	0x24
 8256 0e14 07       		.uleb128 0x7
 8257 0e15 F2110000 		.4byte	.LASF267
 8258 0e19 11       		.byte	0x11
 8259 0e1a F8       		.byte	0xf8
 8260 0e1b 25000000 		.4byte	0x25
 8261 0e1f 28       		.byte	0x28
 8262 0e20 07       		.uleb128 0x7
 8263 0e21 2E0D0000 		.4byte	.LASF268
 8264 0e25 11       		.byte	0x11
 8265 0e26 F9       		.byte	0xf9
 8266 0e27 25000000 		.4byte	0x25
 8267 0e2b 2C       		.byte	0x2c
 8268 0e2c 07       		.uleb128 0x7
 8269 0e2d 64000000 		.4byte	.LASF269
 8270 0e31 11       		.byte	0x11
 8271 0e32 FA       		.byte	0xfa
 8272 0e33 AB0C0000 		.4byte	0xcab
 8273 0e37 30       		.byte	0x30
 8274 0e38 07       		.uleb128 0x7
 8275 0e39 C2040000 		.4byte	.LASF270
 8276 0e3d 11       		.byte	0x11
 8277 0e3e FB       		.byte	0xfb
 8278 0e3f 25000000 		.4byte	0x25
 8279 0e43 34       		.byte	0x34
 8280 0e44 07       		.uleb128 0x7
 8281 0e45 B00B0000 		.4byte	.LASF271
 8282 0e49 11       		.byte	0x11
 8283 0e4a FC       		.byte	0xfc
 8284 0e4b 25000000 		.4byte	0x25
 8285 0e4f 38       		.byte	0x38
 8286 0e50 00       		.byte	0
 8287 0e51 04       		.uleb128 0x4
 8288 0e52 56060000 		.4byte	.LASF272
 8289 0e56 11       		.byte	0x11
 8290 0e57 FD       		.byte	0xfd
 8291 0e58 7D0D0000 		.4byte	0xd7d
 8292 0e5c 1B       		.uleb128 0x1b
 8293 0e5d 01       		.byte	0x1
 8294 0e5e 11       		.byte	0x11
 8295 0e5f 0001     		.2byte	0x100
 8296 0e61 A20E0000 		.4byte	0xea2
 8297 0e65 18       		.uleb128 0x18
 8298 0e66 671D0000 		.4byte	.LASF273
 8299 0e6a 00       		.sleb128 0
 8300 0e6b 18       		.uleb128 0x18
ARM GAS  /tmp/cc0XcXNK.s 			page 147


 8301 0e6c EA210000 		.4byte	.LASF274
 8302 0e70 01       		.sleb128 1
 8303 0e71 18       		.uleb128 0x18
 8304 0e72 410B0000 		.4byte	.LASF275
 8305 0e76 02       		.sleb128 2
 8306 0e77 18       		.uleb128 0x18
 8307 0e78 1D0A0000 		.4byte	.LASF276
 8308 0e7c 03       		.sleb128 3
 8309 0e7d 18       		.uleb128 0x18
 8310 0e7e 630F0000 		.4byte	.LASF277
 8311 0e82 04       		.sleb128 4
 8312 0e83 18       		.uleb128 0x18
 8313 0e84 DE020000 		.4byte	.LASF278
 8314 0e88 05       		.sleb128 5
 8315 0e89 18       		.uleb128 0x18
 8316 0e8a A7250000 		.4byte	.LASF279
 8317 0e8e 06       		.sleb128 6
 8318 0e8f 18       		.uleb128 0x18
 8319 0e90 CD160000 		.4byte	.LASF280
 8320 0e94 07       		.sleb128 7
 8321 0e95 18       		.uleb128 0x18
 8322 0e96 D30C0000 		.4byte	.LASF281
 8323 0e9a 08       		.sleb128 8
 8324 0e9b 18       		.uleb128 0x18
 8325 0e9c DD0F0000 		.4byte	.LASF282
 8326 0ea0 09       		.sleb128 9
 8327 0ea1 00       		.byte	0
 8328 0ea2 1C       		.uleb128 0x1c
 8329 0ea3 74190000 		.4byte	.LASF283
 8330 0ea7 11       		.byte	0x11
 8331 0ea8 0B01     		.2byte	0x10b
 8332 0eaa 5C0E0000 		.4byte	0xe5c
 8333 0eae 1D       		.uleb128 0x1d
 8334 0eaf 2C       		.byte	0x2c
 8335 0eb0 11       		.byte	0x11
 8336 0eb1 0D01     		.2byte	0x10d
 8337 0eb3 7A0F0000 		.4byte	0xf7a
 8338 0eb7 09       		.uleb128 0x9
 8339 0eb8 23000000 		.4byte	.LASF256
 8340 0ebc 11       		.byte	0x11
 8341 0ebd 0E01     		.2byte	0x10e
 8342 0ebf A20E0000 		.4byte	0xea2
 8343 0ec3 00       		.byte	0
 8344 0ec4 09       		.uleb128 0x9
 8345 0ec5 34010000 		.4byte	.LASF258
 8346 0ec9 11       		.byte	0x11
 8347 0eca 0F01     		.2byte	0x10f
 8348 0ecc 25000000 		.4byte	0x25
 8349 0ed0 04       		.byte	0x4
 8350 0ed1 09       		.uleb128 0x9
 8351 0ed2 87060000 		.4byte	.LASF284
 8352 0ed6 11       		.byte	0x11
 8353 0ed7 1001     		.2byte	0x110
 8354 0ed9 25000000 		.4byte	0x25
 8355 0edd 08       		.byte	0x8
 8356 0ede 09       		.uleb128 0x9
 8357 0edf A1170000 		.4byte	.LASF285
ARM GAS  /tmp/cc0XcXNK.s 			page 148


 8358 0ee3 11       		.byte	0x11
 8359 0ee4 1101     		.2byte	0x111
 8360 0ee6 25000000 		.4byte	0x25
 8361 0eea 0C       		.byte	0xc
 8362 0eeb 09       		.uleb128 0x9
 8363 0eec 5A210000 		.4byte	.LASF286
 8364 0ef0 11       		.byte	0x11
 8365 0ef1 1201     		.2byte	0x112
 8366 0ef3 AB0C0000 		.4byte	0xcab
 8367 0ef7 10       		.byte	0x10
 8368 0ef8 09       		.uleb128 0x9
 8369 0ef9 A91D0000 		.4byte	.LASF262
 8370 0efd 11       		.byte	0x11
 8371 0efe 1301     		.2byte	0x113
 8372 0f00 AB0C0000 		.4byte	0xcab
 8373 0f04 11       		.byte	0x11
 8374 0f05 09       		.uleb128 0x9
 8375 0f06 3F010000 		.4byte	.LASF287
 8376 0f0a 11       		.byte	0x11
 8377 0f0b 1401     		.2byte	0x114
 8378 0f0d AB0C0000 		.4byte	0xcab
 8379 0f11 12       		.byte	0x12
 8380 0f12 09       		.uleb128 0x9
 8381 0f13 C31B0000 		.4byte	.LASF288
 8382 0f17 11       		.byte	0x11
 8383 0f18 1501     		.2byte	0x115
 8384 0f1a AB0C0000 		.4byte	0xcab
 8385 0f1e 13       		.byte	0x13
 8386 0f1f 09       		.uleb128 0x9
 8387 0f20 6B010000 		.4byte	.LASF289
 8388 0f24 11       		.byte	0x11
 8389 0f25 1601     		.2byte	0x116
 8390 0f27 AB0C0000 		.4byte	0xcab
 8391 0f2b 14       		.byte	0x14
 8392 0f2c 09       		.uleb128 0x9
 8393 0f2d 58040000 		.4byte	.LASF263
 8394 0f31 11       		.byte	0x11
 8395 0f32 1701     		.2byte	0x117
 8396 0f34 25000000 		.4byte	0x25
 8397 0f38 18       		.byte	0x18
 8398 0f39 09       		.uleb128 0x9
 8399 0f3a 55130000 		.4byte	.LASF264
 8400 0f3e 11       		.byte	0x11
 8401 0f3f 1801     		.2byte	0x118
 8402 0f41 25000000 		.4byte	0x25
 8403 0f45 1C       		.byte	0x1c
 8404 0f46 09       		.uleb128 0x9
 8405 0f47 CC020000 		.4byte	.LASF265
 8406 0f4b 11       		.byte	0x11
 8407 0f4c 1901     		.2byte	0x119
 8408 0f4e AB0C0000 		.4byte	0xcab
 8409 0f52 20       		.byte	0x20
 8410 0f53 08       		.uleb128 0x8
 8411 0f54 746300   		.ascii	"tc\000"
 8412 0f57 11       		.byte	0x11
 8413 0f58 1A01     		.2byte	0x11a
 8414 0f5a AB0C0000 		.4byte	0xcab
ARM GAS  /tmp/cc0XcXNK.s 			page 149


 8415 0f5e 21       		.byte	0x21
 8416 0f5f 09       		.uleb128 0x9
 8417 0f60 2F050000 		.4byte	.LASF266
 8418 0f64 11       		.byte	0x11
 8419 0f65 1B01     		.2byte	0x11b
 8420 0f67 25000000 		.4byte	0x25
 8421 0f6b 24       		.byte	0x24
 8422 0f6c 09       		.uleb128 0x9
 8423 0f6d 56080000 		.4byte	.LASF290
 8424 0f71 11       		.byte	0x11
 8425 0f72 1C01     		.2byte	0x11c
 8426 0f74 F6000000 		.4byte	0xf6
 8427 0f78 28       		.byte	0x28
 8428 0f79 00       		.byte	0
 8429 0f7a 1C       		.uleb128 0x1c
 8430 0f7b CE060000 		.4byte	.LASF291
 8431 0f7f 11       		.byte	0x11
 8432 0f80 1D01     		.2byte	0x11d
 8433 0f82 AE0E0000 		.4byte	0xeae
 8434 0f86 1B       		.uleb128 0x1b
 8435 0f87 01       		.byte	0x1
 8436 0f88 11       		.byte	0x11
 8437 0f89 2001     		.2byte	0x120
 8438 0f8b AE0F0000 		.4byte	0xfae
 8439 0f8f 18       		.uleb128 0x18
 8440 0f90 4C140000 		.4byte	.LASF292
 8441 0f94 00       		.sleb128 0
 8442 0f95 18       		.uleb128 0x18
 8443 0f96 00000000 		.4byte	.LASF293
 8444 0f9a 01       		.sleb128 1
 8445 0f9b 18       		.uleb128 0x18
 8446 0f9c 2F140000 		.4byte	.LASF294
 8447 0fa0 02       		.sleb128 2
 8448 0fa1 18       		.uleb128 0x18
 8449 0fa2 14180000 		.4byte	.LASF295
 8450 0fa6 03       		.sleb128 3
 8451 0fa7 18       		.uleb128 0x18
 8452 0fa8 A9010000 		.4byte	.LASF296
 8453 0fac 04       		.sleb128 4
 8454 0fad 00       		.byte	0
 8455 0fae 1C       		.uleb128 0x1c
 8456 0faf D4140000 		.4byte	.LASF297
 8457 0fb3 11       		.byte	0x11
 8458 0fb4 2601     		.2byte	0x126
 8459 0fb6 860F0000 		.4byte	0xf86
 8460 0fba 1D       		.uleb128 0x1d
 8461 0fbb 34       		.byte	0x34
 8462 0fbc 11       		.byte	0x11
 8463 0fbd 2801     		.2byte	0x128
 8464 0fbf 79100000 		.4byte	0x1079
 8465 0fc3 09       		.uleb128 0x9
 8466 0fc4 23000000 		.4byte	.LASF256
 8467 0fc8 11       		.byte	0x11
 8468 0fc9 2901     		.2byte	0x129
 8469 0fcb AE0F0000 		.4byte	0xfae
 8470 0fcf 00       		.byte	0
 8471 0fd0 09       		.uleb128 0x9
ARM GAS  /tmp/cc0XcXNK.s 			page 150


 8472 0fd1 34010000 		.4byte	.LASF258
 8473 0fd5 11       		.byte	0x11
 8474 0fd6 2A01     		.2byte	0x12a
 8475 0fd8 25000000 		.4byte	0x25
 8476 0fdc 04       		.byte	0x4
 8477 0fdd 09       		.uleb128 0x9
 8478 0fde 58040000 		.4byte	.LASF263
 8479 0fe2 11       		.byte	0x11
 8480 0fe3 2B01     		.2byte	0x12b
 8481 0fe5 25000000 		.4byte	0x25
 8482 0fe9 08       		.byte	0x8
 8483 0fea 09       		.uleb128 0x9
 8484 0feb 55130000 		.4byte	.LASF264
 8485 0fef 11       		.byte	0x11
 8486 0ff0 2C01     		.2byte	0x12c
 8487 0ff2 25000000 		.4byte	0x25
 8488 0ff6 0C       		.byte	0xc
 8489 0ff7 09       		.uleb128 0x9
 8490 0ff8 06180000 		.4byte	.LASF298
 8491 0ffc 11       		.byte	0x11
 8492 0ffd 2D01     		.2byte	0x12d
 8493 0fff 25000000 		.4byte	0x25
 8494 1003 10       		.byte	0x10
 8495 1004 09       		.uleb128 0x9
 8496 1005 550A0000 		.4byte	.LASF299
 8497 1009 11       		.byte	0x11
 8498 100a 2E01     		.2byte	0x12e
 8499 100c 25000000 		.4byte	0x25
 8500 1010 14       		.byte	0x14
 8501 1011 09       		.uleb128 0x9
 8502 1012 C7080000 		.4byte	.LASF300
 8503 1016 11       		.byte	0x11
 8504 1017 2F01     		.2byte	0x12f
 8505 1019 25000000 		.4byte	0x25
 8506 101d 18       		.byte	0x18
 8507 101e 09       		.uleb128 0x9
 8508 101f CC020000 		.4byte	.LASF265
 8509 1023 11       		.byte	0x11
 8510 1024 3001     		.2byte	0x130
 8511 1026 AB0C0000 		.4byte	0xcab
 8512 102a 1C       		.byte	0x1c
 8513 102b 08       		.uleb128 0x8
 8514 102c 746300   		.ascii	"tc\000"
 8515 102f 11       		.byte	0x11
 8516 1030 3101     		.2byte	0x131
 8517 1032 AB0C0000 		.4byte	0xcab
 8518 1036 1D       		.byte	0x1d
 8519 1037 09       		.uleb128 0x9
 8520 1038 2F050000 		.4byte	.LASF266
 8521 103c 11       		.byte	0x11
 8522 103d 3201     		.2byte	0x132
 8523 103f 25000000 		.4byte	0x25
 8524 1043 20       		.byte	0x20
 8525 1044 09       		.uleb128 0x9
 8526 1045 2E0D0000 		.4byte	.LASF268
 8527 1049 11       		.byte	0x11
 8528 104a 3301     		.2byte	0x133
ARM GAS  /tmp/cc0XcXNK.s 			page 151


 8529 104c 25000000 		.4byte	0x25
 8530 1050 24       		.byte	0x24
 8531 1051 09       		.uleb128 0x9
 8532 1052 64000000 		.4byte	.LASF269
 8533 1056 11       		.byte	0x11
 8534 1057 3401     		.2byte	0x134
 8535 1059 AB0C0000 		.4byte	0xcab
 8536 105d 28       		.byte	0x28
 8537 105e 09       		.uleb128 0x9
 8538 105f C2040000 		.4byte	.LASF270
 8539 1063 11       		.byte	0x11
 8540 1064 3501     		.2byte	0x135
 8541 1066 25000000 		.4byte	0x25
 8542 106a 2C       		.byte	0x2c
 8543 106b 09       		.uleb128 0x9
 8544 106c B00B0000 		.4byte	.LASF271
 8545 1070 11       		.byte	0x11
 8546 1071 3601     		.2byte	0x136
 8547 1073 25000000 		.4byte	0x25
 8548 1077 30       		.byte	0x30
 8549 1078 00       		.byte	0
 8550 1079 1C       		.uleb128 0x1c
 8551 107a 5B1D0000 		.4byte	.LASF301
 8552 107e 11       		.byte	0x11
 8553 107f 3701     		.2byte	0x137
 8554 1081 BA0F0000 		.4byte	0xfba
 8555 1085 1B       		.uleb128 0x1b
 8556 1086 01       		.byte	0x1
 8557 1087 11       		.byte	0x11
 8558 1088 3A01     		.2byte	0x13a
 8559 108a A1100000 		.4byte	0x10a1
 8560 108e 18       		.uleb128 0x18
 8561 108f F1130000 		.4byte	.LASF302
 8562 1093 00       		.sleb128 0
 8563 1094 18       		.uleb128 0x18
 8564 1095 121A0000 		.4byte	.LASF303
 8565 1099 01       		.sleb128 1
 8566 109a 18       		.uleb128 0x18
 8567 109b 481B0000 		.4byte	.LASF304
 8568 109f 02       		.sleb128 2
 8569 10a0 00       		.byte	0
 8570 10a1 1C       		.uleb128 0x1c
 8571 10a2 4B0A0000 		.4byte	.LASF305
 8572 10a6 11       		.byte	0x11
 8573 10a7 3E01     		.2byte	0x13e
 8574 10a9 85100000 		.4byte	0x1085
 8575 10ad 1B       		.uleb128 0x1b
 8576 10ae 01       		.byte	0x1
 8577 10af 11       		.byte	0x11
 8578 10b0 4001     		.2byte	0x140
 8579 10b2 CF100000 		.4byte	0x10cf
 8580 10b6 18       		.uleb128 0x18
 8581 10b7 DD010000 		.4byte	.LASF306
 8582 10bb 00       		.sleb128 0
 8583 10bc 18       		.uleb128 0x18
 8584 10bd 57050000 		.4byte	.LASF307
 8585 10c1 01       		.sleb128 1
ARM GAS  /tmp/cc0XcXNK.s 			page 152


 8586 10c2 18       		.uleb128 0x18
 8587 10c3 D6070000 		.4byte	.LASF308
 8588 10c7 02       		.sleb128 2
 8589 10c8 18       		.uleb128 0x18
 8590 10c9 1C030000 		.4byte	.LASF309
 8591 10cd 03       		.sleb128 3
 8592 10ce 00       		.byte	0
 8593 10cf 1C       		.uleb128 0x1c
 8594 10d0 6A160000 		.4byte	.LASF310
 8595 10d4 11       		.byte	0x11
 8596 10d5 4501     		.2byte	0x145
 8597 10d7 AD100000 		.4byte	0x10ad
 8598 10db 1B       		.uleb128 0x1b
 8599 10dc 01       		.byte	0x1
 8600 10dd 11       		.byte	0x11
 8601 10de 4D01     		.2byte	0x14d
 8602 10e0 F7100000 		.4byte	0x10f7
 8603 10e4 18       		.uleb128 0x18
 8604 10e5 41170000 		.4byte	.LASF311
 8605 10e9 00       		.sleb128 0
 8606 10ea 18       		.uleb128 0x18
 8607 10eb 00220000 		.4byte	.LASF312
 8608 10ef 01       		.sleb128 1
 8609 10f0 18       		.uleb128 0x18
 8610 10f1 EB220000 		.4byte	.LASF313
 8611 10f5 02       		.sleb128 2
 8612 10f6 00       		.byte	0
 8613 10f7 1C       		.uleb128 0x1c
 8614 10f8 0D060000 		.4byte	.LASF314
 8615 10fc 11       		.byte	0x11
 8616 10fd 5101     		.2byte	0x151
 8617 10ff DB100000 		.4byte	0x10db
 8618 1103 1B       		.uleb128 0x1b
 8619 1104 01       		.byte	0x1
 8620 1105 11       		.byte	0x11
 8621 1106 5301     		.2byte	0x153
 8622 1108 6D110000 		.4byte	0x116d
 8623 110c 18       		.uleb128 0x18
 8624 110d 76130000 		.4byte	.LASF315
 8625 1111 00       		.sleb128 0
 8626 1112 18       		.uleb128 0x18
 8627 1113 07030000 		.4byte	.LASF316
 8628 1117 01       		.sleb128 1
 8629 1118 18       		.uleb128 0x18
 8630 1119 02010000 		.4byte	.LASF317
 8631 111d 02       		.sleb128 2
 8632 111e 18       		.uleb128 0x18
 8633 111f 28210000 		.4byte	.LASF318
 8634 1123 03       		.sleb128 3
 8635 1124 18       		.uleb128 0x18
 8636 1125 08230000 		.4byte	.LASF319
 8637 1129 04       		.sleb128 4
 8638 112a 18       		.uleb128 0x18
 8639 112b A30F0000 		.4byte	.LASF320
 8640 112f 05       		.sleb128 5
 8641 1130 18       		.uleb128 0x18
 8642 1131 00110000 		.4byte	.LASF321
ARM GAS  /tmp/cc0XcXNK.s 			page 153


 8643 1135 06       		.sleb128 6
 8644 1136 18       		.uleb128 0x18
 8645 1137 05200000 		.4byte	.LASF322
 8646 113b 07       		.sleb128 7
 8647 113c 18       		.uleb128 0x18
 8648 113d 20220000 		.4byte	.LASF323
 8649 1141 08       		.sleb128 8
 8650 1142 18       		.uleb128 0x18
 8651 1143 720D0000 		.4byte	.LASF324
 8652 1147 09       		.sleb128 9
 8653 1148 18       		.uleb128 0x18
 8654 1149 A2100000 		.4byte	.LASF325
 8655 114d 0A       		.sleb128 10
 8656 114e 18       		.uleb128 0x18
 8657 114f 851F0000 		.4byte	.LASF326
 8658 1153 0B       		.sleb128 11
 8659 1154 18       		.uleb128 0x18
 8660 1155 A1210000 		.4byte	.LASF327
 8661 1159 0C       		.sleb128 12
 8662 115a 18       		.uleb128 0x18
 8663 115b 040F0000 		.4byte	.LASF328
 8664 115f 0D       		.sleb128 13
 8665 1160 18       		.uleb128 0x18
 8666 1161 32180000 		.4byte	.LASF329
 8667 1165 0E       		.sleb128 14
 8668 1166 18       		.uleb128 0x18
 8669 1167 18090000 		.4byte	.LASF330
 8670 116b 0F       		.sleb128 15
 8671 116c 00       		.byte	0
 8672 116d 1C       		.uleb128 0x1c
 8673 116e E7030000 		.4byte	.LASF331
 8674 1172 11       		.byte	0x11
 8675 1173 6401     		.2byte	0x164
 8676 1175 03110000 		.4byte	0x1103
 8677 1179 1D       		.uleb128 0x1d
 8678 117a 0A       		.byte	0xa
 8679 117b 11       		.byte	0x11
 8680 117c 6601     		.2byte	0x166
 8681 117e EB110000 		.4byte	0x11eb
 8682 1182 09       		.uleb128 0x9
 8683 1183 911C0000 		.4byte	.LASF332
 8684 1187 11       		.byte	0x11
 8685 1188 6701     		.2byte	0x167
 8686 118a A1100000 		.4byte	0x10a1
 8687 118e 00       		.byte	0
 8688 118f 09       		.uleb128 0x9
 8689 1190 7D170000 		.4byte	.LASF333
 8690 1194 11       		.byte	0x11
 8691 1195 6801     		.2byte	0x168
 8692 1197 CF100000 		.4byte	0x10cf
 8693 119b 01       		.byte	0x1
 8694 119c 09       		.uleb128 0x9
 8695 119d 9F140000 		.4byte	.LASF334
 8696 11a1 11       		.byte	0x11
 8697 11a2 6901     		.2byte	0x169
 8698 11a4 F7100000 		.4byte	0x10f7
 8699 11a8 02       		.byte	0x2
ARM GAS  /tmp/cc0XcXNK.s 			page 154


 8700 11a9 09       		.uleb128 0x9
 8701 11aa C9220000 		.4byte	.LASF335
 8702 11ae 11       		.byte	0x11
 8703 11af 6A01     		.2byte	0x16a
 8704 11b1 6D110000 		.4byte	0x116d
 8705 11b5 03       		.byte	0x3
 8706 11b6 09       		.uleb128 0x9
 8707 11b7 D6020000 		.4byte	.LASF336
 8708 11bb 11       		.byte	0x11
 8709 11bc 6B01     		.2byte	0x16b
 8710 11be 50000000 		.4byte	0x50
 8711 11c2 04       		.byte	0x4
 8712 11c3 09       		.uleb128 0x9
 8713 11c4 930F0000 		.4byte	.LASF337
 8714 11c8 11       		.byte	0x11
 8715 11c9 6C01     		.2byte	0x16c
 8716 11cb 50000000 		.4byte	0x50
 8717 11cf 05       		.byte	0x5
 8718 11d0 09       		.uleb128 0x9
 8719 11d1 440F0000 		.4byte	.LASF338
 8720 11d5 11       		.byte	0x11
 8721 11d6 6D01     		.2byte	0x16d
 8722 11d8 EB110000 		.4byte	0x11eb
 8723 11dc 06       		.byte	0x6
 8724 11dd 09       		.uleb128 0x9
 8725 11de 600C0000 		.4byte	.LASF339
 8726 11e2 11       		.byte	0x11
 8727 11e3 6E01     		.2byte	0x16e
 8728 11e5 AB0C0000 		.4byte	0xcab
 8729 11e9 09       		.byte	0x9
 8730 11ea 00       		.byte	0
 8731 11eb 15       		.uleb128 0x15
 8732 11ec 50000000 		.4byte	0x50
 8733 11f0 FB110000 		.4byte	0x11fb
 8734 11f4 16       		.uleb128 0x16
 8735 11f5 B8040000 		.4byte	0x4b8
 8736 11f9 02       		.byte	0x2
 8737 11fa 00       		.byte	0
 8738 11fb 1C       		.uleb128 0x1c
 8739 11fc CB070000 		.4byte	.LASF340
 8740 1200 11       		.byte	0x11
 8741 1201 6F01     		.2byte	0x16f
 8742 1203 79110000 		.4byte	0x1179
 8743 1207 1D       		.uleb128 0x1d
 8744 1208 3C       		.byte	0x3c
 8745 1209 11       		.byte	0x11
 8746 120a 7101     		.2byte	0x171
 8747 120c D4120000 		.4byte	0x12d4
 8748 1210 09       		.uleb128 0x9
 8749 1211 DE1B0000 		.4byte	.LASF341
 8750 1215 11       		.byte	0x11
 8751 1216 7201     		.2byte	0x172
 8752 1218 AB0C0000 		.4byte	0xcab
 8753 121c 00       		.byte	0
 8754 121d 09       		.uleb128 0x9
 8755 121e 53150000 		.4byte	.LASF342
 8756 1222 11       		.byte	0x11
ARM GAS  /tmp/cc0XcXNK.s 			page 155


 8757 1223 7301     		.2byte	0x173
 8758 1225 25000000 		.4byte	0x25
 8759 1229 04       		.byte	0x4
 8760 122a 09       		.uleb128 0x9
 8761 122b 0F0C0000 		.4byte	.LASF343
 8762 122f 11       		.byte	0x11
 8763 1230 7401     		.2byte	0x174
 8764 1232 25000000 		.4byte	0x25
 8765 1236 08       		.byte	0x8
 8766 1237 09       		.uleb128 0x9
 8767 1238 70120000 		.4byte	.LASF344
 8768 123c 11       		.byte	0x11
 8769 123d 7501     		.2byte	0x175
 8770 123f 25000000 		.4byte	0x25
 8771 1243 0C       		.byte	0xc
 8772 1244 09       		.uleb128 0x9
 8773 1245 061A0000 		.4byte	.LASF345
 8774 1249 11       		.byte	0x11
 8775 124a 7601     		.2byte	0x176
 8776 124c 25000000 		.4byte	0x25
 8777 1250 10       		.byte	0x10
 8778 1251 09       		.uleb128 0x9
 8779 1252 5C220000 		.4byte	.LASF346
 8780 1256 11       		.byte	0x11
 8781 1257 7701     		.2byte	0x177
 8782 1259 25000000 		.4byte	0x25
 8783 125d 14       		.byte	0x14
 8784 125e 09       		.uleb128 0x9
 8785 125f 95210000 		.4byte	.LASF347
 8786 1263 11       		.byte	0x11
 8787 1264 7801     		.2byte	0x178
 8788 1266 25000000 		.4byte	0x25
 8789 126a 18       		.byte	0x18
 8790 126b 09       		.uleb128 0x9
 8791 126c 1B0C0000 		.4byte	.LASF348
 8792 1270 11       		.byte	0x11
 8793 1271 7901     		.2byte	0x179
 8794 1273 25000000 		.4byte	0x25
 8795 1277 1C       		.byte	0x1c
 8796 1278 09       		.uleb128 0x9
 8797 1279 6F050000 		.4byte	.LASF349
 8798 127d 11       		.byte	0x11
 8799 127e 7A01     		.2byte	0x17a
 8800 1280 25000000 		.4byte	0x25
 8801 1284 20       		.byte	0x20
 8802 1285 09       		.uleb128 0x9
 8803 1286 6E100000 		.4byte	.LASF350
 8804 128a 11       		.byte	0x11
 8805 128b 7B01     		.2byte	0x17b
 8806 128d 25000000 		.4byte	0x25
 8807 1291 24       		.byte	0x24
 8808 1292 09       		.uleb128 0x9
 8809 1293 481C0000 		.4byte	.LASF351
 8810 1297 11       		.byte	0x11
 8811 1298 7C01     		.2byte	0x17c
 8812 129a 25000000 		.4byte	0x25
 8813 129e 28       		.byte	0x28
ARM GAS  /tmp/cc0XcXNK.s 			page 156


 8814 129f 09       		.uleb128 0x9
 8815 12a0 310B0000 		.4byte	.LASF352
 8816 12a4 11       		.byte	0x11
 8817 12a5 7D01     		.2byte	0x17d
 8818 12a7 25000000 		.4byte	0x25
 8819 12ab 2C       		.byte	0x2c
 8820 12ac 09       		.uleb128 0x9
 8821 12ad 1E160000 		.4byte	.LASF353
 8822 12b1 11       		.byte	0x11
 8823 12b2 7E01     		.2byte	0x17e
 8824 12b4 25000000 		.4byte	0x25
 8825 12b8 30       		.byte	0x30
 8826 12b9 09       		.uleb128 0x9
 8827 12ba 90110000 		.4byte	.LASF354
 8828 12be 11       		.byte	0x11
 8829 12bf 7F01     		.2byte	0x17f
 8830 12c1 25000000 		.4byte	0x25
 8831 12c5 34       		.byte	0x34
 8832 12c6 09       		.uleb128 0x9
 8833 12c7 60140000 		.4byte	.LASF355
 8834 12cb 11       		.byte	0x11
 8835 12cc 8001     		.2byte	0x180
 8836 12ce 25000000 		.4byte	0x25
 8837 12d2 38       		.byte	0x38
 8838 12d3 00       		.byte	0
 8839 12d4 1C       		.uleb128 0x1c
 8840 12d5 1A0F0000 		.4byte	.LASF356
 8841 12d9 11       		.byte	0x11
 8842 12da 8101     		.2byte	0x181
 8843 12dc 07120000 		.4byte	0x1207
 8844 12e0 1E       		.uleb128 0x1e
 8845 12e1 0001     		.2byte	0x100
 8846 12e3 11       		.byte	0x11
 8847 12e4 8301     		.2byte	0x183
 8848 12e6 87130000 		.4byte	0x1387
 8849 12ea 09       		.uleb128 0x9
 8850 12eb 83230000 		.4byte	.LASF357
 8851 12ef 11       		.byte	0x11
 8852 12f0 8501     		.2byte	0x185
 8853 12f2 CA000000 		.4byte	0xca
 8854 12f6 00       		.byte	0
 8855 12f7 09       		.uleb128 0x9
 8856 12f8 9B0B0000 		.4byte	.LASF358
 8857 12fc 11       		.byte	0x11
 8858 12fd 8601     		.2byte	0x186
 8859 12ff F6000000 		.4byte	0xf6
 8860 1303 04       		.byte	0x4
 8861 1304 09       		.uleb128 0x9
 8862 1305 AA110000 		.4byte	.LASF359
 8863 1309 11       		.byte	0x11
 8864 130a 8701     		.2byte	0x187
 8865 130c 25000000 		.4byte	0x25
 8866 1310 08       		.byte	0x8
 8867 1311 09       		.uleb128 0x9
 8868 1312 C50B0000 		.4byte	.LASF360
 8869 1316 11       		.byte	0x11
 8870 1317 8801     		.2byte	0x188
ARM GAS  /tmp/cc0XcXNK.s 			page 157


 8871 1319 AB0C0000 		.4byte	0xcab
 8872 131d 0C       		.byte	0xc
 8873 131e 09       		.uleb128 0x9
 8874 131f 37230000 		.4byte	.LASF361
 8875 1323 11       		.byte	0x11
 8876 1324 8901     		.2byte	0x189
 8877 1326 F6000000 		.4byte	0xf6
 8878 132a 10       		.byte	0x10
 8879 132b 09       		.uleb128 0x9
 8880 132c 771B0000 		.4byte	.LASF362
 8881 1330 11       		.byte	0x11
 8882 1331 8C01     		.2byte	0x18c
 8883 1333 1C0D0000 		.4byte	0xd1c
 8884 1337 14       		.byte	0x14
 8885 1338 09       		.uleb128 0x9
 8886 1339 F4120000 		.4byte	.LASF363
 8887 133d 11       		.byte	0x11
 8888 133e 8F01     		.2byte	0x18f
 8889 1340 510E0000 		.4byte	0xe51
 8890 1344 18       		.byte	0x18
 8891 1345 09       		.uleb128 0x9
 8892 1346 F1050000 		.4byte	.LASF364
 8893 134a 11       		.byte	0x11
 8894 134b 9201     		.2byte	0x192
 8895 134d 7A0F0000 		.4byte	0xf7a
 8896 1351 54       		.byte	0x54
 8897 1352 09       		.uleb128 0x9
 8898 1353 22040000 		.4byte	.LASF365
 8899 1357 11       		.byte	0x11
 8900 1358 9501     		.2byte	0x195
 8901 135a F6000000 		.4byte	0xf6
 8902 135e 80       		.byte	0x80
 8903 135f 09       		.uleb128 0x9
 8904 1360 4C110000 		.4byte	.LASF366
 8905 1364 11       		.byte	0x11
 8906 1365 9801     		.2byte	0x198
 8907 1367 79100000 		.4byte	0x1079
 8908 136b 84       		.byte	0x84
 8909 136c 09       		.uleb128 0x9
 8910 136d 22050000 		.4byte	.LASF367
 8911 1371 11       		.byte	0x11
 8912 1372 9B01     		.2byte	0x19b
 8913 1374 FB110000 		.4byte	0x11fb
 8914 1378 B8       		.byte	0xb8
 8915 1379 09       		.uleb128 0x9
 8916 137a 22150000 		.4byte	.LASF368
 8917 137e 11       		.byte	0x11
 8918 137f 9D01     		.2byte	0x19d
 8919 1381 D4120000 		.4byte	0x12d4
 8920 1385 C4       		.byte	0xc4
 8921 1386 00       		.byte	0
 8922 1387 1C       		.uleb128 0x1c
 8923 1388 D0190000 		.4byte	.LASF369
 8924 138c 11       		.byte	0x11
 8925 138d 9E01     		.2byte	0x19e
 8926 138f E0120000 		.4byte	0x12e0
 8927 1393 1B       		.uleb128 0x1b
ARM GAS  /tmp/cc0XcXNK.s 			page 158


 8928 1394 01       		.byte	0x1
 8929 1395 11       		.byte	0x11
 8930 1396 A101     		.2byte	0x1a1
 8931 1398 8D140000 		.4byte	0x148d
 8932 139c 18       		.uleb128 0x18
 8933 139d 8B000000 		.4byte	.LASF370
 8934 13a1 00       		.sleb128 0
 8935 13a2 18       		.uleb128 0x18
 8936 13a3 5F150000 		.4byte	.LASF371
 8937 13a7 01       		.sleb128 1
 8938 13a8 18       		.uleb128 0x18
 8939 13a9 9E0A0000 		.4byte	.LASF372
 8940 13ad 02       		.sleb128 2
 8941 13ae 18       		.uleb128 0x18
 8942 13af 860A0000 		.4byte	.LASF373
 8943 13b3 03       		.sleb128 3
 8944 13b4 18       		.uleb128 0x18
 8945 13b5 42190000 		.4byte	.LASF374
 8946 13b9 04       		.sleb128 4
 8947 13ba 18       		.uleb128 0x18
 8948 13bb 200D0000 		.4byte	.LASF375
 8949 13bf 05       		.sleb128 5
 8950 13c0 18       		.uleb128 0x18
 8951 13c1 C8110000 		.4byte	.LASF376
 8952 13c5 06       		.sleb128 6
 8953 13c6 18       		.uleb128 0x18
 8954 13c7 221F0000 		.4byte	.LASF377
 8955 13cb 07       		.sleb128 7
 8956 13cc 18       		.uleb128 0x18
 8957 13cd 781F0000 		.4byte	.LASF378
 8958 13d1 08       		.sleb128 8
 8959 13d2 18       		.uleb128 0x18
 8960 13d3 80160000 		.4byte	.LASF379
 8961 13d7 09       		.sleb128 9
 8962 13d8 18       		.uleb128 0x18
 8963 13d9 3C150000 		.4byte	.LASF380
 8964 13dd 0A       		.sleb128 10
 8965 13de 18       		.uleb128 0x18
 8966 13df BA0D0000 		.4byte	.LASF381
 8967 13e3 0B       		.sleb128 11
 8968 13e4 18       		.uleb128 0x18
 8969 13e5 BE030000 		.4byte	.LASF382
 8970 13e9 0C       		.sleb128 12
 8971 13ea 18       		.uleb128 0x18
 8972 13eb 880D0000 		.4byte	.LASF383
 8973 13ef 0D       		.sleb128 13
 8974 13f0 18       		.uleb128 0x18
 8975 13f1 2A190000 		.4byte	.LASF384
 8976 13f5 0E       		.sleb128 14
 8977 13f6 18       		.uleb128 0x18
 8978 13f7 C91D0000 		.4byte	.LASF385
 8979 13fb 0F       		.sleb128 15
 8980 13fc 18       		.uleb128 0x18
 8981 13fd 0D1C0000 		.4byte	.LASF386
 8982 1401 10       		.sleb128 16
 8983 1402 18       		.uleb128 0x18
 8984 1403 36220000 		.4byte	.LASF387
ARM GAS  /tmp/cc0XcXNK.s 			page 159


 8985 1407 11       		.sleb128 17
 8986 1408 18       		.uleb128 0x18
 8987 1409 BC060000 		.4byte	.LASF388
 8988 140d 12       		.sleb128 18
 8989 140e 18       		.uleb128 0x18
 8990 140f D8210000 		.4byte	.LASF389
 8991 1413 13       		.sleb128 19
 8992 1414 18       		.uleb128 0x18
 8993 1415 C5190000 		.4byte	.LASF390
 8994 1419 14       		.sleb128 20
 8995 141a 18       		.uleb128 0x18
 8996 141b 3E210000 		.4byte	.LASF391
 8997 141f 15       		.sleb128 21
 8998 1420 18       		.uleb128 0x18
 8999 1421 9A0E0000 		.4byte	.LASF392
 9000 1425 16       		.sleb128 22
 9001 1426 18       		.uleb128 0x18
 9002 1427 1D1E0000 		.4byte	.LASF393
 9003 142b 17       		.sleb128 23
 9004 142c 18       		.uleb128 0x18
 9005 142d 321B0000 		.4byte	.LASF394
 9006 1431 18       		.sleb128 24
 9007 1432 18       		.uleb128 0x18
 9008 1433 E40B0000 		.4byte	.LASF395
 9009 1437 19       		.sleb128 25
 9010 1438 18       		.uleb128 0x18
 9011 1439 16190000 		.4byte	.LASF396
 9012 143d 1A       		.sleb128 26
 9013 143e 18       		.uleb128 0x18
 9014 143f CD000000 		.4byte	.LASF397
 9015 1443 1B       		.sleb128 27
 9016 1444 18       		.uleb128 0x18
 9017 1445 D6040000 		.4byte	.LASF398
 9018 1449 1C       		.sleb128 28
 9019 144a 18       		.uleb128 0x18
 9020 144b 6F080000 		.4byte	.LASF399
 9021 144f 1D       		.sleb128 29
 9022 1450 18       		.uleb128 0x18
 9023 1451 ED0D0000 		.4byte	.LASF400
 9024 1455 1E       		.sleb128 30
 9025 1456 18       		.uleb128 0x18
 9026 1457 B41D0000 		.4byte	.LASF401
 9027 145b 1F       		.sleb128 31
 9028 145c 18       		.uleb128 0x18
 9029 145d 2E160000 		.4byte	.LASF402
 9030 1461 20       		.sleb128 32
 9031 1462 18       		.uleb128 0x18
 9032 1463 770E0000 		.4byte	.LASF403
 9033 1467 21       		.sleb128 33
 9034 1468 18       		.uleb128 0x18
 9035 1469 9A1B0000 		.4byte	.LASF404
 9036 146d 22       		.sleb128 34
 9037 146e 18       		.uleb128 0x18
 9038 146f 13210000 		.4byte	.LASF405
 9039 1473 23       		.sleb128 35
 9040 1474 18       		.uleb128 0x18
 9041 1475 44160000 		.4byte	.LASF406
ARM GAS  /tmp/cc0XcXNK.s 			page 160


 9042 1479 24       		.sleb128 36
 9043 147a 18       		.uleb128 0x18
 9044 147b C1180000 		.4byte	.LASF407
 9045 147f 25       		.sleb128 37
 9046 1480 18       		.uleb128 0x18
 9047 1481 020D0000 		.4byte	.LASF408
 9048 1485 26       		.sleb128 38
 9049 1486 18       		.uleb128 0x18
 9050 1487 1D060000 		.4byte	.LASF409
 9051 148b 27       		.sleb128 39
 9052 148c 00       		.byte	0
 9053 148d 1C       		.uleb128 0x1c
 9054 148e D9110000 		.4byte	.LASF410
 9055 1492 11       		.byte	0x11
 9056 1493 CA01     		.2byte	0x1ca
 9057 1495 93130000 		.4byte	0x1393
 9058 1499 1D       		.uleb128 0x1d
 9059 149a 18       		.byte	0x18
 9060 149b 11       		.byte	0x11
 9061 149c F801     		.2byte	0x1f8
 9062 149e FE140000 		.4byte	0x14fe
 9063 14a2 09       		.uleb128 0x9
 9064 14a3 C2020000 		.4byte	.LASF411
 9065 14a7 11       		.byte	0x11
 9066 14a8 F901     		.2byte	0x1f9
 9067 14aa 2C000000 		.4byte	0x2c
 9068 14ae 00       		.byte	0
 9069 14af 09       		.uleb128 0x9
 9070 14b0 C7020000 		.4byte	.LASF412
 9071 14b4 11       		.byte	0x11
 9072 14b5 FA01     		.2byte	0x1fa
 9073 14b7 2C000000 		.4byte	0x2c
 9074 14bb 04       		.byte	0x4
 9075 14bc 09       		.uleb128 0x9
 9076 14bd 91040000 		.4byte	.LASF413
 9077 14c1 11       		.byte	0x11
 9078 14c2 FB01     		.2byte	0x1fb
 9079 14c4 2C000000 		.4byte	0x2c
 9080 14c8 08       		.byte	0x8
 9081 14c9 09       		.uleb128 0x9
 9082 14ca 97040000 		.4byte	.LASF414
 9083 14ce 11       		.byte	0x11
 9084 14cf FC01     		.2byte	0x1fc
 9085 14d1 2C000000 		.4byte	0x2c
 9086 14d5 0C       		.byte	0xc
 9087 14d6 09       		.uleb128 0x9
 9088 14d7 9D040000 		.4byte	.LASF415
 9089 14db 11       		.byte	0x11
 9090 14dc FD01     		.2byte	0x1fd
 9091 14de 2C000000 		.4byte	0x2c
 9092 14e2 10       		.byte	0x10
 9093 14e3 09       		.uleb128 0x9
 9094 14e4 460A0000 		.4byte	.LASF416
 9095 14e8 11       		.byte	0x11
 9096 14e9 FE01     		.2byte	0x1fe
 9097 14eb AB0C0000 		.4byte	0xcab
 9098 14ef 14       		.byte	0x14
ARM GAS  /tmp/cc0XcXNK.s 			page 161


 9099 14f0 09       		.uleb128 0x9
 9100 14f1 630A0000 		.4byte	.LASF417
 9101 14f5 11       		.byte	0x11
 9102 14f6 FF01     		.2byte	0x1ff
 9103 14f8 AB0C0000 		.4byte	0xcab
 9104 14fc 15       		.byte	0x15
 9105 14fd 00       		.byte	0
 9106 14fe 1C       		.uleb128 0x1c
 9107 14ff 300C0000 		.4byte	.LASF418
 9108 1503 11       		.byte	0x11
 9109 1504 0002     		.2byte	0x200
 9110 1506 99140000 		.4byte	0x1499
 9111 150a 1D       		.uleb128 0x1d
 9112 150b 18       		.byte	0x18
 9113 150c 11       		.byte	0x11
 9114 150d 0202     		.2byte	0x202
 9115 150f 61150000 		.4byte	0x1561
 9116 1513 08       		.uleb128 0x8
 9117 1514 696400   		.ascii	"id\000"
 9118 1517 11       		.byte	0x11
 9119 1518 0302     		.2byte	0x203
 9120 151a 2C000000 		.4byte	0x2c
 9121 151e 00       		.byte	0
 9122 151f 09       		.uleb128 0x9
 9123 1520 D2230000 		.4byte	.LASF419
 9124 1524 11       		.byte	0x11
 9125 1525 0402     		.2byte	0x204
 9126 1527 7F010000 		.4byte	0x17f
 9127 152b 04       		.byte	0x4
 9128 152c 08       		.uleb128 0x8
 9129 152d 72706D00 		.ascii	"rpm\000"
 9130 1531 11       		.byte	0x11
 9131 1532 0502     		.2byte	0x205
 9132 1534 25000000 		.4byte	0x25
 9133 1538 08       		.byte	0x8
 9134 1539 09       		.uleb128 0x9
 9135 153a 8E120000 		.4byte	.LASF420
 9136 153e 11       		.byte	0x11
 9137 153f 0602     		.2byte	0x206
 9138 1541 25000000 		.4byte	0x25
 9139 1545 0C       		.byte	0xc
 9140 1546 09       		.uleb128 0x9
 9141 1547 6F190000 		.4byte	.LASF421
 9142 154b 11       		.byte	0x11
 9143 154c 0702     		.2byte	0x207
 9144 154e 25000000 		.4byte	0x25
 9145 1552 10       		.byte	0x10
 9146 1553 09       		.uleb128 0x9
 9147 1554 911A0000 		.4byte	.LASF422
 9148 1558 11       		.byte	0x11
 9149 1559 0802     		.2byte	0x208
 9150 155b 2C000000 		.4byte	0x2c
 9151 155f 14       		.byte	0x14
 9152 1560 00       		.byte	0
 9153 1561 1C       		.uleb128 0x1c
 9154 1562 FE050000 		.4byte	.LASF423
 9155 1566 11       		.byte	0x11
ARM GAS  /tmp/cc0XcXNK.s 			page 162


 9156 1567 0902     		.2byte	0x209
 9157 1569 0A150000 		.4byte	0x150a
 9158 156d 17       		.uleb128 0x17
 9159 156e 01       		.byte	0x1
 9160 156f 12       		.byte	0x12
 9161 1570 35       		.byte	0x35
 9162 1571 AC150000 		.4byte	0x15ac
 9163 1575 18       		.uleb128 0x18
 9164 1576 CC0A0000 		.4byte	.LASF424
 9165 157a 01       		.sleb128 1
 9166 157b 18       		.uleb128 0x18
 9167 157c 2E090000 		.4byte	.LASF425
 9168 1580 02       		.sleb128 2
 9169 1581 18       		.uleb128 0x18
 9170 1582 F2000000 		.4byte	.LASF426
 9171 1586 03       		.sleb128 3
 9172 1587 18       		.uleb128 0x18
 9173 1588 E2000000 		.4byte	.LASF427
 9174 158c 04       		.sleb128 4
 9175 158d 18       		.uleb128 0x18
 9176 158e 9B000000 		.4byte	.LASF428
 9177 1592 05       		.sleb128 5
 9178 1593 18       		.uleb128 0x18
 9179 1594 F51F0000 		.4byte	.LASF429
 9180 1598 06       		.sleb128 6
 9181 1599 18       		.uleb128 0x18
 9182 159a CE090000 		.4byte	.LASF430
 9183 159e 07       		.sleb128 7
 9184 159f 18       		.uleb128 0x18
 9185 15a0 04020000 		.4byte	.LASF431
 9186 15a4 08       		.sleb128 8
 9187 15a5 18       		.uleb128 0x18
 9188 15a6 E2190000 		.4byte	.LASF432
 9189 15aa 09       		.sleb128 9
 9190 15ab 00       		.byte	0
 9191 15ac 0A       		.uleb128 0xa
 9192 15ad 04       		.byte	0x4
 9193 15ae 50000000 		.4byte	0x50
 9194 15b2 0A       		.uleb128 0xa
 9195 15b3 04       		.byte	0x4
 9196 15b4 25070000 		.4byte	0x725
 9197 15b8 02       		.uleb128 0x2
 9198 15b9 08       		.byte	0x8
 9199 15ba 04       		.byte	0x4
 9200 15bb D71B0000 		.4byte	.LASF433
 9201 15bf 02       		.uleb128 0x2
 9202 15c0 08       		.byte	0x8
 9203 15c1 04       		.byte	0x4
 9204 15c2 74160000 		.4byte	.LASF434
 9205 15c6 04       		.uleb128 0x4
 9206 15c7 3F070000 		.4byte	.LASF435
 9207 15cb 13       		.byte	0x13
 9208 15cc 28       		.byte	0x28
 9209 15cd D1150000 		.4byte	0x15d1
 9210 15d1 06       		.uleb128 0x6
 9211 15d2 07260000 		.4byte	.LASF436
 9212 15d6 04       		.byte	0x4
ARM GAS  /tmp/cc0XcXNK.s 			page 163


 9213 15d7 14       		.byte	0x14
 9214 15d8 00       		.byte	0
 9215 15d9 E8150000 		.4byte	0x15e8
 9216 15dd 1F       		.uleb128 0x1f
 9217 15de 1B200000 		.4byte	.LASF437
 9218 15e2 82030000 		.4byte	0x382
 9219 15e6 00       		.byte	0
 9220 15e7 00       		.byte	0
 9221 15e8 04       		.uleb128 0x4
 9222 15e9 3E0A0000 		.4byte	.LASF438
 9223 15ed 13       		.byte	0x13
 9224 15ee 62       		.byte	0x62
 9225 15ef C6150000 		.4byte	0x15c6
 9226 15f3 20       		.uleb128 0x20
 9227 15f4 FA1B0000 		.4byte	.LASF439
 9228 15f8 04       		.byte	0x4
 9229 15f9 E4       		.byte	0xe4
 9230 15fa 7F010000 		.4byte	0x17f
 9231 15fe 03       		.byte	0x3
 9232 15ff 21       		.uleb128 0x21
 9233 1600 D91E0000 		.4byte	.LASF578
 9234 1604 02       		.byte	0x2
 9235 1605 84       		.byte	0x84
 9236 1606 03       		.byte	0x3
 9237 1607 17160000 		.4byte	0x1617
 9238 160b 22       		.uleb128 0x22
 9239 160c 71110000 		.4byte	.LASF441
 9240 1610 02       		.byte	0x2
 9241 1611 84       		.byte	0x84
 9242 1612 1A070000 		.4byte	0x71a
 9243 1616 00       		.byte	0
 9244 1617 20       		.uleb128 0x20
 9245 1618 7C180000 		.4byte	.LASF440
 9246 161c 10       		.byte	0x10
 9247 161d AE       		.byte	0xae
 9248 161e A5020000 		.4byte	0x2a5
 9249 1622 03       		.byte	0x3
 9250 1623 23       		.uleb128 0x23
 9251 1624 E2250000 		.4byte	.LASF506
 9252 1628 01       		.byte	0x1
 9253 1629 60       		.byte	0x60
 9254 162a 01       		.byte	0x1
 9255 162b 46160000 		.4byte	0x1646
 9256 162f 22       		.uleb128 0x22
 9257 1630 E01C0000 		.4byte	.LASF442
 9258 1634 01       		.byte	0x1
 9259 1635 60       		.byte	0x60
 9260 1636 AC150000 		.4byte	0x15ac
 9261 163a 24       		.uleb128 0x24
 9262 163b 6C656E00 		.ascii	"len\000"
 9263 163f 01       		.byte	0x1
 9264 1640 60       		.byte	0x60
 9265 1641 B8000000 		.4byte	0xb8
 9266 1645 00       		.byte	0
 9267 1646 25       		.uleb128 0x25
 9268 1647 61060000 		.4byte	.LASF579
 9269 164b 03       		.byte	0x3
ARM GAS  /tmp/cc0XcXNK.s 			page 164


 9270 164c 5401     		.2byte	0x154
 9271 164e 03       		.byte	0x3
 9272 164f 26       		.uleb128 0x26
 9273 1650 A51C0000 		.4byte	.LASF580
 9274 1654 04       		.byte	0x4
 9275 1655 0901     		.2byte	0x109
 9276 1657 7F010000 		.4byte	0x17f
 9277 165b 03       		.byte	0x3
 9278 165c 6D160000 		.4byte	0x166d
 9279 1660 27       		.uleb128 0x27
 9280 1661 39260000 		.4byte	.LASF443
 9281 1665 04       		.byte	0x4
 9282 1666 0901     		.2byte	0x109
 9283 1668 7F010000 		.4byte	0x17f
 9284 166c 00       		.byte	0
 9285 166d 28       		.uleb128 0x28
 9286 166e A8130000 		.4byte	.LASF581
 9287 1672 01       		.byte	0x1
 9288 1673 8404     		.2byte	0x484
 9289 1675 00000000 		.4byte	.LFB267
 9290 1679 00010000 		.4byte	.LFE267-.LFB267
 9291 167d 01       		.uleb128 0x1
 9292 167e 9C       		.byte	0x9c
 9293 167f 73170000 		.4byte	0x1773
 9294 1683 29       		.uleb128 0x29
 9295 1684 61726700 		.ascii	"arg\000"
 9296 1688 01       		.byte	0x1
 9297 1689 8404     		.2byte	0x484
 9298 168b 82030000 		.4byte	0x382
 9299 168f 00000000 		.4byte	.LLST0
 9300 1693 2A       		.uleb128 0x2a
 9301 1694 FF150000 		.4byte	0x15ff
 9302 1698 04000000 		.4byte	.LBB80
 9303 169c 00000000 		.4byte	.Ldebug_ranges0+0
 9304 16a0 01       		.byte	0x1
 9305 16a1 8704     		.2byte	0x487
 9306 16a3 B4160000 		.4byte	0x16b4
 9307 16a7 2B       		.uleb128 0x2b
 9308 16a8 0B160000 		.4byte	0x160b
 9309 16ac 06       		.uleb128 0x6
 9310 16ad 03       		.byte	0x3
 9311 16ae 00000000 		.4byte	.LC0
 9312 16b2 9F       		.byte	0x9f
 9313 16b3 00       		.byte	0
 9314 16b4 2C       		.uleb128 0x2c
 9315 16b5 20000000 		.4byte	.Ldebug_ranges0+0x20
 9316 16b9 2D       		.uleb128 0x2d
 9317 16ba 696E6400 		.ascii	"ind\000"
 9318 16be 01       		.byte	0x1
 9319 16bf 9504     		.2byte	0x495
 9320 16c1 EB000000 		.4byte	0xeb
 9321 16c5 02       		.uleb128 0x2
 9322 16c6 91       		.byte	0x91
 9323 16c7 4C       		.sleb128 -52
 9324 16c8 2A       		.uleb128 0x2a
 9325 16c9 23160000 		.4byte	0x1623
 9326 16cd 92000000 		.4byte	.LBB86
ARM GAS  /tmp/cc0XcXNK.s 			page 165


 9327 16d1 48000000 		.4byte	.Ldebug_ranges0+0x48
 9328 16d5 01       		.byte	0x1
 9329 16d6 9C04     		.2byte	0x49c
 9330 16d8 FE160000 		.4byte	0x16fe
 9331 16dc 2E       		.uleb128 0x2e
 9332 16dd 3A160000 		.4byte	0x163a
 9333 16e1 21000000 		.4byte	.LLST1
 9334 16e5 2E       		.uleb128 0x2e
 9335 16e6 2F160000 		.4byte	0x162f
 9336 16ea 34000000 		.4byte	.LLST2
 9337 16ee 2F       		.uleb128 0x2f
 9338 16ef BA000000 		.4byte	.LVL7
 9339 16f3 02       		.uleb128 0x2
 9340 16f4 75       		.byte	0x75
 9341 16f5 00       		.sleb128 0
 9342 16f6 30       		.uleb128 0x30
 9343 16f7 01       		.uleb128 0x1
 9344 16f8 50       		.byte	0x50
 9345 16f9 02       		.uleb128 0x2
 9346 16fa 74       		.byte	0x74
 9347 16fb 00       		.sleb128 0
 9348 16fc 00       		.byte	0
 9349 16fd 00       		.byte	0
 9350 16fe 31       		.uleb128 0x31
 9351 16ff 3C000000 		.4byte	.LVL2
 9352 1703 484D0000 		.4byte	0x4d48
 9353 1707 11170000 		.4byte	0x1711
 9354 170b 30       		.uleb128 0x30
 9355 170c 01       		.uleb128 0x1
 9356 170d 50       		.byte	0x50
 9357 170e 01       		.uleb128 0x1
 9358 170f 31       		.byte	0x31
 9359 1710 00       		.byte	0
 9360 1711 31       		.uleb128 0x31
 9361 1712 54000000 		.4byte	.LVL3
 9362 1716 5D4D0000 		.4byte	0x4d5d
 9363 171a 3A170000 		.4byte	0x173a
 9364 171e 30       		.uleb128 0x30
 9365 171f 01       		.uleb128 0x1
 9366 1720 53       		.byte	0x53
 9367 1721 02       		.uleb128 0x2
 9368 1722 77       		.byte	0x77
 9369 1723 00       		.sleb128 0
 9370 1724 30       		.uleb128 0x30
 9371 1725 01       		.uleb128 0x1
 9372 1726 52       		.byte	0x52
 9373 1727 05       		.uleb128 0x5
 9374 1728 03       		.byte	0x3
 9375 1729 00000000 		.4byte	.LANCHOR6
 9376 172d 30       		.uleb128 0x30
 9377 172e 01       		.uleb128 0x1
 9378 172f 51       		.byte	0x51
 9379 1730 02       		.uleb128 0x2
 9380 1731 75       		.byte	0x75
 9381 1732 00       		.sleb128 0
 9382 1733 30       		.uleb128 0x30
 9383 1734 01       		.uleb128 0x1
ARM GAS  /tmp/cc0XcXNK.s 			page 166


 9384 1735 50       		.byte	0x50
 9385 1736 02       		.uleb128 0x2
 9386 1737 76       		.byte	0x76
 9387 1738 00       		.sleb128 0
 9388 1739 00       		.byte	0
 9389 173a 31       		.uleb128 0x31
 9390 173b 7A000000 		.4byte	.LVL4
 9391 173f 9C4D0000 		.4byte	0x4d9c
 9392 1743 5B170000 		.4byte	0x175b
 9393 1747 30       		.uleb128 0x30
 9394 1748 01       		.uleb128 0x1
 9395 1749 52       		.byte	0x52
 9396 174a 02       		.uleb128 0x2
 9397 174b 91       		.byte	0x91
 9398 174c 4C       		.sleb128 -52
 9399 174d 30       		.uleb128 0x30
 9400 174e 01       		.uleb128 0x1
 9401 174f 51       		.byte	0x51
 9402 1750 03       		.uleb128 0x3
 9403 1751 91       		.byte	0x91
 9404 1752 44       		.sleb128 -60
 9405 1753 06       		.byte	0x6
 9406 1754 30       		.uleb128 0x30
 9407 1755 01       		.uleb128 0x1
 9408 1756 50       		.byte	0x50
 9409 1757 02       		.uleb128 0x2
 9410 1758 74       		.byte	0x74
 9411 1759 00       		.sleb128 0
 9412 175a 00       		.byte	0
 9413 175b 32       		.uleb128 0x32
 9414 175c 92000000 		.4byte	.LVL5
 9415 1760 9C4D0000 		.4byte	0x4d9c
 9416 1764 30       		.uleb128 0x30
 9417 1765 01       		.uleb128 0x1
 9418 1766 52       		.byte	0x52
 9419 1767 02       		.uleb128 0x2
 9420 1768 91       		.byte	0x91
 9421 1769 4C       		.sleb128 -52
 9422 176a 30       		.uleb128 0x30
 9423 176b 01       		.uleb128 0x1
 9424 176c 50       		.byte	0x50
 9425 176d 02       		.uleb128 0x2
 9426 176e 74       		.byte	0x74
 9427 176f 00       		.sleb128 0
 9428 1770 00       		.byte	0
 9429 1771 00       		.byte	0
 9430 1772 00       		.byte	0
 9431 1773 33       		.uleb128 0x33
 9432 1774 52010000 		.4byte	.LASF444
 9433 1778 01       		.byte	0x1
 9434 1779 48       		.byte	0x48
 9435 177a 00000000 		.4byte	.LFB256
 9436 177e 2C000000 		.4byte	.LFE256-.LFB256
 9437 1782 01       		.uleb128 0x1
 9438 1783 9C       		.byte	0x9c
 9439 1784 B9170000 		.4byte	0x17b9
 9440 1788 32       		.uleb128 0x32
ARM GAS  /tmp/cc0XcXNK.s 			page 167


 9441 1789 16000000 		.4byte	.LVL9
 9442 178d BD4D0000 		.4byte	0x4dbd
 9443 1791 30       		.uleb128 0x30
 9444 1792 01       		.uleb128 0x1
 9445 1793 53       		.byte	0x53
 9446 1794 05       		.uleb128 0x5
 9447 1795 03       		.byte	0x3
 9448 1796 00000000 		.4byte	detect_thread
 9449 179a 30       		.uleb128 0x30
 9450 179b 01       		.uleb128 0x1
 9451 179c 52       		.byte	0x52
 9452 179d 02       		.uleb128 0x2
 9453 179e 08       		.byte	0x8
 9454 179f 40       		.byte	0x40
 9455 17a0 30       		.uleb128 0x30
 9456 17a1 01       		.uleb128 0x1
 9457 17a2 51       		.byte	0x51
 9458 17a3 03       		.uleb128 0x3
 9459 17a4 0A       		.byte	0xa
 9460 17a5 9809     		.2byte	0x998
 9461 17a7 30       		.uleb128 0x30
 9462 17a8 01       		.uleb128 0x1
 9463 17a9 50       		.byte	0x50
 9464 17aa 05       		.uleb128 0x5
 9465 17ab 03       		.byte	0x3
 9466 17ac 00000000 		.4byte	.LANCHOR10
 9467 17b0 30       		.uleb128 0x30
 9468 17b1 02       		.uleb128 0x2
 9469 17b2 7D       		.byte	0x7d
 9470 17b3 00       		.sleb128 0
 9471 17b4 02       		.uleb128 0x2
 9472 17b5 74       		.byte	0x74
 9473 17b6 00       		.sleb128 0
 9474 17b7 00       		.byte	0
 9475 17b8 00       		.byte	0
 9476 17b9 33       		.uleb128 0x33
 9477 17ba 58190000 		.4byte	.LASF445
 9478 17be 01       		.byte	0x1
 9479 17bf 53       		.byte	0x53
 9480 17c0 00000000 		.4byte	.LFB257
 9481 17c4 0C000000 		.4byte	.LFE257-.LFB257
 9482 17c8 01       		.uleb128 0x1
 9483 17c9 9C       		.byte	0x9c
 9484 17ca DC170000 		.4byte	0x17dc
 9485 17ce 34       		.uleb128 0x34
 9486 17cf EC130000 		.4byte	.LASF446
 9487 17d3 01       		.byte	0x1
 9488 17d4 53       		.byte	0x53
 9489 17d5 EC170000 		.4byte	0x17ec
 9490 17d9 01       		.uleb128 0x1
 9491 17da 50       		.byte	0x50
 9492 17db 00       		.byte	0
 9493 17dc 0C       		.uleb128 0xc
 9494 17dd EC170000 		.4byte	0x17ec
 9495 17e1 0D       		.uleb128 0xd
 9496 17e2 AC150000 		.4byte	0x15ac
 9497 17e6 0D       		.uleb128 0xd
ARM GAS  /tmp/cc0XcXNK.s 			page 168


 9498 17e7 B8000000 		.4byte	0xb8
 9499 17eb 00       		.byte	0
 9500 17ec 0A       		.uleb128 0xa
 9501 17ed 04       		.byte	0x4
 9502 17ee DC170000 		.4byte	0x17dc
 9503 17f2 35       		.uleb128 0x35
 9504 17f3 23160000 		.4byte	0x1623
 9505 17f7 00000000 		.4byte	.LFB258
 9506 17fb 10000000 		.4byte	.LFE258-.LFB258
 9507 17ff 01       		.uleb128 0x1
 9508 1800 9C       		.byte	0x9c
 9509 1801 2C180000 		.4byte	0x182c
 9510 1805 2E       		.uleb128 0x2e
 9511 1806 2F160000 		.4byte	0x162f
 9512 180a 4C000000 		.4byte	.LLST3
 9513 180e 2E       		.uleb128 0x2e
 9514 180f 3A160000 		.4byte	0x163a
 9515 1813 78000000 		.4byte	.LLST4
 9516 1817 36       		.uleb128 0x36
 9517 1818 08000000 		.4byte	.LVL12
 9518 181c 30       		.uleb128 0x30
 9519 181d 01       		.uleb128 0x1
 9520 181e 51       		.byte	0x51
 9521 181f 03       		.uleb128 0x3
 9522 1820 F3       		.byte	0xf3
 9523 1821 01       		.uleb128 0x1
 9524 1822 51       		.byte	0x51
 9525 1823 30       		.uleb128 0x30
 9526 1824 01       		.uleb128 0x1
 9527 1825 50       		.byte	0x50
 9528 1826 03       		.uleb128 0x3
 9529 1827 F3       		.byte	0xf3
 9530 1828 01       		.uleb128 0x1
 9531 1829 50       		.byte	0x50
 9532 182a 00       		.byte	0
 9533 182b 00       		.byte	0
 9534 182c 37       		.uleb128 0x37
 9535 182d DA1D0000 		.4byte	.LASF447
 9536 1831 01       		.byte	0x1
 9537 1832 6F       		.byte	0x6f
 9538 1833 00000000 		.4byte	.LFB259
 9539 1837 2C250000 		.4byte	.LFE259-.LFB259
 9540 183b 01       		.uleb128 0x1
 9541 183c 9C       		.byte	0x9c
 9542 183d 0E480000 		.4byte	0x480e
 9543 1841 38       		.uleb128 0x38
 9544 1842 E01C0000 		.4byte	.LASF442
 9545 1846 01       		.byte	0x1
 9546 1847 6F       		.byte	0x6f
 9547 1848 AC150000 		.4byte	0x15ac
 9548 184c A4000000 		.4byte	.LLST5
 9549 1850 39       		.uleb128 0x39
 9550 1851 6C656E00 		.ascii	"len\000"
 9551 1855 01       		.byte	0x1
 9552 1856 6F       		.byte	0x6f
 9553 1857 B8000000 		.4byte	0xb8
 9554 185b CE030000 		.4byte	.LLST6
ARM GAS  /tmp/cc0XcXNK.s 			page 169


 9555 185f 3A       		.uleb128 0x3a
 9556 1860 6D0C0000 		.4byte	.LASF448
 9557 1864 01       		.byte	0x1
 9558 1865 74       		.byte	0x74
 9559 1866 8D140000 		.4byte	0x148d
 9560 186a 19050000 		.4byte	.LLST7
 9561 186e 3B       		.uleb128 0x3b
 9562 186f 696E6400 		.ascii	"ind\000"
 9563 1873 01       		.byte	0x1
 9564 1874 75       		.byte	0x75
 9565 1875 EB000000 		.4byte	0xeb
 9566 1879 0B060000 		.4byte	.LLST8
 9567 187d 3A       		.uleb128 0x3a
 9568 187e A2160000 		.4byte	.LASF449
 9569 1882 01       		.byte	0x1
 9570 1883 76       		.byte	0x76
 9571 1884 E0000000 		.4byte	0xe0
 9572 1888 2B060000 		.4byte	.LLST9
 9573 188c 3A       		.uleb128 0x3a
 9574 188d D7250000 		.4byte	.LASF450
 9575 1891 01       		.byte	0x1
 9576 1892 77       		.byte	0x77
 9577 1893 CA000000 		.4byte	0xca
 9578 1897 3E060000 		.4byte	.LLST10
 9579 189b 3A       		.uleb128 0x3a
 9580 189c CB130000 		.4byte	.LASF451
 9581 18a0 01       		.byte	0x1
 9582 18a1 78       		.byte	0x78
 9583 18a2 AB0C0000 		.4byte	0xcab
 9584 18a6 57060000 		.4byte	.LLST11
 9585 18aa 3C       		.uleb128 0x3c
 9586 18ab 7A1D0000 		.4byte	.LASF452
 9587 18af 01       		.byte	0x1
 9588 18b0 79       		.byte	0x79
 9589 18b1 D20C0000 		.4byte	0xcd2
 9590 18b5 05       		.uleb128 0x5
 9591 18b6 03       		.byte	0x3
 9592 18b7 00000000 		.4byte	mcconf.11352
 9593 18bb 3C       		.uleb128 0x3c
 9594 18bc 5A1E0000 		.4byte	.LASF453
 9595 18c0 01       		.byte	0x1
 9596 18c1 79       		.byte	0x79
 9597 18c2 D20C0000 		.4byte	0xcd2
 9598 18c6 05       		.uleb128 0x5
 9599 18c7 03       		.byte	0x3
 9600 18c8 00000000 		.4byte	mcconf_old.11353
 9601 18cc 3C       		.uleb128 0x3c
 9602 18cd B10E0000 		.4byte	.LASF454
 9603 18d1 01       		.byte	0x1
 9604 18d2 7A       		.byte	0x7a
 9605 18d3 87130000 		.4byte	0x1387
 9606 18d7 03       		.uleb128 0x3
 9607 18d8 91       		.byte	0x91
 9608 18d9 8871     		.sleb128 -1912
 9609 18db 3A       		.uleb128 0x3a
 9610 18dc 160D0000 		.4byte	.LASF455
 9611 18e0 01       		.byte	0x1
ARM GAS  /tmp/cc0XcXNK.s 			page 170


 9612 18e1 7B       		.byte	0x7b
 9613 18e2 E0000000 		.4byte	0xe0
 9614 18e6 6A060000 		.4byte	.LLST12
 9615 18ea 3A       		.uleb128 0x3a
 9616 18eb CA150000 		.4byte	.LASF456
 9617 18ef 01       		.byte	0x1
 9618 18f0 7C       		.byte	0x7c
 9619 18f1 F6000000 		.4byte	0xf6
 9620 18f5 88060000 		.4byte	.LLST13
 9621 18f9 3C       		.uleb128 0x3c
 9622 18fa 4B030000 		.4byte	.LASF457
 9623 18fe 01       		.byte	0x1
 9624 18ff 7D       		.byte	0x7d
 9625 1900 FE140000 		.4byte	0x14fe
 9626 1904 03       		.uleb128 0x3
 9627 1905 91       		.byte	0x91
 9628 1906 C077     		.sleb128 -1088
 9629 1908 3A       		.uleb128 0x3a
 9630 1909 2B030000 		.4byte	.LASF458
 9631 190d 01       		.byte	0x1
 9632 190e 7F       		.byte	0x7f
 9633 190f AB0C0000 		.4byte	0xcab
 9634 1913 9B060000 		.4byte	.LLST14
 9635 1917 3D       		.uleb128 0x3d
 9636 1918 78000000 		.4byte	.Ldebug_ranges0+0x78
 9637 191c 06470000 		.4byte	0x4706
 9638 1920 3E       		.uleb128 0x3e
 9639 1921 77020000 		.4byte	.LASF459
 9640 1925 01       		.byte	0x1
 9641 1926 6303     		.2byte	0x363
 9642 1928 CA000000 		.4byte	0xca
 9643 192c 55070000 		.4byte	.LLST15
 9644 1930 3E       		.uleb128 0x3e
 9645 1931 BB090000 		.4byte	.LASF460
 9646 1935 01       		.byte	0x1
 9647 1936 6403     		.2byte	0x364
 9648 1938 CA000000 		.4byte	0xca
 9649 193c 73070000 		.4byte	.LLST16
 9650 1940 3E       		.uleb128 0x3e
 9651 1941 A60D0000 		.4byte	.LASF461
 9652 1945 01       		.byte	0x1
 9653 1946 6503     		.2byte	0x365
 9654 1948 25000000 		.4byte	0x25
 9655 194c 91070000 		.4byte	.LLST17
 9656 1950 3E       		.uleb128 0x3e
 9657 1951 D60E0000 		.4byte	.LASF462
 9658 1955 01       		.byte	0x1
 9659 1956 6603     		.2byte	0x366
 9660 1958 25000000 		.4byte	0x25
 9661 195c BD070000 		.4byte	.LLST18
 9662 1960 3E       		.uleb128 0x3e
 9663 1961 3F030000 		.4byte	.LASF463
 9664 1965 01       		.byte	0x1
 9665 1966 6703     		.2byte	0x367
 9666 1968 25000000 		.4byte	0x25
 9667 196c E9070000 		.4byte	.LLST19
 9668 1970 3E       		.uleb128 0x3e
ARM GAS  /tmp/cc0XcXNK.s 			page 171


 9669 1971 C1120000 		.4byte	.LASF464
 9670 1975 01       		.byte	0x1
 9671 1976 6803     		.2byte	0x368
 9672 1978 25000000 		.4byte	0x25
 9673 197c 15080000 		.4byte	.LLST20
 9674 1980 3E       		.uleb128 0x3e
 9675 1981 33070000 		.4byte	.LASF465
 9676 1985 01       		.byte	0x1
 9677 1986 6903     		.2byte	0x369
 9678 1988 25000000 		.4byte	0x25
 9679 198c 41080000 		.4byte	.LLST21
 9680 1990 3E       		.uleb128 0x3e
 9681 1991 8D010000 		.4byte	.LASF466
 9682 1995 01       		.byte	0x1
 9683 1996 6A03     		.2byte	0x36a
 9684 1998 25000000 		.4byte	0x25
 9685 199c 79080000 		.4byte	.LLST22
 9686 19a0 2A       		.uleb128 0x2a
 9687 19a1 23160000 		.4byte	0x1623
 9688 19a5 42060000 		.4byte	.LBB101
 9689 19a9 C0000000 		.4byte	.Ldebug_ranges0+0xc0
 9690 19ad 01       		.byte	0x1
 9691 19ae CB01     		.2byte	0x1cb
 9692 19b0 D3190000 		.4byte	0x19d3
 9693 19b4 2E       		.uleb128 0x2e
 9694 19b5 3A160000 		.4byte	0x163a
 9695 19b9 B1080000 		.4byte	.LLST23
 9696 19bd 2E       		.uleb128 0x2e
 9697 19be 2F160000 		.4byte	0x162f
 9698 19c2 C4080000 		.4byte	.LLST24
 9699 19c6 3F       		.uleb128 0x3f
 9700 19c7 5E060000 		.4byte	.LVL88
 9701 19cb 30       		.uleb128 0x30
 9702 19cc 01       		.uleb128 0x1
 9703 19cd 50       		.byte	0x50
 9704 19ce 02       		.uleb128 0x2
 9705 19cf 74       		.byte	0x74
 9706 19d0 00       		.sleb128 0
 9707 19d1 00       		.byte	0
 9708 19d2 00       		.byte	0
 9709 19d3 2A       		.uleb128 0x2a
 9710 19d4 23160000 		.4byte	0x1623
 9711 19d8 E0060000 		.4byte	.LBB107
 9712 19dc E0000000 		.4byte	.Ldebug_ranges0+0xe0
 9713 19e0 01       		.byte	0x1
 9714 19e1 4803     		.2byte	0x348
 9715 19e3 061A0000 		.4byte	0x1a06
 9716 19e7 2E       		.uleb128 0x2e
 9717 19e8 3A160000 		.4byte	0x163a
 9718 19ec DC080000 		.4byte	.LLST25
 9719 19f0 2E       		.uleb128 0x2e
 9720 19f1 2F160000 		.4byte	0x162f
 9721 19f5 EF080000 		.4byte	.LLST26
 9722 19f9 3F       		.uleb128 0x3f
 9723 19fa EE060000 		.4byte	.LVL104
 9724 19fe 30       		.uleb128 0x30
 9725 19ff 01       		.uleb128 0x1
ARM GAS  /tmp/cc0XcXNK.s 			page 172


 9726 1a00 50       		.byte	0x50
 9727 1a01 02       		.uleb128 0x2
 9728 1a02 74       		.byte	0x74
 9729 1a03 00       		.sleb128 0
 9730 1a04 00       		.byte	0
 9731 1a05 00       		.byte	0
 9732 1a06 40       		.uleb128 0x40
 9733 1a07 46160000 		.4byte	0x1646
 9734 1a0b 72070000 		.4byte	.LBB111
 9735 1a0f 02000000 		.4byte	.LBE111-.LBB111
 9736 1a13 01       		.byte	0x1
 9737 1a14 2A03     		.2byte	0x32a
 9738 1a16 41       		.uleb128 0x41
 9739 1a17 92070000 		.4byte	.LBB113
 9740 1a1b 7C000000 		.4byte	.LBE113-.LBB113
 9741 1a1f 1F1B0000 		.4byte	0x1b1f
 9742 1a23 3E       		.uleb128 0x3e
 9743 1a24 8E120000 		.4byte	.LASF420
 9744 1a28 01       		.byte	0x1
 9745 1a29 0B03     		.2byte	0x30b
 9746 1a2b 25000000 		.4byte	0x25
 9747 1a2f 07090000 		.4byte	.LLST27
 9748 1a33 42       		.uleb128 0x42
 9749 1a34 E2100000 		.4byte	.LASF467
 9750 1a38 01       		.byte	0x1
 9751 1a39 1303     		.2byte	0x313
 9752 1a3b C20C0000 		.4byte	0xcc2
 9753 1a3f 03       		.uleb128 0x3
 9754 1a40 91       		.byte	0x91
 9755 1a41 C077     		.sleb128 -1088
 9756 1a43 43       		.uleb128 0x43
 9757 1a44 72657300 		.ascii	"res\000"
 9758 1a48 01       		.byte	0x1
 9759 1a49 1403     		.2byte	0x314
 9760 1a4b AB0C0000 		.4byte	0xcab
 9761 1a4f 27090000 		.4byte	.LLST28
 9762 1a53 2A       		.uleb128 0x2a
 9763 1a54 23160000 		.4byte	0x1623
 9764 1a58 DA070000 		.4byte	.LBB114
 9765 1a5c F8000000 		.4byte	.Ldebug_ranges0+0xf8
 9766 1a60 01       		.byte	0x1
 9767 1a61 1D03     		.2byte	0x31d
 9768 1a63 8F1A0000 		.4byte	0x1a8f
 9769 1a67 2E       		.uleb128 0x2e
 9770 1a68 3A160000 		.4byte	0x163a
 9771 1a6c 3A090000 		.4byte	.LLST29
 9772 1a70 2E       		.uleb128 0x2e
 9773 1a71 2F160000 		.4byte	0x162f
 9774 1a75 4E090000 		.4byte	.LLST30
 9775 1a79 3F       		.uleb128 0x3f
 9776 1a7a 0C080000 		.4byte	.LVL129
 9777 1a7e 30       		.uleb128 0x30
 9778 1a7f 01       		.uleb128 0x1
 9779 1a80 51       		.byte	0x51
 9780 1a81 02       		.uleb128 0x2
 9781 1a82 76       		.byte	0x76
 9782 1a83 00       		.sleb128 0
ARM GAS  /tmp/cc0XcXNK.s 			page 173


 9783 1a84 30       		.uleb128 0x30
 9784 1a85 01       		.uleb128 0x1
 9785 1a86 50       		.byte	0x50
 9786 1a87 05       		.uleb128 0x5
 9787 1a88 03       		.byte	0x3
 9788 1a89 00000000 		.4byte	.LANCHOR8
 9789 1a8d 00       		.byte	0
 9790 1a8e 00       		.byte	0
 9791 1a8f 31       		.uleb128 0x31
 9792 1a90 9E070000 		.4byte	.LVL120
 9793 1a94 E64D0000 		.4byte	0x4de6
 9794 1a98 B31A0000 		.4byte	0x1ab3
 9795 1a9c 30       		.uleb128 0x30
 9796 1a9d 01       		.uleb128 0x1
 9797 1a9e 52       		.byte	0x52
 9798 1a9f 03       		.uleb128 0x3
 9799 1aa0 0A       		.byte	0xa
 9800 1aa1 3801     		.2byte	0x138
 9801 1aa3 30       		.uleb128 0x30
 9802 1aa4 01       		.uleb128 0x1
 9803 1aa5 51       		.byte	0x51
 9804 1aa6 02       		.uleb128 0x2
 9805 1aa7 75       		.byte	0x75
 9806 1aa8 00       		.sleb128 0
 9807 1aa9 30       		.uleb128 0x30
 9808 1aaa 01       		.uleb128 0x1
 9809 1aab 50       		.byte	0x50
 9810 1aac 05       		.uleb128 0x5
 9811 1aad 03       		.byte	0x3
 9812 1aae 00000000 		.4byte	.LANCHOR14
 9813 1ab2 00       		.byte	0
 9814 1ab3 31       		.uleb128 0x31
 9815 1ab4 AC070000 		.4byte	.LVL121
 9816 1ab8 0A4E0000 		.4byte	0x4e0a
 9817 1abc DA1A0000 		.4byte	0x1ada
 9818 1ac0 30       		.uleb128 0x30
 9819 1ac1 01       		.uleb128 0x1
 9820 1ac2 51       		.byte	0x51
 9821 1ac3 03       		.uleb128 0x3
 9822 1ac4 91       		.byte	0x91
 9823 1ac5 8471     		.sleb128 -1916
 9824 1ac7 30       		.uleb128 0x30
 9825 1ac8 02       		.uleb128 0x2
 9826 1ac9 90       		.byte	0x90
 9827 1aca 40       		.uleb128 0x40
 9828 1acb 07       		.uleb128 0x7
 9829 1acc F4       		.byte	0xf4
 9830 1acd 25       		.uleb128 0x25
 9831 1ace 04       		.byte	0x4
 9832 1acf 00007A44 		.4byte	0x447a0000
 9833 1ad3 30       		.uleb128 0x30
 9834 1ad4 01       		.uleb128 0x1
 9835 1ad5 50       		.byte	0x50
 9836 1ad6 02       		.uleb128 0x2
 9837 1ad7 74       		.byte	0x74
 9838 1ad8 00       		.sleb128 0
 9839 1ad9 00       		.byte	0
ARM GAS  /tmp/cc0XcXNK.s 			page 174


 9840 1ada 31       		.uleb128 0x31
 9841 1adb CC070000 		.4byte	.LVL123
 9842 1adf 294E0000 		.4byte	0x4e29
 9843 1ae3 EE1A0000 		.4byte	0x1aee
 9844 1ae7 30       		.uleb128 0x30
 9845 1ae8 01       		.uleb128 0x1
 9846 1ae9 50       		.byte	0x50
 9847 1aea 02       		.uleb128 0x2
 9848 1aeb 75       		.byte	0x75
 9849 1aec 00       		.sleb128 0
 9850 1aed 00       		.byte	0
 9851 1aee 31       		.uleb128 0x31
 9852 1aef D6070000 		.4byte	.LVL124
 9853 1af3 404E0000 		.4byte	0x4e40
 9854 1af7 0B1B0000 		.4byte	0x1b0b
 9855 1afb 30       		.uleb128 0x30
 9856 1afc 01       		.uleb128 0x1
 9857 1afd 50       		.byte	0x50
 9858 1afe 03       		.uleb128 0x3
 9859 1aff 91       		.byte	0x91
 9860 1b00 C077     		.sleb128 -1088
 9861 1b02 30       		.uleb128 0x30
 9862 1b03 02       		.uleb128 0x2
 9863 1b04 90       		.byte	0x90
 9864 1b05 40       		.uleb128 0x40
 9865 1b06 03       		.uleb128 0x3
 9866 1b07 F5       		.byte	0xf5
 9867 1b08 50       		.uleb128 0x50
 9868 1b09 25       		.uleb128 0x25
 9869 1b0a 00       		.byte	0
 9870 1b0b 32       		.uleb128 0x32
 9871 1b0c E0070000 		.4byte	.LVL126
 9872 1b10 294E0000 		.4byte	0x4e29
 9873 1b14 30       		.uleb128 0x30
 9874 1b15 01       		.uleb128 0x1
 9875 1b16 50       		.byte	0x50
 9876 1b17 05       		.uleb128 0x5
 9877 1b18 03       		.byte	0x3
 9878 1b19 00000000 		.4byte	.LANCHOR14
 9879 1b1d 00       		.byte	0
 9880 1b1e 00       		.byte	0
 9881 1b1f 41       		.uleb128 0x41
 9882 1b20 1A080000 		.4byte	.LBB120
 9883 1b24 B4000000 		.4byte	.LBE120-.LBB120
 9884 1b28 B51C0000 		.4byte	0x1cb5
 9885 1b2c 3E       		.uleb128 0x3e
 9886 1b2d 8E120000 		.4byte	.LASF420
 9887 1b31 01       		.byte	0x1
 9888 1b32 E602     		.2byte	0x2e6
 9889 1b34 25000000 		.4byte	0x25
 9890 1b38 66090000 		.4byte	.LLST31
 9891 1b3c 42       		.uleb128 0x42
 9892 1b3d C81E0000 		.4byte	.LASF94
 9893 1b41 01       		.byte	0x1
 9894 1b42 EE02     		.2byte	0x2ee
 9895 1b44 25000000 		.4byte	0x25
 9896 1b48 03       		.uleb128 0x3
ARM GAS  /tmp/cc0XcXNK.s 			page 175


 9897 1b49 91       		.byte	0x91
 9898 1b4a 8875     		.sleb128 -1400
 9899 1b4c 42       		.uleb128 0x42
 9900 1b4d 081B0000 		.4byte	.LASF468
 9901 1b51 01       		.byte	0x1
 9902 1b52 EF02     		.2byte	0x2ef
 9903 1b54 25000000 		.4byte	0x25
 9904 1b58 03       		.uleb128 0x3
 9905 1b59 91       		.byte	0x91
 9906 1b5a C077     		.sleb128 -1088
 9907 1b5c 42       		.uleb128 0x42
 9908 1b5d C0220000 		.4byte	.LASF469
 9909 1b61 01       		.byte	0x1
 9910 1b62 F002     		.2byte	0x2f0
 9911 1b64 AB0C0000 		.4byte	0xcab
 9912 1b68 03       		.uleb128 0x3
 9913 1b69 91       		.byte	0x91
 9914 1b6a 8873     		.sleb128 -1656
 9915 1b6c 2A       		.uleb128 0x2a
 9916 1b6d 23160000 		.4byte	0x1623
 9917 1b71 B2080000 		.4byte	.LBB121
 9918 1b75 18010000 		.4byte	.Ldebug_ranges0+0x118
 9919 1b79 01       		.byte	0x1
 9920 1b7a F902     		.2byte	0x2f9
 9921 1b7c 9F1B0000 		.4byte	0x1b9f
 9922 1b80 2E       		.uleb128 0x2e
 9923 1b81 3A160000 		.4byte	0x163a
 9924 1b85 86090000 		.4byte	.LLST32
 9925 1b89 2E       		.uleb128 0x2e
 9926 1b8a 2F160000 		.4byte	0x162f
 9927 1b8e 99090000 		.4byte	.LLST33
 9928 1b92 3F       		.uleb128 0x3f
 9929 1b93 CC080000 		.4byte	.LVL146
 9930 1b97 30       		.uleb128 0x30
 9931 1b98 01       		.uleb128 0x1
 9932 1b99 50       		.byte	0x50
 9933 1b9a 02       		.uleb128 0x2
 9934 1b9b 76       		.byte	0x76
 9935 1b9c 00       		.sleb128 0
 9936 1b9d 00       		.byte	0
 9937 1b9e 00       		.byte	0
 9938 1b9f 44       		.uleb128 0x44
 9939 1ba0 1E080000 		.4byte	.LVL132
 9940 1ba4 5A4E0000 		.4byte	0x4e5a
 9941 1ba8 31       		.uleb128 0x31
 9942 1ba9 2E080000 		.4byte	.LVL133
 9943 1bad E64D0000 		.4byte	0x4de6
 9944 1bb1 C31B0000 		.4byte	0x1bc3
 9945 1bb5 30       		.uleb128 0x30
 9946 1bb6 01       		.uleb128 0x1
 9947 1bb7 52       		.byte	0x52
 9948 1bb8 03       		.uleb128 0x3
 9949 1bb9 0A       		.byte	0xa
 9950 1bba 3801     		.2byte	0x138
 9951 1bbc 30       		.uleb128 0x30
 9952 1bbd 01       		.uleb128 0x1
 9953 1bbe 50       		.byte	0x50
ARM GAS  /tmp/cc0XcXNK.s 			page 176


 9954 1bbf 02       		.uleb128 0x2
 9955 1bc0 75       		.byte	0x75
 9956 1bc1 00       		.sleb128 0
 9957 1bc2 00       		.byte	0
 9958 1bc3 31       		.uleb128 0x31
 9959 1bc4 3A080000 		.4byte	.LVL134
 9960 1bc8 E64D0000 		.4byte	0x4de6
 9961 1bcc E71B0000 		.4byte	0x1be7
 9962 1bd0 30       		.uleb128 0x30
 9963 1bd1 01       		.uleb128 0x1
 9964 1bd2 52       		.byte	0x52
 9965 1bd3 03       		.uleb128 0x3
 9966 1bd4 0A       		.byte	0xa
 9967 1bd5 3801     		.2byte	0x138
 9968 1bd7 30       		.uleb128 0x30
 9969 1bd8 01       		.uleb128 0x1
 9970 1bd9 51       		.byte	0x51
 9971 1bda 02       		.uleb128 0x2
 9972 1bdb 75       		.byte	0x75
 9973 1bdc 00       		.sleb128 0
 9974 1bdd 30       		.uleb128 0x30
 9975 1bde 01       		.uleb128 0x1
 9976 1bdf 50       		.byte	0x50
 9977 1be0 05       		.uleb128 0x5
 9978 1be1 03       		.byte	0x3
 9979 1be2 00000000 		.4byte	.LANCHOR14
 9980 1be6 00       		.byte	0
 9981 1be7 31       		.uleb128 0x31
 9982 1be8 4A080000 		.4byte	.LVL136
 9983 1bec 0A4E0000 		.4byte	0x4e0a
 9984 1bf0 0E1C0000 		.4byte	0x1c0e
 9985 1bf4 30       		.uleb128 0x30
 9986 1bf5 01       		.uleb128 0x1
 9987 1bf6 51       		.byte	0x51
 9988 1bf7 03       		.uleb128 0x3
 9989 1bf8 91       		.byte	0x91
 9990 1bf9 8471     		.sleb128 -1916
 9991 1bfb 30       		.uleb128 0x30
 9992 1bfc 02       		.uleb128 0x2
 9993 1bfd 90       		.byte	0x90
 9994 1bfe 40       		.uleb128 0x40
 9995 1bff 07       		.uleb128 0x7
 9996 1c00 F4       		.byte	0xf4
 9997 1c01 25       		.uleb128 0x25
 9998 1c02 04       		.byte	0x4
 9999 1c03 00007A44 		.4byte	0x447a0000
 10000 1c07 30       		.uleb128 0x30
 10001 1c08 01       		.uleb128 0x1
 10002 1c09 50       		.byte	0x50
 10003 1c0a 02       		.uleb128 0x2
 10004 1c0b 74       		.byte	0x74
 10005 1c0c 00       		.sleb128 0
 10006 1c0d 00       		.byte	0
 10007 1c0e 31       		.uleb128 0x31
 10008 1c0f 6C080000 		.4byte	.LVL139
 10009 1c13 294E0000 		.4byte	0x4e29
 10010 1c17 221C0000 		.4byte	0x1c22
ARM GAS  /tmp/cc0XcXNK.s 			page 177


 10011 1c1b 30       		.uleb128 0x30
 10012 1c1c 01       		.uleb128 0x1
 10013 1c1d 50       		.byte	0x50
 10014 1c1e 02       		.uleb128 0x2
 10015 1c1f 75       		.byte	0x75
 10016 1c20 00       		.sleb128 0
 10017 1c21 00       		.byte	0
 10018 1c22 31       		.uleb128 0x31
 10019 1c23 84080000 		.4byte	.LVL140
 10020 1c27 754E0000 		.4byte	0x4e75
 10021 1c2b 531C0000 		.4byte	0x1c53
 10022 1c2f 30       		.uleb128 0x30
 10023 1c30 01       		.uleb128 0x1
 10024 1c31 53       		.byte	0x53
 10025 1c32 03       		.uleb128 0x3
 10026 1c33 91       		.byte	0x91
 10027 1c34 8873     		.sleb128 -1656
 10028 1c36 30       		.uleb128 0x30
 10029 1c37 01       		.uleb128 0x1
 10030 1c38 52       		.byte	0x52
 10031 1c39 03       		.uleb128 0x3
 10032 1c3a 91       		.byte	0x91
 10033 1c3b C077     		.sleb128 -1088
 10034 1c3d 30       		.uleb128 0x30
 10035 1c3e 01       		.uleb128 0x1
 10036 1c3f 51       		.byte	0x51
 10037 1c40 03       		.uleb128 0x3
 10038 1c41 91       		.byte	0x91
 10039 1c42 8875     		.sleb128 -1400
 10040 1c44 30       		.uleb128 0x30
 10041 1c45 01       		.uleb128 0x1
 10042 1c46 50       		.byte	0x50
 10043 1c47 02       		.uleb128 0x2
 10044 1c48 74       		.byte	0x74
 10045 1c49 00       		.sleb128 0
 10046 1c4a 30       		.uleb128 0x30
 10047 1c4b 02       		.uleb128 0x2
 10048 1c4c 90       		.byte	0x90
 10049 1c4d 40       		.uleb128 0x40
 10050 1c4e 03       		.uleb128 0x3
 10051 1c4f F5       		.byte	0xf5
 10052 1c50 50       		.uleb128 0x50
 10053 1c51 25       		.uleb128 0x25
 10054 1c52 00       		.byte	0
 10055 1c53 31       		.uleb128 0x31
 10056 1c54 8A080000 		.4byte	.LVL141
 10057 1c58 294E0000 		.4byte	0x4e29
 10058 1c5c 6A1C0000 		.4byte	0x1c6a
 10059 1c60 30       		.uleb128 0x30
 10060 1c61 01       		.uleb128 0x1
 10061 1c62 50       		.byte	0x50
 10062 1c63 05       		.uleb128 0x5
 10063 1c64 03       		.byte	0x3
 10064 1c65 00000000 		.4byte	.LANCHOR14
 10065 1c69 00       		.byte	0
 10066 1c6a 31       		.uleb128 0x31
 10067 1c6b A2080000 		.4byte	.LVL142
ARM GAS  /tmp/cc0XcXNK.s 			page 178


 10068 1c6f A04E0000 		.4byte	0x4ea0
 10069 1c73 911C0000 		.4byte	0x1c91
 10070 1c77 30       		.uleb128 0x30
 10071 1c78 01       		.uleb128 0x1
 10072 1c79 51       		.byte	0x51
 10073 1c7a 03       		.uleb128 0x3
 10074 1c7b 91       		.byte	0x91
 10075 1c7c 8471     		.sleb128 -1916
 10076 1c7e 30       		.uleb128 0x30
 10077 1c7f 02       		.uleb128 0x2
 10078 1c80 90       		.byte	0x90
 10079 1c81 41       		.uleb128 0x41
 10080 1c82 07       		.uleb128 0x7
 10081 1c83 F4       		.byte	0xf4
 10082 1c84 25       		.uleb128 0x25
 10083 1c85 04       		.byte	0x4
 10084 1c86 00247449 		.4byte	0x49742400
 10085 1c8a 30       		.uleb128 0x30
 10086 1c8b 01       		.uleb128 0x1
 10087 1c8c 50       		.byte	0x50
 10088 1c8d 02       		.uleb128 0x2
 10089 1c8e 76       		.byte	0x76
 10090 1c8f 00       		.sleb128 0
 10091 1c90 00       		.byte	0
 10092 1c91 32       		.uleb128 0x32
 10093 1c92 B2080000 		.4byte	.LVL143
 10094 1c96 A04E0000 		.4byte	0x4ea0
 10095 1c9a 30       		.uleb128 0x30
 10096 1c9b 01       		.uleb128 0x1
 10097 1c9c 51       		.byte	0x51
 10098 1c9d 03       		.uleb128 0x3
 10099 1c9e 91       		.byte	0x91
 10100 1c9f 8471     		.sleb128 -1916
 10101 1ca1 30       		.uleb128 0x30
 10102 1ca2 02       		.uleb128 0x2
 10103 1ca3 90       		.byte	0x90
 10104 1ca4 41       		.uleb128 0x41
 10105 1ca5 07       		.uleb128 0x7
 10106 1ca6 F4       		.byte	0xf4
 10107 1ca7 25       		.uleb128 0x25
 10108 1ca8 04       		.byte	0x4
 10109 1ca9 00247449 		.4byte	0x49742400
 10110 1cad 30       		.uleb128 0x30
 10111 1cae 01       		.uleb128 0x1
 10112 1caf 50       		.byte	0x50
 10113 1cb0 02       		.uleb128 0x2
 10114 1cb1 76       		.byte	0x76
 10115 1cb2 00       		.sleb128 0
 10116 1cb3 00       		.byte	0
 10117 1cb4 00       		.byte	0
 10118 1cb5 41       		.uleb128 0x41
 10119 1cb6 CE080000 		.4byte	.LBB127
 10120 1cba BA000000 		.4byte	.LBE127-.LBB127
 10121 1cbe 1C1E0000 		.4byte	0x1e1c
 10122 1cc2 3E       		.uleb128 0x3e
 10123 1cc3 8E120000 		.4byte	.LASF420
 10124 1cc7 01       		.byte	0x1
ARM GAS  /tmp/cc0XcXNK.s 			page 179


 10125 1cc8 CD02     		.2byte	0x2cd
 10126 1cca 25000000 		.4byte	0x25
 10127 1cce B1090000 		.4byte	.LLST34
 10128 1cd2 3E       		.uleb128 0x3e
 10129 1cd3 48180000 		.4byte	.LASF470
 10130 1cd7 01       		.byte	0x1
 10131 1cd8 CE02     		.2byte	0x2ce
 10132 1cda 25000000 		.4byte	0x25
 10133 1cde DD090000 		.4byte	.LLST35
 10134 1ce2 3E       		.uleb128 0x3e
 10135 1ce3 6F190000 		.4byte	.LASF421
 10136 1ce7 01       		.byte	0x1
 10137 1ce8 CF02     		.2byte	0x2cf
 10138 1cea 25000000 		.4byte	0x25
 10139 1cee 090A0000 		.4byte	.LLST36
 10140 1cf2 3E       		.uleb128 0x3e
 10141 1cf3 CB040000 		.4byte	.LASF471
 10142 1cf7 01       		.byte	0x1
 10143 1cf8 D002     		.2byte	0x2d0
 10144 1cfa 25000000 		.4byte	0x25
 10145 1cfe 350A0000 		.4byte	.LLST37
 10146 1d02 42       		.uleb128 0x42
 10147 1d03 15060000 		.4byte	.LASF472
 10148 1d07 01       		.byte	0x1
 10149 1d08 D202     		.2byte	0x2d2
 10150 1d0a 25000000 		.4byte	0x25
 10151 1d0e 03       		.uleb128 0x3
 10152 1d0f 91       		.byte	0x91
 10153 1d10 C077     		.sleb128 -1088
 10154 1d12 43       		.uleb128 0x43
 10155 1d13 72657300 		.ascii	"res\000"
 10156 1d17 01       		.byte	0x1
 10157 1d18 D302     		.2byte	0x2d3
 10158 1d1a AB0C0000 		.4byte	0xcab
 10159 1d1e 550A0000 		.4byte	.LLST38
 10160 1d22 2A       		.uleb128 0x2a
 10161 1d23 23160000 		.4byte	0x1623
 10162 1d27 48090000 		.4byte	.LBB128
 10163 1d2b 38010000 		.4byte	.Ldebug_ranges0+0x138
 10164 1d2f 01       		.byte	0x1
 10165 1d30 DC02     		.2byte	0x2dc
 10166 1d32 491D0000 		.4byte	0x1d49
 10167 1d36 2E       		.uleb128 0x2e
 10168 1d37 3A160000 		.4byte	0x163a
 10169 1d3b 730A0000 		.4byte	.LLST39
 10170 1d3f 2E       		.uleb128 0x2e
 10171 1d40 2F160000 		.4byte	0x162f
 10172 1d44 860A0000 		.4byte	.LLST40
 10173 1d48 00       		.byte	0
 10174 1d49 31       		.uleb128 0x31
 10175 1d4a DA080000 		.4byte	.LVL148
 10176 1d4e 0A4E0000 		.4byte	0x4e0a
 10177 1d52 701D0000 		.4byte	0x1d70
 10178 1d56 30       		.uleb128 0x30
 10179 1d57 01       		.uleb128 0x1
 10180 1d58 51       		.byte	0x51
 10181 1d59 03       		.uleb128 0x3
ARM GAS  /tmp/cc0XcXNK.s 			page 180


 10182 1d5a 91       		.byte	0x91
 10183 1d5b 8471     		.sleb128 -1916
 10184 1d5d 30       		.uleb128 0x30
 10185 1d5e 02       		.uleb128 0x2
 10186 1d5f 90       		.byte	0x90
 10187 1d60 40       		.uleb128 0x40
 10188 1d61 07       		.uleb128 0x7
 10189 1d62 F4       		.byte	0xf4
 10190 1d63 25       		.uleb128 0x25
 10191 1d64 04       		.byte	0x4
 10192 1d65 00007A44 		.4byte	0x447a0000
 10193 1d69 30       		.uleb128 0x30
 10194 1d6a 01       		.uleb128 0x1
 10195 1d6b 50       		.byte	0x50
 10196 1d6c 02       		.uleb128 0x2
 10197 1d6d 74       		.byte	0x74
 10198 1d6e 00       		.sleb128 0
 10199 1d6f 00       		.byte	0
 10200 1d70 31       		.uleb128 0x31
 10201 1d71 EA080000 		.4byte	.LVL151
 10202 1d75 0A4E0000 		.4byte	0x4e0a
 10203 1d79 971D0000 		.4byte	0x1d97
 10204 1d7d 30       		.uleb128 0x30
 10205 1d7e 01       		.uleb128 0x1
 10206 1d7f 51       		.byte	0x51
 10207 1d80 03       		.uleb128 0x3
 10208 1d81 91       		.byte	0x91
 10209 1d82 8471     		.sleb128 -1916
 10210 1d84 30       		.uleb128 0x30
 10211 1d85 02       		.uleb128 0x2
 10212 1d86 90       		.byte	0x90
 10213 1d87 40       		.uleb128 0x40
 10214 1d88 07       		.uleb128 0x7
 10215 1d89 F4       		.byte	0xf4
 10216 1d8a 25       		.uleb128 0x25
 10217 1d8b 04       		.byte	0x4
 10218 1d8c 00007A44 		.4byte	0x447a0000
 10219 1d90 30       		.uleb128 0x30
 10220 1d91 01       		.uleb128 0x1
 10221 1d92 50       		.byte	0x50
 10222 1d93 02       		.uleb128 0x2
 10223 1d94 74       		.byte	0x74
 10224 1d95 00       		.sleb128 0
 10225 1d96 00       		.byte	0
 10226 1d97 31       		.uleb128 0x31
 10227 1d98 FA080000 		.4byte	.LVL154
 10228 1d9c 0A4E0000 		.4byte	0x4e0a
 10229 1da0 BE1D0000 		.4byte	0x1dbe
 10230 1da4 30       		.uleb128 0x30
 10231 1da5 01       		.uleb128 0x1
 10232 1da6 51       		.byte	0x51
 10233 1da7 03       		.uleb128 0x3
 10234 1da8 91       		.byte	0x91
 10235 1da9 8471     		.sleb128 -1916
 10236 1dab 30       		.uleb128 0x30
 10237 1dac 02       		.uleb128 0x2
 10238 1dad 90       		.byte	0x90
ARM GAS  /tmp/cc0XcXNK.s 			page 181


 10239 1dae 40       		.uleb128 0x40
 10240 1daf 07       		.uleb128 0x7
 10241 1db0 F4       		.byte	0xf4
 10242 1db1 25       		.uleb128 0x25
 10243 1db2 04       		.byte	0x4
 10244 1db3 00007A44 		.4byte	0x447a0000
 10245 1db7 30       		.uleb128 0x30
 10246 1db8 01       		.uleb128 0x1
 10247 1db9 50       		.byte	0x50
 10248 1dba 02       		.uleb128 0x2
 10249 1dbb 74       		.byte	0x74
 10250 1dbc 00       		.sleb128 0
 10251 1dbd 00       		.byte	0
 10252 1dbe 31       		.uleb128 0x31
 10253 1dbf 0A090000 		.4byte	.LVL157
 10254 1dc3 0A4E0000 		.4byte	0x4e0a
 10255 1dc7 E51D0000 		.4byte	0x1de5
 10256 1dcb 30       		.uleb128 0x30
 10257 1dcc 01       		.uleb128 0x1
 10258 1dcd 51       		.byte	0x51
 10259 1dce 03       		.uleb128 0x3
 10260 1dcf 91       		.byte	0x91
 10261 1dd0 8471     		.sleb128 -1916
 10262 1dd2 30       		.uleb128 0x30
 10263 1dd3 02       		.uleb128 0x2
 10264 1dd4 90       		.byte	0x90
 10265 1dd5 40       		.uleb128 0x40
 10266 1dd6 07       		.uleb128 0x7
 10267 1dd7 F4       		.byte	0xf4
 10268 1dd8 25       		.uleb128 0x25
 10269 1dd9 04       		.byte	0x4
 10270 1dda 00247449 		.4byte	0x49742400
 10271 1dde 30       		.uleb128 0x30
 10272 1ddf 01       		.uleb128 0x1
 10273 1de0 50       		.byte	0x50
 10274 1de1 02       		.uleb128 0x2
 10275 1de2 74       		.byte	0x74
 10276 1de3 00       		.sleb128 0
 10277 1de4 00       		.byte	0
 10278 1de5 31       		.uleb128 0x31
 10279 1de6 20090000 		.4byte	.LVL160
 10280 1dea C04E0000 		.4byte	0x4ec0
 10281 1dee 121E0000 		.4byte	0x1e12
 10282 1df2 30       		.uleb128 0x30
 10283 1df3 01       		.uleb128 0x1
 10284 1df4 50       		.byte	0x50
 10285 1df5 03       		.uleb128 0x3
 10286 1df6 91       		.byte	0x91
 10287 1df7 C077     		.sleb128 -1088
 10288 1df9 30       		.uleb128 0x30
 10289 1dfa 02       		.uleb128 0x2
 10290 1dfb 90       		.byte	0x90
 10291 1dfc 42       		.uleb128 0x42
 10292 1dfd 03       		.uleb128 0x3
 10293 1dfe F5       		.byte	0xf5
 10294 1dff 51       		.uleb128 0x51
 10295 1e00 25       		.uleb128 0x25
ARM GAS  /tmp/cc0XcXNK.s 			page 182


 10296 1e01 30       		.uleb128 0x30
 10297 1e02 02       		.uleb128 0x2
 10298 1e03 90       		.byte	0x90
 10299 1e04 41       		.uleb128 0x41
 10300 1e05 03       		.uleb128 0x3
 10301 1e06 F5       		.byte	0xf5
 10302 1e07 52       		.uleb128 0x52
 10303 1e08 25       		.uleb128 0x25
 10304 1e09 30       		.uleb128 0x30
 10305 1e0a 02       		.uleb128 0x2
 10306 1e0b 90       		.byte	0x90
 10307 1e0c 40       		.uleb128 0x40
 10308 1e0d 03       		.uleb128 0x3
 10309 1e0e F5       		.byte	0xf5
 10310 1e0f 50       		.uleb128 0x50
 10311 1e10 25       		.uleb128 0x25
 10312 1e11 00       		.byte	0
 10313 1e12 44       		.uleb128 0x44
 10314 1e13 48090000 		.4byte	.LVL164
 10315 1e17 A04E0000 		.4byte	0x4ea0
 10316 1e1b 00       		.byte	0
 10317 1e1c 41       		.uleb128 0x41
 10318 1e1d 88090000 		.4byte	.LBB132
 10319 1e21 94000000 		.4byte	.LBE132-.LBB132
 10320 1e25 071F0000 		.4byte	0x1f07
 10321 1e29 2D       		.uleb128 0x2d
 10322 1e2a 7200     		.ascii	"r\000"
 10323 1e2c 01       		.byte	0x1
 10324 1e2d B902     		.2byte	0x2b9
 10325 1e2f 25000000 		.4byte	0x25
 10326 1e33 03       		.uleb128 0x3
 10327 1e34 91       		.byte	0x91
 10328 1e35 8875     		.sleb128 -1400
 10329 1e37 2D       		.uleb128 0x2d
 10330 1e38 6C00     		.ascii	"l\000"
 10331 1e3a 01       		.byte	0x1
 10332 1e3b BA02     		.2byte	0x2ba
 10333 1e3d 25000000 		.4byte	0x25
 10334 1e41 03       		.uleb128 0x3
 10335 1e42 91       		.byte	0x91
 10336 1e43 C077     		.sleb128 -1088
 10337 1e45 43       		.uleb128 0x43
 10338 1e46 72657300 		.ascii	"res\000"
 10339 1e4a 01       		.byte	0x1
 10340 1e4b BB02     		.2byte	0x2bb
 10341 1e4d AB0C0000 		.4byte	0xcab
 10342 1e51 9E0A0000 		.4byte	.LLST41
 10343 1e55 44       		.uleb128 0x44
 10344 1e56 8C090000 		.4byte	.LVL167
 10345 1e5a 5A4E0000 		.4byte	0x4e5a
 10346 1e5e 31       		.uleb128 0x31
 10347 1e5f 9E090000 		.4byte	.LVL169
 10348 1e63 E64D0000 		.4byte	0x4de6
 10349 1e67 791E0000 		.4byte	0x1e79
 10350 1e6b 30       		.uleb128 0x30
 10351 1e6c 01       		.uleb128 0x1
 10352 1e6d 52       		.byte	0x52
ARM GAS  /tmp/cc0XcXNK.s 			page 183


 10353 1e6e 03       		.uleb128 0x3
 10354 1e6f 0A       		.byte	0xa
 10355 1e70 3801     		.2byte	0x138
 10356 1e72 30       		.uleb128 0x30
 10357 1e73 01       		.uleb128 0x1
 10358 1e74 50       		.byte	0x50
 10359 1e75 02       		.uleb128 0x2
 10360 1e76 74       		.byte	0x74
 10361 1e77 00       		.sleb128 0
 10362 1e78 00       		.byte	0
 10363 1e79 31       		.uleb128 0x31
 10364 1e7a AA090000 		.4byte	.LVL170
 10365 1e7e E64D0000 		.4byte	0x4de6
 10366 1e82 9D1E0000 		.4byte	0x1e9d
 10367 1e86 30       		.uleb128 0x30
 10368 1e87 01       		.uleb128 0x1
 10369 1e88 52       		.byte	0x52
 10370 1e89 03       		.uleb128 0x3
 10371 1e8a 0A       		.byte	0xa
 10372 1e8b 3801     		.2byte	0x138
 10373 1e8d 30       		.uleb128 0x30
 10374 1e8e 01       		.uleb128 0x1
 10375 1e8f 51       		.byte	0x51
 10376 1e90 02       		.uleb128 0x2
 10377 1e91 74       		.byte	0x74
 10378 1e92 00       		.sleb128 0
 10379 1e93 30       		.uleb128 0x30
 10380 1e94 01       		.uleb128 0x1
 10381 1e95 50       		.byte	0x50
 10382 1e96 05       		.uleb128 0x5
 10383 1e97 03       		.byte	0x3
 10384 1e98 00000000 		.4byte	.LANCHOR14
 10385 1e9c 00       		.byte	0
 10386 1e9d 31       		.uleb128 0x31
 10387 1e9e B6090000 		.4byte	.LVL172
 10388 1ea2 294E0000 		.4byte	0x4e29
 10389 1ea6 B11E0000 		.4byte	0x1eb1
 10390 1eaa 30       		.uleb128 0x30
 10391 1eab 01       		.uleb128 0x1
 10392 1eac 50       		.byte	0x50
 10393 1ead 02       		.uleb128 0x2
 10394 1eae 74       		.byte	0x74
 10395 1eaf 00       		.sleb128 0
 10396 1eb0 00       		.byte	0
 10397 1eb1 31       		.uleb128 0x31
 10398 1eb2 C6090000 		.4byte	.LVL173
 10399 1eb6 E94E0000 		.4byte	0x4ee9
 10400 1eba CC1E0000 		.4byte	0x1ecc
 10401 1ebe 30       		.uleb128 0x30
 10402 1ebf 01       		.uleb128 0x1
 10403 1ec0 51       		.byte	0x51
 10404 1ec1 02       		.uleb128 0x2
 10405 1ec2 77       		.byte	0x77
 10406 1ec3 00       		.sleb128 0
 10407 1ec4 30       		.uleb128 0x30
 10408 1ec5 01       		.uleb128 0x1
 10409 1ec6 50       		.byte	0x50
ARM GAS  /tmp/cc0XcXNK.s 			page 184


 10410 1ec7 03       		.uleb128 0x3
 10411 1ec8 91       		.byte	0x91
 10412 1ec9 8875     		.sleb128 -1400
 10413 1ecb 00       		.byte	0
 10414 1ecc 31       		.uleb128 0x31
 10415 1ecd CE090000 		.4byte	.LVL175
 10416 1ed1 294E0000 		.4byte	0x4e29
 10417 1ed5 E31E0000 		.4byte	0x1ee3
 10418 1ed9 30       		.uleb128 0x30
 10419 1eda 01       		.uleb128 0x1
 10420 1edb 50       		.byte	0x50
 10421 1edc 05       		.uleb128 0x5
 10422 1edd 03       		.byte	0x3
 10423 1ede 00000000 		.4byte	.LANCHOR14
 10424 1ee2 00       		.byte	0
 10425 1ee3 32       		.uleb128 0x32
 10426 1ee4 F6090000 		.4byte	.LVL177
 10427 1ee8 A04E0000 		.4byte	0x4ea0
 10428 1eec 30       		.uleb128 0x30
 10429 1eed 01       		.uleb128 0x1
 10430 1eee 51       		.byte	0x51
 10431 1eef 03       		.uleb128 0x3
 10432 1ef0 91       		.byte	0x91
 10433 1ef1 8471     		.sleb128 -1916
 10434 1ef3 30       		.uleb128 0x30
 10435 1ef4 02       		.uleb128 0x2
 10436 1ef5 90       		.byte	0x90
 10437 1ef6 41       		.uleb128 0x41
 10438 1ef7 07       		.uleb128 0x7
 10439 1ef8 F4       		.byte	0xf4
 10440 1ef9 25       		.uleb128 0x25
 10441 1efa 04       		.byte	0x4
 10442 1efb 00247449 		.4byte	0x49742400
 10443 1eff 30       		.uleb128 0x30
 10444 1f00 01       		.uleb128 0x1
 10445 1f01 50       		.byte	0x50
 10446 1f02 02       		.uleb128 0x2
 10447 1f03 74       		.byte	0x74
 10448 1f04 00       		.sleb128 0
 10449 1f05 00       		.byte	0
 10450 1f06 00       		.byte	0
 10451 1f07 2A       		.uleb128 0x2a
 10452 1f08 23160000 		.4byte	0x1623
 10453 1f0c 540F0000 		.4byte	.LBB133
 10454 1f10 50010000 		.4byte	.Ldebug_ranges0+0x150
 10455 1f14 01       		.byte	0x1
 10456 1f15 9902     		.2byte	0x299
 10457 1f17 2E1F0000 		.4byte	0x1f2e
 10458 1f1b 2E       		.uleb128 0x2e
 10459 1f1c 3A160000 		.4byte	0x163a
 10460 1f20 BC0A0000 		.4byte	.LLST42
 10461 1f24 2E       		.uleb128 0x2e
 10462 1f25 2F160000 		.4byte	0x162f
 10463 1f29 CF0A0000 		.4byte	.LLST43
 10464 1f2d 00       		.byte	0
 10465 1f2e 2A       		.uleb128 0x2a
 10466 1f2f 23160000 		.4byte	0x1623
ARM GAS  /tmp/cc0XcXNK.s 			page 185


 10467 1f33 04150000 		.4byte	.LBB137
 10468 1f37 68010000 		.4byte	.Ldebug_ranges0+0x168
 10469 1f3b 01       		.byte	0x1
 10470 1f3c 6301     		.2byte	0x163
 10471 1f3e 551F0000 		.4byte	0x1f55
 10472 1f42 2E       		.uleb128 0x2e
 10473 1f43 3A160000 		.4byte	0x163a
 10474 1f47 E70A0000 		.4byte	.LLST44
 10475 1f4b 2E       		.uleb128 0x2e
 10476 1f4c 2F160000 		.4byte	0x162f
 10477 1f50 FB0A0000 		.4byte	.LLST45
 10478 1f54 00       		.byte	0
 10479 1f55 2A       		.uleb128 0x2a
 10480 1f56 23160000 		.4byte	0x1623
 10481 1f5a 701B0000 		.4byte	.LBB143
 10482 1f5e 88010000 		.4byte	.Ldebug_ranges0+0x188
 10483 1f62 01       		.byte	0x1
 10484 1f63 3202     		.2byte	0x232
 10485 1f65 911F0000 		.4byte	0x1f91
 10486 1f69 2E       		.uleb128 0x2e
 10487 1f6a 3A160000 		.4byte	0x163a
 10488 1f6e 130B0000 		.4byte	.LLST46
 10489 1f72 2E       		.uleb128 0x2e
 10490 1f73 2F160000 		.4byte	0x162f
 10491 1f77 270B0000 		.4byte	.LLST47
 10492 1f7b 3F       		.uleb128 0x3f
 10493 1f7c 861B0000 		.4byte	.LVL373
 10494 1f80 30       		.uleb128 0x30
 10495 1f81 01       		.uleb128 0x1
 10496 1f82 51       		.byte	0x51
 10497 1f83 02       		.uleb128 0x2
 10498 1f84 75       		.byte	0x75
 10499 1f85 00       		.sleb128 0
 10500 1f86 30       		.uleb128 0x30
 10501 1f87 01       		.uleb128 0x1
 10502 1f88 50       		.byte	0x50
 10503 1f89 05       		.uleb128 0x5
 10504 1f8a 03       		.byte	0x3
 10505 1f8b 00000000 		.4byte	.LANCHOR8
 10506 1f8f 00       		.byte	0
 10507 1f90 00       		.byte	0
 10508 1f91 45       		.uleb128 0x45
 10509 1f92 23160000 		.4byte	0x1623
 10510 1f96 BC1E0000 		.4byte	.LBB149
 10511 1f9a A8010000 		.4byte	.Ldebug_ranges0+0x1a8
 10512 1f9e 01       		.byte	0x1
 10513 1f9f BE       		.byte	0xbe
 10514 1fa0 B71F0000 		.4byte	0x1fb7
 10515 1fa4 2E       		.uleb128 0x2e
 10516 1fa5 3A160000 		.4byte	0x163a
 10517 1fa9 3F0B0000 		.4byte	.LLST48
 10518 1fad 2E       		.uleb128 0x2e
 10519 1fae 2F160000 		.4byte	0x162f
 10520 1fb2 520B0000 		.4byte	.LLST49
 10521 1fb6 00       		.byte	0
 10522 1fb7 45       		.uleb128 0x45
 10523 1fb8 23160000 		.4byte	0x1623
ARM GAS  /tmp/cc0XcXNK.s 			page 186


 10524 1fbc 1C1F0000 		.4byte	.LBB155
 10525 1fc0 C8010000 		.4byte	.Ldebug_ranges0+0x1c8
 10526 1fc4 01       		.byte	0x1
 10527 1fc5 A4       		.byte	0xa4
 10528 1fc6 EC1F0000 		.4byte	0x1fec
 10529 1fca 2E       		.uleb128 0x2e
 10530 1fcb 3A160000 		.4byte	0x163a
 10531 1fcf 6A0B0000 		.4byte	.LLST50
 10532 1fd3 2E       		.uleb128 0x2e
 10533 1fd4 2F160000 		.4byte	0x162f
 10534 1fd8 7E0B0000 		.4byte	.LLST51
 10535 1fdc 3F       		.uleb128 0x3f
 10536 1fdd 401F0000 		.4byte	.LVL435
 10537 1fe1 30       		.uleb128 0x30
 10538 1fe2 01       		.uleb128 0x1
 10539 1fe3 50       		.byte	0x50
 10540 1fe4 05       		.uleb128 0x5
 10541 1fe5 03       		.byte	0x3
 10542 1fe6 00000000 		.4byte	.LANCHOR8
 10543 1fea 00       		.byte	0
 10544 1feb 00       		.byte	0
 10545 1fec 45       		.uleb128 0x45
 10546 1fed 23160000 		.4byte	0x1623
 10547 1ff1 501F0000 		.4byte	.LBB161
 10548 1ff5 E8010000 		.4byte	.Ldebug_ranges0+0x1e8
 10549 1ff9 01       		.byte	0x1
 10550 1ffa 99       		.byte	0x99
 10551 1ffb 12200000 		.4byte	0x2012
 10552 1fff 2E       		.uleb128 0x2e
 10553 2000 3A160000 		.4byte	0x163a
 10554 2004 960B0000 		.4byte	.LLST52
 10555 2008 2E       		.uleb128 0x2e
 10556 2009 2F160000 		.4byte	0x162f
 10557 200d AA0B0000 		.4byte	.LLST53
 10558 2011 00       		.byte	0
 10559 2012 45       		.uleb128 0x45
 10560 2013 23160000 		.4byte	0x1623
 10561 2017 781F0000 		.4byte	.LBB167
 10562 201b 08020000 		.4byte	.Ldebug_ranges0+0x208
 10563 201f 01       		.byte	0x1
 10564 2020 8B       		.byte	0x8b
 10565 2021 38200000 		.4byte	0x2038
 10566 2025 2E       		.uleb128 0x2e
 10567 2026 3A160000 		.4byte	0x163a
 10568 202a C20B0000 		.4byte	.LLST54
 10569 202e 2E       		.uleb128 0x2e
 10570 202f 2F160000 		.4byte	0x162f
 10571 2033 D60B0000 		.4byte	.LLST55
 10572 2037 00       		.byte	0
 10573 2038 3D       		.uleb128 0x3d
 10574 2039 28020000 		.4byte	.Ldebug_ranges0+0x228
 10575 203d D9200000 		.4byte	0x20d9
 10576 2041 42       		.uleb128 0x42
 10577 2042 1F170000 		.4byte	.LASF473
 10578 2046 01       		.byte	0x1
 10579 2047 1104     		.2byte	0x411
 10580 2049 0E480000 		.4byte	0x480e
ARM GAS  /tmp/cc0XcXNK.s 			page 187


 10581 204d 03       		.uleb128 0x3
 10582 204e 91       		.byte	0x91
 10583 204f C077     		.sleb128 -1088
 10584 2051 2C       		.uleb128 0x2c
 10585 2052 40020000 		.4byte	.Ldebug_ranges0+0x240
 10586 2056 43       		.uleb128 0x43
 10587 2057 6900     		.ascii	"i\000"
 10588 2059 01       		.byte	0x1
 10589 205a 1504     		.2byte	0x415
 10590 205c 2C000000 		.4byte	0x2c
 10591 2060 EE0B0000 		.4byte	.LLST56
 10592 2064 2C       		.uleb128 0x2c
 10593 2065 58020000 		.4byte	.Ldebug_ranges0+0x258
 10594 2069 43       		.uleb128 0x43
 10595 206a 6D736700 		.ascii	"msg\000"
 10596 206e 01       		.byte	0x1
 10597 206f 1604     		.2byte	0x416
 10598 2071 1F480000 		.4byte	0x481f
 10599 2075 250C0000 		.4byte	.LLST57
 10600 2079 2A       		.uleb128 0x2a
 10601 207a 4F160000 		.4byte	0x164f
 10602 207e 9C200000 		.4byte	.LBB176
 10603 2082 80020000 		.4byte	.Ldebug_ranges0+0x280
 10604 2086 01       		.byte	0x1
 10605 2087 1804     		.2byte	0x418
 10606 2089 A7200000 		.4byte	0x20a7
 10607 208d 2E       		.uleb128 0x2e
 10608 208e 60160000 		.4byte	0x1660
 10609 2092 380C0000 		.4byte	.LLST58
 10610 2096 46       		.uleb128 0x46
 10611 2097 F3150000 		.4byte	0x15f3
 10612 209b 9C200000 		.4byte	.LBB178
 10613 209f 98020000 		.4byte	.Ldebug_ranges0+0x298
 10614 20a3 04       		.byte	0x4
 10615 20a4 0B01     		.2byte	0x10b
 10616 20a6 00       		.byte	0
 10617 20a7 31       		.uleb128 0x31
 10618 20a8 BA200000 		.4byte	.LVL466
 10619 20ac 034F0000 		.4byte	0x4f03
 10620 20b0 BB200000 		.4byte	0x20bb
 10621 20b4 30       		.uleb128 0x30
 10622 20b5 01       		.uleb128 0x1
 10623 20b6 50       		.byte	0x50
 10624 20b7 02       		.uleb128 0x2
 10625 20b8 76       		.byte	0x76
 10626 20b9 00       		.sleb128 0
 10627 20ba 00       		.byte	0
 10628 20bb 32       		.uleb128 0x32
 10629 20bc EE200000 		.4byte	.LVL470
 10630 20c0 184F0000 		.4byte	0x4f18
 10631 20c4 30       		.uleb128 0x30
 10632 20c5 01       		.uleb128 0x1
 10633 20c6 53       		.byte	0x53
 10634 20c7 01       		.uleb128 0x1
 10635 20c8 30       		.byte	0x30
 10636 20c9 30       		.uleb128 0x30
 10637 20ca 01       		.uleb128 0x1
ARM GAS  /tmp/cc0XcXNK.s 			page 188


 10638 20cb 52       		.byte	0x52
 10639 20cc 02       		.uleb128 0x2
 10640 20cd 75       		.byte	0x75
 10641 20ce 00       		.sleb128 0
 10642 20cf 30       		.uleb128 0x30
 10643 20d0 01       		.uleb128 0x1
 10644 20d1 51       		.byte	0x51
 10645 20d2 02       		.uleb128 0x2
 10646 20d3 77       		.byte	0x77
 10647 20d4 00       		.sleb128 0
 10648 20d5 00       		.byte	0
 10649 20d6 00       		.byte	0
 10650 20d7 00       		.byte	0
 10651 20d8 00       		.byte	0
 10652 20d9 3D       		.uleb128 0x3d
 10653 20da B0020000 		.4byte	.Ldebug_ranges0+0x2b0
 10654 20de 4B220000 		.4byte	0x224b
 10655 20e2 42       		.uleb128 0x42
 10656 20e3 980D0000 		.4byte	.LASF474
 10657 20e7 01       		.byte	0x1
 10658 20e8 7003     		.2byte	0x370
 10659 20ea 87130000 		.4byte	0x1387
 10660 20ee 03       		.uleb128 0x3
 10661 20ef 91       		.byte	0x91
 10662 20f0 8873     		.sleb128 -1656
 10663 20f2 42       		.uleb128 0x42
 10664 20f3 10120000 		.4byte	.LASF475
 10665 20f7 01       		.byte	0x1
 10666 20f8 7603     		.2byte	0x376
 10667 20fa D20C0000 		.4byte	0xcd2
 10668 20fe 03       		.uleb128 0x3
 10669 20ff 91       		.byte	0x91
 10670 2100 8875     		.sleb128 -1400
 10671 2102 41       		.uleb128 0x41
 10672 2103 F2220000 		.4byte	.LBB189
 10673 2107 7E000000 		.4byte	.LBE189-.LBB189
 10674 210b BF210000 		.4byte	0x21bf
 10675 210f 42       		.uleb128 0x42
 10676 2110 1F170000 		.4byte	.LASF473
 10677 2114 01       		.byte	0x1
 10678 2115 AE03     		.2byte	0x3ae
 10679 2117 0E480000 		.4byte	0x480e
 10680 211b 03       		.uleb128 0x3
 10681 211c 91       		.byte	0x91
 10682 211d C077     		.sleb128 -1088
 10683 211f 3D       		.uleb128 0x3d
 10684 2120 D0020000 		.4byte	.Ldebug_ranges0+0x2d0
 10685 2124 37210000 		.4byte	0x2137
 10686 2128 43       		.uleb128 0x43
 10687 2129 6900     		.ascii	"i\000"
 10688 212b 01       		.byte	0x1
 10689 212c B103     		.2byte	0x3b1
 10690 212e B8000000 		.4byte	0xb8
 10691 2132 570C0000 		.4byte	.LLST59
 10692 2136 00       		.byte	0
 10693 2137 2C       		.uleb128 0x2c
 10694 2138 E8020000 		.4byte	.Ldebug_ranges0+0x2e8
ARM GAS  /tmp/cc0XcXNK.s 			page 189


 10695 213c 43       		.uleb128 0x43
 10696 213d 6900     		.ascii	"i\000"
 10697 213f 01       		.byte	0x1
 10698 2140 B503     		.2byte	0x3b5
 10699 2142 2C000000 		.4byte	0x2c
 10700 2146 9F0C0000 		.4byte	.LLST60
 10701 214a 2C       		.uleb128 0x2c
 10702 214b 00030000 		.4byte	.Ldebug_ranges0+0x300
 10703 214f 43       		.uleb128 0x43
 10704 2150 6D736700 		.ascii	"msg\000"
 10705 2154 01       		.byte	0x1
 10706 2155 B603     		.2byte	0x3b6
 10707 2157 1F480000 		.4byte	0x481f
 10708 215b D60C0000 		.4byte	.LLST61
 10709 215f 2A       		.uleb128 0x2a
 10710 2160 4F160000 		.4byte	0x164f
 10711 2164 20230000 		.4byte	.LBB193
 10712 2168 20030000 		.4byte	.Ldebug_ranges0+0x320
 10713 216c 01       		.byte	0x1
 10714 216d B803     		.2byte	0x3b8
 10715 216f 8D210000 		.4byte	0x218d
 10716 2173 2E       		.uleb128 0x2e
 10717 2174 60160000 		.4byte	0x1660
 10718 2178 E90C0000 		.4byte	.LLST62
 10719 217c 46       		.uleb128 0x46
 10720 217d F3150000 		.4byte	0x15f3
 10721 2181 20230000 		.4byte	.LBB195
 10722 2185 38030000 		.4byte	.Ldebug_ranges0+0x338
 10723 2189 04       		.byte	0x4
 10724 218a 0B01     		.2byte	0x10b
 10725 218c 00       		.byte	0
 10726 218d 31       		.uleb128 0x31
 10727 218e 34230000 		.4byte	.LVL510
 10728 2192 034F0000 		.4byte	0x4f03
 10729 2196 A1210000 		.4byte	0x21a1
 10730 219a 30       		.uleb128 0x30
 10731 219b 01       		.uleb128 0x1
 10732 219c 50       		.byte	0x50
 10733 219d 02       		.uleb128 0x2
 10734 219e 76       		.byte	0x76
 10735 219f 00       		.sleb128 0
 10736 21a0 00       		.byte	0
 10737 21a1 32       		.uleb128 0x32
 10738 21a2 68230000 		.4byte	.LVL514
 10739 21a6 184F0000 		.4byte	0x4f18
 10740 21aa 30       		.uleb128 0x30
 10741 21ab 01       		.uleb128 0x1
 10742 21ac 53       		.byte	0x53
 10743 21ad 01       		.uleb128 0x1
 10744 21ae 30       		.byte	0x30
 10745 21af 30       		.uleb128 0x30
 10746 21b0 01       		.uleb128 0x1
 10747 21b1 52       		.byte	0x52
 10748 21b2 02       		.uleb128 0x2
 10749 21b3 75       		.byte	0x75
 10750 21b4 00       		.sleb128 0
 10751 21b5 30       		.uleb128 0x30
ARM GAS  /tmp/cc0XcXNK.s 			page 190


 10752 21b6 01       		.uleb128 0x1
 10753 21b7 51       		.byte	0x51
 10754 21b8 02       		.uleb128 0x2
 10755 21b9 77       		.byte	0x77
 10756 21ba 00       		.sleb128 0
 10757 21bb 00       		.byte	0
 10758 21bc 00       		.byte	0
 10759 21bd 00       		.byte	0
 10760 21be 00       		.byte	0
 10761 21bf 31       		.uleb128 0x31
 10762 21c0 9C210000 		.4byte	.LVL494
 10763 21c4 384F0000 		.4byte	0x4f38
 10764 21c8 D4210000 		.4byte	0x21d4
 10765 21cc 30       		.uleb128 0x30
 10766 21cd 01       		.uleb128 0x1
 10767 21ce 50       		.byte	0x50
 10768 21cf 03       		.uleb128 0x3
 10769 21d0 91       		.byte	0x91
 10770 21d1 8873     		.sleb128 -1656
 10771 21d3 00       		.byte	0
 10772 21d4 44       		.uleb128 0x44
 10773 21d5 A0210000 		.4byte	.LVL495
 10774 21d9 5A4E0000 		.4byte	0x4e5a
 10775 21dd 31       		.uleb128 0x31
 10776 21de AE210000 		.4byte	.LVL497
 10777 21e2 E64D0000 		.4byte	0x4de6
 10778 21e6 F8210000 		.4byte	0x21f8
 10779 21ea 30       		.uleb128 0x30
 10780 21eb 01       		.uleb128 0x1
 10781 21ec 52       		.byte	0x52
 10782 21ed 03       		.uleb128 0x3
 10783 21ee 0A       		.byte	0xa
 10784 21ef 3801     		.2byte	0x138
 10785 21f1 30       		.uleb128 0x30
 10786 21f2 01       		.uleb128 0x1
 10787 21f3 50       		.byte	0x50
 10788 21f4 02       		.uleb128 0x2
 10789 21f5 77       		.byte	0x77
 10790 21f6 00       		.sleb128 0
 10791 21f7 00       		.byte	0
 10792 21f8 31       		.uleb128 0x31
 10793 21f9 B4210000 		.4byte	.LVL498
 10794 21fd 4F4F0000 		.4byte	0x4f4f
 10795 2201 0D220000 		.4byte	0x220d
 10796 2205 30       		.uleb128 0x30
 10797 2206 01       		.uleb128 0x1
 10798 2207 50       		.byte	0x50
 10799 2208 03       		.uleb128 0x3
 10800 2209 91       		.byte	0x91
 10801 220a 8875     		.sleb128 -1400
 10802 220c 00       		.byte	0
 10803 220d 31       		.uleb128 0x31
 10804 220e 38240000 		.4byte	.LVL537
 10805 2212 294E0000 		.4byte	0x4e29
 10806 2216 24220000 		.4byte	0x2224
 10807 221a 30       		.uleb128 0x30
 10808 221b 01       		.uleb128 0x1
ARM GAS  /tmp/cc0XcXNK.s 			page 191


 10809 221c 50       		.byte	0x50
 10810 221d 05       		.uleb128 0x5
 10811 221e 03       		.byte	0x3
 10812 221f 00000000 		.4byte	.LANCHOR12
 10813 2223 00       		.byte	0
 10814 2224 31       		.uleb128 0x31
 10815 2225 3E240000 		.4byte	.LVL538
 10816 2229 604F0000 		.4byte	0x4f60
 10817 222d 38220000 		.4byte	0x2238
 10818 2231 30       		.uleb128 0x30
 10819 2232 01       		.uleb128 0x1
 10820 2233 50       		.byte	0x50
 10821 2234 02       		.uleb128 0x2
 10822 2235 74       		.byte	0x74
 10823 2236 00       		.sleb128 0
 10824 2237 00       		.byte	0
 10825 2238 44       		.uleb128 0x44
 10826 2239 48240000 		.4byte	.LVL539
 10827 223d 714F0000 		.4byte	0x4f71
 10828 2241 44       		.uleb128 0x44
 10829 2242 4C240000 		.4byte	.LVL540
 10830 2246 874F0000 		.4byte	0x4f87
 10831 224a 00       		.byte	0
 10832 224b 2A       		.uleb128 0x2a
 10833 224c 23160000 		.4byte	0x1623
 10834 2250 B8240000 		.4byte	.LBB207
 10835 2254 50030000 		.4byte	.Ldebug_ranges0+0x350
 10836 2258 01       		.byte	0x1
 10837 2259 0003     		.2byte	0x300
 10838 225b 72220000 		.4byte	0x2272
 10839 225f 2E       		.uleb128 0x2e
 10840 2260 3A160000 		.4byte	0x163a
 10841 2264 080D0000 		.4byte	.LLST63
 10842 2268 2E       		.uleb128 0x2e
 10843 2269 2F160000 		.4byte	0x162f
 10844 226d 1B0D0000 		.4byte	.LLST64
 10845 2271 00       		.byte	0
 10846 2272 31       		.uleb128 0x31
 10847 2273 88000000 		.4byte	.LVL18
 10848 2277 8E4F0000 		.4byte	0x4f8e
 10849 227b 89220000 		.4byte	0x2289
 10850 227f 30       		.uleb128 0x30
 10851 2280 01       		.uleb128 0x1
 10852 2281 50       		.byte	0x50
 10853 2282 05       		.uleb128 0x5
 10854 2283 03       		.byte	0x3
 10855 2284 00000000 		.4byte	.LANCHOR12
 10856 2288 00       		.byte	0
 10857 2289 31       		.uleb128 0x31
 10858 228a C6000000 		.4byte	.LVL21
 10859 228e 9C4D0000 		.4byte	0x4d9c
 10860 2292 A4220000 		.4byte	0x22a4
 10861 2296 30       		.uleb128 0x30
 10862 2297 01       		.uleb128 0x1
 10863 2298 52       		.byte	0x52
 10864 2299 03       		.uleb128 0x3
 10865 229a 91       		.byte	0x91
ARM GAS  /tmp/cc0XcXNK.s 			page 192


 10866 229b 8471     		.sleb128 -1916
 10867 229d 30       		.uleb128 0x30
 10868 229e 01       		.uleb128 0x1
 10869 229f 50       		.byte	0x50
 10870 22a0 02       		.uleb128 0x2
 10871 22a1 74       		.byte	0x74
 10872 22a2 00       		.sleb128 0
 10873 22a3 00       		.byte	0
 10874 22a4 31       		.uleb128 0x31
 10875 22a5 E2000000 		.4byte	.LVL22
 10876 22a9 9C4D0000 		.4byte	0x4d9c
 10877 22ad BF220000 		.4byte	0x22bf
 10878 22b1 30       		.uleb128 0x30
 10879 22b2 01       		.uleb128 0x1
 10880 22b3 52       		.byte	0x52
 10881 22b4 03       		.uleb128 0x3
 10882 22b5 91       		.byte	0x91
 10883 22b6 8471     		.sleb128 -1916
 10884 22b8 30       		.uleb128 0x30
 10885 22b9 01       		.uleb128 0x1
 10886 22ba 50       		.byte	0x50
 10887 22bb 02       		.uleb128 0x2
 10888 22bc 74       		.byte	0x74
 10889 22bd 00       		.sleb128 0
 10890 22be 00       		.byte	0
 10891 22bf 31       		.uleb128 0x31
 10892 22c0 FA000000 		.4byte	.LVL23
 10893 22c4 9C4D0000 		.4byte	0x4d9c
 10894 22c8 DA220000 		.4byte	0x22da
 10895 22cc 30       		.uleb128 0x30
 10896 22cd 01       		.uleb128 0x1
 10897 22ce 52       		.byte	0x52
 10898 22cf 03       		.uleb128 0x3
 10899 22d0 91       		.byte	0x91
 10900 22d1 8471     		.sleb128 -1916
 10901 22d3 30       		.uleb128 0x30
 10902 22d4 01       		.uleb128 0x1
 10903 22d5 50       		.byte	0x50
 10904 22d6 02       		.uleb128 0x2
 10905 22d7 74       		.byte	0x74
 10906 22d8 00       		.sleb128 0
 10907 22d9 00       		.byte	0
 10908 22da 31       		.uleb128 0x31
 10909 22db 12010000 		.4byte	.LVL24
 10910 22df 9C4D0000 		.4byte	0x4d9c
 10911 22e3 F5220000 		.4byte	0x22f5
 10912 22e7 30       		.uleb128 0x30
 10913 22e8 01       		.uleb128 0x1
 10914 22e9 52       		.byte	0x52
 10915 22ea 03       		.uleb128 0x3
 10916 22eb 91       		.byte	0x91
 10917 22ec 8471     		.sleb128 -1916
 10918 22ee 30       		.uleb128 0x30
 10919 22ef 01       		.uleb128 0x1
 10920 22f0 50       		.byte	0x50
 10921 22f1 02       		.uleb128 0x2
 10922 22f2 74       		.byte	0x74
ARM GAS  /tmp/cc0XcXNK.s 			page 193


 10923 22f3 00       		.sleb128 0
 10924 22f4 00       		.byte	0
 10925 22f5 31       		.uleb128 0x31
 10926 22f6 2A010000 		.4byte	.LVL25
 10927 22fa 9C4D0000 		.4byte	0x4d9c
 10928 22fe 10230000 		.4byte	0x2310
 10929 2302 30       		.uleb128 0x30
 10930 2303 01       		.uleb128 0x1
 10931 2304 52       		.byte	0x52
 10932 2305 03       		.uleb128 0x3
 10933 2306 91       		.byte	0x91
 10934 2307 8471     		.sleb128 -1916
 10935 2309 30       		.uleb128 0x30
 10936 230a 01       		.uleb128 0x1
 10937 230b 50       		.byte	0x50
 10938 230c 02       		.uleb128 0x2
 10939 230d 74       		.byte	0x74
 10940 230e 00       		.sleb128 0
 10941 230f 00       		.byte	0
 10942 2310 31       		.uleb128 0x31
 10943 2311 42010000 		.4byte	.LVL26
 10944 2315 9C4D0000 		.4byte	0x4d9c
 10945 2319 2B230000 		.4byte	0x232b
 10946 231d 30       		.uleb128 0x30
 10947 231e 01       		.uleb128 0x1
 10948 231f 52       		.byte	0x52
 10949 2320 03       		.uleb128 0x3
 10950 2321 91       		.byte	0x91
 10951 2322 8471     		.sleb128 -1916
 10952 2324 30       		.uleb128 0x30
 10953 2325 01       		.uleb128 0x1
 10954 2326 50       		.byte	0x50
 10955 2327 02       		.uleb128 0x2
 10956 2328 74       		.byte	0x74
 10957 2329 00       		.sleb128 0
 10958 232a 00       		.byte	0
 10959 232b 31       		.uleb128 0x31
 10960 232c 5A010000 		.4byte	.LVL27
 10961 2330 9C4D0000 		.4byte	0x4d9c
 10962 2334 46230000 		.4byte	0x2346
 10963 2338 30       		.uleb128 0x30
 10964 2339 01       		.uleb128 0x1
 10965 233a 52       		.byte	0x52
 10966 233b 03       		.uleb128 0x3
 10967 233c 91       		.byte	0x91
 10968 233d 8471     		.sleb128 -1916
 10969 233f 30       		.uleb128 0x30
 10970 2340 01       		.uleb128 0x1
 10971 2341 50       		.byte	0x50
 10972 2342 02       		.uleb128 0x2
 10973 2343 74       		.byte	0x74
 10974 2344 00       		.sleb128 0
 10975 2345 00       		.byte	0
 10976 2346 31       		.uleb128 0x31
 10977 2347 72010000 		.4byte	.LVL28
 10978 234b 9C4D0000 		.4byte	0x4d9c
 10979 234f 61230000 		.4byte	0x2361
ARM GAS  /tmp/cc0XcXNK.s 			page 194


 10980 2353 30       		.uleb128 0x30
 10981 2354 01       		.uleb128 0x1
 10982 2355 52       		.byte	0x52
 10983 2356 03       		.uleb128 0x3
 10984 2357 91       		.byte	0x91
 10985 2358 8471     		.sleb128 -1916
 10986 235a 30       		.uleb128 0x30
 10987 235b 01       		.uleb128 0x1
 10988 235c 50       		.byte	0x50
 10989 235d 02       		.uleb128 0x2
 10990 235e 74       		.byte	0x74
 10991 235f 00       		.sleb128 0
 10992 2360 00       		.byte	0
 10993 2361 31       		.uleb128 0x31
 10994 2362 8A010000 		.4byte	.LVL29
 10995 2366 9C4D0000 		.4byte	0x4d9c
 10996 236a 7C230000 		.4byte	0x237c
 10997 236e 30       		.uleb128 0x30
 10998 236f 01       		.uleb128 0x1
 10999 2370 52       		.byte	0x52
 11000 2371 03       		.uleb128 0x3
 11001 2372 91       		.byte	0x91
 11002 2373 8471     		.sleb128 -1916
 11003 2375 30       		.uleb128 0x30
 11004 2376 01       		.uleb128 0x1
 11005 2377 50       		.byte	0x50
 11006 2378 02       		.uleb128 0x2
 11007 2379 74       		.byte	0x74
 11008 237a 00       		.sleb128 0
 11009 237b 00       		.byte	0
 11010 237c 31       		.uleb128 0x31
 11011 237d A2010000 		.4byte	.LVL30
 11012 2381 9C4D0000 		.4byte	0x4d9c
 11013 2385 97230000 		.4byte	0x2397
 11014 2389 30       		.uleb128 0x30
 11015 238a 01       		.uleb128 0x1
 11016 238b 52       		.byte	0x52
 11017 238c 03       		.uleb128 0x3
 11018 238d 91       		.byte	0x91
 11019 238e 8471     		.sleb128 -1916
 11020 2390 30       		.uleb128 0x30
 11021 2391 01       		.uleb128 0x1
 11022 2392 50       		.byte	0x50
 11023 2393 02       		.uleb128 0x2
 11024 2394 74       		.byte	0x74
 11025 2395 00       		.sleb128 0
 11026 2396 00       		.byte	0
 11027 2397 31       		.uleb128 0x31
 11028 2398 BA010000 		.4byte	.LVL31
 11029 239c 9C4D0000 		.4byte	0x4d9c
 11030 23a0 B2230000 		.4byte	0x23b2
 11031 23a4 30       		.uleb128 0x30
 11032 23a5 01       		.uleb128 0x1
 11033 23a6 52       		.byte	0x52
 11034 23a7 03       		.uleb128 0x3
 11035 23a8 91       		.byte	0x91
 11036 23a9 8471     		.sleb128 -1916
ARM GAS  /tmp/cc0XcXNK.s 			page 195


 11037 23ab 30       		.uleb128 0x30
 11038 23ac 01       		.uleb128 0x1
 11039 23ad 50       		.byte	0x50
 11040 23ae 02       		.uleb128 0x2
 11041 23af 74       		.byte	0x74
 11042 23b0 00       		.sleb128 0
 11043 23b1 00       		.byte	0
 11044 23b2 31       		.uleb128 0x31
 11045 23b3 CA010000 		.4byte	.LVL32
 11046 23b7 A04E0000 		.4byte	0x4ea0
 11047 23bb D5230000 		.4byte	0x23d5
 11048 23bf 30       		.uleb128 0x30
 11049 23c0 01       		.uleb128 0x1
 11050 23c1 51       		.byte	0x51
 11051 23c2 03       		.uleb128 0x3
 11052 23c3 91       		.byte	0x91
 11053 23c4 8471     		.sleb128 -1916
 11054 23c6 30       		.uleb128 0x30
 11055 23c7 02       		.uleb128 0x2
 11056 23c8 90       		.byte	0x90
 11057 23c9 41       		.uleb128 0x41
 11058 23ca 03       		.uleb128 0x3
 11059 23cb F5       		.byte	0xf5
 11060 23cc 50       		.uleb128 0x50
 11061 23cd 25       		.uleb128 0x25
 11062 23ce 30       		.uleb128 0x30
 11063 23cf 01       		.uleb128 0x1
 11064 23d0 50       		.byte	0x50
 11065 23d1 02       		.uleb128 0x2
 11066 23d2 74       		.byte	0x74
 11067 23d3 00       		.sleb128 0
 11068 23d4 00       		.byte	0
 11069 23d5 31       		.uleb128 0x31
 11070 23d6 DA010000 		.4byte	.LVL33
 11071 23da A04E0000 		.4byte	0x4ea0
 11072 23de F8230000 		.4byte	0x23f8
 11073 23e2 30       		.uleb128 0x30
 11074 23e3 01       		.uleb128 0x1
 11075 23e4 51       		.byte	0x51
 11076 23e5 03       		.uleb128 0x3
 11077 23e6 91       		.byte	0x91
 11078 23e7 8471     		.sleb128 -1916
 11079 23e9 30       		.uleb128 0x30
 11080 23ea 02       		.uleb128 0x2
 11081 23eb 90       		.byte	0x90
 11082 23ec 41       		.uleb128 0x41
 11083 23ed 03       		.uleb128 0x3
 11084 23ee F5       		.byte	0xf5
 11085 23ef 50       		.uleb128 0x50
 11086 23f0 25       		.uleb128 0x25
 11087 23f1 30       		.uleb128 0x30
 11088 23f2 01       		.uleb128 0x1
 11089 23f3 50       		.byte	0x50
 11090 23f4 02       		.uleb128 0x2
 11091 23f5 74       		.byte	0x74
 11092 23f6 00       		.sleb128 0
 11093 23f7 00       		.byte	0
ARM GAS  /tmp/cc0XcXNK.s 			page 196


 11094 23f8 31       		.uleb128 0x31
 11095 23f9 06020000 		.4byte	.LVL35
 11096 23fd 9C4D0000 		.4byte	0x4d9c
 11097 2401 13240000 		.4byte	0x2413
 11098 2405 30       		.uleb128 0x30
 11099 2406 01       		.uleb128 0x1
 11100 2407 52       		.byte	0x52
 11101 2408 03       		.uleb128 0x3
 11102 2409 91       		.byte	0x91
 11103 240a 8471     		.sleb128 -1916
 11104 240c 30       		.uleb128 0x30
 11105 240d 01       		.uleb128 0x1
 11106 240e 50       		.byte	0x50
 11107 240f 02       		.uleb128 0x2
 11108 2410 74       		.byte	0x74
 11109 2411 00       		.sleb128 0
 11110 2412 00       		.byte	0
 11111 2413 31       		.uleb128 0x31
 11112 2414 1E020000 		.4byte	.LVL36
 11113 2418 9C4D0000 		.4byte	0x4d9c
 11114 241c 2E240000 		.4byte	0x242e
 11115 2420 30       		.uleb128 0x30
 11116 2421 01       		.uleb128 0x1
 11117 2422 52       		.byte	0x52
 11118 2423 03       		.uleb128 0x3
 11119 2424 91       		.byte	0x91
 11120 2425 8471     		.sleb128 -1916
 11121 2427 30       		.uleb128 0x30
 11122 2428 01       		.uleb128 0x1
 11123 2429 50       		.byte	0x50
 11124 242a 02       		.uleb128 0x2
 11125 242b 74       		.byte	0x74
 11126 242c 00       		.sleb128 0
 11127 242d 00       		.byte	0
 11128 242e 31       		.uleb128 0x31
 11129 242f 36020000 		.4byte	.LVL37
 11130 2433 9C4D0000 		.4byte	0x4d9c
 11131 2437 49240000 		.4byte	0x2449
 11132 243b 30       		.uleb128 0x30
 11133 243c 01       		.uleb128 0x1
 11134 243d 52       		.byte	0x52
 11135 243e 03       		.uleb128 0x3
 11136 243f 91       		.byte	0x91
 11137 2440 8471     		.sleb128 -1916
 11138 2442 30       		.uleb128 0x30
 11139 2443 01       		.uleb128 0x1
 11140 2444 50       		.byte	0x50
 11141 2445 02       		.uleb128 0x2
 11142 2446 74       		.byte	0x74
 11143 2447 00       		.sleb128 0
 11144 2448 00       		.byte	0
 11145 2449 31       		.uleb128 0x31
 11146 244a 4E020000 		.4byte	.LVL38
 11147 244e 9C4D0000 		.4byte	0x4d9c
 11148 2452 64240000 		.4byte	0x2464
 11149 2456 30       		.uleb128 0x30
 11150 2457 01       		.uleb128 0x1
ARM GAS  /tmp/cc0XcXNK.s 			page 197


 11151 2458 52       		.byte	0x52
 11152 2459 03       		.uleb128 0x3
 11153 245a 91       		.byte	0x91
 11154 245b 8471     		.sleb128 -1916
 11155 245d 30       		.uleb128 0x30
 11156 245e 01       		.uleb128 0x1
 11157 245f 50       		.byte	0x50
 11158 2460 02       		.uleb128 0x2
 11159 2461 74       		.byte	0x74
 11160 2462 00       		.sleb128 0
 11161 2463 00       		.byte	0
 11162 2464 31       		.uleb128 0x31
 11163 2465 66020000 		.4byte	.LVL39
 11164 2469 9C4D0000 		.4byte	0x4d9c
 11165 246d 7F240000 		.4byte	0x247f
 11166 2471 30       		.uleb128 0x30
 11167 2472 01       		.uleb128 0x1
 11168 2473 52       		.byte	0x52
 11169 2474 03       		.uleb128 0x3
 11170 2475 91       		.byte	0x91
 11171 2476 8471     		.sleb128 -1916
 11172 2478 30       		.uleb128 0x30
 11173 2479 01       		.uleb128 0x1
 11174 247a 50       		.byte	0x50
 11175 247b 02       		.uleb128 0x2
 11176 247c 74       		.byte	0x74
 11177 247d 00       		.sleb128 0
 11178 247e 00       		.byte	0
 11179 247f 31       		.uleb128 0x31
 11180 2480 7E020000 		.4byte	.LVL40
 11181 2484 9C4D0000 		.4byte	0x4d9c
 11182 2488 9A240000 		.4byte	0x249a
 11183 248c 30       		.uleb128 0x30
 11184 248d 01       		.uleb128 0x1
 11185 248e 52       		.byte	0x52
 11186 248f 03       		.uleb128 0x3
 11187 2490 91       		.byte	0x91
 11188 2491 8471     		.sleb128 -1916
 11189 2493 30       		.uleb128 0x30
 11190 2494 01       		.uleb128 0x1
 11191 2495 50       		.byte	0x50
 11192 2496 02       		.uleb128 0x2
 11193 2497 74       		.byte	0x74
 11194 2498 00       		.sleb128 0
 11195 2499 00       		.byte	0
 11196 249a 31       		.uleb128 0x31
 11197 249b 96020000 		.4byte	.LVL41
 11198 249f 9C4D0000 		.4byte	0x4d9c
 11199 24a3 B5240000 		.4byte	0x24b5
 11200 24a7 30       		.uleb128 0x30
 11201 24a8 01       		.uleb128 0x1
 11202 24a9 52       		.byte	0x52
 11203 24aa 03       		.uleb128 0x3
 11204 24ab 91       		.byte	0x91
 11205 24ac 8471     		.sleb128 -1916
 11206 24ae 30       		.uleb128 0x30
 11207 24af 01       		.uleb128 0x1
ARM GAS  /tmp/cc0XcXNK.s 			page 198


 11208 24b0 50       		.byte	0x50
 11209 24b1 02       		.uleb128 0x2
 11210 24b2 74       		.byte	0x74
 11211 24b3 00       		.sleb128 0
 11212 24b4 00       		.byte	0
 11213 24b5 31       		.uleb128 0x31
 11214 24b6 AE020000 		.4byte	.LVL42
 11215 24ba 9C4D0000 		.4byte	0x4d9c
 11216 24be D0240000 		.4byte	0x24d0
 11217 24c2 30       		.uleb128 0x30
 11218 24c3 01       		.uleb128 0x1
 11219 24c4 52       		.byte	0x52
 11220 24c5 03       		.uleb128 0x3
 11221 24c6 91       		.byte	0x91
 11222 24c7 8471     		.sleb128 -1916
 11223 24c9 30       		.uleb128 0x30
 11224 24ca 01       		.uleb128 0x1
 11225 24cb 50       		.byte	0x50
 11226 24cc 02       		.uleb128 0x2
 11227 24cd 74       		.byte	0x74
 11228 24ce 00       		.sleb128 0
 11229 24cf 00       		.byte	0
 11230 24d0 31       		.uleb128 0x31
 11231 24d1 C6020000 		.4byte	.LVL43
 11232 24d5 9C4D0000 		.4byte	0x4d9c
 11233 24d9 EB240000 		.4byte	0x24eb
 11234 24dd 30       		.uleb128 0x30
 11235 24de 01       		.uleb128 0x1
 11236 24df 52       		.byte	0x52
 11237 24e0 03       		.uleb128 0x3
 11238 24e1 91       		.byte	0x91
 11239 24e2 8471     		.sleb128 -1916
 11240 24e4 30       		.uleb128 0x30
 11241 24e5 01       		.uleb128 0x1
 11242 24e6 50       		.byte	0x50
 11243 24e7 02       		.uleb128 0x2
 11244 24e8 74       		.byte	0x74
 11245 24e9 00       		.sleb128 0
 11246 24ea 00       		.byte	0
 11247 24eb 31       		.uleb128 0x31
 11248 24ec DE020000 		.4byte	.LVL44
 11249 24f0 9C4D0000 		.4byte	0x4d9c
 11250 24f4 06250000 		.4byte	0x2506
 11251 24f8 30       		.uleb128 0x30
 11252 24f9 01       		.uleb128 0x1
 11253 24fa 52       		.byte	0x52
 11254 24fb 03       		.uleb128 0x3
 11255 24fc 91       		.byte	0x91
 11256 24fd 8471     		.sleb128 -1916
 11257 24ff 30       		.uleb128 0x30
 11258 2500 01       		.uleb128 0x1
 11259 2501 50       		.byte	0x50
 11260 2502 02       		.uleb128 0x2
 11261 2503 74       		.byte	0x74
 11262 2504 00       		.sleb128 0
 11263 2505 00       		.byte	0
 11264 2506 31       		.uleb128 0x31
ARM GAS  /tmp/cc0XcXNK.s 			page 199


 11265 2507 F6020000 		.4byte	.LVL45
 11266 250b 9C4D0000 		.4byte	0x4d9c
 11267 250f 21250000 		.4byte	0x2521
 11268 2513 30       		.uleb128 0x30
 11269 2514 01       		.uleb128 0x1
 11270 2515 52       		.byte	0x52
 11271 2516 03       		.uleb128 0x3
 11272 2517 91       		.byte	0x91
 11273 2518 8471     		.sleb128 -1916
 11274 251a 30       		.uleb128 0x30
 11275 251b 01       		.uleb128 0x1
 11276 251c 50       		.byte	0x50
 11277 251d 02       		.uleb128 0x2
 11278 251e 74       		.byte	0x74
 11279 251f 00       		.sleb128 0
 11280 2520 00       		.byte	0
 11281 2521 31       		.uleb128 0x31
 11282 2522 0E030000 		.4byte	.LVL46
 11283 2526 9C4D0000 		.4byte	0x4d9c
 11284 252a 3C250000 		.4byte	0x253c
 11285 252e 30       		.uleb128 0x30
 11286 252f 01       		.uleb128 0x1
 11287 2530 52       		.byte	0x52
 11288 2531 03       		.uleb128 0x3
 11289 2532 91       		.byte	0x91
 11290 2533 8471     		.sleb128 -1916
 11291 2535 30       		.uleb128 0x30
 11292 2536 01       		.uleb128 0x1
 11293 2537 50       		.byte	0x50
 11294 2538 02       		.uleb128 0x2
 11295 2539 74       		.byte	0x74
 11296 253a 00       		.sleb128 0
 11297 253b 00       		.byte	0
 11298 253c 31       		.uleb128 0x31
 11299 253d 26030000 		.4byte	.LVL47
 11300 2541 9C4D0000 		.4byte	0x4d9c
 11301 2545 57250000 		.4byte	0x2557
 11302 2549 30       		.uleb128 0x30
 11303 254a 01       		.uleb128 0x1
 11304 254b 52       		.byte	0x52
 11305 254c 03       		.uleb128 0x3
 11306 254d 91       		.byte	0x91
 11307 254e 8471     		.sleb128 -1916
 11308 2550 30       		.uleb128 0x30
 11309 2551 01       		.uleb128 0x1
 11310 2552 50       		.byte	0x50
 11311 2553 02       		.uleb128 0x2
 11312 2554 74       		.byte	0x74
 11313 2555 00       		.sleb128 0
 11314 2556 00       		.byte	0
 11315 2557 31       		.uleb128 0x31
 11316 2558 50030000 		.4byte	.LVL48
 11317 255c 9C4D0000 		.4byte	0x4d9c
 11318 2560 72250000 		.4byte	0x2572
 11319 2564 30       		.uleb128 0x30
 11320 2565 01       		.uleb128 0x1
 11321 2566 52       		.byte	0x52
ARM GAS  /tmp/cc0XcXNK.s 			page 200


 11322 2567 03       		.uleb128 0x3
 11323 2568 91       		.byte	0x91
 11324 2569 8471     		.sleb128 -1916
 11325 256b 30       		.uleb128 0x30
 11326 256c 01       		.uleb128 0x1
 11327 256d 50       		.byte	0x50
 11328 256e 02       		.uleb128 0x2
 11329 256f 74       		.byte	0x74
 11330 2570 00       		.sleb128 0
 11331 2571 00       		.byte	0
 11332 2572 31       		.uleb128 0x31
 11333 2573 60030000 		.4byte	.LVL49
 11334 2577 A04E0000 		.4byte	0x4ea0
 11335 257b 99250000 		.4byte	0x2599
 11336 257f 30       		.uleb128 0x30
 11337 2580 01       		.uleb128 0x1
 11338 2581 51       		.byte	0x51
 11339 2582 03       		.uleb128 0x3
 11340 2583 91       		.byte	0x91
 11341 2584 8471     		.sleb128 -1916
 11342 2586 30       		.uleb128 0x30
 11343 2587 02       		.uleb128 0x2
 11344 2588 90       		.byte	0x90
 11345 2589 41       		.uleb128 0x41
 11346 258a 07       		.uleb128 0x7
 11347 258b F4       		.byte	0xf4
 11348 258c 25       		.uleb128 0x25
 11349 258d 04       		.byte	0x4
 11350 258e 0050C347 		.4byte	0x47c35000
 11351 2592 30       		.uleb128 0x30
 11352 2593 01       		.uleb128 0x1
 11353 2594 50       		.byte	0x50
 11354 2595 02       		.uleb128 0x2
 11355 2596 74       		.byte	0x74
 11356 2597 00       		.sleb128 0
 11357 2598 00       		.byte	0
 11358 2599 31       		.uleb128 0x31
 11359 259a 70030000 		.4byte	.LVL50
 11360 259e A04E0000 		.4byte	0x4ea0
 11361 25a2 C0250000 		.4byte	0x25c0
 11362 25a6 30       		.uleb128 0x30
 11363 25a7 01       		.uleb128 0x1
 11364 25a8 51       		.byte	0x51
 11365 25a9 03       		.uleb128 0x3
 11366 25aa 91       		.byte	0x91
 11367 25ab 8471     		.sleb128 -1916
 11368 25ad 30       		.uleb128 0x30
 11369 25ae 02       		.uleb128 0x2
 11370 25af 90       		.byte	0x90
 11371 25b0 41       		.uleb128 0x41
 11372 25b1 07       		.uleb128 0x7
 11373 25b2 F4       		.byte	0xf4
 11374 25b3 25       		.uleb128 0x25
 11375 25b4 04       		.byte	0x4
 11376 25b5 0050C347 		.4byte	0x47c35000
 11377 25b9 30       		.uleb128 0x30
 11378 25ba 01       		.uleb128 0x1
ARM GAS  /tmp/cc0XcXNK.s 			page 201


 11379 25bb 50       		.byte	0x50
 11380 25bc 02       		.uleb128 0x2
 11381 25bd 74       		.byte	0x74
 11382 25be 00       		.sleb128 0
 11383 25bf 00       		.byte	0
 11384 25c0 31       		.uleb128 0x31
 11385 25c1 80030000 		.4byte	.LVL51
 11386 25c5 A04E0000 		.4byte	0x4ea0
 11387 25c9 E3250000 		.4byte	0x25e3
 11388 25cd 30       		.uleb128 0x30
 11389 25ce 01       		.uleb128 0x1
 11390 25cf 51       		.byte	0x51
 11391 25d0 03       		.uleb128 0x3
 11392 25d1 91       		.byte	0x91
 11393 25d2 8471     		.sleb128 -1916
 11394 25d4 30       		.uleb128 0x30
 11395 25d5 02       		.uleb128 0x2
 11396 25d6 90       		.byte	0x90
 11397 25d7 41       		.uleb128 0x41
 11398 25d8 03       		.uleb128 0x3
 11399 25d9 F5       		.byte	0xf5
 11400 25da 50       		.uleb128 0x50
 11401 25db 25       		.uleb128 0x25
 11402 25dc 30       		.uleb128 0x30
 11403 25dd 01       		.uleb128 0x1
 11404 25de 50       		.byte	0x50
 11405 25df 02       		.uleb128 0x2
 11406 25e0 74       		.byte	0x74
 11407 25e1 00       		.sleb128 0
 11408 25e2 00       		.byte	0
 11409 25e3 31       		.uleb128 0x31
 11410 25e4 90030000 		.4byte	.LVL52
 11411 25e8 A04E0000 		.4byte	0x4ea0
 11412 25ec 06260000 		.4byte	0x2606
 11413 25f0 30       		.uleb128 0x30
 11414 25f1 01       		.uleb128 0x1
 11415 25f2 51       		.byte	0x51
 11416 25f3 03       		.uleb128 0x3
 11417 25f4 91       		.byte	0x91
 11418 25f5 8471     		.sleb128 -1916
 11419 25f7 30       		.uleb128 0x30
 11420 25f8 02       		.uleb128 0x2
 11421 25f9 90       		.byte	0x90
 11422 25fa 41       		.uleb128 0x41
 11423 25fb 03       		.uleb128 0x3
 11424 25fc F5       		.byte	0xf5
 11425 25fd 51       		.uleb128 0x51
 11426 25fe 25       		.uleb128 0x25
 11427 25ff 30       		.uleb128 0x30
 11428 2600 01       		.uleb128 0x1
 11429 2601 50       		.byte	0x50
 11430 2602 02       		.uleb128 0x2
 11431 2603 74       		.byte	0x74
 11432 2604 00       		.sleb128 0
 11433 2605 00       		.byte	0
 11434 2606 31       		.uleb128 0x31
 11435 2607 AC030000 		.4byte	.LVL53
ARM GAS  /tmp/cc0XcXNK.s 			page 202


 11436 260b A04E0000 		.4byte	0x4ea0
 11437 260f 29260000 		.4byte	0x2629
 11438 2613 30       		.uleb128 0x30
 11439 2614 01       		.uleb128 0x1
 11440 2615 51       		.byte	0x51
 11441 2616 03       		.uleb128 0x3
 11442 2617 91       		.byte	0x91
 11443 2618 8471     		.sleb128 -1916
 11444 261a 30       		.uleb128 0x30
 11445 261b 02       		.uleb128 0x2
 11446 261c 90       		.byte	0x90
 11447 261d 41       		.uleb128 0x41
 11448 261e 03       		.uleb128 0x3
 11449 261f F5       		.byte	0xf5
 11450 2620 50       		.uleb128 0x50
 11451 2621 25       		.uleb128 0x25
 11452 2622 30       		.uleb128 0x30
 11453 2623 01       		.uleb128 0x1
 11454 2624 50       		.byte	0x50
 11455 2625 02       		.uleb128 0x2
 11456 2626 74       		.byte	0x74
 11457 2627 00       		.sleb128 0
 11458 2628 00       		.byte	0
 11459 2629 31       		.uleb128 0x31
 11460 262a BC030000 		.4byte	.LVL54
 11461 262e A04E0000 		.4byte	0x4ea0
 11462 2632 4C260000 		.4byte	0x264c
 11463 2636 30       		.uleb128 0x30
 11464 2637 01       		.uleb128 0x1
 11465 2638 51       		.byte	0x51
 11466 2639 03       		.uleb128 0x3
 11467 263a 91       		.byte	0x91
 11468 263b 8471     		.sleb128 -1916
 11469 263d 30       		.uleb128 0x30
 11470 263e 02       		.uleb128 0x2
 11471 263f 90       		.byte	0x90
 11472 2640 41       		.uleb128 0x41
 11473 2641 03       		.uleb128 0x3
 11474 2642 F5       		.byte	0xf5
 11475 2643 50       		.uleb128 0x50
 11476 2644 25       		.uleb128 0x25
 11477 2645 30       		.uleb128 0x30
 11478 2646 01       		.uleb128 0x1
 11479 2647 50       		.byte	0x50
 11480 2648 02       		.uleb128 0x2
 11481 2649 74       		.byte	0x74
 11482 264a 00       		.sleb128 0
 11483 264b 00       		.byte	0
 11484 264c 31       		.uleb128 0x31
 11485 264d D8030000 		.4byte	.LVL55
 11486 2651 A04E0000 		.4byte	0x4ea0
 11487 2655 6F260000 		.4byte	0x266f
 11488 2659 30       		.uleb128 0x30
 11489 265a 01       		.uleb128 0x1
 11490 265b 51       		.byte	0x51
 11491 265c 03       		.uleb128 0x3
 11492 265d 91       		.byte	0x91
ARM GAS  /tmp/cc0XcXNK.s 			page 203


 11493 265e 8471     		.sleb128 -1916
 11494 2660 30       		.uleb128 0x30
 11495 2661 02       		.uleb128 0x2
 11496 2662 90       		.byte	0x90
 11497 2663 41       		.uleb128 0x41
 11498 2664 03       		.uleb128 0x3
 11499 2665 F5       		.byte	0xf5
 11500 2666 50       		.uleb128 0x50
 11501 2667 25       		.uleb128 0x25
 11502 2668 30       		.uleb128 0x30
 11503 2669 01       		.uleb128 0x1
 11504 266a 50       		.byte	0x50
 11505 266b 02       		.uleb128 0x2
 11506 266c 74       		.byte	0x74
 11507 266d 00       		.sleb128 0
 11508 266e 00       		.byte	0
 11509 266f 31       		.uleb128 0x31
 11510 2670 E8030000 		.4byte	.LVL56
 11511 2674 A04E0000 		.4byte	0x4ea0
 11512 2678 92260000 		.4byte	0x2692
 11513 267c 30       		.uleb128 0x30
 11514 267d 01       		.uleb128 0x1
 11515 267e 51       		.byte	0x51
 11516 267f 03       		.uleb128 0x3
 11517 2680 91       		.byte	0x91
 11518 2681 8471     		.sleb128 -1916
 11519 2683 30       		.uleb128 0x30
 11520 2684 02       		.uleb128 0x2
 11521 2685 90       		.byte	0x90
 11522 2686 41       		.uleb128 0x41
 11523 2687 03       		.uleb128 0x3
 11524 2688 F5       		.byte	0xf5
 11525 2689 50       		.uleb128 0x50
 11526 268a 25       		.uleb128 0x25
 11527 268b 30       		.uleb128 0x30
 11528 268c 01       		.uleb128 0x1
 11529 268d 50       		.byte	0x50
 11530 268e 02       		.uleb128 0x2
 11531 268f 74       		.byte	0x74
 11532 2690 00       		.sleb128 0
 11533 2691 00       		.byte	0
 11534 2692 31       		.uleb128 0x31
 11535 2693 F8030000 		.4byte	.LVL57
 11536 2697 A04E0000 		.4byte	0x4ea0
 11537 269b B9260000 		.4byte	0x26b9
 11538 269f 30       		.uleb128 0x30
 11539 26a0 01       		.uleb128 0x1
 11540 26a1 51       		.byte	0x51
 11541 26a2 03       		.uleb128 0x3
 11542 26a3 91       		.byte	0x91
 11543 26a4 8471     		.sleb128 -1916
 11544 26a6 30       		.uleb128 0x30
 11545 26a7 02       		.uleb128 0x2
 11546 26a8 90       		.byte	0x90
 11547 26a9 41       		.uleb128 0x41
 11548 26aa 07       		.uleb128 0x7
 11549 26ab F4       		.byte	0xf4
ARM GAS  /tmp/cc0XcXNK.s 			page 204


 11550 26ac 25       		.uleb128 0x25
 11551 26ad 04       		.byte	0x4
 11552 26ae 20BCBE4C 		.4byte	0x4cbebc20
 11553 26b2 30       		.uleb128 0x30
 11554 26b3 01       		.uleb128 0x1
 11555 26b4 50       		.byte	0x50
 11556 26b5 02       		.uleb128 0x2
 11557 26b6 74       		.byte	0x74
 11558 26b7 00       		.sleb128 0
 11559 26b8 00       		.byte	0
 11560 26b9 31       		.uleb128 0x31
 11561 26ba 08040000 		.4byte	.LVL58
 11562 26be A04E0000 		.4byte	0x4ea0
 11563 26c2 E0260000 		.4byte	0x26e0
 11564 26c6 30       		.uleb128 0x30
 11565 26c7 01       		.uleb128 0x1
 11566 26c8 51       		.byte	0x51
 11567 26c9 03       		.uleb128 0x3
 11568 26ca 91       		.byte	0x91
 11569 26cb 8471     		.sleb128 -1916
 11570 26cd 30       		.uleb128 0x30
 11571 26ce 02       		.uleb128 0x2
 11572 26cf 90       		.byte	0x90
 11573 26d0 41       		.uleb128 0x41
 11574 26d1 07       		.uleb128 0x7
 11575 26d2 F4       		.byte	0xf4
 11576 26d3 25       		.uleb128 0x25
 11577 26d4 04       		.byte	0x4
 11578 26d5 0050C347 		.4byte	0x47c35000
 11579 26d9 30       		.uleb128 0x30
 11580 26da 01       		.uleb128 0x1
 11581 26db 50       		.byte	0x50
 11582 26dc 02       		.uleb128 0x2
 11583 26dd 74       		.byte	0x74
 11584 26de 00       		.sleb128 0
 11585 26df 00       		.byte	0
 11586 26e0 31       		.uleb128 0x31
 11587 26e1 34040000 		.4byte	.LVL59
 11588 26e5 A04E0000 		.4byte	0x4ea0
 11589 26e9 07270000 		.4byte	0x2707
 11590 26ed 30       		.uleb128 0x30
 11591 26ee 01       		.uleb128 0x1
 11592 26ef 51       		.byte	0x51
 11593 26f0 03       		.uleb128 0x3
 11594 26f1 91       		.byte	0x91
 11595 26f2 8471     		.sleb128 -1916
 11596 26f4 30       		.uleb128 0x30
 11597 26f5 02       		.uleb128 0x2
 11598 26f6 90       		.byte	0x90
 11599 26f7 41       		.uleb128 0x41
 11600 26f8 07       		.uleb128 0x7
 11601 26f9 F4       		.byte	0xf4
 11602 26fa 25       		.uleb128 0x25
 11603 26fb 04       		.byte	0x4
 11604 26fc 0050C347 		.4byte	0x47c35000
 11605 2700 30       		.uleb128 0x30
 11606 2701 01       		.uleb128 0x1
ARM GAS  /tmp/cc0XcXNK.s 			page 205


 11607 2702 50       		.byte	0x50
 11608 2703 02       		.uleb128 0x2
 11609 2704 74       		.byte	0x74
 11610 2705 00       		.sleb128 0
 11611 2706 00       		.byte	0
 11612 2707 31       		.uleb128 0x31
 11613 2708 44040000 		.4byte	.LVL60
 11614 270c A04E0000 		.4byte	0x4ea0
 11615 2710 2E270000 		.4byte	0x272e
 11616 2714 30       		.uleb128 0x30
 11617 2715 01       		.uleb128 0x1
 11618 2716 51       		.byte	0x51
 11619 2717 03       		.uleb128 0x3
 11620 2718 91       		.byte	0x91
 11621 2719 8471     		.sleb128 -1916
 11622 271b 30       		.uleb128 0x30
 11623 271c 02       		.uleb128 0x2
 11624 271d 90       		.byte	0x90
 11625 271e 41       		.uleb128 0x41
 11626 271f 07       		.uleb128 0x7
 11627 2720 F4       		.byte	0xf4
 11628 2721 25       		.uleb128 0x25
 11629 2722 04       		.byte	0x4
 11630 2723 0000803F 		.4byte	0x3f800000
 11631 2727 30       		.uleb128 0x30
 11632 2728 01       		.uleb128 0x1
 11633 2729 50       		.byte	0x50
 11634 272a 02       		.uleb128 0x2
 11635 272b 74       		.byte	0x74
 11636 272c 00       		.sleb128 0
 11637 272d 00       		.byte	0
 11638 272e 31       		.uleb128 0x31
 11639 272f 54040000 		.4byte	.LVL61
 11640 2733 A04E0000 		.4byte	0x4ea0
 11641 2737 51270000 		.4byte	0x2751
 11642 273b 30       		.uleb128 0x30
 11643 273c 01       		.uleb128 0x1
 11644 273d 51       		.byte	0x51
 11645 273e 03       		.uleb128 0x3
 11646 273f 91       		.byte	0x91
 11647 2740 8471     		.sleb128 -1916
 11648 2742 30       		.uleb128 0x30
 11649 2743 02       		.uleb128 0x2
 11650 2744 90       		.byte	0x90
 11651 2745 41       		.uleb128 0x41
 11652 2746 03       		.uleb128 0x3
 11653 2747 F5       		.byte	0xf5
 11654 2748 50       		.uleb128 0x50
 11655 2749 25       		.uleb128 0x25
 11656 274a 30       		.uleb128 0x30
 11657 274b 01       		.uleb128 0x1
 11658 274c 50       		.byte	0x50
 11659 274d 02       		.uleb128 0x2
 11660 274e 74       		.byte	0x74
 11661 274f 00       		.sleb128 0
 11662 2750 00       		.byte	0
 11663 2751 31       		.uleb128 0x31
ARM GAS  /tmp/cc0XcXNK.s 			page 206


 11664 2752 64040000 		.4byte	.LVL62
 11665 2756 A04E0000 		.4byte	0x4ea0
 11666 275a 74270000 		.4byte	0x2774
 11667 275e 30       		.uleb128 0x30
 11668 275f 01       		.uleb128 0x1
 11669 2760 51       		.byte	0x51
 11670 2761 03       		.uleb128 0x3
 11671 2762 91       		.byte	0x91
 11672 2763 8471     		.sleb128 -1916
 11673 2765 30       		.uleb128 0x30
 11674 2766 02       		.uleb128 0x2
 11675 2767 90       		.byte	0x90
 11676 2768 41       		.uleb128 0x41
 11677 2769 03       		.uleb128 0x3
 11678 276a F5       		.byte	0xf5
 11679 276b 50       		.uleb128 0x50
 11680 276c 25       		.uleb128 0x25
 11681 276d 30       		.uleb128 0x30
 11682 276e 01       		.uleb128 0x1
 11683 276f 50       		.byte	0x50
 11684 2770 02       		.uleb128 0x2
 11685 2771 74       		.byte	0x74
 11686 2772 00       		.sleb128 0
 11687 2773 00       		.byte	0
 11688 2774 31       		.uleb128 0x31
 11689 2775 74040000 		.4byte	.LVL63
 11690 2779 A04E0000 		.4byte	0x4ea0
 11691 277d 97270000 		.4byte	0x2797
 11692 2781 30       		.uleb128 0x30
 11693 2782 01       		.uleb128 0x1
 11694 2783 51       		.byte	0x51
 11695 2784 03       		.uleb128 0x3
 11696 2785 91       		.byte	0x91
 11697 2786 8471     		.sleb128 -1916
 11698 2788 30       		.uleb128 0x30
 11699 2789 02       		.uleb128 0x2
 11700 278a 90       		.byte	0x90
 11701 278b 41       		.uleb128 0x41
 11702 278c 03       		.uleb128 0x3
 11703 278d F5       		.byte	0xf5
 11704 278e 50       		.uleb128 0x50
 11705 278f 25       		.uleb128 0x25
 11706 2790 30       		.uleb128 0x30
 11707 2791 01       		.uleb128 0x1
 11708 2792 50       		.byte	0x50
 11709 2793 02       		.uleb128 0x2
 11710 2794 74       		.byte	0x74
 11711 2795 00       		.sleb128 0
 11712 2796 00       		.byte	0
 11713 2797 31       		.uleb128 0x31
 11714 2798 84040000 		.4byte	.LVL64
 11715 279c A04E0000 		.4byte	0x4ea0
 11716 27a0 BA270000 		.4byte	0x27ba
 11717 27a4 30       		.uleb128 0x30
 11718 27a5 01       		.uleb128 0x1
 11719 27a6 51       		.byte	0x51
 11720 27a7 03       		.uleb128 0x3
ARM GAS  /tmp/cc0XcXNK.s 			page 207


 11721 27a8 91       		.byte	0x91
 11722 27a9 8471     		.sleb128 -1916
 11723 27ab 30       		.uleb128 0x30
 11724 27ac 02       		.uleb128 0x2
 11725 27ad 90       		.byte	0x90
 11726 27ae 41       		.uleb128 0x41
 11727 27af 03       		.uleb128 0x3
 11728 27b0 F5       		.byte	0xf5
 11729 27b1 50       		.uleb128 0x50
 11730 27b2 25       		.uleb128 0x25
 11731 27b3 30       		.uleb128 0x30
 11732 27b4 01       		.uleb128 0x1
 11733 27b5 50       		.byte	0x50
 11734 27b6 02       		.uleb128 0x2
 11735 27b7 74       		.byte	0x74
 11736 27b8 00       		.sleb128 0
 11737 27b9 00       		.byte	0
 11738 27ba 31       		.uleb128 0x31
 11739 27bb 94040000 		.4byte	.LVL65
 11740 27bf A04E0000 		.4byte	0x4ea0
 11741 27c3 DD270000 		.4byte	0x27dd
 11742 27c7 30       		.uleb128 0x30
 11743 27c8 01       		.uleb128 0x1
 11744 27c9 51       		.byte	0x51
 11745 27ca 03       		.uleb128 0x3
 11746 27cb 91       		.byte	0x91
 11747 27cc 8471     		.sleb128 -1916
 11748 27ce 30       		.uleb128 0x30
 11749 27cf 02       		.uleb128 0x2
 11750 27d0 90       		.byte	0x90
 11751 27d1 41       		.uleb128 0x41
 11752 27d2 03       		.uleb128 0x3
 11753 27d3 F5       		.byte	0xf5
 11754 27d4 50       		.uleb128 0x50
 11755 27d5 25       		.uleb128 0x25
 11756 27d6 30       		.uleb128 0x30
 11757 27d7 01       		.uleb128 0x1
 11758 27d8 50       		.byte	0x50
 11759 27d9 02       		.uleb128 0x2
 11760 27da 74       		.byte	0x74
 11761 27db 00       		.sleb128 0
 11762 27dc 00       		.byte	0
 11763 27dd 31       		.uleb128 0x31
 11764 27de A4040000 		.4byte	.LVL66
 11765 27e2 A04E0000 		.4byte	0x4ea0
 11766 27e6 00280000 		.4byte	0x2800
 11767 27ea 30       		.uleb128 0x30
 11768 27eb 01       		.uleb128 0x1
 11769 27ec 51       		.byte	0x51
 11770 27ed 03       		.uleb128 0x3
 11771 27ee 91       		.byte	0x91
 11772 27ef 8471     		.sleb128 -1916
 11773 27f1 30       		.uleb128 0x30
 11774 27f2 02       		.uleb128 0x2
 11775 27f3 90       		.byte	0x90
 11776 27f4 41       		.uleb128 0x41
 11777 27f5 03       		.uleb128 0x3
ARM GAS  /tmp/cc0XcXNK.s 			page 208


 11778 27f6 F5       		.byte	0xf5
 11779 27f7 50       		.uleb128 0x50
 11780 27f8 25       		.uleb128 0x25
 11781 27f9 30       		.uleb128 0x30
 11782 27fa 01       		.uleb128 0x1
 11783 27fb 50       		.byte	0x50
 11784 27fc 02       		.uleb128 0x2
 11785 27fd 74       		.byte	0x74
 11786 27fe 00       		.sleb128 0
 11787 27ff 00       		.byte	0
 11788 2800 31       		.uleb128 0x31
 11789 2801 B4040000 		.4byte	.LVL67
 11790 2805 A04E0000 		.4byte	0x4ea0
 11791 2809 23280000 		.4byte	0x2823
 11792 280d 30       		.uleb128 0x30
 11793 280e 01       		.uleb128 0x1
 11794 280f 51       		.byte	0x51
 11795 2810 03       		.uleb128 0x3
 11796 2811 91       		.byte	0x91
 11797 2812 8471     		.sleb128 -1916
 11798 2814 30       		.uleb128 0x30
 11799 2815 02       		.uleb128 0x2
 11800 2816 90       		.byte	0x90
 11801 2817 41       		.uleb128 0x41
 11802 2818 03       		.uleb128 0x3
 11803 2819 F5       		.byte	0xf5
 11804 281a 50       		.uleb128 0x50
 11805 281b 25       		.uleb128 0x25
 11806 281c 30       		.uleb128 0x30
 11807 281d 01       		.uleb128 0x1
 11808 281e 50       		.byte	0x50
 11809 281f 02       		.uleb128 0x2
 11810 2820 74       		.byte	0x74
 11811 2821 00       		.sleb128 0
 11812 2822 00       		.byte	0
 11813 2823 31       		.uleb128 0x31
 11814 2824 E0040000 		.4byte	.LVL68
 11815 2828 9C4D0000 		.4byte	0x4d9c
 11816 282c 3E280000 		.4byte	0x283e
 11817 2830 30       		.uleb128 0x30
 11818 2831 01       		.uleb128 0x1
 11819 2832 52       		.byte	0x52
 11820 2833 03       		.uleb128 0x3
 11821 2834 91       		.byte	0x91
 11822 2835 8471     		.sleb128 -1916
 11823 2837 30       		.uleb128 0x30
 11824 2838 01       		.uleb128 0x1
 11825 2839 50       		.byte	0x50
 11826 283a 02       		.uleb128 0x2
 11827 283b 74       		.byte	0x74
 11828 283c 00       		.sleb128 0
 11829 283d 00       		.byte	0
 11830 283e 31       		.uleb128 0x31
 11831 283f F8040000 		.4byte	.LVL69
 11832 2843 9C4D0000 		.4byte	0x4d9c
 11833 2847 59280000 		.4byte	0x2859
 11834 284b 30       		.uleb128 0x30
ARM GAS  /tmp/cc0XcXNK.s 			page 209


 11835 284c 01       		.uleb128 0x1
 11836 284d 52       		.byte	0x52
 11837 284e 03       		.uleb128 0x3
 11838 284f 91       		.byte	0x91
 11839 2850 8471     		.sleb128 -1916
 11840 2852 30       		.uleb128 0x30
 11841 2853 01       		.uleb128 0x1
 11842 2854 50       		.byte	0x50
 11843 2855 02       		.uleb128 0x2
 11844 2856 74       		.byte	0x74
 11845 2857 00       		.sleb128 0
 11846 2858 00       		.byte	0
 11847 2859 31       		.uleb128 0x31
 11848 285a 10050000 		.4byte	.LVL70
 11849 285e 9C4D0000 		.4byte	0x4d9c
 11850 2862 74280000 		.4byte	0x2874
 11851 2866 30       		.uleb128 0x30
 11852 2867 01       		.uleb128 0x1
 11853 2868 52       		.byte	0x52
 11854 2869 03       		.uleb128 0x3
 11855 286a 91       		.byte	0x91
 11856 286b 8471     		.sleb128 -1916
 11857 286d 30       		.uleb128 0x30
 11858 286e 01       		.uleb128 0x1
 11859 286f 50       		.byte	0x50
 11860 2870 02       		.uleb128 0x2
 11861 2871 74       		.byte	0x74
 11862 2872 00       		.sleb128 0
 11863 2873 00       		.byte	0
 11864 2874 31       		.uleb128 0x31
 11865 2875 28050000 		.4byte	.LVL71
 11866 2879 9C4D0000 		.4byte	0x4d9c
 11867 287d 8F280000 		.4byte	0x288f
 11868 2881 30       		.uleb128 0x30
 11869 2882 01       		.uleb128 0x1
 11870 2883 52       		.byte	0x52
 11871 2884 03       		.uleb128 0x3
 11872 2885 91       		.byte	0x91
 11873 2886 8471     		.sleb128 -1916
 11874 2888 30       		.uleb128 0x30
 11875 2889 01       		.uleb128 0x1
 11876 288a 50       		.byte	0x50
 11877 288b 02       		.uleb128 0x2
 11878 288c 74       		.byte	0x74
 11879 288d 00       		.sleb128 0
 11880 288e 00       		.byte	0
 11881 288f 31       		.uleb128 0x31
 11882 2890 40050000 		.4byte	.LVL72
 11883 2894 9C4D0000 		.4byte	0x4d9c
 11884 2898 AA280000 		.4byte	0x28aa
 11885 289c 30       		.uleb128 0x30
 11886 289d 01       		.uleb128 0x1
 11887 289e 52       		.byte	0x52
 11888 289f 03       		.uleb128 0x3
 11889 28a0 91       		.byte	0x91
 11890 28a1 8471     		.sleb128 -1916
 11891 28a3 30       		.uleb128 0x30
ARM GAS  /tmp/cc0XcXNK.s 			page 210


 11892 28a4 01       		.uleb128 0x1
 11893 28a5 50       		.byte	0x50
 11894 28a6 02       		.uleb128 0x2
 11895 28a7 74       		.byte	0x74
 11896 28a8 00       		.sleb128 0
 11897 28a9 00       		.byte	0
 11898 28aa 31       		.uleb128 0x31
 11899 28ab 58050000 		.4byte	.LVL73
 11900 28af 9C4D0000 		.4byte	0x4d9c
 11901 28b3 C5280000 		.4byte	0x28c5
 11902 28b7 30       		.uleb128 0x30
 11903 28b8 01       		.uleb128 0x1
 11904 28b9 52       		.byte	0x52
 11905 28ba 03       		.uleb128 0x3
 11906 28bb 91       		.byte	0x91
 11907 28bc 8471     		.sleb128 -1916
 11908 28be 30       		.uleb128 0x30
 11909 28bf 01       		.uleb128 0x1
 11910 28c0 50       		.byte	0x50
 11911 28c1 02       		.uleb128 0x2
 11912 28c2 74       		.byte	0x74
 11913 28c3 00       		.sleb128 0
 11914 28c4 00       		.byte	0
 11915 28c5 31       		.uleb128 0x31
 11916 28c6 70050000 		.4byte	.LVL74
 11917 28ca 9C4D0000 		.4byte	0x4d9c
 11918 28ce E0280000 		.4byte	0x28e0
 11919 28d2 30       		.uleb128 0x30
 11920 28d3 01       		.uleb128 0x1
 11921 28d4 52       		.byte	0x52
 11922 28d5 03       		.uleb128 0x3
 11923 28d6 91       		.byte	0x91
 11924 28d7 8471     		.sleb128 -1916
 11925 28d9 30       		.uleb128 0x30
 11926 28da 01       		.uleb128 0x1
 11927 28db 50       		.byte	0x50
 11928 28dc 02       		.uleb128 0x2
 11929 28dd 74       		.byte	0x74
 11930 28de 00       		.sleb128 0
 11931 28df 00       		.byte	0
 11932 28e0 31       		.uleb128 0x31
 11933 28e1 88050000 		.4byte	.LVL75
 11934 28e5 9C4D0000 		.4byte	0x4d9c
 11935 28e9 FB280000 		.4byte	0x28fb
 11936 28ed 30       		.uleb128 0x30
 11937 28ee 01       		.uleb128 0x1
 11938 28ef 52       		.byte	0x52
 11939 28f0 03       		.uleb128 0x3
 11940 28f1 91       		.byte	0x91
 11941 28f2 8471     		.sleb128 -1916
 11942 28f4 30       		.uleb128 0x30
 11943 28f5 01       		.uleb128 0x1
 11944 28f6 50       		.byte	0x50
 11945 28f7 02       		.uleb128 0x2
 11946 28f8 74       		.byte	0x74
 11947 28f9 00       		.sleb128 0
 11948 28fa 00       		.byte	0
ARM GAS  /tmp/cc0XcXNK.s 			page 211


 11949 28fb 31       		.uleb128 0x31
 11950 28fc 98050000 		.4byte	.LVL76
 11951 2900 A04E0000 		.4byte	0x4ea0
 11952 2904 22290000 		.4byte	0x2922
 11953 2908 30       		.uleb128 0x30
 11954 2909 01       		.uleb128 0x1
 11955 290a 51       		.byte	0x51
 11956 290b 03       		.uleb128 0x3
 11957 290c 91       		.byte	0x91
 11958 290d 8471     		.sleb128 -1916
 11959 290f 30       		.uleb128 0x30
 11960 2910 02       		.uleb128 0x2
 11961 2911 90       		.byte	0x90
 11962 2912 41       		.uleb128 0x41
 11963 2913 07       		.uleb128 0x7
 11964 2914 F4       		.byte	0xf4
 11965 2915 25       		.uleb128 0x25
 11966 2916 04       		.byte	0x4
 11967 2917 0050C347 		.4byte	0x47c35000
 11968 291b 30       		.uleb128 0x30
 11969 291c 01       		.uleb128 0x1
 11970 291d 50       		.byte	0x50
 11971 291e 02       		.uleb128 0x2
 11972 291f 74       		.byte	0x74
 11973 2920 00       		.sleb128 0
 11974 2921 00       		.byte	0
 11975 2922 31       		.uleb128 0x31
 11976 2923 B0050000 		.4byte	.LVL77
 11977 2927 9C4D0000 		.4byte	0x4d9c
 11978 292b 3D290000 		.4byte	0x293d
 11979 292f 30       		.uleb128 0x30
 11980 2930 01       		.uleb128 0x1
 11981 2931 52       		.byte	0x52
 11982 2932 03       		.uleb128 0x3
 11983 2933 91       		.byte	0x91
 11984 2934 8471     		.sleb128 -1916
 11985 2936 30       		.uleb128 0x30
 11986 2937 01       		.uleb128 0x1
 11987 2938 50       		.byte	0x50
 11988 2939 02       		.uleb128 0x2
 11989 293a 74       		.byte	0x74
 11990 293b 00       		.sleb128 0
 11991 293c 00       		.byte	0
 11992 293d 31       		.uleb128 0x31
 11993 293e C8050000 		.4byte	.LVL78
 11994 2942 9C4D0000 		.4byte	0x4d9c
 11995 2946 63290000 		.4byte	0x2963
 11996 294a 30       		.uleb128 0x30
 11997 294b 01       		.uleb128 0x1
 11998 294c 52       		.byte	0x52
 11999 294d 03       		.uleb128 0x3
 12000 294e 91       		.byte	0x91
 12001 294f 8471     		.sleb128 -1916
 12002 2951 30       		.uleb128 0x30
 12003 2952 01       		.uleb128 0x1
 12004 2953 51       		.byte	0x51
 12005 2954 07       		.uleb128 0x7
ARM GAS  /tmp/cc0XcXNK.s 			page 212


 12006 2955 F5       		.byte	0xf5
 12007 2956 50       		.uleb128 0x50
 12008 2957 25       		.uleb128 0x25
 12009 2958 F7       		.byte	0xf7
 12010 2959 2C       		.uleb128 0x2c
 12011 295a F7       		.byte	0xf7
 12012 295b 00       		.uleb128 0
 12013 295c 30       		.uleb128 0x30
 12014 295d 01       		.uleb128 0x1
 12015 295e 50       		.byte	0x50
 12016 295f 02       		.uleb128 0x2
 12017 2960 74       		.byte	0x74
 12018 2961 00       		.sleb128 0
 12019 2962 00       		.byte	0
 12020 2963 31       		.uleb128 0x31
 12021 2964 E0050000 		.4byte	.LVL79
 12022 2968 9C4D0000 		.4byte	0x4d9c
 12023 296c 7E290000 		.4byte	0x297e
 12024 2970 30       		.uleb128 0x30
 12025 2971 01       		.uleb128 0x1
 12026 2972 52       		.byte	0x52
 12027 2973 03       		.uleb128 0x3
 12028 2974 91       		.byte	0x91
 12029 2975 8471     		.sleb128 -1916
 12030 2977 30       		.uleb128 0x30
 12031 2978 01       		.uleb128 0x1
 12032 2979 50       		.byte	0x50
 12033 297a 02       		.uleb128 0x2
 12034 297b 74       		.byte	0x74
 12035 297c 00       		.sleb128 0
 12036 297d 00       		.byte	0
 12037 297e 31       		.uleb128 0x31
 12038 297f F8050000 		.4byte	.LVL80
 12039 2983 9C4D0000 		.4byte	0x4d9c
 12040 2987 99290000 		.4byte	0x2999
 12041 298b 30       		.uleb128 0x30
 12042 298c 01       		.uleb128 0x1
 12043 298d 52       		.byte	0x52
 12044 298e 03       		.uleb128 0x3
 12045 298f 91       		.byte	0x91
 12046 2990 8471     		.sleb128 -1916
 12047 2992 30       		.uleb128 0x30
 12048 2993 01       		.uleb128 0x1
 12049 2994 50       		.byte	0x50
 12050 2995 02       		.uleb128 0x2
 12051 2996 74       		.byte	0x74
 12052 2997 00       		.sleb128 0
 12053 2998 00       		.byte	0
 12054 2999 31       		.uleb128 0x31
 12055 299a 04060000 		.4byte	.LVL81
 12056 299e 9C4D0000 		.4byte	0x4d9c
 12057 29a2 B4290000 		.4byte	0x29b4
 12058 29a6 30       		.uleb128 0x30
 12059 29a7 01       		.uleb128 0x1
 12060 29a8 52       		.byte	0x52
 12061 29a9 03       		.uleb128 0x3
 12062 29aa 91       		.byte	0x91
ARM GAS  /tmp/cc0XcXNK.s 			page 213


 12063 29ab 8471     		.sleb128 -1916
 12064 29ad 30       		.uleb128 0x30
 12065 29ae 01       		.uleb128 0x1
 12066 29af 50       		.byte	0x50
 12067 29b0 02       		.uleb128 0x2
 12068 29b1 74       		.byte	0x74
 12069 29b2 00       		.sleb128 0
 12070 29b3 00       		.byte	0
 12071 29b4 31       		.uleb128 0x31
 12072 29b5 14060000 		.4byte	.LVL82
 12073 29b9 A04E0000 		.4byte	0x4ea0
 12074 29bd D7290000 		.4byte	0x29d7
 12075 29c1 30       		.uleb128 0x30
 12076 29c2 01       		.uleb128 0x1
 12077 29c3 51       		.byte	0x51
 12078 29c4 03       		.uleb128 0x3
 12079 29c5 91       		.byte	0x91
 12080 29c6 8471     		.sleb128 -1916
 12081 29c8 30       		.uleb128 0x30
 12082 29c9 02       		.uleb128 0x2
 12083 29ca 90       		.byte	0x90
 12084 29cb 41       		.uleb128 0x41
 12085 29cc 03       		.uleb128 0x3
 12086 29cd F5       		.byte	0xf5
 12087 29ce 51       		.uleb128 0x51
 12088 29cf 25       		.uleb128 0x25
 12089 29d0 30       		.uleb128 0x30
 12090 29d1 01       		.uleb128 0x1
 12091 29d2 50       		.byte	0x50
 12092 29d3 02       		.uleb128 0x2
 12093 29d4 74       		.byte	0x74
 12094 29d5 00       		.sleb128 0
 12095 29d6 00       		.byte	0
 12096 29d7 31       		.uleb128 0x31
 12097 29d8 24060000 		.4byte	.LVL83
 12098 29dc A04E0000 		.4byte	0x4ea0
 12099 29e0 FA290000 		.4byte	0x29fa
 12100 29e4 30       		.uleb128 0x30
 12101 29e5 01       		.uleb128 0x1
 12102 29e6 51       		.byte	0x51
 12103 29e7 03       		.uleb128 0x3
 12104 29e8 91       		.byte	0x91
 12105 29e9 8471     		.sleb128 -1916
 12106 29eb 30       		.uleb128 0x30
 12107 29ec 02       		.uleb128 0x2
 12108 29ed 90       		.byte	0x90
 12109 29ee 41       		.uleb128 0x41
 12110 29ef 03       		.uleb128 0x3
 12111 29f0 F5       		.byte	0xf5
 12112 29f1 51       		.uleb128 0x51
 12113 29f2 25       		.uleb128 0x25
 12114 29f3 30       		.uleb128 0x30
 12115 29f4 01       		.uleb128 0x1
 12116 29f5 50       		.byte	0x50
 12117 29f6 02       		.uleb128 0x2
 12118 29f7 74       		.byte	0x74
 12119 29f8 00       		.sleb128 0
ARM GAS  /tmp/cc0XcXNK.s 			page 214


 12120 29f9 00       		.byte	0
 12121 29fa 31       		.uleb128 0x31
 12122 29fb 34060000 		.4byte	.LVL84
 12123 29ff A04E0000 		.4byte	0x4ea0
 12124 2a03 1D2A0000 		.4byte	0x2a1d
 12125 2a07 30       		.uleb128 0x30
 12126 2a08 01       		.uleb128 0x1
 12127 2a09 51       		.byte	0x51
 12128 2a0a 03       		.uleb128 0x3
 12129 2a0b 91       		.byte	0x91
 12130 2a0c 8471     		.sleb128 -1916
 12131 2a0e 30       		.uleb128 0x30
 12132 2a0f 02       		.uleb128 0x2
 12133 2a10 90       		.byte	0x90
 12134 2a11 41       		.uleb128 0x41
 12135 2a12 03       		.uleb128 0x3
 12136 2a13 F5       		.byte	0xf5
 12137 2a14 51       		.uleb128 0x51
 12138 2a15 25       		.uleb128 0x25
 12139 2a16 30       		.uleb128 0x30
 12140 2a17 01       		.uleb128 0x1
 12141 2a18 50       		.byte	0x50
 12142 2a19 02       		.uleb128 0x2
 12143 2a1a 74       		.byte	0x74
 12144 2a1b 00       		.sleb128 0
 12145 2a1c 00       		.byte	0
 12146 2a1d 31       		.uleb128 0x31
 12147 2a1e 40060000 		.4byte	.LVL85
 12148 2a22 9F4F0000 		.4byte	0x4f9f
 12149 2a26 382A0000 		.4byte	0x2a38
 12150 2a2a 30       		.uleb128 0x30
 12151 2a2b 01       		.uleb128 0x1
 12152 2a2c 52       		.byte	0x52
 12153 2a2d 03       		.uleb128 0x3
 12154 2a2e 91       		.byte	0x91
 12155 2a2f 8471     		.sleb128 -1916
 12156 2a31 30       		.uleb128 0x30
 12157 2a32 01       		.uleb128 0x1
 12158 2a33 50       		.byte	0x50
 12159 2a34 02       		.uleb128 0x2
 12160 2a35 74       		.byte	0x74
 12161 2a36 00       		.sleb128 0
 12162 2a37 00       		.byte	0
 12163 2a38 44       		.uleb128 0x44
 12164 2a39 6E060000 		.4byte	.LVL90
 12165 2a3d 5A4E0000 		.4byte	0x4e5a
 12166 2a41 31       		.uleb128 0x31
 12167 2a42 7C060000 		.4byte	.LVL92
 12168 2a46 E64D0000 		.4byte	0x4de6
 12169 2a4a 5C2A0000 		.4byte	0x2a5c
 12170 2a4e 30       		.uleb128 0x30
 12171 2a4f 01       		.uleb128 0x1
 12172 2a50 52       		.byte	0x52
 12173 2a51 03       		.uleb128 0x3
 12174 2a52 0A       		.byte	0xa
 12175 2a53 3801     		.2byte	0x138
 12176 2a55 30       		.uleb128 0x30
ARM GAS  /tmp/cc0XcXNK.s 			page 215


 12177 2a56 01       		.uleb128 0x1
 12178 2a57 50       		.byte	0x50
 12179 2a58 02       		.uleb128 0x2
 12180 2a59 74       		.byte	0x74
 12181 2a5a 00       		.sleb128 0
 12182 2a5b 00       		.byte	0
 12183 2a5c 44       		.uleb128 0x44
 12184 2a5d 98060000 		.4byte	.LVL93
 12185 2a61 BA4F0000 		.4byte	0x4fba
 12186 2a65 44       		.uleb128 0x44
 12187 2a66 9C060000 		.4byte	.LVL94
 12188 2a6a 874F0000 		.4byte	0x4f87
 12189 2a6e 31       		.uleb128 0x31
 12190 2a6f B2060000 		.4byte	.LVL98
 12191 2a73 C14F0000 		.4byte	0x4fc1
 12192 2a77 812A0000 		.4byte	0x2a81
 12193 2a7b 30       		.uleb128 0x30
 12194 2a7c 01       		.uleb128 0x1
 12195 2a7d 50       		.byte	0x50
 12196 2a7e 01       		.uleb128 0x1
 12197 2a7f 30       		.byte	0x30
 12198 2a80 00       		.byte	0
 12199 2a81 31       		.uleb128 0x31
 12200 2a82 C6060000 		.4byte	.LVL99
 12201 2a86 9C4D0000 		.4byte	0x4d9c
 12202 2a8a 9C2A0000 		.4byte	0x2a9c
 12203 2a8e 30       		.uleb128 0x30
 12204 2a8f 01       		.uleb128 0x1
 12205 2a90 52       		.byte	0x52
 12206 2a91 03       		.uleb128 0x3
 12207 2a92 91       		.byte	0x91
 12208 2a93 8471     		.sleb128 -1916
 12209 2a95 30       		.uleb128 0x30
 12210 2a96 01       		.uleb128 0x1
 12211 2a97 50       		.byte	0x50
 12212 2a98 02       		.uleb128 0x2
 12213 2a99 74       		.byte	0x74
 12214 2a9a 00       		.sleb128 0
 12215 2a9b 00       		.byte	0
 12216 2a9c 31       		.uleb128 0x31
 12217 2a9d CC060000 		.4byte	.LVL100
 12218 2aa1 D64F0000 		.4byte	0x4fd6
 12219 2aa5 AF2A0000 		.4byte	0x2aaf
 12220 2aa9 30       		.uleb128 0x30
 12221 2aaa 01       		.uleb128 0x1
 12222 2aab 50       		.byte	0x50
 12223 2aac 01       		.uleb128 0x1
 12224 2aad 30       		.byte	0x30
 12225 2aae 00       		.byte	0
 12226 2aaf 31       		.uleb128 0x31
 12227 2ab0 E0060000 		.4byte	.LVL101
 12228 2ab4 9C4D0000 		.4byte	0x4d9c
 12229 2ab8 CA2A0000 		.4byte	0x2aca
 12230 2abc 30       		.uleb128 0x30
 12231 2abd 01       		.uleb128 0x1
 12232 2abe 52       		.byte	0x52
 12233 2abf 03       		.uleb128 0x3
ARM GAS  /tmp/cc0XcXNK.s 			page 216


 12234 2ac0 91       		.byte	0x91
 12235 2ac1 8471     		.sleb128 -1916
 12236 2ac3 30       		.uleb128 0x30
 12237 2ac4 01       		.uleb128 0x1
 12238 2ac5 50       		.byte	0x50
 12239 2ac6 02       		.uleb128 0x2
 12240 2ac7 74       		.byte	0x74
 12241 2ac8 00       		.sleb128 0
 12242 2ac9 00       		.byte	0
 12243 2aca 44       		.uleb128 0x44
 12244 2acb 08070000 		.4byte	.LVL107
 12245 2acf EB4F0000 		.4byte	0x4feb
 12246 2ad3 44       		.uleb128 0x44
 12247 2ad4 24070000 		.4byte	.LVL110
 12248 2ad8 F64F0000 		.4byte	0x4ff6
 12249 2adc 31       		.uleb128 0x31
 12250 2add 38070000 		.4byte	.LVL111
 12251 2ae1 9C4D0000 		.4byte	0x4d9c
 12252 2ae5 F72A0000 		.4byte	0x2af7
 12253 2ae9 30       		.uleb128 0x30
 12254 2aea 01       		.uleb128 0x1
 12255 2aeb 52       		.byte	0x52
 12256 2aec 03       		.uleb128 0x3
 12257 2aed 91       		.byte	0x91
 12258 2aee 8471     		.sleb128 -1916
 12259 2af0 30       		.uleb128 0x30
 12260 2af1 01       		.uleb128 0x1
 12261 2af2 50       		.byte	0x50
 12262 2af3 02       		.uleb128 0x2
 12263 2af4 74       		.byte	0x74
 12264 2af5 00       		.sleb128 0
 12265 2af6 00       		.byte	0
 12266 2af7 44       		.uleb128 0x44
 12267 2af8 3C070000 		.4byte	.LVL112
 12268 2afc 01500000 		.4byte	0x5001
 12269 2b00 31       		.uleb128 0x31
 12270 2b01 50070000 		.4byte	.LVL113
 12271 2b05 9C4D0000 		.4byte	0x4d9c
 12272 2b09 1B2B0000 		.4byte	0x2b1b
 12273 2b0d 30       		.uleb128 0x30
 12274 2b0e 01       		.uleb128 0x1
 12275 2b0f 52       		.byte	0x52
 12276 2b10 03       		.uleb128 0x3
 12277 2b11 91       		.byte	0x91
 12278 2b12 8471     		.sleb128 -1916
 12279 2b14 30       		.uleb128 0x30
 12280 2b15 01       		.uleb128 0x1
 12281 2b16 50       		.byte	0x50
 12282 2b17 02       		.uleb128 0x2
 12283 2b18 74       		.byte	0x74
 12284 2b19 00       		.sleb128 0
 12285 2b1a 00       		.byte	0
 12286 2b1b 44       		.uleb128 0x44
 12287 2b1c 54070000 		.4byte	.LVL114
 12288 2b20 0C500000 		.4byte	0x500c
 12289 2b24 31       		.uleb128 0x31
 12290 2b25 68070000 		.4byte	.LVL115
ARM GAS  /tmp/cc0XcXNK.s 			page 217


 12291 2b29 9C4D0000 		.4byte	0x4d9c
 12292 2b2d 3F2B0000 		.4byte	0x2b3f
 12293 2b31 30       		.uleb128 0x30
 12294 2b32 01       		.uleb128 0x1
 12295 2b33 52       		.byte	0x52
 12296 2b34 03       		.uleb128 0x3
 12297 2b35 91       		.byte	0x91
 12298 2b36 8471     		.sleb128 -1916
 12299 2b38 30       		.uleb128 0x30
 12300 2b39 01       		.uleb128 0x1
 12301 2b3a 50       		.byte	0x50
 12302 2b3b 02       		.uleb128 0x2
 12303 2b3c 74       		.byte	0x74
 12304 2b3d 00       		.sleb128 0
 12305 2b3e 00       		.byte	0
 12306 2b3f 44       		.uleb128 0x44
 12307 2b40 6C070000 		.4byte	.LVL116
 12308 2b44 17500000 		.4byte	0x5017
 12309 2b48 44       		.uleb128 0x44
 12310 2b49 7A070000 		.4byte	.LVL118
 12311 2b4d 5A4E0000 		.4byte	0x4e5a
 12312 2b51 31       		.uleb128 0x31
 12313 2b52 88070000 		.4byte	.LVL119
 12314 2b56 E64D0000 		.4byte	0x4de6
 12315 2b5a 6C2B0000 		.4byte	0x2b6c
 12316 2b5e 30       		.uleb128 0x30
 12317 2b5f 01       		.uleb128 0x1
 12318 2b60 52       		.byte	0x52
 12319 2b61 03       		.uleb128 0x3
 12320 2b62 0A       		.byte	0xa
 12321 2b63 3801     		.2byte	0x138
 12322 2b65 30       		.uleb128 0x30
 12323 2b66 01       		.uleb128 0x1
 12324 2b67 50       		.byte	0x50
 12325 2b68 02       		.uleb128 0x2
 12326 2b69 75       		.byte	0x75
 12327 2b6a 00       		.sleb128 0
 12328 2b6b 00       		.byte	0
 12329 2b6c 44       		.uleb128 0x44
 12330 2b6d 12080000 		.4byte	.LVL131
 12331 2b71 22500000 		.4byte	0x5022
 12332 2b75 31       		.uleb128 0x31
 12333 2b76 2A0A0000 		.4byte	.LVL181
 12334 2b7a 2D500000 		.4byte	0x502d
 12335 2b7e 892B0000 		.4byte	0x2b89
 12336 2b82 30       		.uleb128 0x30
 12337 2b83 01       		.uleb128 0x1
 12338 2b84 50       		.byte	0x50
 12339 2b85 02       		.uleb128 0x2
 12340 2b86 74       		.byte	0x74
 12341 2b87 00       		.sleb128 0
 12342 2b88 00       		.byte	0
 12343 2b89 31       		.uleb128 0x31
 12344 2b8a 440A0000 		.4byte	.LVL183
 12345 2b8e 9F4F0000 		.4byte	0x4f9f
 12346 2b92 A42B0000 		.4byte	0x2ba4
 12347 2b96 30       		.uleb128 0x30
ARM GAS  /tmp/cc0XcXNK.s 			page 218


 12348 2b97 01       		.uleb128 0x1
 12349 2b98 52       		.byte	0x52
 12350 2b99 03       		.uleb128 0x3
 12351 2b9a 91       		.byte	0x91
 12352 2b9b 8471     		.sleb128 -1916
 12353 2b9d 30       		.uleb128 0x30
 12354 2b9e 01       		.uleb128 0x1
 12355 2b9f 50       		.byte	0x50
 12356 2ba0 02       		.uleb128 0x2
 12357 2ba1 75       		.byte	0x75
 12358 2ba2 00       		.sleb128 0
 12359 2ba3 00       		.byte	0
 12360 2ba4 31       		.uleb128 0x31
 12361 2ba5 600A0000 		.4byte	.LVL184
 12362 2ba9 9C4D0000 		.4byte	0x4d9c
 12363 2bad BF2B0000 		.4byte	0x2bbf
 12364 2bb1 30       		.uleb128 0x30
 12365 2bb2 01       		.uleb128 0x1
 12366 2bb3 52       		.byte	0x52
 12367 2bb4 03       		.uleb128 0x3
 12368 2bb5 91       		.byte	0x91
 12369 2bb6 8471     		.sleb128 -1916
 12370 2bb8 30       		.uleb128 0x30
 12371 2bb9 01       		.uleb128 0x1
 12372 2bba 50       		.byte	0x50
 12373 2bbb 02       		.uleb128 0x2
 12374 2bbc 75       		.byte	0x75
 12375 2bbd 00       		.sleb128 0
 12376 2bbe 00       		.byte	0
 12377 2bbf 31       		.uleb128 0x31
 12378 2bc0 740A0000 		.4byte	.LVL185
 12379 2bc4 3E500000 		.4byte	0x503e
 12380 2bc8 DA2B0000 		.4byte	0x2bda
 12381 2bcc 30       		.uleb128 0x30
 12382 2bcd 01       		.uleb128 0x1
 12383 2bce 52       		.byte	0x52
 12384 2bcf 03       		.uleb128 0x3
 12385 2bd0 91       		.byte	0x91
 12386 2bd1 8471     		.sleb128 -1916
 12387 2bd3 30       		.uleb128 0x30
 12388 2bd4 01       		.uleb128 0x1
 12389 2bd5 50       		.byte	0x50
 12390 2bd6 02       		.uleb128 0x2
 12391 2bd7 75       		.byte	0x75
 12392 2bd8 00       		.sleb128 0
 12393 2bd9 00       		.byte	0
 12394 2bda 31       		.uleb128 0x31
 12395 2bdb 9C0A0000 		.4byte	.LVL187
 12396 2bdf 9C4D0000 		.4byte	0x4d9c
 12397 2be3 F52B0000 		.4byte	0x2bf5
 12398 2be7 30       		.uleb128 0x30
 12399 2be8 01       		.uleb128 0x1
 12400 2be9 52       		.byte	0x52
 12401 2bea 03       		.uleb128 0x3
 12402 2beb 91       		.byte	0x91
 12403 2bec 8471     		.sleb128 -1916
 12404 2bee 30       		.uleb128 0x30
ARM GAS  /tmp/cc0XcXNK.s 			page 219


 12405 2bef 01       		.uleb128 0x1
 12406 2bf0 50       		.byte	0x50
 12407 2bf1 02       		.uleb128 0x2
 12408 2bf2 75       		.byte	0x75
 12409 2bf3 00       		.sleb128 0
 12410 2bf4 00       		.byte	0
 12411 2bf5 31       		.uleb128 0x31
 12412 2bf6 B40A0000 		.4byte	.LVL188
 12413 2bfa 9C4D0000 		.4byte	0x4d9c
 12414 2bfe 102C0000 		.4byte	0x2c10
 12415 2c02 30       		.uleb128 0x30
 12416 2c03 01       		.uleb128 0x1
 12417 2c04 52       		.byte	0x52
 12418 2c05 03       		.uleb128 0x3
 12419 2c06 91       		.byte	0x91
 12420 2c07 8471     		.sleb128 -1916
 12421 2c09 30       		.uleb128 0x30
 12422 2c0a 01       		.uleb128 0x1
 12423 2c0b 50       		.byte	0x50
 12424 2c0c 02       		.uleb128 0x2
 12425 2c0d 75       		.byte	0x75
 12426 2c0e 00       		.sleb128 0
 12427 2c0f 00       		.byte	0
 12428 2c10 31       		.uleb128 0x31
 12429 2c11 CC0A0000 		.4byte	.LVL189
 12430 2c15 9C4D0000 		.4byte	0x4d9c
 12431 2c19 2B2C0000 		.4byte	0x2c2b
 12432 2c1d 30       		.uleb128 0x30
 12433 2c1e 01       		.uleb128 0x1
 12434 2c1f 52       		.byte	0x52
 12435 2c20 03       		.uleb128 0x3
 12436 2c21 91       		.byte	0x91
 12437 2c22 8471     		.sleb128 -1916
 12438 2c24 30       		.uleb128 0x30
 12439 2c25 01       		.uleb128 0x1
 12440 2c26 50       		.byte	0x50
 12441 2c27 02       		.uleb128 0x2
 12442 2c28 75       		.byte	0x75
 12443 2c29 00       		.sleb128 0
 12444 2c2a 00       		.byte	0
 12445 2c2b 31       		.uleb128 0x31
 12446 2c2c E40A0000 		.4byte	.LVL190
 12447 2c30 9C4D0000 		.4byte	0x4d9c
 12448 2c34 462C0000 		.4byte	0x2c46
 12449 2c38 30       		.uleb128 0x30
 12450 2c39 01       		.uleb128 0x1
 12451 2c3a 52       		.byte	0x52
 12452 2c3b 03       		.uleb128 0x3
 12453 2c3c 91       		.byte	0x91
 12454 2c3d 8471     		.sleb128 -1916
 12455 2c3f 30       		.uleb128 0x30
 12456 2c40 01       		.uleb128 0x1
 12457 2c41 50       		.byte	0x50
 12458 2c42 02       		.uleb128 0x2
 12459 2c43 75       		.byte	0x75
 12460 2c44 00       		.sleb128 0
 12461 2c45 00       		.byte	0
ARM GAS  /tmp/cc0XcXNK.s 			page 220


 12462 2c46 31       		.uleb128 0x31
 12463 2c47 100B0000 		.4byte	.LVL191
 12464 2c4b 9C4D0000 		.4byte	0x4d9c
 12465 2c4f 612C0000 		.4byte	0x2c61
 12466 2c53 30       		.uleb128 0x30
 12467 2c54 01       		.uleb128 0x1
 12468 2c55 52       		.byte	0x52
 12469 2c56 03       		.uleb128 0x3
 12470 2c57 91       		.byte	0x91
 12471 2c58 8471     		.sleb128 -1916
 12472 2c5a 30       		.uleb128 0x30
 12473 2c5b 01       		.uleb128 0x1
 12474 2c5c 50       		.byte	0x50
 12475 2c5d 02       		.uleb128 0x2
 12476 2c5e 75       		.byte	0x75
 12477 2c5f 00       		.sleb128 0
 12478 2c60 00       		.byte	0
 12479 2c61 31       		.uleb128 0x31
 12480 2c62 280B0000 		.4byte	.LVL192
 12481 2c66 9C4D0000 		.4byte	0x4d9c
 12482 2c6a 7C2C0000 		.4byte	0x2c7c
 12483 2c6e 30       		.uleb128 0x30
 12484 2c6f 01       		.uleb128 0x1
 12485 2c70 52       		.byte	0x52
 12486 2c71 03       		.uleb128 0x3
 12487 2c72 91       		.byte	0x91
 12488 2c73 8471     		.sleb128 -1916
 12489 2c75 30       		.uleb128 0x30
 12490 2c76 01       		.uleb128 0x1
 12491 2c77 50       		.byte	0x50
 12492 2c78 02       		.uleb128 0x2
 12493 2c79 75       		.byte	0x75
 12494 2c7a 00       		.sleb128 0
 12495 2c7b 00       		.byte	0
 12496 2c7c 31       		.uleb128 0x31
 12497 2c7d 540B0000 		.4byte	.LVL193
 12498 2c81 9C4D0000 		.4byte	0x4d9c
 12499 2c85 972C0000 		.4byte	0x2c97
 12500 2c89 30       		.uleb128 0x30
 12501 2c8a 01       		.uleb128 0x1
 12502 2c8b 52       		.byte	0x52
 12503 2c8c 03       		.uleb128 0x3
 12504 2c8d 91       		.byte	0x91
 12505 2c8e 8471     		.sleb128 -1916
 12506 2c90 30       		.uleb128 0x30
 12507 2c91 01       		.uleb128 0x1
 12508 2c92 50       		.byte	0x50
 12509 2c93 02       		.uleb128 0x2
 12510 2c94 75       		.byte	0x75
 12511 2c95 00       		.sleb128 0
 12512 2c96 00       		.byte	0
 12513 2c97 31       		.uleb128 0x31
 12514 2c98 780B0000 		.4byte	.LVL194
 12515 2c9c 9C4D0000 		.4byte	0x4d9c
 12516 2ca0 B22C0000 		.4byte	0x2cb2
 12517 2ca4 30       		.uleb128 0x30
 12518 2ca5 01       		.uleb128 0x1
ARM GAS  /tmp/cc0XcXNK.s 			page 221


 12519 2ca6 52       		.byte	0x52
 12520 2ca7 03       		.uleb128 0x3
 12521 2ca8 91       		.byte	0x91
 12522 2ca9 8471     		.sleb128 -1916
 12523 2cab 30       		.uleb128 0x30
 12524 2cac 01       		.uleb128 0x1
 12525 2cad 50       		.byte	0x50
 12526 2cae 02       		.uleb128 0x2
 12527 2caf 75       		.byte	0x75
 12528 2cb0 00       		.sleb128 0
 12529 2cb1 00       		.byte	0
 12530 2cb2 31       		.uleb128 0x31
 12531 2cb3 900B0000 		.4byte	.LVL195
 12532 2cb7 9C4D0000 		.4byte	0x4d9c
 12533 2cbb CD2C0000 		.4byte	0x2ccd
 12534 2cbf 30       		.uleb128 0x30
 12535 2cc0 01       		.uleb128 0x1
 12536 2cc1 52       		.byte	0x52
 12537 2cc2 03       		.uleb128 0x3
 12538 2cc3 91       		.byte	0x91
 12539 2cc4 8471     		.sleb128 -1916
 12540 2cc6 30       		.uleb128 0x30
 12541 2cc7 01       		.uleb128 0x1
 12542 2cc8 50       		.byte	0x50
 12543 2cc9 02       		.uleb128 0x2
 12544 2cca 75       		.byte	0x75
 12545 2ccb 00       		.sleb128 0
 12546 2ccc 00       		.byte	0
 12547 2ccd 31       		.uleb128 0x31
 12548 2cce A80B0000 		.4byte	.LVL196
 12549 2cd2 9C4D0000 		.4byte	0x4d9c
 12550 2cd6 E82C0000 		.4byte	0x2ce8
 12551 2cda 30       		.uleb128 0x30
 12552 2cdb 01       		.uleb128 0x1
 12553 2cdc 52       		.byte	0x52
 12554 2cdd 03       		.uleb128 0x3
 12555 2cde 91       		.byte	0x91
 12556 2cdf 8471     		.sleb128 -1916
 12557 2ce1 30       		.uleb128 0x30
 12558 2ce2 01       		.uleb128 0x1
 12559 2ce3 50       		.byte	0x50
 12560 2ce4 02       		.uleb128 0x2
 12561 2ce5 75       		.byte	0x75
 12562 2ce6 00       		.sleb128 0
 12563 2ce7 00       		.byte	0
 12564 2ce8 31       		.uleb128 0x31
 12565 2ce9 EC0B0000 		.4byte	.LVL198
 12566 2ced 9C4D0000 		.4byte	0x4d9c
 12567 2cf1 032D0000 		.4byte	0x2d03
 12568 2cf5 30       		.uleb128 0x30
 12569 2cf6 01       		.uleb128 0x1
 12570 2cf7 52       		.byte	0x52
 12571 2cf8 03       		.uleb128 0x3
 12572 2cf9 91       		.byte	0x91
 12573 2cfa 8471     		.sleb128 -1916
 12574 2cfc 30       		.uleb128 0x30
 12575 2cfd 01       		.uleb128 0x1
ARM GAS  /tmp/cc0XcXNK.s 			page 222


 12576 2cfe 50       		.byte	0x50
 12577 2cff 02       		.uleb128 0x2
 12578 2d00 75       		.byte	0x75
 12579 2d01 00       		.sleb128 0
 12580 2d02 00       		.byte	0
 12581 2d03 31       		.uleb128 0x31
 12582 2d04 040C0000 		.4byte	.LVL199
 12583 2d08 9C4D0000 		.4byte	0x4d9c
 12584 2d0c 1E2D0000 		.4byte	0x2d1e
 12585 2d10 30       		.uleb128 0x30
 12586 2d11 01       		.uleb128 0x1
 12587 2d12 52       		.byte	0x52
 12588 2d13 03       		.uleb128 0x3
 12589 2d14 91       		.byte	0x91
 12590 2d15 8471     		.sleb128 -1916
 12591 2d17 30       		.uleb128 0x30
 12592 2d18 01       		.uleb128 0x1
 12593 2d19 50       		.byte	0x50
 12594 2d1a 02       		.uleb128 0x2
 12595 2d1b 75       		.byte	0x75
 12596 2d1c 00       		.sleb128 0
 12597 2d1d 00       		.byte	0
 12598 2d1e 31       		.uleb128 0x31
 12599 2d1f 300C0000 		.4byte	.LVL200
 12600 2d23 9C4D0000 		.4byte	0x4d9c
 12601 2d27 392D0000 		.4byte	0x2d39
 12602 2d2b 30       		.uleb128 0x30
 12603 2d2c 01       		.uleb128 0x1
 12604 2d2d 52       		.byte	0x52
 12605 2d2e 03       		.uleb128 0x3
 12606 2d2f 91       		.byte	0x91
 12607 2d30 8471     		.sleb128 -1916
 12608 2d32 30       		.uleb128 0x30
 12609 2d33 01       		.uleb128 0x1
 12610 2d34 50       		.byte	0x50
 12611 2d35 02       		.uleb128 0x2
 12612 2d36 75       		.byte	0x75
 12613 2d37 00       		.sleb128 0
 12614 2d38 00       		.byte	0
 12615 2d39 31       		.uleb128 0x31
 12616 2d3a 3C0C0000 		.4byte	.LVL201
 12617 2d3e 3E500000 		.4byte	0x503e
 12618 2d42 542D0000 		.4byte	0x2d54
 12619 2d46 30       		.uleb128 0x30
 12620 2d47 01       		.uleb128 0x1
 12621 2d48 52       		.byte	0x52
 12622 2d49 03       		.uleb128 0x3
 12623 2d4a 91       		.byte	0x91
 12624 2d4b 8471     		.sleb128 -1916
 12625 2d4d 30       		.uleb128 0x30
 12626 2d4e 01       		.uleb128 0x1
 12627 2d4f 50       		.byte	0x50
 12628 2d50 02       		.uleb128 0x2
 12629 2d51 75       		.byte	0x75
 12630 2d52 00       		.sleb128 0
 12631 2d53 00       		.byte	0
 12632 2d54 31       		.uleb128 0x31
ARM GAS  /tmp/cc0XcXNK.s 			page 223


 12633 2d55 480C0000 		.4byte	.LVL202
 12634 2d59 9F4F0000 		.4byte	0x4f9f
 12635 2d5d 6F2D0000 		.4byte	0x2d6f
 12636 2d61 30       		.uleb128 0x30
 12637 2d62 01       		.uleb128 0x1
 12638 2d63 52       		.byte	0x52
 12639 2d64 03       		.uleb128 0x3
 12640 2d65 91       		.byte	0x91
 12641 2d66 8471     		.sleb128 -1916
 12642 2d68 30       		.uleb128 0x30
 12643 2d69 01       		.uleb128 0x1
 12644 2d6a 50       		.byte	0x50
 12645 2d6b 02       		.uleb128 0x2
 12646 2d6c 75       		.byte	0x75
 12647 2d6d 00       		.sleb128 0
 12648 2d6e 00       		.byte	0
 12649 2d6f 31       		.uleb128 0x31
 12650 2d70 640C0000 		.4byte	.LVL203
 12651 2d74 A04E0000 		.4byte	0x4ea0
 12652 2d78 922D0000 		.4byte	0x2d92
 12653 2d7c 30       		.uleb128 0x30
 12654 2d7d 01       		.uleb128 0x1
 12655 2d7e 51       		.byte	0x51
 12656 2d7f 03       		.uleb128 0x3
 12657 2d80 91       		.byte	0x91
 12658 2d81 8471     		.sleb128 -1916
 12659 2d83 30       		.uleb128 0x30
 12660 2d84 02       		.uleb128 0x2
 12661 2d85 90       		.byte	0x90
 12662 2d86 41       		.uleb128 0x41
 12663 2d87 03       		.uleb128 0x3
 12664 2d88 F5       		.byte	0xf5
 12665 2d89 50       		.uleb128 0x50
 12666 2d8a 25       		.uleb128 0x25
 12667 2d8b 30       		.uleb128 0x30
 12668 2d8c 01       		.uleb128 0x1
 12669 2d8d 50       		.byte	0x50
 12670 2d8e 02       		.uleb128 0x2
 12671 2d8f 75       		.byte	0x75
 12672 2d90 00       		.sleb128 0
 12673 2d91 00       		.byte	0
 12674 2d92 31       		.uleb128 0x31
 12675 2d93 740C0000 		.4byte	.LVL204
 12676 2d97 A04E0000 		.4byte	0x4ea0
 12677 2d9b B52D0000 		.4byte	0x2db5
 12678 2d9f 30       		.uleb128 0x30
 12679 2da0 01       		.uleb128 0x1
 12680 2da1 51       		.byte	0x51
 12681 2da2 03       		.uleb128 0x3
 12682 2da3 91       		.byte	0x91
 12683 2da4 8471     		.sleb128 -1916
 12684 2da6 30       		.uleb128 0x30
 12685 2da7 02       		.uleb128 0x2
 12686 2da8 90       		.byte	0x90
 12687 2da9 41       		.uleb128 0x41
 12688 2daa 03       		.uleb128 0x3
 12689 2dab F5       		.byte	0xf5
ARM GAS  /tmp/cc0XcXNK.s 			page 224


 12690 2dac 50       		.uleb128 0x50
 12691 2dad 25       		.uleb128 0x25
 12692 2dae 30       		.uleb128 0x30
 12693 2daf 01       		.uleb128 0x1
 12694 2db0 50       		.byte	0x50
 12695 2db1 02       		.uleb128 0x2
 12696 2db2 75       		.byte	0x75
 12697 2db3 00       		.sleb128 0
 12698 2db4 00       		.byte	0
 12699 2db5 31       		.uleb128 0x31
 12700 2db6 840C0000 		.4byte	.LVL205
 12701 2dba A04E0000 		.4byte	0x4ea0
 12702 2dbe D82D0000 		.4byte	0x2dd8
 12703 2dc2 30       		.uleb128 0x30
 12704 2dc3 01       		.uleb128 0x1
 12705 2dc4 51       		.byte	0x51
 12706 2dc5 03       		.uleb128 0x3
 12707 2dc6 91       		.byte	0x91
 12708 2dc7 8471     		.sleb128 -1916
 12709 2dc9 30       		.uleb128 0x30
 12710 2dca 02       		.uleb128 0x2
 12711 2dcb 90       		.byte	0x90
 12712 2dcc 41       		.uleb128 0x41
 12713 2dcd 03       		.uleb128 0x3
 12714 2dce F5       		.byte	0xf5
 12715 2dcf 50       		.uleb128 0x50
 12716 2dd0 25       		.uleb128 0x25
 12717 2dd1 30       		.uleb128 0x30
 12718 2dd2 01       		.uleb128 0x1
 12719 2dd3 50       		.byte	0x50
 12720 2dd4 02       		.uleb128 0x2
 12721 2dd5 75       		.byte	0x75
 12722 2dd6 00       		.sleb128 0
 12723 2dd7 00       		.byte	0
 12724 2dd8 31       		.uleb128 0x31
 12725 2dd9 940C0000 		.4byte	.LVL206
 12726 2ddd A04E0000 		.4byte	0x4ea0
 12727 2de1 FB2D0000 		.4byte	0x2dfb
 12728 2de5 30       		.uleb128 0x30
 12729 2de6 01       		.uleb128 0x1
 12730 2de7 51       		.byte	0x51
 12731 2de8 03       		.uleb128 0x3
 12732 2de9 91       		.byte	0x91
 12733 2dea 8471     		.sleb128 -1916
 12734 2dec 30       		.uleb128 0x30
 12735 2ded 02       		.uleb128 0x2
 12736 2dee 90       		.byte	0x90
 12737 2def 41       		.uleb128 0x41
 12738 2df0 03       		.uleb128 0x3
 12739 2df1 F5       		.byte	0xf5
 12740 2df2 50       		.uleb128 0x50
 12741 2df3 25       		.uleb128 0x25
 12742 2df4 30       		.uleb128 0x30
 12743 2df5 01       		.uleb128 0x1
 12744 2df6 50       		.byte	0x50
 12745 2df7 02       		.uleb128 0x2
 12746 2df8 75       		.byte	0x75
ARM GAS  /tmp/cc0XcXNK.s 			page 225


 12747 2df9 00       		.sleb128 0
 12748 2dfa 00       		.byte	0
 12749 2dfb 31       		.uleb128 0x31
 12750 2dfc A40C0000 		.4byte	.LVL207
 12751 2e00 A04E0000 		.4byte	0x4ea0
 12752 2e04 1E2E0000 		.4byte	0x2e1e
 12753 2e08 30       		.uleb128 0x30
 12754 2e09 01       		.uleb128 0x1
 12755 2e0a 51       		.byte	0x51
 12756 2e0b 03       		.uleb128 0x3
 12757 2e0c 91       		.byte	0x91
 12758 2e0d 8471     		.sleb128 -1916
 12759 2e0f 30       		.uleb128 0x30
 12760 2e10 02       		.uleb128 0x2
 12761 2e11 90       		.byte	0x90
 12762 2e12 41       		.uleb128 0x41
 12763 2e13 03       		.uleb128 0x3
 12764 2e14 F5       		.byte	0xf5
 12765 2e15 50       		.uleb128 0x50
 12766 2e16 25       		.uleb128 0x25
 12767 2e17 30       		.uleb128 0x30
 12768 2e18 01       		.uleb128 0x1
 12769 2e19 50       		.byte	0x50
 12770 2e1a 02       		.uleb128 0x2
 12771 2e1b 75       		.byte	0x75
 12772 2e1c 00       		.sleb128 0
 12773 2e1d 00       		.byte	0
 12774 2e1e 31       		.uleb128 0x31
 12775 2e1f B40C0000 		.4byte	.LVL208
 12776 2e23 A04E0000 		.4byte	0x4ea0
 12777 2e27 412E0000 		.4byte	0x2e41
 12778 2e2b 30       		.uleb128 0x30
 12779 2e2c 01       		.uleb128 0x1
 12780 2e2d 51       		.byte	0x51
 12781 2e2e 03       		.uleb128 0x3
 12782 2e2f 91       		.byte	0x91
 12783 2e30 8471     		.sleb128 -1916
 12784 2e32 30       		.uleb128 0x30
 12785 2e33 02       		.uleb128 0x2
 12786 2e34 90       		.byte	0x90
 12787 2e35 41       		.uleb128 0x41
 12788 2e36 03       		.uleb128 0x3
 12789 2e37 F5       		.byte	0xf5
 12790 2e38 50       		.uleb128 0x50
 12791 2e39 25       		.uleb128 0x25
 12792 2e3a 30       		.uleb128 0x30
 12793 2e3b 01       		.uleb128 0x1
 12794 2e3c 50       		.byte	0x50
 12795 2e3d 02       		.uleb128 0x2
 12796 2e3e 75       		.byte	0x75
 12797 2e3f 00       		.sleb128 0
 12798 2e40 00       		.byte	0
 12799 2e41 31       		.uleb128 0x31
 12800 2e42 E00C0000 		.4byte	.LVL209
 12801 2e46 9C4D0000 		.4byte	0x4d9c
 12802 2e4a 5C2E0000 		.4byte	0x2e5c
 12803 2e4e 30       		.uleb128 0x30
ARM GAS  /tmp/cc0XcXNK.s 			page 226


 12804 2e4f 01       		.uleb128 0x1
 12805 2e50 52       		.byte	0x52
 12806 2e51 03       		.uleb128 0x3
 12807 2e52 91       		.byte	0x91
 12808 2e53 8471     		.sleb128 -1916
 12809 2e55 30       		.uleb128 0x30
 12810 2e56 01       		.uleb128 0x1
 12811 2e57 50       		.byte	0x50
 12812 2e58 02       		.uleb128 0x2
 12813 2e59 75       		.byte	0x75
 12814 2e5a 00       		.sleb128 0
 12815 2e5b 00       		.byte	0
 12816 2e5c 31       		.uleb128 0x31
 12817 2e5d 420D0000 		.4byte	.LVL210
 12818 2e61 9C4D0000 		.4byte	0x4d9c
 12819 2e65 772E0000 		.4byte	0x2e77
 12820 2e69 30       		.uleb128 0x30
 12821 2e6a 01       		.uleb128 0x1
 12822 2e6b 52       		.byte	0x52
 12823 2e6c 03       		.uleb128 0x3
 12824 2e6d 91       		.byte	0x91
 12825 2e6e 8471     		.sleb128 -1916
 12826 2e70 30       		.uleb128 0x30
 12827 2e71 01       		.uleb128 0x1
 12828 2e72 50       		.byte	0x50
 12829 2e73 02       		.uleb128 0x2
 12830 2e74 75       		.byte	0x75
 12831 2e75 00       		.sleb128 0
 12832 2e76 00       		.byte	0
 12833 2e77 31       		.uleb128 0x31
 12834 2e78 5A0D0000 		.4byte	.LVL211
 12835 2e7c 9C4D0000 		.4byte	0x4d9c
 12836 2e80 922E0000 		.4byte	0x2e92
 12837 2e84 30       		.uleb128 0x30
 12838 2e85 01       		.uleb128 0x1
 12839 2e86 52       		.byte	0x52
 12840 2e87 03       		.uleb128 0x3
 12841 2e88 91       		.byte	0x91
 12842 2e89 8471     		.sleb128 -1916
 12843 2e8b 30       		.uleb128 0x30
 12844 2e8c 01       		.uleb128 0x1
 12845 2e8d 50       		.byte	0x50
 12846 2e8e 02       		.uleb128 0x2
 12847 2e8f 75       		.byte	0x75
 12848 2e90 00       		.sleb128 0
 12849 2e91 00       		.byte	0
 12850 2e92 31       		.uleb128 0x31
 12851 2e93 7E0D0000 		.4byte	.LVL212
 12852 2e97 9C4D0000 		.4byte	0x4d9c
 12853 2e9b AD2E0000 		.4byte	0x2ead
 12854 2e9f 30       		.uleb128 0x30
 12855 2ea0 01       		.uleb128 0x1
 12856 2ea1 52       		.byte	0x52
 12857 2ea2 03       		.uleb128 0x3
 12858 2ea3 91       		.byte	0x91
 12859 2ea4 8471     		.sleb128 -1916
 12860 2ea6 30       		.uleb128 0x30
ARM GAS  /tmp/cc0XcXNK.s 			page 227


 12861 2ea7 01       		.uleb128 0x1
 12862 2ea8 50       		.byte	0x50
 12863 2ea9 02       		.uleb128 0x2
 12864 2eaa 75       		.byte	0x75
 12865 2eab 00       		.sleb128 0
 12866 2eac 00       		.byte	0
 12867 2ead 31       		.uleb128 0x31
 12868 2eae 960D0000 		.4byte	.LVL213
 12869 2eb2 9C4D0000 		.4byte	0x4d9c
 12870 2eb6 C82E0000 		.4byte	0x2ec8
 12871 2eba 30       		.uleb128 0x30
 12872 2ebb 01       		.uleb128 0x1
 12873 2ebc 52       		.byte	0x52
 12874 2ebd 03       		.uleb128 0x3
 12875 2ebe 91       		.byte	0x91
 12876 2ebf 8471     		.sleb128 -1916
 12877 2ec1 30       		.uleb128 0x30
 12878 2ec2 01       		.uleb128 0x1
 12879 2ec3 50       		.byte	0x50
 12880 2ec4 02       		.uleb128 0x2
 12881 2ec5 75       		.byte	0x75
 12882 2ec6 00       		.sleb128 0
 12883 2ec7 00       		.byte	0
 12884 2ec8 31       		.uleb128 0x31
 12885 2ec9 BC0D0000 		.4byte	.LVL214
 12886 2ecd 9C4D0000 		.4byte	0x4d9c
 12887 2ed1 E32E0000 		.4byte	0x2ee3
 12888 2ed5 30       		.uleb128 0x30
 12889 2ed6 01       		.uleb128 0x1
 12890 2ed7 52       		.byte	0x52
 12891 2ed8 03       		.uleb128 0x3
 12892 2ed9 91       		.byte	0x91
 12893 2eda 8471     		.sleb128 -1916
 12894 2edc 30       		.uleb128 0x30
 12895 2edd 01       		.uleb128 0x1
 12896 2ede 50       		.byte	0x50
 12897 2edf 02       		.uleb128 0x2
 12898 2ee0 75       		.byte	0x75
 12899 2ee1 00       		.sleb128 0
 12900 2ee2 00       		.byte	0
 12901 2ee3 31       		.uleb128 0x31
 12902 2ee4 E00D0000 		.4byte	.LVL215
 12903 2ee8 9C4D0000 		.4byte	0x4d9c
 12904 2eec FE2E0000 		.4byte	0x2efe
 12905 2ef0 30       		.uleb128 0x30
 12906 2ef1 01       		.uleb128 0x1
 12907 2ef2 52       		.byte	0x52
 12908 2ef3 03       		.uleb128 0x3
 12909 2ef4 91       		.byte	0x91
 12910 2ef5 8471     		.sleb128 -1916
 12911 2ef7 30       		.uleb128 0x30
 12912 2ef8 01       		.uleb128 0x1
 12913 2ef9 50       		.byte	0x50
 12914 2efa 02       		.uleb128 0x2
 12915 2efb 75       		.byte	0x75
 12916 2efc 00       		.sleb128 0
 12917 2efd 00       		.byte	0
ARM GAS  /tmp/cc0XcXNK.s 			page 228


 12918 2efe 31       		.uleb128 0x31
 12919 2eff F80D0000 		.4byte	.LVL216
 12920 2f03 9C4D0000 		.4byte	0x4d9c
 12921 2f07 192F0000 		.4byte	0x2f19
 12922 2f0b 30       		.uleb128 0x30
 12923 2f0c 01       		.uleb128 0x1
 12924 2f0d 52       		.byte	0x52
 12925 2f0e 03       		.uleb128 0x3
 12926 2f0f 91       		.byte	0x91
 12927 2f10 8471     		.sleb128 -1916
 12928 2f12 30       		.uleb128 0x30
 12929 2f13 01       		.uleb128 0x1
 12930 2f14 50       		.byte	0x50
 12931 2f15 02       		.uleb128 0x2
 12932 2f16 75       		.byte	0x75
 12933 2f17 00       		.sleb128 0
 12934 2f18 00       		.byte	0
 12935 2f19 31       		.uleb128 0x31
 12936 2f1a 1C0E0000 		.4byte	.LVL217
 12937 2f1e 9C4D0000 		.4byte	0x4d9c
 12938 2f22 342F0000 		.4byte	0x2f34
 12939 2f26 30       		.uleb128 0x30
 12940 2f27 01       		.uleb128 0x1
 12941 2f28 52       		.byte	0x52
 12942 2f29 03       		.uleb128 0x3
 12943 2f2a 91       		.byte	0x91
 12944 2f2b 8471     		.sleb128 -1916
 12945 2f2d 30       		.uleb128 0x30
 12946 2f2e 01       		.uleb128 0x1
 12947 2f2f 50       		.byte	0x50
 12948 2f30 02       		.uleb128 0x2
 12949 2f31 75       		.byte	0x75
 12950 2f32 00       		.sleb128 0
 12951 2f33 00       		.byte	0
 12952 2f34 31       		.uleb128 0x31
 12953 2f35 340E0000 		.4byte	.LVL218
 12954 2f39 9C4D0000 		.4byte	0x4d9c
 12955 2f3d 4F2F0000 		.4byte	0x2f4f
 12956 2f41 30       		.uleb128 0x30
 12957 2f42 01       		.uleb128 0x1
 12958 2f43 52       		.byte	0x52
 12959 2f44 03       		.uleb128 0x3
 12960 2f45 91       		.byte	0x91
 12961 2f46 8471     		.sleb128 -1916
 12962 2f48 30       		.uleb128 0x30
 12963 2f49 01       		.uleb128 0x1
 12964 2f4a 50       		.byte	0x50
 12965 2f4b 02       		.uleb128 0x2
 12966 2f4c 75       		.byte	0x75
 12967 2f4d 00       		.sleb128 0
 12968 2f4e 00       		.byte	0
 12969 2f4f 31       		.uleb128 0x31
 12970 2f50 4C0E0000 		.4byte	.LVL219
 12971 2f54 9C4D0000 		.4byte	0x4d9c
 12972 2f58 6A2F0000 		.4byte	0x2f6a
 12973 2f5c 30       		.uleb128 0x30
 12974 2f5d 01       		.uleb128 0x1
ARM GAS  /tmp/cc0XcXNK.s 			page 229


 12975 2f5e 52       		.byte	0x52
 12976 2f5f 03       		.uleb128 0x3
 12977 2f60 91       		.byte	0x91
 12978 2f61 8471     		.sleb128 -1916
 12979 2f63 30       		.uleb128 0x30
 12980 2f64 01       		.uleb128 0x1
 12981 2f65 50       		.byte	0x50
 12982 2f66 02       		.uleb128 0x2
 12983 2f67 75       		.byte	0x75
 12984 2f68 00       		.sleb128 0
 12985 2f69 00       		.byte	0
 12986 2f6a 31       		.uleb128 0x31
 12987 2f6b 640E0000 		.4byte	.LVL220
 12988 2f6f 9C4D0000 		.4byte	0x4d9c
 12989 2f73 852F0000 		.4byte	0x2f85
 12990 2f77 30       		.uleb128 0x30
 12991 2f78 01       		.uleb128 0x1
 12992 2f79 52       		.byte	0x52
 12993 2f7a 03       		.uleb128 0x3
 12994 2f7b 91       		.byte	0x91
 12995 2f7c 8471     		.sleb128 -1916
 12996 2f7e 30       		.uleb128 0x30
 12997 2f7f 01       		.uleb128 0x1
 12998 2f80 50       		.byte	0x50
 12999 2f81 02       		.uleb128 0x2
 13000 2f82 75       		.byte	0x75
 13001 2f83 00       		.sleb128 0
 13002 2f84 00       		.byte	0
 13003 2f85 31       		.uleb128 0x31
 13004 2f86 7C0E0000 		.4byte	.LVL221
 13005 2f8a 9C4D0000 		.4byte	0x4d9c
 13006 2f8e A02F0000 		.4byte	0x2fa0
 13007 2f92 30       		.uleb128 0x30
 13008 2f93 01       		.uleb128 0x1
 13009 2f94 52       		.byte	0x52
 13010 2f95 03       		.uleb128 0x3
 13011 2f96 91       		.byte	0x91
 13012 2f97 8471     		.sleb128 -1916
 13013 2f99 30       		.uleb128 0x30
 13014 2f9a 01       		.uleb128 0x1
 13015 2f9b 50       		.byte	0x50
 13016 2f9c 02       		.uleb128 0x2
 13017 2f9d 75       		.byte	0x75
 13018 2f9e 00       		.sleb128 0
 13019 2f9f 00       		.byte	0
 13020 2fa0 31       		.uleb128 0x31
 13021 2fa1 940E0000 		.4byte	.LVL222
 13022 2fa5 9C4D0000 		.4byte	0x4d9c
 13023 2fa9 BB2F0000 		.4byte	0x2fbb
 13024 2fad 30       		.uleb128 0x30
 13025 2fae 01       		.uleb128 0x1
 13026 2faf 52       		.byte	0x52
 13027 2fb0 03       		.uleb128 0x3
 13028 2fb1 91       		.byte	0x91
 13029 2fb2 8471     		.sleb128 -1916
 13030 2fb4 30       		.uleb128 0x30
 13031 2fb5 01       		.uleb128 0x1
ARM GAS  /tmp/cc0XcXNK.s 			page 230


 13032 2fb6 50       		.byte	0x50
 13033 2fb7 02       		.uleb128 0x2
 13034 2fb8 75       		.byte	0x75
 13035 2fb9 00       		.sleb128 0
 13036 2fba 00       		.byte	0
 13037 2fbb 31       		.uleb128 0x31
 13038 2fbc AC0E0000 		.4byte	.LVL223
 13039 2fc0 9C4D0000 		.4byte	0x4d9c
 13040 2fc4 D62F0000 		.4byte	0x2fd6
 13041 2fc8 30       		.uleb128 0x30
 13042 2fc9 01       		.uleb128 0x1
 13043 2fca 52       		.byte	0x52
 13044 2fcb 03       		.uleb128 0x3
 13045 2fcc 91       		.byte	0x91
 13046 2fcd 8471     		.sleb128 -1916
 13047 2fcf 30       		.uleb128 0x30
 13048 2fd0 01       		.uleb128 0x1
 13049 2fd1 50       		.byte	0x50
 13050 2fd2 02       		.uleb128 0x2
 13051 2fd3 75       		.byte	0x75
 13052 2fd4 00       		.sleb128 0
 13053 2fd5 00       		.byte	0
 13054 2fd6 31       		.uleb128 0x31
 13055 2fd7 C40E0000 		.4byte	.LVL224
 13056 2fdb 9C4D0000 		.4byte	0x4d9c
 13057 2fdf F12F0000 		.4byte	0x2ff1
 13058 2fe3 30       		.uleb128 0x30
 13059 2fe4 01       		.uleb128 0x1
 13060 2fe5 52       		.byte	0x52
 13061 2fe6 03       		.uleb128 0x3
 13062 2fe7 91       		.byte	0x91
 13063 2fe8 8471     		.sleb128 -1916
 13064 2fea 30       		.uleb128 0x30
 13065 2feb 01       		.uleb128 0x1
 13066 2fec 50       		.byte	0x50
 13067 2fed 02       		.uleb128 0x2
 13068 2fee 75       		.byte	0x75
 13069 2fef 00       		.sleb128 0
 13070 2ff0 00       		.byte	0
 13071 2ff1 31       		.uleb128 0x31
 13072 2ff2 DC0E0000 		.4byte	.LVL225
 13073 2ff6 9C4D0000 		.4byte	0x4d9c
 13074 2ffa 0C300000 		.4byte	0x300c
 13075 2ffe 30       		.uleb128 0x30
 13076 2fff 01       		.uleb128 0x1
 13077 3000 52       		.byte	0x52
 13078 3001 03       		.uleb128 0x3
 13079 3002 91       		.byte	0x91
 13080 3003 8471     		.sleb128 -1916
 13081 3005 30       		.uleb128 0x30
 13082 3006 01       		.uleb128 0x1
 13083 3007 50       		.byte	0x50
 13084 3008 02       		.uleb128 0x2
 13085 3009 75       		.byte	0x75
 13086 300a 00       		.sleb128 0
 13087 300b 00       		.byte	0
 13088 300c 31       		.uleb128 0x31
ARM GAS  /tmp/cc0XcXNK.s 			page 231


 13089 300d F40E0000 		.4byte	.LVL226
 13090 3011 9C4D0000 		.4byte	0x4d9c
 13091 3015 27300000 		.4byte	0x3027
 13092 3019 30       		.uleb128 0x30
 13093 301a 01       		.uleb128 0x1
 13094 301b 52       		.byte	0x52
 13095 301c 03       		.uleb128 0x3
 13096 301d 91       		.byte	0x91
 13097 301e 8471     		.sleb128 -1916
 13098 3020 30       		.uleb128 0x30
 13099 3021 01       		.uleb128 0x1
 13100 3022 50       		.byte	0x50
 13101 3023 02       		.uleb128 0x2
 13102 3024 75       		.byte	0x75
 13103 3025 00       		.sleb128 0
 13104 3026 00       		.byte	0
 13105 3027 31       		.uleb128 0x31
 13106 3028 0C0F0000 		.4byte	.LVL227
 13107 302c 9C4D0000 		.4byte	0x4d9c
 13108 3030 42300000 		.4byte	0x3042
 13109 3034 30       		.uleb128 0x30
 13110 3035 01       		.uleb128 0x1
 13111 3036 52       		.byte	0x52
 13112 3037 03       		.uleb128 0x3
 13113 3038 91       		.byte	0x91
 13114 3039 8471     		.sleb128 -1916
 13115 303b 30       		.uleb128 0x30
 13116 303c 01       		.uleb128 0x1
 13117 303d 50       		.byte	0x50
 13118 303e 02       		.uleb128 0x2
 13119 303f 75       		.byte	0x75
 13120 3040 00       		.sleb128 0
 13121 3041 00       		.byte	0
 13122 3042 31       		.uleb128 0x31
 13123 3043 240F0000 		.4byte	.LVL228
 13124 3047 9C4D0000 		.4byte	0x4d9c
 13125 304b 5D300000 		.4byte	0x305d
 13126 304f 30       		.uleb128 0x30
 13127 3050 01       		.uleb128 0x1
 13128 3051 52       		.byte	0x52
 13129 3052 03       		.uleb128 0x3
 13130 3053 91       		.byte	0x91
 13131 3054 8471     		.sleb128 -1916
 13132 3056 30       		.uleb128 0x30
 13133 3057 01       		.uleb128 0x1
 13134 3058 50       		.byte	0x50
 13135 3059 02       		.uleb128 0x2
 13136 305a 75       		.byte	0x75
 13137 305b 00       		.sleb128 0
 13138 305c 00       		.byte	0
 13139 305d 31       		.uleb128 0x31
 13140 305e 3C0F0000 		.4byte	.LVL229
 13141 3062 9C4D0000 		.4byte	0x4d9c
 13142 3066 83300000 		.4byte	0x3083
 13143 306a 30       		.uleb128 0x30
 13144 306b 01       		.uleb128 0x1
 13145 306c 52       		.byte	0x52
ARM GAS  /tmp/cc0XcXNK.s 			page 232


 13146 306d 03       		.uleb128 0x3
 13147 306e 91       		.byte	0x91
 13148 306f 8471     		.sleb128 -1916
 13149 3071 30       		.uleb128 0x30
 13150 3072 01       		.uleb128 0x1
 13151 3073 51       		.byte	0x51
 13152 3074 07       		.uleb128 0x7
 13153 3075 F5       		.byte	0xf5
 13154 3076 50       		.uleb128 0x50
 13155 3077 25       		.uleb128 0x25
 13156 3078 F7       		.byte	0xf7
 13157 3079 2C       		.uleb128 0x2c
 13158 307a F7       		.byte	0xf7
 13159 307b 00       		.uleb128 0
 13160 307c 30       		.uleb128 0x30
 13161 307d 01       		.uleb128 0x1
 13162 307e 50       		.byte	0x50
 13163 307f 02       		.uleb128 0x2
 13164 3080 75       		.byte	0x75
 13165 3081 00       		.sleb128 0
 13166 3082 00       		.byte	0
 13167 3083 31       		.uleb128 0x31
 13168 3084 540F0000 		.4byte	.LVL230
 13169 3088 9C4D0000 		.4byte	0x4d9c
 13170 308c 9E300000 		.4byte	0x309e
 13171 3090 30       		.uleb128 0x30
 13172 3091 01       		.uleb128 0x1
 13173 3092 52       		.byte	0x52
 13174 3093 03       		.uleb128 0x3
 13175 3094 91       		.byte	0x91
 13176 3095 8471     		.sleb128 -1916
 13177 3097 30       		.uleb128 0x30
 13178 3098 01       		.uleb128 0x1
 13179 3099 50       		.byte	0x50
 13180 309a 02       		.uleb128 0x2
 13181 309b 75       		.byte	0x75
 13182 309c 00       		.sleb128 0
 13183 309d 00       		.byte	0
 13184 309e 31       		.uleb128 0x31
 13185 309f 7C0F0000 		.4byte	.LVL235
 13186 30a3 59500000 		.4byte	0x5059
 13187 30a7 B2300000 		.4byte	0x30b2
 13188 30ab 30       		.uleb128 0x30
 13189 30ac 01       		.uleb128 0x1
 13190 30ad 50       		.byte	0x50
 13191 30ae 02       		.uleb128 0x2
 13192 30af 74       		.byte	0x74
 13193 30b0 00       		.sleb128 0
 13194 30b1 00       		.byte	0
 13195 30b2 44       		.uleb128 0x44
 13196 30b3 880F0000 		.4byte	.LVL236
 13197 30b7 5A4E0000 		.4byte	0x4e5a
 13198 30bb 31       		.uleb128 0x31
 13199 30bc A20F0000 		.4byte	.LVL237
 13200 30c0 E64D0000 		.4byte	0x4de6
 13201 30c4 D6300000 		.4byte	0x30d6
 13202 30c8 30       		.uleb128 0x30
ARM GAS  /tmp/cc0XcXNK.s 			page 233


 13203 30c9 01       		.uleb128 0x1
 13204 30ca 52       		.byte	0x52
 13205 30cb 03       		.uleb128 0x3
 13206 30cc 0A       		.byte	0xa
 13207 30cd 3801     		.2byte	0x138
 13208 30cf 30       		.uleb128 0x30
 13209 30d0 01       		.uleb128 0x1
 13210 30d1 50       		.byte	0x50
 13211 30d2 02       		.uleb128 0x2
 13212 30d3 75       		.byte	0x75
 13213 30d4 00       		.sleb128 0
 13214 30d5 00       		.byte	0
 13215 30d6 31       		.uleb128 0x31
 13216 30d7 C60F0000 		.4byte	.LVL239
 13217 30db 0A4E0000 		.4byte	0x4e0a
 13218 30df F9300000 		.4byte	0x30f9
 13219 30e3 30       		.uleb128 0x30
 13220 30e4 01       		.uleb128 0x1
 13221 30e5 51       		.byte	0x51
 13222 30e6 03       		.uleb128 0x3
 13223 30e7 91       		.byte	0x91
 13224 30e8 8471     		.sleb128 -1916
 13225 30ea 30       		.uleb128 0x30
 13226 30eb 02       		.uleb128 0x2
 13227 30ec 90       		.byte	0x90
 13228 30ed 40       		.uleb128 0x40
 13229 30ee 03       		.uleb128 0x3
 13230 30ef F5       		.byte	0xf5
 13231 30f0 50       		.uleb128 0x50
 13232 30f1 25       		.uleb128 0x25
 13233 30f2 30       		.uleb128 0x30
 13234 30f3 01       		.uleb128 0x1
 13235 30f4 50       		.byte	0x50
 13236 30f5 02       		.uleb128 0x2
 13237 30f6 74       		.byte	0x74
 13238 30f7 00       		.sleb128 0
 13239 30f8 00       		.byte	0
 13240 30f9 31       		.uleb128 0x31
 13241 30fa D60F0000 		.4byte	.LVL240
 13242 30fe 0A4E0000 		.4byte	0x4e0a
 13243 3102 1C310000 		.4byte	0x311c
 13244 3106 30       		.uleb128 0x30
 13245 3107 01       		.uleb128 0x1
 13246 3108 51       		.byte	0x51
 13247 3109 03       		.uleb128 0x3
 13248 310a 91       		.byte	0x91
 13249 310b 8471     		.sleb128 -1916
 13250 310d 30       		.uleb128 0x30
 13251 310e 02       		.uleb128 0x2
 13252 310f 90       		.byte	0x90
 13253 3110 40       		.uleb128 0x40
 13254 3111 03       		.uleb128 0x3
 13255 3112 F5       		.byte	0xf5
 13256 3113 50       		.uleb128 0x50
 13257 3114 25       		.uleb128 0x25
 13258 3115 30       		.uleb128 0x30
 13259 3116 01       		.uleb128 0x1
ARM GAS  /tmp/cc0XcXNK.s 			page 234


 13260 3117 50       		.byte	0x50
 13261 3118 02       		.uleb128 0x2
 13262 3119 74       		.byte	0x74
 13263 311a 00       		.sleb128 0
 13264 311b 00       		.byte	0
 13265 311c 31       		.uleb128 0x31
 13266 311d E60F0000 		.4byte	.LVL241
 13267 3121 0A4E0000 		.4byte	0x4e0a
 13268 3125 3F310000 		.4byte	0x313f
 13269 3129 30       		.uleb128 0x30
 13270 312a 01       		.uleb128 0x1
 13271 312b 51       		.byte	0x51
 13272 312c 03       		.uleb128 0x3
 13273 312d 91       		.byte	0x91
 13274 312e 8471     		.sleb128 -1916
 13275 3130 30       		.uleb128 0x30
 13276 3131 02       		.uleb128 0x2
 13277 3132 90       		.byte	0x90
 13278 3133 40       		.uleb128 0x40
 13279 3134 03       		.uleb128 0x3
 13280 3135 F5       		.byte	0xf5
 13281 3136 50       		.uleb128 0x50
 13282 3137 25       		.uleb128 0x25
 13283 3138 30       		.uleb128 0x30
 13284 3139 01       		.uleb128 0x1
 13285 313a 50       		.byte	0x50
 13286 313b 02       		.uleb128 0x2
 13287 313c 74       		.byte	0x74
 13288 313d 00       		.sleb128 0
 13289 313e 00       		.byte	0
 13290 313f 31       		.uleb128 0x31
 13291 3140 F60F0000 		.4byte	.LVL242
 13292 3144 0A4E0000 		.4byte	0x4e0a
 13293 3148 62310000 		.4byte	0x3162
 13294 314c 30       		.uleb128 0x30
 13295 314d 01       		.uleb128 0x1
 13296 314e 51       		.byte	0x51
 13297 314f 03       		.uleb128 0x3
 13298 3150 91       		.byte	0x91
 13299 3151 8471     		.sleb128 -1916
 13300 3153 30       		.uleb128 0x30
 13301 3154 02       		.uleb128 0x2
 13302 3155 90       		.byte	0x90
 13303 3156 40       		.uleb128 0x40
 13304 3157 03       		.uleb128 0x3
 13305 3158 F5       		.byte	0xf5
 13306 3159 50       		.uleb128 0x50
 13307 315a 25       		.uleb128 0x25
 13308 315b 30       		.uleb128 0x30
 13309 315c 01       		.uleb128 0x1
 13310 315d 50       		.byte	0x50
 13311 315e 02       		.uleb128 0x2
 13312 315f 74       		.byte	0x74
 13313 3160 00       		.sleb128 0
 13314 3161 00       		.byte	0
 13315 3162 31       		.uleb128 0x31
 13316 3163 06100000 		.4byte	.LVL243
ARM GAS  /tmp/cc0XcXNK.s 			page 235


 13317 3167 0A4E0000 		.4byte	0x4e0a
 13318 316b 85310000 		.4byte	0x3185
 13319 316f 30       		.uleb128 0x30
 13320 3170 01       		.uleb128 0x1
 13321 3171 51       		.byte	0x51
 13322 3172 03       		.uleb128 0x3
 13323 3173 91       		.byte	0x91
 13324 3174 8471     		.sleb128 -1916
 13325 3176 30       		.uleb128 0x30
 13326 3177 02       		.uleb128 0x2
 13327 3178 90       		.byte	0x90
 13328 3179 40       		.uleb128 0x40
 13329 317a 03       		.uleb128 0x3
 13330 317b F5       		.byte	0xf5
 13331 317c 50       		.uleb128 0x50
 13332 317d 25       		.uleb128 0x25
 13333 317e 30       		.uleb128 0x30
 13334 317f 01       		.uleb128 0x1
 13335 3180 50       		.byte	0x50
 13336 3181 02       		.uleb128 0x2
 13337 3182 74       		.byte	0x74
 13338 3183 00       		.sleb128 0
 13339 3184 00       		.byte	0
 13340 3185 31       		.uleb128 0x31
 13341 3186 16100000 		.4byte	.LVL244
 13342 318a 0A4E0000 		.4byte	0x4e0a
 13343 318e A8310000 		.4byte	0x31a8
 13344 3192 30       		.uleb128 0x30
 13345 3193 01       		.uleb128 0x1
 13346 3194 51       		.byte	0x51
 13347 3195 03       		.uleb128 0x3
 13348 3196 91       		.byte	0x91
 13349 3197 8471     		.sleb128 -1916
 13350 3199 30       		.uleb128 0x30
 13351 319a 02       		.uleb128 0x2
 13352 319b 90       		.byte	0x90
 13353 319c 40       		.uleb128 0x40
 13354 319d 03       		.uleb128 0x3
 13355 319e F5       		.byte	0xf5
 13356 319f 50       		.uleb128 0x50
 13357 31a0 25       		.uleb128 0x25
 13358 31a1 30       		.uleb128 0x30
 13359 31a2 01       		.uleb128 0x1
 13360 31a3 50       		.byte	0x50
 13361 31a4 02       		.uleb128 0x2
 13362 31a5 74       		.byte	0x74
 13363 31a6 00       		.sleb128 0
 13364 31a7 00       		.byte	0
 13365 31a8 31       		.uleb128 0x31
 13366 31a9 26100000 		.4byte	.LVL245
 13367 31ad 0A4E0000 		.4byte	0x4e0a
 13368 31b1 CB310000 		.4byte	0x31cb
 13369 31b5 30       		.uleb128 0x30
 13370 31b6 01       		.uleb128 0x1
 13371 31b7 51       		.byte	0x51
 13372 31b8 03       		.uleb128 0x3
 13373 31b9 91       		.byte	0x91
ARM GAS  /tmp/cc0XcXNK.s 			page 236


 13374 31ba 8471     		.sleb128 -1916
 13375 31bc 30       		.uleb128 0x30
 13376 31bd 02       		.uleb128 0x2
 13377 31be 90       		.byte	0x90
 13378 31bf 40       		.uleb128 0x40
 13379 31c0 03       		.uleb128 0x3
 13380 31c1 F5       		.byte	0xf5
 13381 31c2 50       		.uleb128 0x50
 13382 31c3 25       		.uleb128 0x25
 13383 31c4 30       		.uleb128 0x30
 13384 31c5 01       		.uleb128 0x1
 13385 31c6 50       		.byte	0x50
 13386 31c7 02       		.uleb128 0x2
 13387 31c8 74       		.byte	0x74
 13388 31c9 00       		.sleb128 0
 13389 31ca 00       		.byte	0
 13390 31cb 31       		.uleb128 0x31
 13391 31cc 36100000 		.4byte	.LVL246
 13392 31d0 0A4E0000 		.4byte	0x4e0a
 13393 31d4 EE310000 		.4byte	0x31ee
 13394 31d8 30       		.uleb128 0x30
 13395 31d9 01       		.uleb128 0x1
 13396 31da 51       		.byte	0x51
 13397 31db 03       		.uleb128 0x3
 13398 31dc 91       		.byte	0x91
 13399 31dd 8471     		.sleb128 -1916
 13400 31df 30       		.uleb128 0x30
 13401 31e0 02       		.uleb128 0x2
 13402 31e1 90       		.byte	0x90
 13403 31e2 40       		.uleb128 0x40
 13404 31e3 03       		.uleb128 0x3
 13405 31e4 F5       		.byte	0xf5
 13406 31e5 50       		.uleb128 0x50
 13407 31e6 25       		.uleb128 0x25
 13408 31e7 30       		.uleb128 0x30
 13409 31e8 01       		.uleb128 0x1
 13410 31e9 50       		.byte	0x50
 13411 31ea 02       		.uleb128 0x2
 13412 31eb 74       		.byte	0x74
 13413 31ec 00       		.sleb128 0
 13414 31ed 00       		.byte	0
 13415 31ee 31       		.uleb128 0x31
 13416 31ef 46100000 		.4byte	.LVL247
 13417 31f3 0A4E0000 		.4byte	0x4e0a
 13418 31f7 11320000 		.4byte	0x3211
 13419 31fb 30       		.uleb128 0x30
 13420 31fc 01       		.uleb128 0x1
 13421 31fd 51       		.byte	0x51
 13422 31fe 03       		.uleb128 0x3
 13423 31ff 91       		.byte	0x91
 13424 3200 8471     		.sleb128 -1916
 13425 3202 30       		.uleb128 0x30
 13426 3203 02       		.uleb128 0x2
 13427 3204 90       		.byte	0x90
 13428 3205 40       		.uleb128 0x40
 13429 3206 03       		.uleb128 0x3
 13430 3207 F5       		.byte	0xf5
ARM GAS  /tmp/cc0XcXNK.s 			page 237


 13431 3208 50       		.uleb128 0x50
 13432 3209 25       		.uleb128 0x25
 13433 320a 30       		.uleb128 0x30
 13434 320b 01       		.uleb128 0x1
 13435 320c 50       		.byte	0x50
 13436 320d 02       		.uleb128 0x2
 13437 320e 74       		.byte	0x74
 13438 320f 00       		.sleb128 0
 13439 3210 00       		.byte	0
 13440 3211 31       		.uleb128 0x31
 13441 3212 56100000 		.4byte	.LVL248
 13442 3216 0A4E0000 		.4byte	0x4e0a
 13443 321a 34320000 		.4byte	0x3234
 13444 321e 30       		.uleb128 0x30
 13445 321f 01       		.uleb128 0x1
 13446 3220 51       		.byte	0x51
 13447 3221 03       		.uleb128 0x3
 13448 3222 91       		.byte	0x91
 13449 3223 8471     		.sleb128 -1916
 13450 3225 30       		.uleb128 0x30
 13451 3226 02       		.uleb128 0x2
 13452 3227 90       		.byte	0x90
 13453 3228 40       		.uleb128 0x40
 13454 3229 03       		.uleb128 0x3
 13455 322a F5       		.byte	0xf5
 13456 322b 50       		.uleb128 0x50
 13457 322c 25       		.uleb128 0x25
 13458 322d 30       		.uleb128 0x30
 13459 322e 01       		.uleb128 0x1
 13460 322f 50       		.byte	0x50
 13461 3230 02       		.uleb128 0x2
 13462 3231 74       		.byte	0x74
 13463 3232 00       		.sleb128 0
 13464 3233 00       		.byte	0
 13465 3234 31       		.uleb128 0x31
 13466 3235 66100000 		.4byte	.LVL249
 13467 3239 0A4E0000 		.4byte	0x4e0a
 13468 323d 57320000 		.4byte	0x3257
 13469 3241 30       		.uleb128 0x30
 13470 3242 01       		.uleb128 0x1
 13471 3243 51       		.byte	0x51
 13472 3244 03       		.uleb128 0x3
 13473 3245 91       		.byte	0x91
 13474 3246 8471     		.sleb128 -1916
 13475 3248 30       		.uleb128 0x30
 13476 3249 02       		.uleb128 0x2
 13477 324a 90       		.byte	0x90
 13478 324b 40       		.uleb128 0x40
 13479 324c 03       		.uleb128 0x3
 13480 324d F5       		.byte	0xf5
 13481 324e 50       		.uleb128 0x50
 13482 324f 25       		.uleb128 0x25
 13483 3250 30       		.uleb128 0x30
 13484 3251 01       		.uleb128 0x1
 13485 3252 50       		.byte	0x50
 13486 3253 02       		.uleb128 0x2
 13487 3254 74       		.byte	0x74
ARM GAS  /tmp/cc0XcXNK.s 			page 238


 13488 3255 00       		.sleb128 0
 13489 3256 00       		.byte	0
 13490 3257 31       		.uleb128 0x31
 13491 3258 76100000 		.4byte	.LVL250
 13492 325c 0A4E0000 		.4byte	0x4e0a
 13493 3260 7A320000 		.4byte	0x327a
 13494 3264 30       		.uleb128 0x30
 13495 3265 01       		.uleb128 0x1
 13496 3266 51       		.byte	0x51
 13497 3267 03       		.uleb128 0x3
 13498 3268 91       		.byte	0x91
 13499 3269 8471     		.sleb128 -1916
 13500 326b 30       		.uleb128 0x30
 13501 326c 02       		.uleb128 0x2
 13502 326d 90       		.byte	0x90
 13503 326e 40       		.uleb128 0x40
 13504 326f 03       		.uleb128 0x3
 13505 3270 F5       		.byte	0xf5
 13506 3271 50       		.uleb128 0x50
 13507 3272 25       		.uleb128 0x25
 13508 3273 30       		.uleb128 0x30
 13509 3274 01       		.uleb128 0x1
 13510 3275 50       		.byte	0x50
 13511 3276 02       		.uleb128 0x2
 13512 3277 74       		.byte	0x74
 13513 3278 00       		.sleb128 0
 13514 3279 00       		.byte	0
 13515 327a 31       		.uleb128 0x31
 13516 327b 86100000 		.4byte	.LVL251
 13517 327f 0A4E0000 		.4byte	0x4e0a
 13518 3283 9D320000 		.4byte	0x329d
 13519 3287 30       		.uleb128 0x30
 13520 3288 01       		.uleb128 0x1
 13521 3289 51       		.byte	0x51
 13522 328a 03       		.uleb128 0x3
 13523 328b 91       		.byte	0x91
 13524 328c 8471     		.sleb128 -1916
 13525 328e 30       		.uleb128 0x30
 13526 328f 02       		.uleb128 0x2
 13527 3290 90       		.byte	0x90
 13528 3291 40       		.uleb128 0x40
 13529 3292 03       		.uleb128 0x3
 13530 3293 F5       		.byte	0xf5
 13531 3294 50       		.uleb128 0x50
 13532 3295 25       		.uleb128 0x25
 13533 3296 30       		.uleb128 0x30
 13534 3297 01       		.uleb128 0x1
 13535 3298 50       		.byte	0x50
 13536 3299 02       		.uleb128 0x2
 13537 329a 74       		.byte	0x74
 13538 329b 00       		.sleb128 0
 13539 329c 00       		.byte	0
 13540 329d 31       		.uleb128 0x31
 13541 329e B8100000 		.4byte	.LVL252
 13542 32a2 0A4E0000 		.4byte	0x4e0a
 13543 32a6 C0320000 		.4byte	0x32c0
 13544 32aa 30       		.uleb128 0x30
ARM GAS  /tmp/cc0XcXNK.s 			page 239


 13545 32ab 01       		.uleb128 0x1
 13546 32ac 51       		.byte	0x51
 13547 32ad 03       		.uleb128 0x3
 13548 32ae 91       		.byte	0x91
 13549 32af 8471     		.sleb128 -1916
 13550 32b1 30       		.uleb128 0x30
 13551 32b2 02       		.uleb128 0x2
 13552 32b3 90       		.byte	0x90
 13553 32b4 40       		.uleb128 0x40
 13554 32b5 03       		.uleb128 0x3
 13555 32b6 F5       		.byte	0xf5
 13556 32b7 50       		.uleb128 0x50
 13557 32b8 25       		.uleb128 0x25
 13558 32b9 30       		.uleb128 0x30
 13559 32ba 01       		.uleb128 0x1
 13560 32bb 50       		.byte	0x50
 13561 32bc 02       		.uleb128 0x2
 13562 32bd 74       		.byte	0x74
 13563 32be 00       		.sleb128 0
 13564 32bf 00       		.byte	0
 13565 32c0 31       		.uleb128 0x31
 13566 32c1 C8100000 		.4byte	.LVL253
 13567 32c5 0A4E0000 		.4byte	0x4e0a
 13568 32c9 E3320000 		.4byte	0x32e3
 13569 32cd 30       		.uleb128 0x30
 13570 32ce 01       		.uleb128 0x1
 13571 32cf 51       		.byte	0x51
 13572 32d0 03       		.uleb128 0x3
 13573 32d1 91       		.byte	0x91
 13574 32d2 8471     		.sleb128 -1916
 13575 32d4 30       		.uleb128 0x30
 13576 32d5 02       		.uleb128 0x2
 13577 32d6 90       		.byte	0x90
 13578 32d7 40       		.uleb128 0x40
 13579 32d8 03       		.uleb128 0x3
 13580 32d9 F5       		.byte	0xf5
 13581 32da 50       		.uleb128 0x50
 13582 32db 25       		.uleb128 0x25
 13583 32dc 30       		.uleb128 0x30
 13584 32dd 01       		.uleb128 0x1
 13585 32de 50       		.byte	0x50
 13586 32df 02       		.uleb128 0x2
 13587 32e0 74       		.byte	0x74
 13588 32e1 00       		.sleb128 0
 13589 32e2 00       		.byte	0
 13590 32e3 31       		.uleb128 0x31
 13591 32e4 D8100000 		.4byte	.LVL254
 13592 32e8 0A4E0000 		.4byte	0x4e0a
 13593 32ec 06330000 		.4byte	0x3306
 13594 32f0 30       		.uleb128 0x30
 13595 32f1 01       		.uleb128 0x1
 13596 32f2 51       		.byte	0x51
 13597 32f3 03       		.uleb128 0x3
 13598 32f4 91       		.byte	0x91
 13599 32f5 8471     		.sleb128 -1916
 13600 32f7 30       		.uleb128 0x30
 13601 32f8 02       		.uleb128 0x2
ARM GAS  /tmp/cc0XcXNK.s 			page 240


 13602 32f9 90       		.byte	0x90
 13603 32fa 40       		.uleb128 0x40
 13604 32fb 03       		.uleb128 0x3
 13605 32fc F5       		.byte	0xf5
 13606 32fd 50       		.uleb128 0x50
 13607 32fe 25       		.uleb128 0x25
 13608 32ff 30       		.uleb128 0x30
 13609 3300 01       		.uleb128 0x1
 13610 3301 50       		.byte	0x50
 13611 3302 02       		.uleb128 0x2
 13612 3303 74       		.byte	0x74
 13613 3304 00       		.sleb128 0
 13614 3305 00       		.byte	0
 13615 3306 31       		.uleb128 0x31
 13616 3307 E8100000 		.4byte	.LVL255
 13617 330b 0A4E0000 		.4byte	0x4e0a
 13618 330f 29330000 		.4byte	0x3329
 13619 3313 30       		.uleb128 0x30
 13620 3314 01       		.uleb128 0x1
 13621 3315 51       		.byte	0x51
 13622 3316 03       		.uleb128 0x3
 13623 3317 91       		.byte	0x91
 13624 3318 8471     		.sleb128 -1916
 13625 331a 30       		.uleb128 0x30
 13626 331b 02       		.uleb128 0x2
 13627 331c 90       		.byte	0x90
 13628 331d 40       		.uleb128 0x40
 13629 331e 03       		.uleb128 0x3
 13630 331f F5       		.byte	0xf5
 13631 3320 50       		.uleb128 0x50
 13632 3321 25       		.uleb128 0x25
 13633 3322 30       		.uleb128 0x30
 13634 3323 01       		.uleb128 0x1
 13635 3324 50       		.byte	0x50
 13636 3325 02       		.uleb128 0x2
 13637 3326 74       		.byte	0x74
 13638 3327 00       		.sleb128 0
 13639 3328 00       		.byte	0
 13640 3329 31       		.uleb128 0x31
 13641 332a F8100000 		.4byte	.LVL256
 13642 332e 0A4E0000 		.4byte	0x4e0a
 13643 3332 4C330000 		.4byte	0x334c
 13644 3336 30       		.uleb128 0x30
 13645 3337 01       		.uleb128 0x1
 13646 3338 51       		.byte	0x51
 13647 3339 03       		.uleb128 0x3
 13648 333a 91       		.byte	0x91
 13649 333b 8471     		.sleb128 -1916
 13650 333d 30       		.uleb128 0x30
 13651 333e 02       		.uleb128 0x2
 13652 333f 90       		.byte	0x90
 13653 3340 40       		.uleb128 0x40
 13654 3341 03       		.uleb128 0x3
 13655 3342 F5       		.byte	0xf5
 13656 3343 51       		.uleb128 0x51
 13657 3344 25       		.uleb128 0x25
 13658 3345 30       		.uleb128 0x30
ARM GAS  /tmp/cc0XcXNK.s 			page 241


 13659 3346 01       		.uleb128 0x1
 13660 3347 50       		.byte	0x50
 13661 3348 02       		.uleb128 0x2
 13662 3349 74       		.byte	0x74
 13663 334a 00       		.sleb128 0
 13664 334b 00       		.byte	0
 13665 334c 31       		.uleb128 0x31
 13666 334d 08110000 		.4byte	.LVL257
 13667 3351 0A4E0000 		.4byte	0x4e0a
 13668 3355 6F330000 		.4byte	0x336f
 13669 3359 30       		.uleb128 0x30
 13670 335a 01       		.uleb128 0x1
 13671 335b 51       		.byte	0x51
 13672 335c 03       		.uleb128 0x3
 13673 335d 91       		.byte	0x91
 13674 335e 8471     		.sleb128 -1916
 13675 3360 30       		.uleb128 0x30
 13676 3361 02       		.uleb128 0x2
 13677 3362 90       		.byte	0x90
 13678 3363 40       		.uleb128 0x40
 13679 3364 03       		.uleb128 0x3
 13680 3365 F5       		.byte	0xf5
 13681 3366 51       		.uleb128 0x51
 13682 3367 25       		.uleb128 0x25
 13683 3368 30       		.uleb128 0x30
 13684 3369 01       		.uleb128 0x1
 13685 336a 50       		.byte	0x50
 13686 336b 02       		.uleb128 0x2
 13687 336c 74       		.byte	0x74
 13688 336d 00       		.sleb128 0
 13689 336e 00       		.byte	0
 13690 336f 31       		.uleb128 0x31
 13691 3370 24110000 		.4byte	.LVL258
 13692 3374 6A500000 		.4byte	0x506a
 13693 3378 8A330000 		.4byte	0x338a
 13694 337c 30       		.uleb128 0x30
 13695 337d 01       		.uleb128 0x1
 13696 337e 51       		.byte	0x51
 13697 337f 03       		.uleb128 0x3
 13698 3380 91       		.byte	0x91
 13699 3381 8471     		.sleb128 -1916
 13700 3383 30       		.uleb128 0x30
 13701 3384 01       		.uleb128 0x1
 13702 3385 50       		.byte	0x50
 13703 3386 02       		.uleb128 0x2
 13704 3387 74       		.byte	0x74
 13705 3388 00       		.sleb128 0
 13706 3389 00       		.byte	0
 13707 338a 31       		.uleb128 0x31
 13708 338b 3C110000 		.4byte	.LVL259
 13709 338f 6A500000 		.4byte	0x506a
 13710 3393 A5330000 		.4byte	0x33a5
 13711 3397 30       		.uleb128 0x30
 13712 3398 01       		.uleb128 0x1
 13713 3399 51       		.byte	0x51
 13714 339a 03       		.uleb128 0x3
 13715 339b 91       		.byte	0x91
ARM GAS  /tmp/cc0XcXNK.s 			page 242


 13716 339c 8471     		.sleb128 -1916
 13717 339e 30       		.uleb128 0x30
 13718 339f 01       		.uleb128 0x1
 13719 33a0 50       		.byte	0x50
 13720 33a1 02       		.uleb128 0x2
 13721 33a2 74       		.byte	0x74
 13722 33a3 00       		.sleb128 0
 13723 33a4 00       		.byte	0
 13724 33a5 31       		.uleb128 0x31
 13725 33a6 54110000 		.4byte	.LVL260
 13726 33aa 6A500000 		.4byte	0x506a
 13727 33ae C0330000 		.4byte	0x33c0
 13728 33b2 30       		.uleb128 0x30
 13729 33b3 01       		.uleb128 0x1
 13730 33b4 51       		.byte	0x51
 13731 33b5 03       		.uleb128 0x3
 13732 33b6 91       		.byte	0x91
 13733 33b7 8471     		.sleb128 -1916
 13734 33b9 30       		.uleb128 0x30
 13735 33ba 01       		.uleb128 0x1
 13736 33bb 50       		.byte	0x50
 13737 33bc 02       		.uleb128 0x2
 13738 33bd 74       		.byte	0x74
 13739 33be 00       		.sleb128 0
 13740 33bf 00       		.byte	0
 13741 33c0 31       		.uleb128 0x31
 13742 33c1 6C110000 		.4byte	.LVL261
 13743 33c5 6A500000 		.4byte	0x506a
 13744 33c9 DB330000 		.4byte	0x33db
 13745 33cd 30       		.uleb128 0x30
 13746 33ce 01       		.uleb128 0x1
 13747 33cf 51       		.byte	0x51
 13748 33d0 03       		.uleb128 0x3
 13749 33d1 91       		.byte	0x91
 13750 33d2 8471     		.sleb128 -1916
 13751 33d4 30       		.uleb128 0x30
 13752 33d5 01       		.uleb128 0x1
 13753 33d6 50       		.byte	0x50
 13754 33d7 02       		.uleb128 0x2
 13755 33d8 74       		.byte	0x74
 13756 33d9 00       		.sleb128 0
 13757 33da 00       		.byte	0
 13758 33db 31       		.uleb128 0x31
 13759 33dc 84110000 		.4byte	.LVL262
 13760 33e0 6A500000 		.4byte	0x506a
 13761 33e4 F6330000 		.4byte	0x33f6
 13762 33e8 30       		.uleb128 0x30
 13763 33e9 01       		.uleb128 0x1
 13764 33ea 51       		.byte	0x51
 13765 33eb 03       		.uleb128 0x3
 13766 33ec 91       		.byte	0x91
 13767 33ed 8471     		.sleb128 -1916
 13768 33ef 30       		.uleb128 0x30
 13769 33f0 01       		.uleb128 0x1
 13770 33f1 50       		.byte	0x50
 13771 33f2 02       		.uleb128 0x2
 13772 33f3 74       		.byte	0x74
ARM GAS  /tmp/cc0XcXNK.s 			page 243


 13773 33f4 00       		.sleb128 0
 13774 33f5 00       		.byte	0
 13775 33f6 31       		.uleb128 0x31
 13776 33f7 9C110000 		.4byte	.LVL263
 13777 33fb 6A500000 		.4byte	0x506a
 13778 33ff 11340000 		.4byte	0x3411
 13779 3403 30       		.uleb128 0x30
 13780 3404 01       		.uleb128 0x1
 13781 3405 51       		.byte	0x51
 13782 3406 03       		.uleb128 0x3
 13783 3407 91       		.byte	0x91
 13784 3408 8471     		.sleb128 -1916
 13785 340a 30       		.uleb128 0x30
 13786 340b 01       		.uleb128 0x1
 13787 340c 50       		.byte	0x50
 13788 340d 02       		.uleb128 0x2
 13789 340e 74       		.byte	0x74
 13790 340f 00       		.sleb128 0
 13791 3410 00       		.byte	0
 13792 3411 31       		.uleb128 0x31
 13793 3412 B4110000 		.4byte	.LVL264
 13794 3416 6A500000 		.4byte	0x506a
 13795 341a 2C340000 		.4byte	0x342c
 13796 341e 30       		.uleb128 0x30
 13797 341f 01       		.uleb128 0x1
 13798 3420 51       		.byte	0x51
 13799 3421 03       		.uleb128 0x3
 13800 3422 91       		.byte	0x91
 13801 3423 8471     		.sleb128 -1916
 13802 3425 30       		.uleb128 0x30
 13803 3426 01       		.uleb128 0x1
 13804 3427 50       		.byte	0x50
 13805 3428 02       		.uleb128 0x2
 13806 3429 74       		.byte	0x74
 13807 342a 00       		.sleb128 0
 13808 342b 00       		.byte	0
 13809 342c 31       		.uleb128 0x31
 13810 342d DE110000 		.4byte	.LVL265
 13811 3431 6A500000 		.4byte	0x506a
 13812 3435 47340000 		.4byte	0x3447
 13813 3439 30       		.uleb128 0x30
 13814 343a 01       		.uleb128 0x1
 13815 343b 51       		.byte	0x51
 13816 343c 03       		.uleb128 0x3
 13817 343d 91       		.byte	0x91
 13818 343e 8471     		.sleb128 -1916
 13819 3440 30       		.uleb128 0x30
 13820 3441 01       		.uleb128 0x1
 13821 3442 50       		.byte	0x50
 13822 3443 02       		.uleb128 0x2
 13823 3444 74       		.byte	0x74
 13824 3445 00       		.sleb128 0
 13825 3446 00       		.byte	0
 13826 3447 31       		.uleb128 0x31
 13827 3448 FA110000 		.4byte	.LVL266
 13828 344c 0A4E0000 		.4byte	0x4e0a
 13829 3450 6A340000 		.4byte	0x346a
ARM GAS  /tmp/cc0XcXNK.s 			page 244


 13830 3454 30       		.uleb128 0x30
 13831 3455 01       		.uleb128 0x1
 13832 3456 51       		.byte	0x51
 13833 3457 03       		.uleb128 0x3
 13834 3458 91       		.byte	0x91
 13835 3459 8471     		.sleb128 -1916
 13836 345b 30       		.uleb128 0x30
 13837 345c 02       		.uleb128 0x2
 13838 345d 90       		.byte	0x90
 13839 345e 40       		.uleb128 0x40
 13840 345f 03       		.uleb128 0x3
 13841 3460 F5       		.byte	0xf5
 13842 3461 52       		.uleb128 0x52
 13843 3462 25       		.uleb128 0x25
 13844 3463 30       		.uleb128 0x30
 13845 3464 01       		.uleb128 0x1
 13846 3465 50       		.byte	0x50
 13847 3466 02       		.uleb128 0x2
 13848 3467 74       		.byte	0x74
 13849 3468 00       		.sleb128 0
 13850 3469 00       		.byte	0
 13851 346a 31       		.uleb128 0x31
 13852 346b 0A120000 		.4byte	.LVL267
 13853 346f 0A4E0000 		.4byte	0x4e0a
 13854 3473 8D340000 		.4byte	0x348d
 13855 3477 30       		.uleb128 0x30
 13856 3478 01       		.uleb128 0x1
 13857 3479 51       		.byte	0x51
 13858 347a 03       		.uleb128 0x3
 13859 347b 91       		.byte	0x91
 13860 347c 8471     		.sleb128 -1916
 13861 347e 30       		.uleb128 0x30
 13862 347f 02       		.uleb128 0x2
 13863 3480 90       		.byte	0x90
 13864 3481 40       		.uleb128 0x40
 13865 3482 03       		.uleb128 0x3
 13866 3483 F5       		.byte	0xf5
 13867 3484 52       		.uleb128 0x52
 13868 3485 25       		.uleb128 0x25
 13869 3486 30       		.uleb128 0x30
 13870 3487 01       		.uleb128 0x1
 13871 3488 50       		.byte	0x50
 13872 3489 02       		.uleb128 0x2
 13873 348a 74       		.byte	0x74
 13874 348b 00       		.sleb128 0
 13875 348c 00       		.byte	0
 13876 348d 31       		.uleb128 0x31
 13877 348e 1A120000 		.4byte	.LVL268
 13878 3492 0A4E0000 		.4byte	0x4e0a
 13879 3496 B0340000 		.4byte	0x34b0
 13880 349a 30       		.uleb128 0x30
 13881 349b 01       		.uleb128 0x1
 13882 349c 51       		.byte	0x51
 13883 349d 03       		.uleb128 0x3
 13884 349e 91       		.byte	0x91
 13885 349f 8471     		.sleb128 -1916
 13886 34a1 30       		.uleb128 0x30
ARM GAS  /tmp/cc0XcXNK.s 			page 245


 13887 34a2 02       		.uleb128 0x2
 13888 34a3 90       		.byte	0x90
 13889 34a4 40       		.uleb128 0x40
 13890 34a5 03       		.uleb128 0x3
 13891 34a6 F5       		.byte	0xf5
 13892 34a7 50       		.uleb128 0x50
 13893 34a8 25       		.uleb128 0x25
 13894 34a9 30       		.uleb128 0x30
 13895 34aa 01       		.uleb128 0x1
 13896 34ab 50       		.byte	0x50
 13897 34ac 02       		.uleb128 0x2
 13898 34ad 74       		.byte	0x74
 13899 34ae 00       		.sleb128 0
 13900 34af 00       		.byte	0
 13901 34b0 31       		.uleb128 0x31
 13902 34b1 2A120000 		.4byte	.LVL269
 13903 34b5 0A4E0000 		.4byte	0x4e0a
 13904 34b9 D3340000 		.4byte	0x34d3
 13905 34bd 30       		.uleb128 0x30
 13906 34be 01       		.uleb128 0x1
 13907 34bf 51       		.byte	0x51
 13908 34c0 03       		.uleb128 0x3
 13909 34c1 91       		.byte	0x91
 13910 34c2 8471     		.sleb128 -1916
 13911 34c4 30       		.uleb128 0x30
 13912 34c5 02       		.uleb128 0x2
 13913 34c6 90       		.byte	0x90
 13914 34c7 40       		.uleb128 0x40
 13915 34c8 03       		.uleb128 0x3
 13916 34c9 F5       		.byte	0xf5
 13917 34ca 51       		.uleb128 0x51
 13918 34cb 25       		.uleb128 0x25
 13919 34cc 30       		.uleb128 0x30
 13920 34cd 01       		.uleb128 0x1
 13921 34ce 50       		.byte	0x50
 13922 34cf 02       		.uleb128 0x2
 13923 34d0 74       		.byte	0x74
 13924 34d1 00       		.sleb128 0
 13925 34d2 00       		.byte	0
 13926 34d3 31       		.uleb128 0x31
 13927 34d4 4C120000 		.4byte	.LVL270
 13928 34d8 0A4E0000 		.4byte	0x4e0a
 13929 34dc F6340000 		.4byte	0x34f6
 13930 34e0 30       		.uleb128 0x30
 13931 34e1 01       		.uleb128 0x1
 13932 34e2 51       		.byte	0x51
 13933 34e3 03       		.uleb128 0x3
 13934 34e4 91       		.byte	0x91
 13935 34e5 8471     		.sleb128 -1916
 13936 34e7 30       		.uleb128 0x30
 13937 34e8 02       		.uleb128 0x2
 13938 34e9 90       		.byte	0x90
 13939 34ea 40       		.uleb128 0x40
 13940 34eb 03       		.uleb128 0x3
 13941 34ec F5       		.byte	0xf5
 13942 34ed 50       		.uleb128 0x50
 13943 34ee 25       		.uleb128 0x25
ARM GAS  /tmp/cc0XcXNK.s 			page 246


 13944 34ef 30       		.uleb128 0x30
 13945 34f0 01       		.uleb128 0x1
 13946 34f1 50       		.byte	0x50
 13947 34f2 02       		.uleb128 0x2
 13948 34f3 74       		.byte	0x74
 13949 34f4 00       		.sleb128 0
 13950 34f5 00       		.byte	0
 13951 34f6 31       		.uleb128 0x31
 13952 34f7 5C120000 		.4byte	.LVL271
 13953 34fb 0A4E0000 		.4byte	0x4e0a
 13954 34ff 19350000 		.4byte	0x3519
 13955 3503 30       		.uleb128 0x30
 13956 3504 01       		.uleb128 0x1
 13957 3505 51       		.byte	0x51
 13958 3506 03       		.uleb128 0x3
 13959 3507 91       		.byte	0x91
 13960 3508 8471     		.sleb128 -1916
 13961 350a 30       		.uleb128 0x30
 13962 350b 02       		.uleb128 0x2
 13963 350c 90       		.byte	0x90
 13964 350d 40       		.uleb128 0x40
 13965 350e 03       		.uleb128 0x3
 13966 350f F5       		.byte	0xf5
 13967 3510 50       		.uleb128 0x50
 13968 3511 25       		.uleb128 0x25
 13969 3512 30       		.uleb128 0x30
 13970 3513 01       		.uleb128 0x1
 13971 3514 50       		.byte	0x50
 13972 3515 02       		.uleb128 0x2
 13973 3516 74       		.byte	0x74
 13974 3517 00       		.sleb128 0
 13975 3518 00       		.byte	0
 13976 3519 31       		.uleb128 0x31
 13977 351a 78120000 		.4byte	.LVL272
 13978 351e 0A4E0000 		.4byte	0x4e0a
 13979 3522 3C350000 		.4byte	0x353c
 13980 3526 30       		.uleb128 0x30
 13981 3527 01       		.uleb128 0x1
 13982 3528 51       		.byte	0x51
 13983 3529 03       		.uleb128 0x3
 13984 352a 91       		.byte	0x91
 13985 352b 8471     		.sleb128 -1916
 13986 352d 30       		.uleb128 0x30
 13987 352e 02       		.uleb128 0x2
 13988 352f 90       		.byte	0x90
 13989 3530 40       		.uleb128 0x40
 13990 3531 03       		.uleb128 0x3
 13991 3532 F5       		.byte	0xf5
 13992 3533 50       		.uleb128 0x50
 13993 3534 25       		.uleb128 0x25
 13994 3535 30       		.uleb128 0x30
 13995 3536 01       		.uleb128 0x1
 13996 3537 50       		.byte	0x50
 13997 3538 02       		.uleb128 0x2
 13998 3539 74       		.byte	0x74
 13999 353a 00       		.sleb128 0
 14000 353b 00       		.byte	0
ARM GAS  /tmp/cc0XcXNK.s 			page 247


 14001 353c 31       		.uleb128 0x31
 14002 353d 88120000 		.4byte	.LVL273
 14003 3541 0A4E0000 		.4byte	0x4e0a
 14004 3545 5F350000 		.4byte	0x355f
 14005 3549 30       		.uleb128 0x30
 14006 354a 01       		.uleb128 0x1
 14007 354b 51       		.byte	0x51
 14008 354c 03       		.uleb128 0x3
 14009 354d 91       		.byte	0x91
 14010 354e 8471     		.sleb128 -1916
 14011 3550 30       		.uleb128 0x30
 14012 3551 02       		.uleb128 0x2
 14013 3552 90       		.byte	0x90
 14014 3553 40       		.uleb128 0x40
 14015 3554 03       		.uleb128 0x3
 14016 3555 F5       		.byte	0xf5
 14017 3556 50       		.uleb128 0x50
 14018 3557 25       		.uleb128 0x25
 14019 3558 30       		.uleb128 0x30
 14020 3559 01       		.uleb128 0x1
 14021 355a 50       		.byte	0x50
 14022 355b 02       		.uleb128 0x2
 14023 355c 74       		.byte	0x74
 14024 355d 00       		.sleb128 0
 14025 355e 00       		.byte	0
 14026 355f 31       		.uleb128 0x31
 14027 3560 98120000 		.4byte	.LVL274
 14028 3564 0A4E0000 		.4byte	0x4e0a
 14029 3568 86350000 		.4byte	0x3586
 14030 356c 30       		.uleb128 0x30
 14031 356d 01       		.uleb128 0x1
 14032 356e 51       		.byte	0x51
 14033 356f 03       		.uleb128 0x3
 14034 3570 91       		.byte	0x91
 14035 3571 8471     		.sleb128 -1916
 14036 3573 30       		.uleb128 0x30
 14037 3574 02       		.uleb128 0x2
 14038 3575 90       		.byte	0x90
 14039 3576 40       		.uleb128 0x40
 14040 3577 07       		.uleb128 0x7
 14041 3578 F4       		.byte	0xf4
 14042 3579 25       		.uleb128 0x25
 14043 357a 04       		.byte	0x4
 14044 357b 20BCBE4C 		.4byte	0x4cbebc20
 14045 357f 30       		.uleb128 0x30
 14046 3580 01       		.uleb128 0x1
 14047 3581 50       		.byte	0x50
 14048 3582 02       		.uleb128 0x2
 14049 3583 74       		.byte	0x74
 14050 3584 00       		.sleb128 0
 14051 3585 00       		.byte	0
 14052 3586 31       		.uleb128 0x31
 14053 3587 A8120000 		.4byte	.LVL275
 14054 358b 0A4E0000 		.4byte	0x4e0a
 14055 358f A9350000 		.4byte	0x35a9
 14056 3593 30       		.uleb128 0x30
 14057 3594 01       		.uleb128 0x1
ARM GAS  /tmp/cc0XcXNK.s 			page 248


 14058 3595 51       		.byte	0x51
 14059 3596 03       		.uleb128 0x3
 14060 3597 91       		.byte	0x91
 14061 3598 8471     		.sleb128 -1916
 14062 359a 30       		.uleb128 0x30
 14063 359b 02       		.uleb128 0x2
 14064 359c 90       		.byte	0x90
 14065 359d 40       		.uleb128 0x40
 14066 359e 03       		.uleb128 0x3
 14067 359f F5       		.byte	0xf5
 14068 35a0 52       		.uleb128 0x52
 14069 35a1 25       		.uleb128 0x25
 14070 35a2 30       		.uleb128 0x30
 14071 35a3 01       		.uleb128 0x1
 14072 35a4 50       		.byte	0x50
 14073 35a5 02       		.uleb128 0x2
 14074 35a6 74       		.byte	0x74
 14075 35a7 00       		.sleb128 0
 14076 35a8 00       		.byte	0
 14077 35a9 31       		.uleb128 0x31
 14078 35aa B8120000 		.4byte	.LVL276
 14079 35ae 0A4E0000 		.4byte	0x4e0a
 14080 35b2 CC350000 		.4byte	0x35cc
 14081 35b6 30       		.uleb128 0x30
 14082 35b7 01       		.uleb128 0x1
 14083 35b8 51       		.byte	0x51
 14084 35b9 03       		.uleb128 0x3
 14085 35ba 91       		.byte	0x91
 14086 35bb 8471     		.sleb128 -1916
 14087 35bd 30       		.uleb128 0x30
 14088 35be 02       		.uleb128 0x2
 14089 35bf 90       		.byte	0x90
 14090 35c0 40       		.uleb128 0x40
 14091 35c1 03       		.uleb128 0x3
 14092 35c2 F5       		.byte	0xf5
 14093 35c3 52       		.uleb128 0x52
 14094 35c4 25       		.uleb128 0x25
 14095 35c5 30       		.uleb128 0x30
 14096 35c6 01       		.uleb128 0x1
 14097 35c7 50       		.byte	0x50
 14098 35c8 02       		.uleb128 0x2
 14099 35c9 74       		.byte	0x74
 14100 35ca 00       		.sleb128 0
 14101 35cb 00       		.byte	0
 14102 35cc 31       		.uleb128 0x31
 14103 35cd C8120000 		.4byte	.LVL277
 14104 35d1 0A4E0000 		.4byte	0x4e0a
 14105 35d5 F3350000 		.4byte	0x35f3
 14106 35d9 30       		.uleb128 0x30
 14107 35da 01       		.uleb128 0x1
 14108 35db 51       		.byte	0x51
 14109 35dc 03       		.uleb128 0x3
 14110 35dd 91       		.byte	0x91
 14111 35de 8471     		.sleb128 -1916
 14112 35e0 30       		.uleb128 0x30
 14113 35e1 02       		.uleb128 0x2
 14114 35e2 90       		.byte	0x90
ARM GAS  /tmp/cc0XcXNK.s 			page 249


 14115 35e3 40       		.uleb128 0x40
 14116 35e4 07       		.uleb128 0x7
 14117 35e5 F4       		.byte	0xf4
 14118 35e6 25       		.uleb128 0x25
 14119 35e7 04       		.byte	0x4
 14120 35e8 0000803F 		.4byte	0x3f800000
 14121 35ec 30       		.uleb128 0x30
 14122 35ed 01       		.uleb128 0x1
 14123 35ee 50       		.byte	0x50
 14124 35ef 02       		.uleb128 0x2
 14125 35f0 74       		.byte	0x74
 14126 35f1 00       		.sleb128 0
 14127 35f2 00       		.byte	0
 14128 35f3 31       		.uleb128 0x31
 14129 35f4 D8120000 		.4byte	.LVL278
 14130 35f8 0A4E0000 		.4byte	0x4e0a
 14131 35fc 16360000 		.4byte	0x3616
 14132 3600 30       		.uleb128 0x30
 14133 3601 01       		.uleb128 0x1
 14134 3602 51       		.byte	0x51
 14135 3603 03       		.uleb128 0x3
 14136 3604 91       		.byte	0x91
 14137 3605 8471     		.sleb128 -1916
 14138 3607 30       		.uleb128 0x30
 14139 3608 02       		.uleb128 0x2
 14140 3609 90       		.byte	0x90
 14141 360a 40       		.uleb128 0x40
 14142 360b 03       		.uleb128 0x3
 14143 360c F5       		.byte	0xf5
 14144 360d 50       		.uleb128 0x50
 14145 360e 25       		.uleb128 0x25
 14146 360f 30       		.uleb128 0x30
 14147 3610 01       		.uleb128 0x1
 14148 3611 50       		.byte	0x50
 14149 3612 02       		.uleb128 0x2
 14150 3613 74       		.byte	0x74
 14151 3614 00       		.sleb128 0
 14152 3615 00       		.byte	0
 14153 3616 31       		.uleb128 0x31
 14154 3617 E8120000 		.4byte	.LVL279
 14155 361b 0A4E0000 		.4byte	0x4e0a
 14156 361f 39360000 		.4byte	0x3639
 14157 3623 30       		.uleb128 0x30
 14158 3624 01       		.uleb128 0x1
 14159 3625 51       		.byte	0x51
 14160 3626 03       		.uleb128 0x3
 14161 3627 91       		.byte	0x91
 14162 3628 8471     		.sleb128 -1916
 14163 362a 30       		.uleb128 0x30
 14164 362b 02       		.uleb128 0x2
 14165 362c 90       		.byte	0x90
 14166 362d 40       		.uleb128 0x40
 14167 362e 03       		.uleb128 0x3
 14168 362f F5       		.byte	0xf5
 14169 3630 50       		.uleb128 0x50
 14170 3631 25       		.uleb128 0x25
 14171 3632 30       		.uleb128 0x30
ARM GAS  /tmp/cc0XcXNK.s 			page 250


 14172 3633 01       		.uleb128 0x1
 14173 3634 50       		.byte	0x50
 14174 3635 02       		.uleb128 0x2
 14175 3636 74       		.byte	0x74
 14176 3637 00       		.sleb128 0
 14177 3638 00       		.byte	0
 14178 3639 31       		.uleb128 0x31
 14179 363a 0E130000 		.4byte	.LVL280
 14180 363e 0A4E0000 		.4byte	0x4e0a
 14181 3642 5C360000 		.4byte	0x365c
 14182 3646 30       		.uleb128 0x30
 14183 3647 01       		.uleb128 0x1
 14184 3648 51       		.byte	0x51
 14185 3649 03       		.uleb128 0x3
 14186 364a 91       		.byte	0x91
 14187 364b 8471     		.sleb128 -1916
 14188 364d 30       		.uleb128 0x30
 14189 364e 02       		.uleb128 0x2
 14190 364f 90       		.byte	0x90
 14191 3650 40       		.uleb128 0x40
 14192 3651 03       		.uleb128 0x3
 14193 3652 F5       		.byte	0xf5
 14194 3653 50       		.uleb128 0x50
 14195 3654 25       		.uleb128 0x25
 14196 3655 30       		.uleb128 0x30
 14197 3656 01       		.uleb128 0x1
 14198 3657 50       		.byte	0x50
 14199 3658 02       		.uleb128 0x2
 14200 3659 74       		.byte	0x74
 14201 365a 00       		.sleb128 0
 14202 365b 00       		.byte	0
 14203 365c 31       		.uleb128 0x31
 14204 365d 1E130000 		.4byte	.LVL281
 14205 3661 0A4E0000 		.4byte	0x4e0a
 14206 3665 7F360000 		.4byte	0x367f
 14207 3669 30       		.uleb128 0x30
 14208 366a 01       		.uleb128 0x1
 14209 366b 51       		.byte	0x51
 14210 366c 03       		.uleb128 0x3
 14211 366d 91       		.byte	0x91
 14212 366e 8471     		.sleb128 -1916
 14213 3670 30       		.uleb128 0x30
 14214 3671 02       		.uleb128 0x2
 14215 3672 90       		.byte	0x90
 14216 3673 40       		.uleb128 0x40
 14217 3674 03       		.uleb128 0x3
 14218 3675 F5       		.byte	0xf5
 14219 3676 50       		.uleb128 0x50
 14220 3677 25       		.uleb128 0x25
 14221 3678 30       		.uleb128 0x30
 14222 3679 01       		.uleb128 0x1
 14223 367a 50       		.byte	0x50
 14224 367b 02       		.uleb128 0x2
 14225 367c 74       		.byte	0x74
 14226 367d 00       		.sleb128 0
 14227 367e 00       		.byte	0
 14228 367f 31       		.uleb128 0x31
ARM GAS  /tmp/cc0XcXNK.s 			page 251


 14229 3680 2E130000 		.4byte	.LVL282
 14230 3684 0A4E0000 		.4byte	0x4e0a
 14231 3688 A2360000 		.4byte	0x36a2
 14232 368c 30       		.uleb128 0x30
 14233 368d 01       		.uleb128 0x1
 14234 368e 51       		.byte	0x51
 14235 368f 03       		.uleb128 0x3
 14236 3690 91       		.byte	0x91
 14237 3691 8471     		.sleb128 -1916
 14238 3693 30       		.uleb128 0x30
 14239 3694 02       		.uleb128 0x2
 14240 3695 90       		.byte	0x90
 14241 3696 40       		.uleb128 0x40
 14242 3697 03       		.uleb128 0x3
 14243 3698 F5       		.byte	0xf5
 14244 3699 50       		.uleb128 0x50
 14245 369a 25       		.uleb128 0x25
 14246 369b 30       		.uleb128 0x30
 14247 369c 01       		.uleb128 0x1
 14248 369d 50       		.byte	0x50
 14249 369e 02       		.uleb128 0x2
 14250 369f 74       		.byte	0x74
 14251 36a0 00       		.sleb128 0
 14252 36a1 00       		.byte	0
 14253 36a2 31       		.uleb128 0x31
 14254 36a3 3E130000 		.4byte	.LVL283
 14255 36a7 0A4E0000 		.4byte	0x4e0a
 14256 36ab C5360000 		.4byte	0x36c5
 14257 36af 30       		.uleb128 0x30
 14258 36b0 01       		.uleb128 0x1
 14259 36b1 51       		.byte	0x51
 14260 36b2 03       		.uleb128 0x3
 14261 36b3 91       		.byte	0x91
 14262 36b4 8471     		.sleb128 -1916
 14263 36b6 30       		.uleb128 0x30
 14264 36b7 02       		.uleb128 0x2
 14265 36b8 90       		.byte	0x90
 14266 36b9 40       		.uleb128 0x40
 14267 36ba 03       		.uleb128 0x3
 14268 36bb F5       		.byte	0xf5
 14269 36bc 50       		.uleb128 0x50
 14270 36bd 25       		.uleb128 0x25
 14271 36be 30       		.uleb128 0x30
 14272 36bf 01       		.uleb128 0x1
 14273 36c0 50       		.byte	0x50
 14274 36c1 02       		.uleb128 0x2
 14275 36c2 74       		.byte	0x74
 14276 36c3 00       		.sleb128 0
 14277 36c4 00       		.byte	0
 14278 36c5 31       		.uleb128 0x31
 14279 36c6 4E130000 		.4byte	.LVL284
 14280 36ca 0A4E0000 		.4byte	0x4e0a
 14281 36ce E8360000 		.4byte	0x36e8
 14282 36d2 30       		.uleb128 0x30
 14283 36d3 01       		.uleb128 0x1
 14284 36d4 51       		.byte	0x51
 14285 36d5 03       		.uleb128 0x3
ARM GAS  /tmp/cc0XcXNK.s 			page 252


 14286 36d6 91       		.byte	0x91
 14287 36d7 8471     		.sleb128 -1916
 14288 36d9 30       		.uleb128 0x30
 14289 36da 02       		.uleb128 0x2
 14290 36db 90       		.byte	0x90
 14291 36dc 40       		.uleb128 0x40
 14292 36dd 03       		.uleb128 0x3
 14293 36de F5       		.byte	0xf5
 14294 36df 50       		.uleb128 0x50
 14295 36e0 25       		.uleb128 0x25
 14296 36e1 30       		.uleb128 0x30
 14297 36e2 01       		.uleb128 0x1
 14298 36e3 50       		.byte	0x50
 14299 36e4 02       		.uleb128 0x2
 14300 36e5 74       		.byte	0x74
 14301 36e6 00       		.sleb128 0
 14302 36e7 00       		.byte	0
 14303 36e8 31       		.uleb128 0x31
 14304 36e9 6E130000 		.4byte	.LVL285
 14305 36ed 6A500000 		.4byte	0x506a
 14306 36f1 03370000 		.4byte	0x3703
 14307 36f5 30       		.uleb128 0x30
 14308 36f6 01       		.uleb128 0x1
 14309 36f7 51       		.byte	0x51
 14310 36f8 03       		.uleb128 0x3
 14311 36f9 91       		.byte	0x91
 14312 36fa 8471     		.sleb128 -1916
 14313 36fc 30       		.uleb128 0x30
 14314 36fd 01       		.uleb128 0x1
 14315 36fe 50       		.byte	0x50
 14316 36ff 02       		.uleb128 0x2
 14317 3700 74       		.byte	0x74
 14318 3701 00       		.sleb128 0
 14319 3702 00       		.byte	0
 14320 3703 31       		.uleb128 0x31
 14321 3704 86130000 		.4byte	.LVL286
 14322 3708 6A500000 		.4byte	0x506a
 14323 370c 1E370000 		.4byte	0x371e
 14324 3710 30       		.uleb128 0x30
 14325 3711 01       		.uleb128 0x1
 14326 3712 51       		.byte	0x51
 14327 3713 03       		.uleb128 0x3
 14328 3714 91       		.byte	0x91
 14329 3715 8471     		.sleb128 -1916
 14330 3717 30       		.uleb128 0x30
 14331 3718 01       		.uleb128 0x1
 14332 3719 50       		.byte	0x50
 14333 371a 02       		.uleb128 0x2
 14334 371b 74       		.byte	0x74
 14335 371c 00       		.sleb128 0
 14336 371d 00       		.byte	0
 14337 371e 31       		.uleb128 0x31
 14338 371f 9E130000 		.4byte	.LVL287
 14339 3723 6A500000 		.4byte	0x506a
 14340 3727 39370000 		.4byte	0x3739
 14341 372b 30       		.uleb128 0x30
 14342 372c 01       		.uleb128 0x1
ARM GAS  /tmp/cc0XcXNK.s 			page 253


 14343 372d 51       		.byte	0x51
 14344 372e 03       		.uleb128 0x3
 14345 372f 91       		.byte	0x91
 14346 3730 8471     		.sleb128 -1916
 14347 3732 30       		.uleb128 0x30
 14348 3733 01       		.uleb128 0x1
 14349 3734 50       		.byte	0x50
 14350 3735 02       		.uleb128 0x2
 14351 3736 74       		.byte	0x74
 14352 3737 00       		.sleb128 0
 14353 3738 00       		.byte	0
 14354 3739 31       		.uleb128 0x31
 14355 373a B6130000 		.4byte	.LVL288
 14356 373e 6A500000 		.4byte	0x506a
 14357 3742 54370000 		.4byte	0x3754
 14358 3746 30       		.uleb128 0x30
 14359 3747 01       		.uleb128 0x1
 14360 3748 51       		.byte	0x51
 14361 3749 03       		.uleb128 0x3
 14362 374a 91       		.byte	0x91
 14363 374b 8471     		.sleb128 -1916
 14364 374d 30       		.uleb128 0x30
 14365 374e 01       		.uleb128 0x1
 14366 374f 50       		.byte	0x50
 14367 3750 02       		.uleb128 0x2
 14368 3751 74       		.byte	0x74
 14369 3752 00       		.sleb128 0
 14370 3753 00       		.byte	0
 14371 3754 31       		.uleb128 0x31
 14372 3755 CE130000 		.4byte	.LVL289
 14373 3759 6A500000 		.4byte	0x506a
 14374 375d 6F370000 		.4byte	0x376f
 14375 3761 30       		.uleb128 0x30
 14376 3762 01       		.uleb128 0x1
 14377 3763 51       		.byte	0x51
 14378 3764 03       		.uleb128 0x3
 14379 3765 91       		.byte	0x91
 14380 3766 8471     		.sleb128 -1916
 14381 3768 30       		.uleb128 0x30
 14382 3769 01       		.uleb128 0x1
 14383 376a 50       		.byte	0x50
 14384 376b 02       		.uleb128 0x2
 14385 376c 74       		.byte	0x74
 14386 376d 00       		.sleb128 0
 14387 376e 00       		.byte	0
 14388 376f 31       		.uleb128 0x31
 14389 3770 E6130000 		.4byte	.LVL290
 14390 3774 6A500000 		.4byte	0x506a
 14391 3778 8A370000 		.4byte	0x378a
 14392 377c 30       		.uleb128 0x30
 14393 377d 01       		.uleb128 0x1
 14394 377e 51       		.byte	0x51
 14395 377f 03       		.uleb128 0x3
 14396 3780 91       		.byte	0x91
 14397 3781 8471     		.sleb128 -1916
 14398 3783 30       		.uleb128 0x30
 14399 3784 01       		.uleb128 0x1
ARM GAS  /tmp/cc0XcXNK.s 			page 254


 14400 3785 50       		.byte	0x50
 14401 3786 02       		.uleb128 0x2
 14402 3787 74       		.byte	0x74
 14403 3788 00       		.sleb128 0
 14404 3789 00       		.byte	0
 14405 378a 31       		.uleb128 0x31
 14406 378b FE130000 		.4byte	.LVL291
 14407 378f 6A500000 		.4byte	0x506a
 14408 3793 A5370000 		.4byte	0x37a5
 14409 3797 30       		.uleb128 0x30
 14410 3798 01       		.uleb128 0x1
 14411 3799 51       		.byte	0x51
 14412 379a 03       		.uleb128 0x3
 14413 379b 91       		.byte	0x91
 14414 379c 8471     		.sleb128 -1916
 14415 379e 30       		.uleb128 0x30
 14416 379f 01       		.uleb128 0x1
 14417 37a0 50       		.byte	0x50
 14418 37a1 02       		.uleb128 0x2
 14419 37a2 74       		.byte	0x74
 14420 37a3 00       		.sleb128 0
 14421 37a4 00       		.byte	0
 14422 37a5 31       		.uleb128 0x31
 14423 37a6 16140000 		.4byte	.LVL292
 14424 37aa 6A500000 		.4byte	0x506a
 14425 37ae C0370000 		.4byte	0x37c0
 14426 37b2 30       		.uleb128 0x30
 14427 37b3 01       		.uleb128 0x1
 14428 37b4 51       		.byte	0x51
 14429 37b5 03       		.uleb128 0x3
 14430 37b6 91       		.byte	0x91
 14431 37b7 8471     		.sleb128 -1916
 14432 37b9 30       		.uleb128 0x30
 14433 37ba 01       		.uleb128 0x1
 14434 37bb 50       		.byte	0x50
 14435 37bc 02       		.uleb128 0x2
 14436 37bd 74       		.byte	0x74
 14437 37be 00       		.sleb128 0
 14438 37bf 00       		.byte	0
 14439 37c0 31       		.uleb128 0x31
 14440 37c1 2E140000 		.4byte	.LVL293
 14441 37c5 6A500000 		.4byte	0x506a
 14442 37c9 DB370000 		.4byte	0x37db
 14443 37cd 30       		.uleb128 0x30
 14444 37ce 01       		.uleb128 0x1
 14445 37cf 51       		.byte	0x51
 14446 37d0 03       		.uleb128 0x3
 14447 37d1 91       		.byte	0x91
 14448 37d2 8471     		.sleb128 -1916
 14449 37d4 30       		.uleb128 0x30
 14450 37d5 01       		.uleb128 0x1
 14451 37d6 50       		.byte	0x50
 14452 37d7 02       		.uleb128 0x2
 14453 37d8 74       		.byte	0x74
 14454 37d9 00       		.sleb128 0
 14455 37da 00       		.byte	0
 14456 37db 31       		.uleb128 0x31
ARM GAS  /tmp/cc0XcXNK.s 			page 255


 14457 37dc 46140000 		.4byte	.LVL294
 14458 37e0 6A500000 		.4byte	0x506a
 14459 37e4 F6370000 		.4byte	0x37f6
 14460 37e8 30       		.uleb128 0x30
 14461 37e9 01       		.uleb128 0x1
 14462 37ea 51       		.byte	0x51
 14463 37eb 03       		.uleb128 0x3
 14464 37ec 91       		.byte	0x91
 14465 37ed 8471     		.sleb128 -1916
 14466 37ef 30       		.uleb128 0x30
 14467 37f0 01       		.uleb128 0x1
 14468 37f1 50       		.byte	0x50
 14469 37f2 02       		.uleb128 0x2
 14470 37f3 74       		.byte	0x74
 14471 37f4 00       		.sleb128 0
 14472 37f5 00       		.byte	0
 14473 37f6 31       		.uleb128 0x31
 14474 37f7 5E140000 		.4byte	.LVL295
 14475 37fb 6A500000 		.4byte	0x506a
 14476 37ff 11380000 		.4byte	0x3811
 14477 3803 30       		.uleb128 0x30
 14478 3804 01       		.uleb128 0x1
 14479 3805 51       		.byte	0x51
 14480 3806 03       		.uleb128 0x3
 14481 3807 91       		.byte	0x91
 14482 3808 8471     		.sleb128 -1916
 14483 380a 30       		.uleb128 0x30
 14484 380b 01       		.uleb128 0x1
 14485 380c 50       		.byte	0x50
 14486 380d 02       		.uleb128 0x2
 14487 380e 74       		.byte	0x74
 14488 380f 00       		.sleb128 0
 14489 3810 00       		.byte	0
 14490 3811 31       		.uleb128 0x31
 14491 3812 76140000 		.4byte	.LVL296
 14492 3816 6A500000 		.4byte	0x506a
 14493 381a 2C380000 		.4byte	0x382c
 14494 381e 30       		.uleb128 0x30
 14495 381f 01       		.uleb128 0x1
 14496 3820 51       		.byte	0x51
 14497 3821 03       		.uleb128 0x3
 14498 3822 91       		.byte	0x91
 14499 3823 8471     		.sleb128 -1916
 14500 3825 30       		.uleb128 0x30
 14501 3826 01       		.uleb128 0x1
 14502 3827 50       		.byte	0x50
 14503 3828 02       		.uleb128 0x2
 14504 3829 74       		.byte	0x74
 14505 382a 00       		.sleb128 0
 14506 382b 00       		.byte	0
 14507 382c 31       		.uleb128 0x31
 14508 382d 92140000 		.4byte	.LVL297
 14509 3831 0A4E0000 		.4byte	0x4e0a
 14510 3835 4F380000 		.4byte	0x384f
 14511 3839 30       		.uleb128 0x30
 14512 383a 01       		.uleb128 0x1
 14513 383b 51       		.byte	0x51
ARM GAS  /tmp/cc0XcXNK.s 			page 256


 14514 383c 03       		.uleb128 0x3
 14515 383d 91       		.byte	0x91
 14516 383e 8471     		.sleb128 -1916
 14517 3840 30       		.uleb128 0x30
 14518 3841 02       		.uleb128 0x2
 14519 3842 90       		.byte	0x90
 14520 3843 40       		.uleb128 0x40
 14521 3844 03       		.uleb128 0x3
 14522 3845 F5       		.byte	0xf5
 14523 3846 51       		.uleb128 0x51
 14524 3847 25       		.uleb128 0x25
 14525 3848 30       		.uleb128 0x30
 14526 3849 01       		.uleb128 0x1
 14527 384a 50       		.byte	0x50
 14528 384b 02       		.uleb128 0x2
 14529 384c 74       		.byte	0x74
 14530 384d 00       		.sleb128 0
 14531 384e 00       		.byte	0
 14532 384f 31       		.uleb128 0x31
 14533 3850 9E140000 		.4byte	.LVL298
 14534 3854 6A500000 		.4byte	0x506a
 14535 3858 6A380000 		.4byte	0x386a
 14536 385c 30       		.uleb128 0x30
 14537 385d 01       		.uleb128 0x1
 14538 385e 51       		.byte	0x51
 14539 385f 03       		.uleb128 0x3
 14540 3860 91       		.byte	0x91
 14541 3861 8471     		.sleb128 -1916
 14542 3863 30       		.uleb128 0x30
 14543 3864 01       		.uleb128 0x1
 14544 3865 50       		.byte	0x50
 14545 3866 02       		.uleb128 0x2
 14546 3867 74       		.byte	0x74
 14547 3868 00       		.sleb128 0
 14548 3869 00       		.byte	0
 14549 386a 31       		.uleb128 0x31
 14550 386b AE140000 		.4byte	.LVL299
 14551 386f 0A4E0000 		.4byte	0x4e0a
 14552 3873 8D380000 		.4byte	0x388d
 14553 3877 30       		.uleb128 0x30
 14554 3878 01       		.uleb128 0x1
 14555 3879 51       		.byte	0x51
 14556 387a 03       		.uleb128 0x3
 14557 387b 91       		.byte	0x91
 14558 387c 8471     		.sleb128 -1916
 14559 387e 30       		.uleb128 0x30
 14560 387f 02       		.uleb128 0x2
 14561 3880 90       		.byte	0x90
 14562 3881 40       		.uleb128 0x40
 14563 3882 03       		.uleb128 0x3
 14564 3883 F5       		.byte	0xf5
 14565 3884 51       		.uleb128 0x51
 14566 3885 25       		.uleb128 0x25
 14567 3886 30       		.uleb128 0x30
 14568 3887 01       		.uleb128 0x1
 14569 3888 50       		.byte	0x50
 14570 3889 02       		.uleb128 0x2
ARM GAS  /tmp/cc0XcXNK.s 			page 257


 14571 388a 74       		.byte	0x74
 14572 388b 00       		.sleb128 0
 14573 388c 00       		.byte	0
 14574 388d 31       		.uleb128 0x31
 14575 388e BE140000 		.4byte	.LVL300
 14576 3892 0A4E0000 		.4byte	0x4e0a
 14577 3896 B0380000 		.4byte	0x38b0
 14578 389a 30       		.uleb128 0x30
 14579 389b 01       		.uleb128 0x1
 14580 389c 51       		.byte	0x51
 14581 389d 03       		.uleb128 0x3
 14582 389e 91       		.byte	0x91
 14583 389f 8471     		.sleb128 -1916
 14584 38a1 30       		.uleb128 0x30
 14585 38a2 02       		.uleb128 0x2
 14586 38a3 90       		.byte	0x90
 14587 38a4 40       		.uleb128 0x40
 14588 38a5 03       		.uleb128 0x3
 14589 38a6 F5       		.byte	0xf5
 14590 38a7 51       		.uleb128 0x51
 14591 38a8 25       		.uleb128 0x25
 14592 38a9 30       		.uleb128 0x30
 14593 38aa 01       		.uleb128 0x1
 14594 38ab 50       		.byte	0x50
 14595 38ac 02       		.uleb128 0x2
 14596 38ad 74       		.byte	0x74
 14597 38ae 00       		.sleb128 0
 14598 38af 00       		.byte	0
 14599 38b0 31       		.uleb128 0x31
 14600 38b1 CE140000 		.4byte	.LVL301
 14601 38b5 0A4E0000 		.4byte	0x4e0a
 14602 38b9 D3380000 		.4byte	0x38d3
 14603 38bd 30       		.uleb128 0x30
 14604 38be 01       		.uleb128 0x1
 14605 38bf 51       		.byte	0x51
 14606 38c0 03       		.uleb128 0x3
 14607 38c1 91       		.byte	0x91
 14608 38c2 8471     		.sleb128 -1916
 14609 38c4 30       		.uleb128 0x30
 14610 38c5 02       		.uleb128 0x2
 14611 38c6 90       		.byte	0x90
 14612 38c7 40       		.uleb128 0x40
 14613 38c8 03       		.uleb128 0x3
 14614 38c9 F5       		.byte	0xf5
 14615 38ca 51       		.uleb128 0x51
 14616 38cb 25       		.uleb128 0x25
 14617 38cc 30       		.uleb128 0x30
 14618 38cd 01       		.uleb128 0x1
 14619 38ce 50       		.byte	0x50
 14620 38cf 02       		.uleb128 0x2
 14621 38d0 74       		.byte	0x74
 14622 38d1 00       		.sleb128 0
 14623 38d2 00       		.byte	0
 14624 38d3 31       		.uleb128 0x31
 14625 38d4 DA140000 		.4byte	.LVL302
 14626 38d8 84500000 		.4byte	0x5084
 14627 38dc EE380000 		.4byte	0x38ee
ARM GAS  /tmp/cc0XcXNK.s 			page 258


 14628 38e0 30       		.uleb128 0x30
 14629 38e1 01       		.uleb128 0x1
 14630 38e2 51       		.byte	0x51
 14631 38e3 03       		.uleb128 0x3
 14632 38e4 91       		.byte	0x91
 14633 38e5 8471     		.sleb128 -1916
 14634 38e7 30       		.uleb128 0x30
 14635 38e8 01       		.uleb128 0x1
 14636 38e9 50       		.byte	0x50
 14637 38ea 02       		.uleb128 0x2
 14638 38eb 74       		.byte	0x74
 14639 38ec 00       		.sleb128 0
 14640 38ed 00       		.byte	0
 14641 38ee 31       		.uleb128 0x31
 14642 38ef FE140000 		.4byte	.LVL303
 14643 38f3 9E500000 		.4byte	0x509e
 14644 38f7 02390000 		.4byte	0x3902
 14645 38fb 30       		.uleb128 0x30
 14646 38fc 01       		.uleb128 0x1
 14647 38fd 50       		.byte	0x50
 14648 38fe 02       		.uleb128 0x2
 14649 38ff 75       		.byte	0x75
 14650 3900 00       		.sleb128 0
 14651 3901 00       		.byte	0
 14652 3902 31       		.uleb128 0x31
 14653 3903 04150000 		.4byte	.LVL304
 14654 3907 294E0000 		.4byte	0x4e29
 14655 390b 16390000 		.4byte	0x3916
 14656 390f 30       		.uleb128 0x30
 14657 3910 01       		.uleb128 0x1
 14658 3911 50       		.byte	0x50
 14659 3912 02       		.uleb128 0x2
 14660 3913 75       		.byte	0x75
 14661 3914 00       		.sleb128 0
 14662 3915 00       		.byte	0
 14663 3916 31       		.uleb128 0x31
 14664 3917 2A150000 		.4byte	.LVL309
 14665 391b 0A4E0000 		.4byte	0x4e0a
 14666 391f 3D390000 		.4byte	0x393d
 14667 3923 30       		.uleb128 0x30
 14668 3924 01       		.uleb128 0x1
 14669 3925 51       		.byte	0x51
 14670 3926 03       		.uleb128 0x3
 14671 3927 91       		.byte	0x91
 14672 3928 8471     		.sleb128 -1916
 14673 392a 30       		.uleb128 0x30
 14674 392b 02       		.uleb128 0x2
 14675 392c 90       		.byte	0x90
 14676 392d 40       		.uleb128 0x40
 14677 392e 07       		.uleb128 0x7
 14678 392f F4       		.byte	0xf4
 14679 3930 25       		.uleb128 0x25
 14680 3931 04       		.byte	0x4
 14681 3932 00007A44 		.4byte	0x447a0000
 14682 3936 30       		.uleb128 0x30
 14683 3937 01       		.uleb128 0x1
 14684 3938 50       		.byte	0x50
ARM GAS  /tmp/cc0XcXNK.s 			page 259


 14685 3939 02       		.uleb128 0x2
 14686 393a 74       		.byte	0x74
 14687 393b 00       		.sleb128 0
 14688 393c 00       		.byte	0
 14689 393d 31       		.uleb128 0x31
 14690 393e 3C150000 		.4byte	.LVL310
 14691 3942 0A4E0000 		.4byte	0x4e0a
 14692 3946 64390000 		.4byte	0x3964
 14693 394a 30       		.uleb128 0x30
 14694 394b 01       		.uleb128 0x1
 14695 394c 51       		.byte	0x51
 14696 394d 03       		.uleb128 0x3
 14697 394e 91       		.byte	0x91
 14698 394f 8471     		.sleb128 -1916
 14699 3951 30       		.uleb128 0x30
 14700 3952 02       		.uleb128 0x2
 14701 3953 90       		.byte	0x90
 14702 3954 40       		.uleb128 0x40
 14703 3955 07       		.uleb128 0x7
 14704 3956 F4       		.byte	0xf4
 14705 3957 25       		.uleb128 0x25
 14706 3958 04       		.byte	0x4
 14707 3959 00007A44 		.4byte	0x447a0000
 14708 395d 30       		.uleb128 0x30
 14709 395e 01       		.uleb128 0x1
 14710 395f 50       		.byte	0x50
 14711 3960 02       		.uleb128 0x2
 14712 3961 74       		.byte	0x74
 14713 3962 00       		.sleb128 0
 14714 3963 00       		.byte	0
 14715 3964 31       		.uleb128 0x31
 14716 3965 4E150000 		.4byte	.LVL311
 14717 3969 0A4E0000 		.4byte	0x4e0a
 14718 396d 8B390000 		.4byte	0x398b
 14719 3971 30       		.uleb128 0x30
 14720 3972 01       		.uleb128 0x1
 14721 3973 51       		.byte	0x51
 14722 3974 03       		.uleb128 0x3
 14723 3975 91       		.byte	0x91
 14724 3976 8471     		.sleb128 -1916
 14725 3978 30       		.uleb128 0x30
 14726 3979 02       		.uleb128 0x2
 14727 397a 90       		.byte	0x90
 14728 397b 40       		.uleb128 0x40
 14729 397c 07       		.uleb128 0x7
 14730 397d F4       		.byte	0xf4
 14731 397e 25       		.uleb128 0x25
 14732 397f 04       		.byte	0x4
 14733 3980 00007A44 		.4byte	0x447a0000
 14734 3984 30       		.uleb128 0x30
 14735 3985 01       		.uleb128 0x1
 14736 3986 50       		.byte	0x50
 14737 3987 02       		.uleb128 0x2
 14738 3988 74       		.byte	0x74
 14739 3989 00       		.sleb128 0
 14740 398a 00       		.byte	0
 14741 398b 31       		.uleb128 0x31
ARM GAS  /tmp/cc0XcXNK.s 			page 260


 14742 398c 5E150000 		.4byte	.LVL312
 14743 3990 B3500000 		.4byte	0x50b3
 14744 3994 9E390000 		.4byte	0x399e
 14745 3998 30       		.uleb128 0x30
 14746 3999 01       		.uleb128 0x1
 14747 399a 51       		.byte	0x51
 14748 399b 01       		.uleb128 0x1
 14749 399c 31       		.byte	0x31
 14750 399d 00       		.byte	0
 14751 399e 31       		.uleb128 0x31
 14752 399f 76150000 		.4byte	.LVL314
 14753 39a3 C9500000 		.4byte	0x50c9
 14754 39a7 B9390000 		.4byte	0x39b9
 14755 39ab 30       		.uleb128 0x30
 14756 39ac 01       		.uleb128 0x1
 14757 39ad 51       		.byte	0x51
 14758 39ae 03       		.uleb128 0x3
 14759 39af 91       		.byte	0x91
 14760 39b0 8471     		.sleb128 -1916
 14761 39b2 30       		.uleb128 0x30
 14762 39b3 01       		.uleb128 0x1
 14763 39b4 50       		.byte	0x50
 14764 39b5 02       		.uleb128 0x2
 14765 39b6 74       		.byte	0x74
 14766 39b7 00       		.sleb128 0
 14767 39b8 00       		.byte	0
 14768 39b9 31       		.uleb128 0x31
 14769 39ba 86150000 		.4byte	.LVL317
 14770 39be E3500000 		.4byte	0x50e3
 14771 39c2 CD390000 		.4byte	0x39cd
 14772 39c6 30       		.uleb128 0x30
 14773 39c7 01       		.uleb128 0x1
 14774 39c8 50       		.byte	0x50
 14775 39c9 02       		.uleb128 0x2
 14776 39ca 75       		.byte	0x75
 14777 39cb 00       		.sleb128 0
 14778 39cc 00       		.byte	0
 14779 39cd 44       		.uleb128 0x44
 14780 39ce B0150000 		.4byte	.LVL319
 14781 39d2 FE500000 		.4byte	0x50fe
 14782 39d6 31       		.uleb128 0x31
 14783 39d7 BE150000 		.4byte	.LVL320
 14784 39db E64D0000 		.4byte	0x4de6
 14785 39df F2390000 		.4byte	0x39f2
 14786 39e3 30       		.uleb128 0x30
 14787 39e4 01       		.uleb128 0x1
 14788 39e5 52       		.byte	0x52
 14789 39e6 03       		.uleb128 0x3
 14790 39e7 0A       		.byte	0xa
 14791 39e8 0001     		.2byte	0x100
 14792 39ea 30       		.uleb128 0x30
 14793 39eb 01       		.uleb128 0x1
 14794 39ec 50       		.byte	0x50
 14795 39ed 03       		.uleb128 0x3
 14796 39ee 91       		.byte	0x91
 14797 39ef 8871     		.sleb128 -1912
 14798 39f1 00       		.byte	0
ARM GAS  /tmp/cc0XcXNK.s 			page 261


 14799 39f2 31       		.uleb128 0x31
 14800 39f3 CE150000 		.4byte	.LVL321
 14801 39f7 84500000 		.4byte	0x5084
 14802 39fb 0D3A0000 		.4byte	0x3a0d
 14803 39ff 30       		.uleb128 0x30
 14804 3a00 01       		.uleb128 0x1
 14805 3a01 51       		.byte	0x51
 14806 3a02 03       		.uleb128 0x3
 14807 3a03 91       		.byte	0x91
 14808 3a04 8471     		.sleb128 -1916
 14809 3a06 30       		.uleb128 0x30
 14810 3a07 01       		.uleb128 0x1
 14811 3a08 50       		.byte	0x50
 14812 3a09 02       		.uleb128 0x2
 14813 3a0a 74       		.byte	0x74
 14814 3a0b 00       		.sleb128 0
 14815 3a0c 00       		.byte	0
 14816 3a0d 31       		.uleb128 0x31
 14817 3a0e D8150000 		.4byte	.LVL322
 14818 3a12 6A500000 		.4byte	0x506a
 14819 3a16 283A0000 		.4byte	0x3a28
 14820 3a1a 30       		.uleb128 0x30
 14821 3a1b 01       		.uleb128 0x1
 14822 3a1c 51       		.byte	0x51
 14823 3a1d 03       		.uleb128 0x3
 14824 3a1e 91       		.byte	0x91
 14825 3a1f 8471     		.sleb128 -1916
 14826 3a21 30       		.uleb128 0x30
 14827 3a22 01       		.uleb128 0x1
 14828 3a23 50       		.byte	0x50
 14829 3a24 02       		.uleb128 0x2
 14830 3a25 74       		.byte	0x74
 14831 3a26 00       		.sleb128 0
 14832 3a27 00       		.byte	0
 14833 3a28 31       		.uleb128 0x31
 14834 3a29 0A160000 		.4byte	.LVL323
 14835 3a2d C9500000 		.4byte	0x50c9
 14836 3a31 433A0000 		.4byte	0x3a43
 14837 3a35 30       		.uleb128 0x30
 14838 3a36 01       		.uleb128 0x1
 14839 3a37 51       		.byte	0x51
 14840 3a38 03       		.uleb128 0x3
 14841 3a39 91       		.byte	0x91
 14842 3a3a 8471     		.sleb128 -1916
 14843 3a3c 30       		.uleb128 0x30
 14844 3a3d 01       		.uleb128 0x1
 14845 3a3e 50       		.byte	0x50
 14846 3a3f 02       		.uleb128 0x2
 14847 3a40 74       		.byte	0x74
 14848 3a41 00       		.sleb128 0
 14849 3a42 00       		.byte	0
 14850 3a43 31       		.uleb128 0x31
 14851 3a44 28160000 		.4byte	.LVL324
 14852 3a48 6A500000 		.4byte	0x506a
 14853 3a4c 5E3A0000 		.4byte	0x3a5e
 14854 3a50 30       		.uleb128 0x30
 14855 3a51 01       		.uleb128 0x1
ARM GAS  /tmp/cc0XcXNK.s 			page 262


 14856 3a52 51       		.byte	0x51
 14857 3a53 03       		.uleb128 0x3
 14858 3a54 91       		.byte	0x91
 14859 3a55 8471     		.sleb128 -1916
 14860 3a57 30       		.uleb128 0x30
 14861 3a58 01       		.uleb128 0x1
 14862 3a59 50       		.byte	0x50
 14863 3a5a 02       		.uleb128 0x2
 14864 3a5b 74       		.byte	0x74
 14865 3a5c 00       		.sleb128 0
 14866 3a5d 00       		.byte	0
 14867 3a5e 31       		.uleb128 0x31
 14868 3a5f 40160000 		.4byte	.LVL325
 14869 3a63 6A500000 		.4byte	0x506a
 14870 3a67 793A0000 		.4byte	0x3a79
 14871 3a6b 30       		.uleb128 0x30
 14872 3a6c 01       		.uleb128 0x1
 14873 3a6d 51       		.byte	0x51
 14874 3a6e 03       		.uleb128 0x3
 14875 3a6f 91       		.byte	0x91
 14876 3a70 8471     		.sleb128 -1916
 14877 3a72 30       		.uleb128 0x30
 14878 3a73 01       		.uleb128 0x1
 14879 3a74 50       		.byte	0x50
 14880 3a75 02       		.uleb128 0x2
 14881 3a76 74       		.byte	0x74
 14882 3a77 00       		.sleb128 0
 14883 3a78 00       		.byte	0
 14884 3a79 31       		.uleb128 0x31
 14885 3a7a 58160000 		.4byte	.LVL326
 14886 3a7e 6A500000 		.4byte	0x506a
 14887 3a82 943A0000 		.4byte	0x3a94
 14888 3a86 30       		.uleb128 0x30
 14889 3a87 01       		.uleb128 0x1
 14890 3a88 51       		.byte	0x51
 14891 3a89 03       		.uleb128 0x3
 14892 3a8a 91       		.byte	0x91
 14893 3a8b 8471     		.sleb128 -1916
 14894 3a8d 30       		.uleb128 0x30
 14895 3a8e 01       		.uleb128 0x1
 14896 3a8f 50       		.byte	0x50
 14897 3a90 02       		.uleb128 0x2
 14898 3a91 74       		.byte	0x74
 14899 3a92 00       		.sleb128 0
 14900 3a93 00       		.byte	0
 14901 3a94 31       		.uleb128 0x31
 14902 3a95 70160000 		.4byte	.LVL327
 14903 3a99 6A500000 		.4byte	0x506a
 14904 3a9d AF3A0000 		.4byte	0x3aaf
 14905 3aa1 30       		.uleb128 0x30
 14906 3aa2 01       		.uleb128 0x1
 14907 3aa3 51       		.byte	0x51
 14908 3aa4 03       		.uleb128 0x3
 14909 3aa5 91       		.byte	0x91
 14910 3aa6 8471     		.sleb128 -1916
 14911 3aa8 30       		.uleb128 0x30
 14912 3aa9 01       		.uleb128 0x1
ARM GAS  /tmp/cc0XcXNK.s 			page 263


 14913 3aaa 50       		.byte	0x50
 14914 3aab 02       		.uleb128 0x2
 14915 3aac 74       		.byte	0x74
 14916 3aad 00       		.sleb128 0
 14917 3aae 00       		.byte	0
 14918 3aaf 31       		.uleb128 0x31
 14919 3ab0 A8160000 		.4byte	.LVL328
 14920 3ab4 6A500000 		.4byte	0x506a
 14921 3ab8 CA3A0000 		.4byte	0x3aca
 14922 3abc 30       		.uleb128 0x30
 14923 3abd 01       		.uleb128 0x1
 14924 3abe 51       		.byte	0x51
 14925 3abf 03       		.uleb128 0x3
 14926 3ac0 91       		.byte	0x91
 14927 3ac1 8471     		.sleb128 -1916
 14928 3ac3 30       		.uleb128 0x30
 14929 3ac4 01       		.uleb128 0x1
 14930 3ac5 50       		.byte	0x50
 14931 3ac6 02       		.uleb128 0x2
 14932 3ac7 74       		.byte	0x74
 14933 3ac8 00       		.sleb128 0
 14934 3ac9 00       		.byte	0
 14935 3aca 31       		.uleb128 0x31
 14936 3acb C0160000 		.4byte	.LVL329
 14937 3acf 6A500000 		.4byte	0x506a
 14938 3ad3 E53A0000 		.4byte	0x3ae5
 14939 3ad7 30       		.uleb128 0x30
 14940 3ad8 01       		.uleb128 0x1
 14941 3ad9 51       		.byte	0x51
 14942 3ada 03       		.uleb128 0x3
 14943 3adb 91       		.byte	0x91
 14944 3adc 8471     		.sleb128 -1916
 14945 3ade 30       		.uleb128 0x30
 14946 3adf 01       		.uleb128 0x1
 14947 3ae0 50       		.byte	0x50
 14948 3ae1 02       		.uleb128 0x2
 14949 3ae2 74       		.byte	0x74
 14950 3ae3 00       		.sleb128 0
 14951 3ae4 00       		.byte	0
 14952 3ae5 31       		.uleb128 0x31
 14953 3ae6 F8160000 		.4byte	.LVL330
 14954 3aea 6A500000 		.4byte	0x506a
 14955 3aee 003B0000 		.4byte	0x3b00
 14956 3af2 30       		.uleb128 0x30
 14957 3af3 01       		.uleb128 0x1
 14958 3af4 51       		.byte	0x51
 14959 3af5 03       		.uleb128 0x3
 14960 3af6 91       		.byte	0x91
 14961 3af7 8471     		.sleb128 -1916
 14962 3af9 30       		.uleb128 0x30
 14963 3afa 01       		.uleb128 0x1
 14964 3afb 50       		.byte	0x50
 14965 3afc 02       		.uleb128 0x2
 14966 3afd 74       		.byte	0x74
 14967 3afe 00       		.sleb128 0
 14968 3aff 00       		.byte	0
 14969 3b00 31       		.uleb128 0x31
ARM GAS  /tmp/cc0XcXNK.s 			page 264


 14970 3b01 1C170000 		.4byte	.LVL331
 14971 3b05 6A500000 		.4byte	0x506a
 14972 3b09 1B3B0000 		.4byte	0x3b1b
 14973 3b0d 30       		.uleb128 0x30
 14974 3b0e 01       		.uleb128 0x1
 14975 3b0f 51       		.byte	0x51
 14976 3b10 03       		.uleb128 0x3
 14977 3b11 91       		.byte	0x91
 14978 3b12 8471     		.sleb128 -1916
 14979 3b14 30       		.uleb128 0x30
 14980 3b15 01       		.uleb128 0x1
 14981 3b16 50       		.byte	0x50
 14982 3b17 02       		.uleb128 0x2
 14983 3b18 74       		.byte	0x74
 14984 3b19 00       		.sleb128 0
 14985 3b1a 00       		.byte	0
 14986 3b1b 31       		.uleb128 0x31
 14987 3b1c 34170000 		.4byte	.LVL332
 14988 3b20 6A500000 		.4byte	0x506a
 14989 3b24 363B0000 		.4byte	0x3b36
 14990 3b28 30       		.uleb128 0x30
 14991 3b29 01       		.uleb128 0x1
 14992 3b2a 51       		.byte	0x51
 14993 3b2b 03       		.uleb128 0x3
 14994 3b2c 91       		.byte	0x91
 14995 3b2d 8471     		.sleb128 -1916
 14996 3b2f 30       		.uleb128 0x30
 14997 3b30 01       		.uleb128 0x1
 14998 3b31 50       		.byte	0x50
 14999 3b32 02       		.uleb128 0x2
 15000 3b33 74       		.byte	0x74
 15001 3b34 00       		.sleb128 0
 15002 3b35 00       		.byte	0
 15003 3b36 31       		.uleb128 0x31
 15004 3b37 4C170000 		.4byte	.LVL333
 15005 3b3b 6A500000 		.4byte	0x506a
 15006 3b3f 513B0000 		.4byte	0x3b51
 15007 3b43 30       		.uleb128 0x30
 15008 3b44 01       		.uleb128 0x1
 15009 3b45 51       		.byte	0x51
 15010 3b46 03       		.uleb128 0x3
 15011 3b47 91       		.byte	0x91
 15012 3b48 8471     		.sleb128 -1916
 15013 3b4a 30       		.uleb128 0x30
 15014 3b4b 01       		.uleb128 0x1
 15015 3b4c 50       		.byte	0x50
 15016 3b4d 02       		.uleb128 0x2
 15017 3b4e 74       		.byte	0x74
 15018 3b4f 00       		.sleb128 0
 15019 3b50 00       		.byte	0
 15020 3b51 31       		.uleb128 0x31
 15021 3b52 BC170000 		.4byte	.LVL335
 15022 3b56 6A500000 		.4byte	0x506a
 15023 3b5a 6C3B0000 		.4byte	0x3b6c
 15024 3b5e 30       		.uleb128 0x30
 15025 3b5f 01       		.uleb128 0x1
 15026 3b60 51       		.byte	0x51
ARM GAS  /tmp/cc0XcXNK.s 			page 265


 15027 3b61 03       		.uleb128 0x3
 15028 3b62 91       		.byte	0x91
 15029 3b63 8471     		.sleb128 -1916
 15030 3b65 30       		.uleb128 0x30
 15031 3b66 01       		.uleb128 0x1
 15032 3b67 50       		.byte	0x50
 15033 3b68 02       		.uleb128 0x2
 15034 3b69 74       		.byte	0x74
 15035 3b6a 00       		.sleb128 0
 15036 3b6b 00       		.byte	0
 15037 3b6c 31       		.uleb128 0x31
 15038 3b6d D4170000 		.4byte	.LVL336
 15039 3b71 6A500000 		.4byte	0x506a
 15040 3b75 873B0000 		.4byte	0x3b87
 15041 3b79 30       		.uleb128 0x30
 15042 3b7a 01       		.uleb128 0x1
 15043 3b7b 51       		.byte	0x51
 15044 3b7c 03       		.uleb128 0x3
 15045 3b7d 91       		.byte	0x91
 15046 3b7e 8471     		.sleb128 -1916
 15047 3b80 30       		.uleb128 0x30
 15048 3b81 01       		.uleb128 0x1
 15049 3b82 50       		.byte	0x50
 15050 3b83 02       		.uleb128 0x2
 15051 3b84 74       		.byte	0x74
 15052 3b85 00       		.sleb128 0
 15053 3b86 00       		.byte	0
 15054 3b87 31       		.uleb128 0x31
 15055 3b88 0C180000 		.4byte	.LVL337
 15056 3b8c 6A500000 		.4byte	0x506a
 15057 3b90 A23B0000 		.4byte	0x3ba2
 15058 3b94 30       		.uleb128 0x30
 15059 3b95 01       		.uleb128 0x1
 15060 3b96 51       		.byte	0x51
 15061 3b97 03       		.uleb128 0x3
 15062 3b98 91       		.byte	0x91
 15063 3b99 8471     		.sleb128 -1916
 15064 3b9b 30       		.uleb128 0x30
 15065 3b9c 01       		.uleb128 0x1
 15066 3b9d 50       		.byte	0x50
 15067 3b9e 02       		.uleb128 0x2
 15068 3b9f 74       		.byte	0x74
 15069 3ba0 00       		.sleb128 0
 15070 3ba1 00       		.byte	0
 15071 3ba2 31       		.uleb128 0x31
 15072 3ba3 24180000 		.4byte	.LVL338
 15073 3ba7 C9500000 		.4byte	0x50c9
 15074 3bab BD3B0000 		.4byte	0x3bbd
 15075 3baf 30       		.uleb128 0x30
 15076 3bb0 01       		.uleb128 0x1
 15077 3bb1 51       		.byte	0x51
 15078 3bb2 03       		.uleb128 0x3
 15079 3bb3 91       		.byte	0x91
 15080 3bb4 8471     		.sleb128 -1916
 15081 3bb6 30       		.uleb128 0x30
 15082 3bb7 01       		.uleb128 0x1
 15083 3bb8 50       		.byte	0x50
ARM GAS  /tmp/cc0XcXNK.s 			page 266


 15084 3bb9 02       		.uleb128 0x2
 15085 3bba 74       		.byte	0x74
 15086 3bbb 00       		.sleb128 0
 15087 3bbc 00       		.byte	0
 15088 3bbd 31       		.uleb128 0x31
 15089 3bbe 2E180000 		.4byte	.LVL339
 15090 3bc2 84500000 		.4byte	0x5084
 15091 3bc6 D83B0000 		.4byte	0x3bd8
 15092 3bca 30       		.uleb128 0x30
 15093 3bcb 01       		.uleb128 0x1
 15094 3bcc 51       		.byte	0x51
 15095 3bcd 03       		.uleb128 0x3
 15096 3bce 91       		.byte	0x91
 15097 3bcf 8471     		.sleb128 -1916
 15098 3bd1 30       		.uleb128 0x30
 15099 3bd2 01       		.uleb128 0x1
 15100 3bd3 50       		.byte	0x50
 15101 3bd4 02       		.uleb128 0x2
 15102 3bd5 74       		.byte	0x74
 15103 3bd6 00       		.sleb128 0
 15104 3bd7 00       		.byte	0
 15105 3bd8 31       		.uleb128 0x31
 15106 3bd9 48180000 		.4byte	.LVL340
 15107 3bdd 0A4E0000 		.4byte	0x4e0a
 15108 3be1 FB3B0000 		.4byte	0x3bfb
 15109 3be5 30       		.uleb128 0x30
 15110 3be6 01       		.uleb128 0x1
 15111 3be7 51       		.byte	0x51
 15112 3be8 03       		.uleb128 0x3
 15113 3be9 91       		.byte	0x91
 15114 3bea 8471     		.sleb128 -1916
 15115 3bec 30       		.uleb128 0x30
 15116 3bed 02       		.uleb128 0x2
 15117 3bee 90       		.byte	0x90
 15118 3bef 40       		.uleb128 0x40
 15119 3bf0 03       		.uleb128 0x3
 15120 3bf1 F5       		.byte	0xf5
 15121 3bf2 50       		.uleb128 0x50
 15122 3bf3 25       		.uleb128 0x25
 15123 3bf4 30       		.uleb128 0x30
 15124 3bf5 01       		.uleb128 0x1
 15125 3bf6 50       		.byte	0x50
 15126 3bf7 02       		.uleb128 0x2
 15127 3bf8 74       		.byte	0x74
 15128 3bf9 00       		.sleb128 0
 15129 3bfa 00       		.byte	0
 15130 3bfb 31       		.uleb128 0x31
 15131 3bfc 58180000 		.4byte	.LVL341
 15132 3c00 0A4E0000 		.4byte	0x4e0a
 15133 3c04 1E3C0000 		.4byte	0x3c1e
 15134 3c08 30       		.uleb128 0x30
 15135 3c09 01       		.uleb128 0x1
 15136 3c0a 51       		.byte	0x51
 15137 3c0b 03       		.uleb128 0x3
 15138 3c0c 91       		.byte	0x91
 15139 3c0d 8471     		.sleb128 -1916
 15140 3c0f 30       		.uleb128 0x30
ARM GAS  /tmp/cc0XcXNK.s 			page 267


 15141 3c10 02       		.uleb128 0x2
 15142 3c11 90       		.byte	0x90
 15143 3c12 40       		.uleb128 0x40
 15144 3c13 03       		.uleb128 0x3
 15145 3c14 F5       		.byte	0xf5
 15146 3c15 50       		.uleb128 0x50
 15147 3c16 25       		.uleb128 0x25
 15148 3c17 30       		.uleb128 0x30
 15149 3c18 01       		.uleb128 0x1
 15150 3c19 50       		.byte	0x50
 15151 3c1a 02       		.uleb128 0x2
 15152 3c1b 74       		.byte	0x74
 15153 3c1c 00       		.sleb128 0
 15154 3c1d 00       		.byte	0
 15155 3c1e 31       		.uleb128 0x31
 15156 3c1f 68180000 		.4byte	.LVL342
 15157 3c23 0A4E0000 		.4byte	0x4e0a
 15158 3c27 413C0000 		.4byte	0x3c41
 15159 3c2b 30       		.uleb128 0x30
 15160 3c2c 01       		.uleb128 0x1
 15161 3c2d 51       		.byte	0x51
 15162 3c2e 03       		.uleb128 0x3
 15163 3c2f 91       		.byte	0x91
 15164 3c30 8471     		.sleb128 -1916
 15165 3c32 30       		.uleb128 0x30
 15166 3c33 02       		.uleb128 0x2
 15167 3c34 90       		.byte	0x90
 15168 3c35 40       		.uleb128 0x40
 15169 3c36 03       		.uleb128 0x3
 15170 3c37 F5       		.byte	0xf5
 15171 3c38 50       		.uleb128 0x50
 15172 3c39 25       		.uleb128 0x25
 15173 3c3a 30       		.uleb128 0x30
 15174 3c3b 01       		.uleb128 0x1
 15175 3c3c 50       		.byte	0x50
 15176 3c3d 02       		.uleb128 0x2
 15177 3c3e 74       		.byte	0x74
 15178 3c3f 00       		.sleb128 0
 15179 3c40 00       		.byte	0
 15180 3c41 31       		.uleb128 0x31
 15181 3c42 78180000 		.4byte	.LVL343
 15182 3c46 0A4E0000 		.4byte	0x4e0a
 15183 3c4a 643C0000 		.4byte	0x3c64
 15184 3c4e 30       		.uleb128 0x30
 15185 3c4f 01       		.uleb128 0x1
 15186 3c50 51       		.byte	0x51
 15187 3c51 03       		.uleb128 0x3
 15188 3c52 91       		.byte	0x91
 15189 3c53 8471     		.sleb128 -1916
 15190 3c55 30       		.uleb128 0x30
 15191 3c56 02       		.uleb128 0x2
 15192 3c57 90       		.byte	0x90
 15193 3c58 40       		.uleb128 0x40
 15194 3c59 03       		.uleb128 0x3
 15195 3c5a F5       		.byte	0xf5
 15196 3c5b 50       		.uleb128 0x50
 15197 3c5c 25       		.uleb128 0x25
ARM GAS  /tmp/cc0XcXNK.s 			page 268


 15198 3c5d 30       		.uleb128 0x30
 15199 3c5e 01       		.uleb128 0x1
 15200 3c5f 50       		.byte	0x50
 15201 3c60 02       		.uleb128 0x2
 15202 3c61 74       		.byte	0x74
 15203 3c62 00       		.sleb128 0
 15204 3c63 00       		.byte	0
 15205 3c64 31       		.uleb128 0x31
 15206 3c65 88180000 		.4byte	.LVL344
 15207 3c69 0A4E0000 		.4byte	0x4e0a
 15208 3c6d 873C0000 		.4byte	0x3c87
 15209 3c71 30       		.uleb128 0x30
 15210 3c72 01       		.uleb128 0x1
 15211 3c73 51       		.byte	0x51
 15212 3c74 03       		.uleb128 0x3
 15213 3c75 91       		.byte	0x91
 15214 3c76 8471     		.sleb128 -1916
 15215 3c78 30       		.uleb128 0x30
 15216 3c79 02       		.uleb128 0x2
 15217 3c7a 90       		.byte	0x90
 15218 3c7b 40       		.uleb128 0x40
 15219 3c7c 03       		.uleb128 0x3
 15220 3c7d F5       		.byte	0xf5
 15221 3c7e 50       		.uleb128 0x50
 15222 3c7f 25       		.uleb128 0x25
 15223 3c80 30       		.uleb128 0x30
 15224 3c81 01       		.uleb128 0x1
 15225 3c82 50       		.byte	0x50
 15226 3c83 02       		.uleb128 0x2
 15227 3c84 74       		.byte	0x74
 15228 3c85 00       		.sleb128 0
 15229 3c86 00       		.byte	0
 15230 3c87 31       		.uleb128 0x31
 15231 3c88 98180000 		.4byte	.LVL345
 15232 3c8c 0A4E0000 		.4byte	0x4e0a
 15233 3c90 AA3C0000 		.4byte	0x3caa
 15234 3c94 30       		.uleb128 0x30
 15235 3c95 01       		.uleb128 0x1
 15236 3c96 51       		.byte	0x51
 15237 3c97 03       		.uleb128 0x3
 15238 3c98 91       		.byte	0x91
 15239 3c99 8471     		.sleb128 -1916
 15240 3c9b 30       		.uleb128 0x30
 15241 3c9c 02       		.uleb128 0x2
 15242 3c9d 90       		.byte	0x90
 15243 3c9e 40       		.uleb128 0x40
 15244 3c9f 03       		.uleb128 0x3
 15245 3ca0 F5       		.byte	0xf5
 15246 3ca1 50       		.uleb128 0x50
 15247 3ca2 25       		.uleb128 0x25
 15248 3ca3 30       		.uleb128 0x30
 15249 3ca4 01       		.uleb128 0x1
 15250 3ca5 50       		.byte	0x50
 15251 3ca6 02       		.uleb128 0x2
 15252 3ca7 74       		.byte	0x74
 15253 3ca8 00       		.sleb128 0
 15254 3ca9 00       		.byte	0
ARM GAS  /tmp/cc0XcXNK.s 			page 269


 15255 3caa 31       		.uleb128 0x31
 15256 3cab C8180000 		.4byte	.LVL346
 15257 3caf 0A4E0000 		.4byte	0x4e0a
 15258 3cb3 CD3C0000 		.4byte	0x3ccd
 15259 3cb7 30       		.uleb128 0x30
 15260 3cb8 01       		.uleb128 0x1
 15261 3cb9 51       		.byte	0x51
 15262 3cba 03       		.uleb128 0x3
 15263 3cbb 91       		.byte	0x91
 15264 3cbc 8471     		.sleb128 -1916
 15265 3cbe 30       		.uleb128 0x30
 15266 3cbf 02       		.uleb128 0x2
 15267 3cc0 90       		.byte	0x90
 15268 3cc1 40       		.uleb128 0x40
 15269 3cc2 03       		.uleb128 0x3
 15270 3cc3 F5       		.byte	0xf5
 15271 3cc4 50       		.uleb128 0x50
 15272 3cc5 25       		.uleb128 0x25
 15273 3cc6 30       		.uleb128 0x30
 15274 3cc7 01       		.uleb128 0x1
 15275 3cc8 50       		.byte	0x50
 15276 3cc9 02       		.uleb128 0x2
 15277 3cca 74       		.byte	0x74
 15278 3ccb 00       		.sleb128 0
 15279 3ccc 00       		.byte	0
 15280 3ccd 31       		.uleb128 0x31
 15281 3cce 34190000 		.4byte	.LVL348
 15282 3cd2 6A500000 		.4byte	0x506a
 15283 3cd6 E83C0000 		.4byte	0x3ce8
 15284 3cda 30       		.uleb128 0x30
 15285 3cdb 01       		.uleb128 0x1
 15286 3cdc 51       		.byte	0x51
 15287 3cdd 03       		.uleb128 0x3
 15288 3cde 91       		.byte	0x91
 15289 3cdf 8471     		.sleb128 -1916
 15290 3ce1 30       		.uleb128 0x30
 15291 3ce2 01       		.uleb128 0x1
 15292 3ce3 50       		.byte	0x50
 15293 3ce4 02       		.uleb128 0x2
 15294 3ce5 74       		.byte	0x74
 15295 3ce6 00       		.sleb128 0
 15296 3ce7 00       		.byte	0
 15297 3ce8 31       		.uleb128 0x31
 15298 3ce9 4C190000 		.4byte	.LVL349
 15299 3ced 6A500000 		.4byte	0x506a
 15300 3cf1 033D0000 		.4byte	0x3d03
 15301 3cf5 30       		.uleb128 0x30
 15302 3cf6 01       		.uleb128 0x1
 15303 3cf7 51       		.byte	0x51
 15304 3cf8 03       		.uleb128 0x3
 15305 3cf9 91       		.byte	0x91
 15306 3cfa 8471     		.sleb128 -1916
 15307 3cfc 30       		.uleb128 0x30
 15308 3cfd 01       		.uleb128 0x1
 15309 3cfe 50       		.byte	0x50
 15310 3cff 02       		.uleb128 0x2
 15311 3d00 74       		.byte	0x74
ARM GAS  /tmp/cc0XcXNK.s 			page 270


 15312 3d01 00       		.sleb128 0
 15313 3d02 00       		.byte	0
 15314 3d03 31       		.uleb128 0x31
 15315 3d04 76190000 		.4byte	.LVL350
 15316 3d08 6A500000 		.4byte	0x506a
 15317 3d0c 1E3D0000 		.4byte	0x3d1e
 15318 3d10 30       		.uleb128 0x30
 15319 3d11 01       		.uleb128 0x1
 15320 3d12 51       		.byte	0x51
 15321 3d13 03       		.uleb128 0x3
 15322 3d14 91       		.byte	0x91
 15323 3d15 8471     		.sleb128 -1916
 15324 3d17 30       		.uleb128 0x30
 15325 3d18 01       		.uleb128 0x1
 15326 3d19 50       		.byte	0x50
 15327 3d1a 02       		.uleb128 0x2
 15328 3d1b 74       		.byte	0x74
 15329 3d1c 00       		.sleb128 0
 15330 3d1d 00       		.byte	0
 15331 3d1e 31       		.uleb128 0x31
 15332 3d1f 8E190000 		.4byte	.LVL351
 15333 3d23 6A500000 		.4byte	0x506a
 15334 3d27 393D0000 		.4byte	0x3d39
 15335 3d2b 30       		.uleb128 0x30
 15336 3d2c 01       		.uleb128 0x1
 15337 3d2d 51       		.byte	0x51
 15338 3d2e 03       		.uleb128 0x3
 15339 3d2f 91       		.byte	0x91
 15340 3d30 8471     		.sleb128 -1916
 15341 3d32 30       		.uleb128 0x30
 15342 3d33 01       		.uleb128 0x1
 15343 3d34 50       		.byte	0x50
 15344 3d35 02       		.uleb128 0x2
 15345 3d36 74       		.byte	0x74
 15346 3d37 00       		.sleb128 0
 15347 3d38 00       		.byte	0
 15348 3d39 31       		.uleb128 0x31
 15349 3d3a A6190000 		.4byte	.LVL352
 15350 3d3e 6A500000 		.4byte	0x506a
 15351 3d42 543D0000 		.4byte	0x3d54
 15352 3d46 30       		.uleb128 0x30
 15353 3d47 01       		.uleb128 0x1
 15354 3d48 51       		.byte	0x51
 15355 3d49 03       		.uleb128 0x3
 15356 3d4a 91       		.byte	0x91
 15357 3d4b 8471     		.sleb128 -1916
 15358 3d4d 30       		.uleb128 0x30
 15359 3d4e 01       		.uleb128 0x1
 15360 3d4f 50       		.byte	0x50
 15361 3d50 02       		.uleb128 0x2
 15362 3d51 74       		.byte	0x74
 15363 3d52 00       		.sleb128 0
 15364 3d53 00       		.byte	0
 15365 3d54 31       		.uleb128 0x31
 15366 3d55 D0190000 		.4byte	.LVL353
 15367 3d59 6A500000 		.4byte	0x506a
 15368 3d5d 6F3D0000 		.4byte	0x3d6f
ARM GAS  /tmp/cc0XcXNK.s 			page 271


 15369 3d61 30       		.uleb128 0x30
 15370 3d62 01       		.uleb128 0x1
 15371 3d63 51       		.byte	0x51
 15372 3d64 03       		.uleb128 0x3
 15373 3d65 91       		.byte	0x91
 15374 3d66 8471     		.sleb128 -1916
 15375 3d68 30       		.uleb128 0x30
 15376 3d69 01       		.uleb128 0x1
 15377 3d6a 50       		.byte	0x50
 15378 3d6b 02       		.uleb128 0x2
 15379 3d6c 74       		.byte	0x74
 15380 3d6d 00       		.sleb128 0
 15381 3d6e 00       		.byte	0
 15382 3d6f 31       		.uleb128 0x31
 15383 3d70 E8190000 		.4byte	.LVL354
 15384 3d74 6A500000 		.4byte	0x506a
 15385 3d78 8A3D0000 		.4byte	0x3d8a
 15386 3d7c 30       		.uleb128 0x30
 15387 3d7d 01       		.uleb128 0x1
 15388 3d7e 51       		.byte	0x51
 15389 3d7f 03       		.uleb128 0x3
 15390 3d80 91       		.byte	0x91
 15391 3d81 8471     		.sleb128 -1916
 15392 3d83 30       		.uleb128 0x30
 15393 3d84 01       		.uleb128 0x1
 15394 3d85 50       		.byte	0x50
 15395 3d86 02       		.uleb128 0x2
 15396 3d87 74       		.byte	0x74
 15397 3d88 00       		.sleb128 0
 15398 3d89 00       		.byte	0
 15399 3d8a 31       		.uleb128 0x31
 15400 3d8b 121A0000 		.4byte	.LVL355
 15401 3d8f 6A500000 		.4byte	0x506a
 15402 3d93 A53D0000 		.4byte	0x3da5
 15403 3d97 30       		.uleb128 0x30
 15404 3d98 01       		.uleb128 0x1
 15405 3d99 51       		.byte	0x51
 15406 3d9a 03       		.uleb128 0x3
 15407 3d9b 91       		.byte	0x91
 15408 3d9c 8471     		.sleb128 -1916
 15409 3d9e 30       		.uleb128 0x30
 15410 3d9f 01       		.uleb128 0x1
 15411 3da0 50       		.byte	0x50
 15412 3da1 02       		.uleb128 0x2
 15413 3da2 74       		.byte	0x74
 15414 3da3 00       		.sleb128 0
 15415 3da4 00       		.byte	0
 15416 3da5 31       		.uleb128 0x31
 15417 3da6 2A1A0000 		.4byte	.LVL356
 15418 3daa 6A500000 		.4byte	0x506a
 15419 3dae C03D0000 		.4byte	0x3dc0
 15420 3db2 30       		.uleb128 0x30
 15421 3db3 01       		.uleb128 0x1
 15422 3db4 51       		.byte	0x51
 15423 3db5 03       		.uleb128 0x3
 15424 3db6 91       		.byte	0x91
 15425 3db7 8471     		.sleb128 -1916
ARM GAS  /tmp/cc0XcXNK.s 			page 272


 15426 3db9 30       		.uleb128 0x30
 15427 3dba 01       		.uleb128 0x1
 15428 3dbb 50       		.byte	0x50
 15429 3dbc 02       		.uleb128 0x2
 15430 3dbd 74       		.byte	0x74
 15431 3dbe 00       		.sleb128 0
 15432 3dbf 00       		.byte	0
 15433 3dc0 31       		.uleb128 0x31
 15434 3dc1 421A0000 		.4byte	.LVL357
 15435 3dc5 6A500000 		.4byte	0x506a
 15436 3dc9 DB3D0000 		.4byte	0x3ddb
 15437 3dcd 30       		.uleb128 0x30
 15438 3dce 01       		.uleb128 0x1
 15439 3dcf 51       		.byte	0x51
 15440 3dd0 03       		.uleb128 0x3
 15441 3dd1 91       		.byte	0x91
 15442 3dd2 8471     		.sleb128 -1916
 15443 3dd4 30       		.uleb128 0x30
 15444 3dd5 01       		.uleb128 0x1
 15445 3dd6 50       		.byte	0x50
 15446 3dd7 02       		.uleb128 0x2
 15447 3dd8 74       		.byte	0x74
 15448 3dd9 00       		.sleb128 0
 15449 3dda 00       		.byte	0
 15450 3ddb 31       		.uleb128 0x31
 15451 3ddc 5A1A0000 		.4byte	.LVL358
 15452 3de0 6A500000 		.4byte	0x506a
 15453 3de4 F63D0000 		.4byte	0x3df6
 15454 3de8 30       		.uleb128 0x30
 15455 3de9 01       		.uleb128 0x1
 15456 3dea 51       		.byte	0x51
 15457 3deb 03       		.uleb128 0x3
 15458 3dec 91       		.byte	0x91
 15459 3ded 8471     		.sleb128 -1916
 15460 3def 30       		.uleb128 0x30
 15461 3df0 01       		.uleb128 0x1
 15462 3df1 50       		.byte	0x50
 15463 3df2 02       		.uleb128 0x2
 15464 3df3 74       		.byte	0x74
 15465 3df4 00       		.sleb128 0
 15466 3df5 00       		.byte	0
 15467 3df6 31       		.uleb128 0x31
 15468 3df7 721A0000 		.4byte	.LVL359
 15469 3dfb 6A500000 		.4byte	0x506a
 15470 3dff 113E0000 		.4byte	0x3e11
 15471 3e03 30       		.uleb128 0x30
 15472 3e04 01       		.uleb128 0x1
 15473 3e05 51       		.byte	0x51
 15474 3e06 03       		.uleb128 0x3
 15475 3e07 91       		.byte	0x91
 15476 3e08 8471     		.sleb128 -1916
 15477 3e0a 30       		.uleb128 0x30
 15478 3e0b 01       		.uleb128 0x1
 15479 3e0c 50       		.byte	0x50
 15480 3e0d 02       		.uleb128 0x2
 15481 3e0e 74       		.byte	0x74
 15482 3e0f 00       		.sleb128 0
ARM GAS  /tmp/cc0XcXNK.s 			page 273


 15483 3e10 00       		.byte	0
 15484 3e11 31       		.uleb128 0x31
 15485 3e12 8A1A0000 		.4byte	.LVL360
 15486 3e16 6A500000 		.4byte	0x506a
 15487 3e1a 2C3E0000 		.4byte	0x3e2c
 15488 3e1e 30       		.uleb128 0x30
 15489 3e1f 01       		.uleb128 0x1
 15490 3e20 51       		.byte	0x51
 15491 3e21 03       		.uleb128 0x3
 15492 3e22 91       		.byte	0x91
 15493 3e23 8471     		.sleb128 -1916
 15494 3e25 30       		.uleb128 0x30
 15495 3e26 01       		.uleb128 0x1
 15496 3e27 50       		.byte	0x50
 15497 3e28 02       		.uleb128 0x2
 15498 3e29 74       		.byte	0x74
 15499 3e2a 00       		.sleb128 0
 15500 3e2b 00       		.byte	0
 15501 3e2c 31       		.uleb128 0x31
 15502 3e2d A21A0000 		.4byte	.LVL361
 15503 3e31 6A500000 		.4byte	0x506a
 15504 3e35 473E0000 		.4byte	0x3e47
 15505 3e39 30       		.uleb128 0x30
 15506 3e3a 01       		.uleb128 0x1
 15507 3e3b 51       		.byte	0x51
 15508 3e3c 03       		.uleb128 0x3
 15509 3e3d 91       		.byte	0x91
 15510 3e3e 8471     		.sleb128 -1916
 15511 3e40 30       		.uleb128 0x30
 15512 3e41 01       		.uleb128 0x1
 15513 3e42 50       		.byte	0x50
 15514 3e43 02       		.uleb128 0x2
 15515 3e44 74       		.byte	0x74
 15516 3e45 00       		.sleb128 0
 15517 3e46 00       		.byte	0
 15518 3e47 31       		.uleb128 0x31
 15519 3e48 BA1A0000 		.4byte	.LVL362
 15520 3e4c 6A500000 		.4byte	0x506a
 15521 3e50 623E0000 		.4byte	0x3e62
 15522 3e54 30       		.uleb128 0x30
 15523 3e55 01       		.uleb128 0x1
 15524 3e56 51       		.byte	0x51
 15525 3e57 03       		.uleb128 0x3
 15526 3e58 91       		.byte	0x91
 15527 3e59 8471     		.sleb128 -1916
 15528 3e5b 30       		.uleb128 0x30
 15529 3e5c 01       		.uleb128 0x1
 15530 3e5d 50       		.byte	0x50
 15531 3e5e 02       		.uleb128 0x2
 15532 3e5f 74       		.byte	0x74
 15533 3e60 00       		.sleb128 0
 15534 3e61 00       		.byte	0
 15535 3e62 31       		.uleb128 0x31
 15536 3e63 D21A0000 		.4byte	.LVL363
 15537 3e67 6A500000 		.4byte	0x506a
 15538 3e6b 7D3E0000 		.4byte	0x3e7d
 15539 3e6f 30       		.uleb128 0x30
ARM GAS  /tmp/cc0XcXNK.s 			page 274


 15540 3e70 01       		.uleb128 0x1
 15541 3e71 51       		.byte	0x51
 15542 3e72 03       		.uleb128 0x3
 15543 3e73 91       		.byte	0x91
 15544 3e74 8471     		.sleb128 -1916
 15545 3e76 30       		.uleb128 0x30
 15546 3e77 01       		.uleb128 0x1
 15547 3e78 50       		.byte	0x50
 15548 3e79 02       		.uleb128 0x2
 15549 3e7a 74       		.byte	0x74
 15550 3e7b 00       		.sleb128 0
 15551 3e7c 00       		.byte	0
 15552 3e7d 31       		.uleb128 0x31
 15553 3e7e EA1A0000 		.4byte	.LVL364
 15554 3e82 6A500000 		.4byte	0x506a
 15555 3e86 983E0000 		.4byte	0x3e98
 15556 3e8a 30       		.uleb128 0x30
 15557 3e8b 01       		.uleb128 0x1
 15558 3e8c 51       		.byte	0x51
 15559 3e8d 03       		.uleb128 0x3
 15560 3e8e 91       		.byte	0x91
 15561 3e8f 8471     		.sleb128 -1916
 15562 3e91 30       		.uleb128 0x30
 15563 3e92 01       		.uleb128 0x1
 15564 3e93 50       		.byte	0x50
 15565 3e94 02       		.uleb128 0x2
 15566 3e95 74       		.byte	0x74
 15567 3e96 00       		.sleb128 0
 15568 3e97 00       		.byte	0
 15569 3e98 31       		.uleb128 0x31
 15570 3e99 021B0000 		.4byte	.LVL365
 15571 3e9d 6A500000 		.4byte	0x506a
 15572 3ea1 B33E0000 		.4byte	0x3eb3
 15573 3ea5 30       		.uleb128 0x30
 15574 3ea6 01       		.uleb128 0x1
 15575 3ea7 51       		.byte	0x51
 15576 3ea8 03       		.uleb128 0x3
 15577 3ea9 91       		.byte	0x91
 15578 3eaa 8471     		.sleb128 -1916
 15579 3eac 30       		.uleb128 0x30
 15580 3ead 01       		.uleb128 0x1
 15581 3eae 50       		.byte	0x50
 15582 3eaf 02       		.uleb128 0x2
 15583 3eb0 74       		.byte	0x74
 15584 3eb1 00       		.sleb128 0
 15585 3eb2 00       		.byte	0
 15586 3eb3 31       		.uleb128 0x31
 15587 3eb4 1A1B0000 		.4byte	.LVL366
 15588 3eb8 6A500000 		.4byte	0x506a
 15589 3ebc CE3E0000 		.4byte	0x3ece
 15590 3ec0 30       		.uleb128 0x30
 15591 3ec1 01       		.uleb128 0x1
 15592 3ec2 51       		.byte	0x51
 15593 3ec3 03       		.uleb128 0x3
 15594 3ec4 91       		.byte	0x91
 15595 3ec5 8471     		.sleb128 -1916
 15596 3ec7 30       		.uleb128 0x30
ARM GAS  /tmp/cc0XcXNK.s 			page 275


 15597 3ec8 01       		.uleb128 0x1
 15598 3ec9 50       		.byte	0x50
 15599 3eca 02       		.uleb128 0x2
 15600 3ecb 74       		.byte	0x74
 15601 3ecc 00       		.sleb128 0
 15602 3ecd 00       		.byte	0
 15603 3ece 31       		.uleb128 0x31
 15604 3ecf 321B0000 		.4byte	.LVL367
 15605 3ed3 6A500000 		.4byte	0x506a
 15606 3ed7 E93E0000 		.4byte	0x3ee9
 15607 3edb 30       		.uleb128 0x30
 15608 3edc 01       		.uleb128 0x1
 15609 3edd 51       		.byte	0x51
 15610 3ede 03       		.uleb128 0x3
 15611 3edf 91       		.byte	0x91
 15612 3ee0 8471     		.sleb128 -1916
 15613 3ee2 30       		.uleb128 0x30
 15614 3ee3 01       		.uleb128 0x1
 15615 3ee4 50       		.byte	0x50
 15616 3ee5 02       		.uleb128 0x2
 15617 3ee6 74       		.byte	0x74
 15618 3ee7 00       		.sleb128 0
 15619 3ee8 00       		.byte	0
 15620 3ee9 31       		.uleb128 0x31
 15621 3eea 4A1B0000 		.4byte	.LVL368
 15622 3eee 6A500000 		.4byte	0x506a
 15623 3ef2 043F0000 		.4byte	0x3f04
 15624 3ef6 30       		.uleb128 0x30
 15625 3ef7 01       		.uleb128 0x1
 15626 3ef8 51       		.byte	0x51
 15627 3ef9 03       		.uleb128 0x3
 15628 3efa 91       		.byte	0x91
 15629 3efb 8471     		.sleb128 -1916
 15630 3efd 30       		.uleb128 0x30
 15631 3efe 01       		.uleb128 0x1
 15632 3eff 50       		.byte	0x50
 15633 3f00 02       		.uleb128 0x2
 15634 3f01 74       		.byte	0x74
 15635 3f02 00       		.sleb128 0
 15636 3f03 00       		.byte	0
 15637 3f04 31       		.uleb128 0x31
 15638 3f05 601B0000 		.4byte	.LVL369
 15639 3f09 14510000 		.4byte	0x5114
 15640 3f0d 193F0000 		.4byte	0x3f19
 15641 3f11 30       		.uleb128 0x30
 15642 3f12 01       		.uleb128 0x1
 15643 3f13 50       		.byte	0x50
 15644 3f14 03       		.uleb128 0x3
 15645 3f15 91       		.byte	0x91
 15646 3f16 8871     		.sleb128 -1912
 15647 3f18 00       		.byte	0
 15648 3f19 31       		.uleb128 0x31
 15649 3f1a 661B0000 		.4byte	.LVL370
 15650 3f1e 604F0000 		.4byte	0x4f60
 15651 3f22 2E3F0000 		.4byte	0x3f2e
 15652 3f26 30       		.uleb128 0x30
 15653 3f27 01       		.uleb128 0x1
ARM GAS  /tmp/cc0XcXNK.s 			page 276


 15654 3f28 50       		.byte	0x50
 15655 3f29 03       		.uleb128 0x3
 15656 3f2a 91       		.byte	0x91
 15657 3f2b 8871     		.sleb128 -1912
 15658 3f2d 00       		.byte	0
 15659 3f2e 44       		.uleb128 0x44
 15660 3f2f 701B0000 		.4byte	.LVL371
 15661 3f33 714F0000 		.4byte	0x4f71
 15662 3f37 31       		.uleb128 0x31
 15663 3f38 921B0000 		.4byte	.LVL375
 15664 3f3c 6A500000 		.4byte	0x506a
 15665 3f40 523F0000 		.4byte	0x3f52
 15666 3f44 30       		.uleb128 0x30
 15667 3f45 01       		.uleb128 0x1
 15668 3f46 51       		.byte	0x51
 15669 3f47 03       		.uleb128 0x3
 15670 3f48 91       		.byte	0x91
 15671 3f49 8471     		.sleb128 -1916
 15672 3f4b 30       		.uleb128 0x30
 15673 3f4c 01       		.uleb128 0x1
 15674 3f4d 50       		.byte	0x50
 15675 3f4e 02       		.uleb128 0x2
 15676 3f4f 74       		.byte	0x74
 15677 3f50 00       		.sleb128 0
 15678 3f51 00       		.byte	0
 15679 3f52 44       		.uleb128 0x44
 15680 3f53 A61B0000 		.4byte	.LVL376
 15681 3f57 29510000 		.4byte	0x5129
 15682 3f5b 44       		.uleb128 0x44
 15683 3f5c AA1B0000 		.4byte	.LVL377
 15684 3f60 874F0000 		.4byte	0x4f87
 15685 3f64 31       		.uleb128 0x31
 15686 3f65 B61B0000 		.4byte	.LVL378
 15687 3f69 6A500000 		.4byte	0x506a
 15688 3f6d 7F3F0000 		.4byte	0x3f7f
 15689 3f71 30       		.uleb128 0x30
 15690 3f72 01       		.uleb128 0x1
 15691 3f73 51       		.byte	0x51
 15692 3f74 03       		.uleb128 0x3
 15693 3f75 91       		.byte	0x91
 15694 3f76 8471     		.sleb128 -1916
 15695 3f78 30       		.uleb128 0x30
 15696 3f79 01       		.uleb128 0x1
 15697 3f7a 50       		.byte	0x50
 15698 3f7b 02       		.uleb128 0x2
 15699 3f7c 74       		.byte	0x74
 15700 3f7d 00       		.sleb128 0
 15701 3f7e 00       		.byte	0
 15702 3f7f 44       		.uleb128 0x44
 15703 3f80 C21B0000 		.4byte	.LVL379
 15704 3f84 3A510000 		.4byte	0x513a
 15705 3f88 44       		.uleb128 0x44
 15706 3f89 C61B0000 		.4byte	.LVL380
 15707 3f8d 874F0000 		.4byte	0x4f87
 15708 3f91 31       		.uleb128 0x31
 15709 3f92 D21B0000 		.4byte	.LVL381
 15710 3f96 6A500000 		.4byte	0x506a
ARM GAS  /tmp/cc0XcXNK.s 			page 277


 15711 3f9a AC3F0000 		.4byte	0x3fac
 15712 3f9e 30       		.uleb128 0x30
 15713 3f9f 01       		.uleb128 0x1
 15714 3fa0 51       		.byte	0x51
 15715 3fa1 03       		.uleb128 0x3
 15716 3fa2 91       		.byte	0x91
 15717 3fa3 8471     		.sleb128 -1916
 15718 3fa5 30       		.uleb128 0x30
 15719 3fa6 01       		.uleb128 0x1
 15720 3fa7 50       		.byte	0x50
 15721 3fa8 02       		.uleb128 0x2
 15722 3fa9 74       		.byte	0x74
 15723 3faa 00       		.sleb128 0
 15724 3fab 00       		.byte	0
 15725 3fac 44       		.uleb128 0x44
 15726 3fad E61B0000 		.4byte	.LVL382
 15727 3fb1 4B510000 		.4byte	0x514b
 15728 3fb5 44       		.uleb128 0x44
 15729 3fb6 EA1B0000 		.4byte	.LVL383
 15730 3fba 874F0000 		.4byte	0x4f87
 15731 3fbe 31       		.uleb128 0x31
 15732 3fbf F61B0000 		.4byte	.LVL384
 15733 3fc3 6A500000 		.4byte	0x506a
 15734 3fc7 D93F0000 		.4byte	0x3fd9
 15735 3fcb 30       		.uleb128 0x30
 15736 3fcc 01       		.uleb128 0x1
 15737 3fcd 51       		.byte	0x51
 15738 3fce 03       		.uleb128 0x3
 15739 3fcf 91       		.byte	0x91
 15740 3fd0 8471     		.sleb128 -1916
 15741 3fd2 30       		.uleb128 0x30
 15742 3fd3 01       		.uleb128 0x1
 15743 3fd4 50       		.byte	0x50
 15744 3fd5 02       		.uleb128 0x2
 15745 3fd6 74       		.byte	0x74
 15746 3fd7 00       		.sleb128 0
 15747 3fd8 00       		.byte	0
 15748 3fd9 44       		.uleb128 0x44
 15749 3fda 0A1C0000 		.4byte	.LVL385
 15750 3fde 5C510000 		.4byte	0x515c
 15751 3fe2 44       		.uleb128 0x44
 15752 3fe3 0E1C0000 		.4byte	.LVL386
 15753 3fe7 874F0000 		.4byte	0x4f87
 15754 3feb 31       		.uleb128 0x31
 15755 3fec 1A1C0000 		.4byte	.LVL387
 15756 3ff0 6A500000 		.4byte	0x506a
 15757 3ff4 06400000 		.4byte	0x4006
 15758 3ff8 30       		.uleb128 0x30
 15759 3ff9 01       		.uleb128 0x1
 15760 3ffa 51       		.byte	0x51
 15761 3ffb 03       		.uleb128 0x3
 15762 3ffc 91       		.byte	0x91
 15763 3ffd 8471     		.sleb128 -1916
 15764 3fff 30       		.uleb128 0x30
 15765 4000 01       		.uleb128 0x1
 15766 4001 50       		.byte	0x50
 15767 4002 02       		.uleb128 0x2
ARM GAS  /tmp/cc0XcXNK.s 			page 278


 15768 4003 74       		.byte	0x74
 15769 4004 00       		.sleb128 0
 15770 4005 00       		.byte	0
 15771 4006 44       		.uleb128 0x44
 15772 4007 2E1C0000 		.4byte	.LVL388
 15773 400b 6D510000 		.4byte	0x516d
 15774 400f 44       		.uleb128 0x44
 15775 4010 321C0000 		.4byte	.LVL389
 15776 4014 874F0000 		.4byte	0x4f87
 15777 4018 44       		.uleb128 0x44
 15778 4019 761C0000 		.4byte	.LVL391
 15779 401d 7E510000 		.4byte	0x517e
 15780 4021 31       		.uleb128 0x31
 15781 4022 921C0000 		.4byte	.LVL392
 15782 4026 94510000 		.4byte	0x5194
 15783 402a 48400000 		.4byte	0x4048
 15784 402e 30       		.uleb128 0x30
 15785 402f 01       		.uleb128 0x1
 15786 4030 51       		.byte	0x51
 15787 4031 03       		.uleb128 0x3
 15788 4032 91       		.byte	0x91
 15789 4033 8471     		.sleb128 -1916
 15790 4035 30       		.uleb128 0x30
 15791 4036 02       		.uleb128 0x2
 15792 4037 90       		.byte	0x90
 15793 4038 41       		.uleb128 0x41
 15794 4039 07       		.uleb128 0x7
 15795 403a F4       		.byte	0xf4
 15796 403b 25       		.uleb128 0x25
 15797 403c 04       		.byte	0x4
 15798 403d 00002041 		.4byte	0x41200000
 15799 4041 30       		.uleb128 0x30
 15800 4042 01       		.uleb128 0x1
 15801 4043 50       		.byte	0x50
 15802 4044 02       		.uleb128 0x2
 15803 4045 74       		.byte	0x74
 15804 4046 00       		.sleb128 0
 15805 4047 00       		.byte	0
 15806 4048 44       		.uleb128 0x44
 15807 4049 AE1C0000 		.4byte	.LVL393
 15808 404d 7E510000 		.4byte	0x517e
 15809 4051 31       		.uleb128 0x31
 15810 4052 CA1C0000 		.4byte	.LVL394
 15811 4056 94510000 		.4byte	0x5194
 15812 405a 78400000 		.4byte	0x4078
 15813 405e 30       		.uleb128 0x30
 15814 405f 01       		.uleb128 0x1
 15815 4060 51       		.byte	0x51
 15816 4061 03       		.uleb128 0x3
 15817 4062 91       		.byte	0x91
 15818 4063 8471     		.sleb128 -1916
 15819 4065 30       		.uleb128 0x30
 15820 4066 02       		.uleb128 0x2
 15821 4067 90       		.byte	0x90
 15822 4068 41       		.uleb128 0x41
 15823 4069 07       		.uleb128 0x7
 15824 406a F4       		.byte	0xf4
ARM GAS  /tmp/cc0XcXNK.s 			page 279


 15825 406b 25       		.uleb128 0x25
 15826 406c 04       		.byte	0x4
 15827 406d 00002041 		.4byte	0x41200000
 15828 4071 30       		.uleb128 0x30
 15829 4072 01       		.uleb128 0x1
 15830 4073 50       		.byte	0x50
 15831 4074 02       		.uleb128 0x2
 15832 4075 74       		.byte	0x74
 15833 4076 00       		.sleb128 0
 15834 4077 00       		.byte	0
 15835 4078 44       		.uleb128 0x44
 15836 4079 E61C0000 		.4byte	.LVL395
 15837 407d 7E510000 		.4byte	0x517e
 15838 4081 31       		.uleb128 0x31
 15839 4082 021D0000 		.4byte	.LVL396
 15840 4086 94510000 		.4byte	0x5194
 15841 408a A8400000 		.4byte	0x40a8
 15842 408e 30       		.uleb128 0x30
 15843 408f 01       		.uleb128 0x1
 15844 4090 51       		.byte	0x51
 15845 4091 03       		.uleb128 0x3
 15846 4092 91       		.byte	0x91
 15847 4093 8471     		.sleb128 -1916
 15848 4095 30       		.uleb128 0x30
 15849 4096 02       		.uleb128 0x2
 15850 4097 90       		.byte	0x90
 15851 4098 41       		.uleb128 0x41
 15852 4099 07       		.uleb128 0x7
 15853 409a F4       		.byte	0xf4
 15854 409b 25       		.uleb128 0x25
 15855 409c 04       		.byte	0x4
 15856 409d 00002041 		.4byte	0x41200000
 15857 40a1 30       		.uleb128 0x30
 15858 40a2 01       		.uleb128 0x1
 15859 40a3 50       		.byte	0x50
 15860 40a4 02       		.uleb128 0x2
 15861 40a5 74       		.byte	0x74
 15862 40a6 00       		.sleb128 0
 15863 40a7 00       		.byte	0
 15864 40a8 44       		.uleb128 0x44
 15865 40a9 1E1D0000 		.4byte	.LVL397
 15866 40ad 7E510000 		.4byte	0x517e
 15867 40b1 31       		.uleb128 0x31
 15868 40b2 3A1D0000 		.4byte	.LVL398
 15869 40b6 94510000 		.4byte	0x5194
 15870 40ba D8400000 		.4byte	0x40d8
 15871 40be 30       		.uleb128 0x30
 15872 40bf 01       		.uleb128 0x1
 15873 40c0 51       		.byte	0x51
 15874 40c1 03       		.uleb128 0x3
 15875 40c2 91       		.byte	0x91
 15876 40c3 8471     		.sleb128 -1916
 15877 40c5 30       		.uleb128 0x30
 15878 40c6 02       		.uleb128 0x2
 15879 40c7 90       		.byte	0x90
 15880 40c8 41       		.uleb128 0x41
 15881 40c9 07       		.uleb128 0x7
ARM GAS  /tmp/cc0XcXNK.s 			page 280


 15882 40ca F4       		.byte	0xf4
 15883 40cb 25       		.uleb128 0x25
 15884 40cc 04       		.byte	0x4
 15885 40cd 00002041 		.4byte	0x41200000
 15886 40d1 30       		.uleb128 0x30
 15887 40d2 01       		.uleb128 0x1
 15888 40d3 50       		.byte	0x50
 15889 40d4 02       		.uleb128 0x2
 15890 40d5 74       		.byte	0x74
 15891 40d6 00       		.sleb128 0
 15892 40d7 00       		.byte	0
 15893 40d8 44       		.uleb128 0x44
 15894 40d9 561D0000 		.4byte	.LVL399
 15895 40dd 7E510000 		.4byte	0x517e
 15896 40e1 31       		.uleb128 0x31
 15897 40e2 721D0000 		.4byte	.LVL400
 15898 40e6 94510000 		.4byte	0x5194
 15899 40ea 08410000 		.4byte	0x4108
 15900 40ee 30       		.uleb128 0x30
 15901 40ef 01       		.uleb128 0x1
 15902 40f0 51       		.byte	0x51
 15903 40f1 03       		.uleb128 0x3
 15904 40f2 91       		.byte	0x91
 15905 40f3 8471     		.sleb128 -1916
 15906 40f5 30       		.uleb128 0x30
 15907 40f6 02       		.uleb128 0x2
 15908 40f7 90       		.byte	0x90
 15909 40f8 41       		.uleb128 0x41
 15910 40f9 07       		.uleb128 0x7
 15911 40fa F4       		.byte	0xf4
 15912 40fb 25       		.uleb128 0x25
 15913 40fc 04       		.byte	0x4
 15914 40fd 00002041 		.4byte	0x41200000
 15915 4101 30       		.uleb128 0x30
 15916 4102 01       		.uleb128 0x1
 15917 4103 50       		.byte	0x50
 15918 4104 02       		.uleb128 0x2
 15919 4105 74       		.byte	0x74
 15920 4106 00       		.sleb128 0
 15921 4107 00       		.byte	0
 15922 4108 44       		.uleb128 0x44
 15923 4109 8E1D0000 		.4byte	.LVL401
 15924 410d 7E510000 		.4byte	0x517e
 15925 4111 31       		.uleb128 0x31
 15926 4112 AA1D0000 		.4byte	.LVL402
 15927 4116 94510000 		.4byte	0x5194
 15928 411a 38410000 		.4byte	0x4138
 15929 411e 30       		.uleb128 0x30
 15930 411f 01       		.uleb128 0x1
 15931 4120 51       		.byte	0x51
 15932 4121 03       		.uleb128 0x3
 15933 4122 91       		.byte	0x91
 15934 4123 8471     		.sleb128 -1916
 15935 4125 30       		.uleb128 0x30
 15936 4126 02       		.uleb128 0x2
 15937 4127 90       		.byte	0x90
 15938 4128 41       		.uleb128 0x41
ARM GAS  /tmp/cc0XcXNK.s 			page 281


 15939 4129 07       		.uleb128 0x7
 15940 412a F4       		.byte	0xf4
 15941 412b 25       		.uleb128 0x25
 15942 412c 04       		.byte	0x4
 15943 412d 00002041 		.4byte	0x41200000
 15944 4131 30       		.uleb128 0x30
 15945 4132 01       		.uleb128 0x1
 15946 4133 50       		.byte	0x50
 15947 4134 02       		.uleb128 0x2
 15948 4135 74       		.byte	0x74
 15949 4136 00       		.sleb128 0
 15950 4137 00       		.byte	0
 15951 4138 44       		.uleb128 0x44
 15952 4139 C61D0000 		.4byte	.LVL403
 15953 413d 7E510000 		.4byte	0x517e
 15954 4141 31       		.uleb128 0x31
 15955 4142 E21D0000 		.4byte	.LVL404
 15956 4146 94510000 		.4byte	0x5194
 15957 414a 68410000 		.4byte	0x4168
 15958 414e 30       		.uleb128 0x30
 15959 414f 01       		.uleb128 0x1
 15960 4150 51       		.byte	0x51
 15961 4151 03       		.uleb128 0x3
 15962 4152 91       		.byte	0x91
 15963 4153 8471     		.sleb128 -1916
 15964 4155 30       		.uleb128 0x30
 15965 4156 02       		.uleb128 0x2
 15966 4157 90       		.byte	0x90
 15967 4158 41       		.uleb128 0x41
 15968 4159 07       		.uleb128 0x7
 15969 415a F4       		.byte	0xf4
 15970 415b 25       		.uleb128 0x25
 15971 415c 04       		.byte	0x4
 15972 415d 00002041 		.4byte	0x41200000
 15973 4161 30       		.uleb128 0x30
 15974 4162 01       		.uleb128 0x1
 15975 4163 50       		.byte	0x50
 15976 4164 02       		.uleb128 0x2
 15977 4165 74       		.byte	0x74
 15978 4166 00       		.sleb128 0
 15979 4167 00       		.byte	0
 15980 4168 44       		.uleb128 0x44
 15981 4169 E61D0000 		.4byte	.LVL405
 15982 416d B4510000 		.4byte	0x51b4
 15983 4171 31       		.uleb128 0x31
 15984 4172 F21D0000 		.4byte	.LVL406
 15985 4176 A04E0000 		.4byte	0x4ea0
 15986 417a 98410000 		.4byte	0x4198
 15987 417e 30       		.uleb128 0x30
 15988 417f 01       		.uleb128 0x1
 15989 4180 51       		.byte	0x51
 15990 4181 03       		.uleb128 0x3
 15991 4182 91       		.byte	0x91
 15992 4183 8471     		.sleb128 -1916
 15993 4185 30       		.uleb128 0x30
 15994 4186 02       		.uleb128 0x2
 15995 4187 90       		.byte	0x90
ARM GAS  /tmp/cc0XcXNK.s 			page 282


 15996 4188 41       		.uleb128 0x41
 15997 4189 07       		.uleb128 0x7
 15998 418a F4       		.byte	0xf4
 15999 418b 25       		.uleb128 0x25
 16000 418c 04       		.byte	0x4
 16001 418d 0000C842 		.4byte	0x42c80000
 16002 4191 30       		.uleb128 0x30
 16003 4192 01       		.uleb128 0x1
 16004 4193 50       		.byte	0x50
 16005 4194 02       		.uleb128 0x2
 16006 4195 74       		.byte	0x74
 16007 4196 00       		.sleb128 0
 16008 4197 00       		.byte	0
 16009 4198 44       		.uleb128 0x44
 16010 4199 F61D0000 		.4byte	.LVL407
 16011 419d BF510000 		.4byte	0x51bf
 16012 41a1 31       		.uleb128 0x31
 16013 41a2 021E0000 		.4byte	.LVL408
 16014 41a6 A04E0000 		.4byte	0x4ea0
 16015 41aa C8410000 		.4byte	0x41c8
 16016 41ae 30       		.uleb128 0x30
 16017 41af 01       		.uleb128 0x1
 16018 41b0 51       		.byte	0x51
 16019 41b1 03       		.uleb128 0x3
 16020 41b2 91       		.byte	0x91
 16021 41b3 8471     		.sleb128 -1916
 16022 41b5 30       		.uleb128 0x30
 16023 41b6 02       		.uleb128 0x2
 16024 41b7 90       		.byte	0x90
 16025 41b8 41       		.uleb128 0x41
 16026 41b9 07       		.uleb128 0x7
 16027 41ba F4       		.byte	0xf4
 16028 41bb 25       		.uleb128 0x25
 16029 41bc 04       		.byte	0x4
 16030 41bd 0000C842 		.4byte	0x42c80000
 16031 41c1 30       		.uleb128 0x30
 16032 41c2 01       		.uleb128 0x1
 16033 41c3 50       		.byte	0x50
 16034 41c4 02       		.uleb128 0x2
 16035 41c5 74       		.byte	0x74
 16036 41c6 00       		.sleb128 0
 16037 41c7 00       		.byte	0
 16038 41c8 44       		.uleb128 0x44
 16039 41c9 061E0000 		.4byte	.LVL409
 16040 41cd CA510000 		.4byte	0x51ca
 16041 41d1 31       		.uleb128 0x31
 16042 41d2 121E0000 		.4byte	.LVL410
 16043 41d6 94510000 		.4byte	0x5194
 16044 41da F8410000 		.4byte	0x41f8
 16045 41de 30       		.uleb128 0x30
 16046 41df 01       		.uleb128 0x1
 16047 41e0 51       		.byte	0x51
 16048 41e1 03       		.uleb128 0x3
 16049 41e2 91       		.byte	0x91
 16050 41e3 8471     		.sleb128 -1916
 16051 41e5 30       		.uleb128 0x30
 16052 41e6 02       		.uleb128 0x2
ARM GAS  /tmp/cc0XcXNK.s 			page 283


 16053 41e7 90       		.byte	0x90
 16054 41e8 41       		.uleb128 0x41
 16055 41e9 07       		.uleb128 0x7
 16056 41ea F4       		.byte	0xf4
 16057 41eb 25       		.uleb128 0x25
 16058 41ec 04       		.byte	0x4
 16059 41ed 00007A44 		.4byte	0x447a0000
 16060 41f1 30       		.uleb128 0x30
 16061 41f2 01       		.uleb128 0x1
 16062 41f3 50       		.byte	0x50
 16063 41f4 02       		.uleb128 0x2
 16064 41f5 74       		.byte	0x74
 16065 41f6 00       		.sleb128 0
 16066 41f7 00       		.byte	0
 16067 41f8 44       		.uleb128 0x44
 16068 41f9 161E0000 		.4byte	.LVL411
 16069 41fd D5510000 		.4byte	0x51d5
 16070 4201 31       		.uleb128 0x31
 16071 4202 221E0000 		.4byte	.LVL412
 16072 4206 A04E0000 		.4byte	0x4ea0
 16073 420a 24420000 		.4byte	0x4224
 16074 420e 30       		.uleb128 0x30
 16075 420f 01       		.uleb128 0x1
 16076 4210 51       		.byte	0x51
 16077 4211 03       		.uleb128 0x3
 16078 4212 91       		.byte	0x91
 16079 4213 8471     		.sleb128 -1916
 16080 4215 30       		.uleb128 0x30
 16081 4216 02       		.uleb128 0x2
 16082 4217 90       		.byte	0x90
 16083 4218 41       		.uleb128 0x41
 16084 4219 03       		.uleb128 0x3
 16085 421a F5       		.byte	0xf5
 16086 421b 53       		.uleb128 0x53
 16087 421c 25       		.uleb128 0x25
 16088 421d 30       		.uleb128 0x30
 16089 421e 01       		.uleb128 0x1
 16090 421f 50       		.byte	0x50
 16091 4220 02       		.uleb128 0x2
 16092 4221 74       		.byte	0x74
 16093 4222 00       		.sleb128 0
 16094 4223 00       		.byte	0
 16095 4224 31       		.uleb128 0x31
 16096 4225 4A1E0000 		.4byte	.LVL413
 16097 4229 94510000 		.4byte	0x5194
 16098 422d 4B420000 		.4byte	0x424b
 16099 4231 30       		.uleb128 0x30
 16100 4232 01       		.uleb128 0x1
 16101 4233 51       		.byte	0x51
 16102 4234 03       		.uleb128 0x3
 16103 4235 91       		.byte	0x91
 16104 4236 8471     		.sleb128 -1916
 16105 4238 30       		.uleb128 0x30
 16106 4239 02       		.uleb128 0x2
 16107 423a 90       		.byte	0x90
 16108 423b 41       		.uleb128 0x41
 16109 423c 07       		.uleb128 0x7
ARM GAS  /tmp/cc0XcXNK.s 			page 284


 16110 423d F4       		.byte	0xf4
 16111 423e 25       		.uleb128 0x25
 16112 423f 04       		.byte	0x4
 16113 4240 00002041 		.4byte	0x41200000
 16114 4244 30       		.uleb128 0x30
 16115 4245 01       		.uleb128 0x1
 16116 4246 50       		.byte	0x50
 16117 4247 02       		.uleb128 0x2
 16118 4248 74       		.byte	0x74
 16119 4249 00       		.sleb128 0
 16120 424a 00       		.byte	0
 16121 424b 31       		.uleb128 0x31
 16122 424c 501E0000 		.4byte	.LVL414
 16123 4250 E0510000 		.4byte	0x51e0
 16124 4254 5E420000 		.4byte	0x425e
 16125 4258 30       		.uleb128 0x30
 16126 4259 01       		.uleb128 0x1
 16127 425a 50       		.byte	0x50
 16128 425b 01       		.uleb128 0x1
 16129 425c 30       		.byte	0x30
 16130 425d 00       		.byte	0
 16131 425e 31       		.uleb128 0x31
 16132 425f 5C1E0000 		.4byte	.LVL415
 16133 4263 A04E0000 		.4byte	0x4ea0
 16134 4267 81420000 		.4byte	0x4281
 16135 426b 30       		.uleb128 0x30
 16136 426c 01       		.uleb128 0x1
 16137 426d 51       		.byte	0x51
 16138 426e 03       		.uleb128 0x3
 16139 426f 91       		.byte	0x91
 16140 4270 8471     		.sleb128 -1916
 16141 4272 30       		.uleb128 0x30
 16142 4273 02       		.uleb128 0x2
 16143 4274 90       		.byte	0x90
 16144 4275 41       		.uleb128 0x41
 16145 4276 03       		.uleb128 0x3
 16146 4277 F5       		.byte	0xf5
 16147 4278 50       		.uleb128 0x50
 16148 4279 25       		.uleb128 0x25
 16149 427a 30       		.uleb128 0x30
 16150 427b 01       		.uleb128 0x1
 16151 427c 50       		.byte	0x50
 16152 427d 02       		.uleb128 0x2
 16153 427e 74       		.byte	0x74
 16154 427f 00       		.sleb128 0
 16155 4280 00       		.byte	0
 16156 4281 31       		.uleb128 0x31
 16157 4282 621E0000 		.4byte	.LVL416
 16158 4286 F5510000 		.4byte	0x51f5
 16159 428a 94420000 		.4byte	0x4294
 16160 428e 30       		.uleb128 0x30
 16161 428f 01       		.uleb128 0x1
 16162 4290 50       		.byte	0x50
 16163 4291 01       		.uleb128 0x1
 16164 4292 30       		.byte	0x30
 16165 4293 00       		.byte	0
 16166 4294 31       		.uleb128 0x31
ARM GAS  /tmp/cc0XcXNK.s 			page 285


 16167 4295 6E1E0000 		.4byte	.LVL417
 16168 4299 A04E0000 		.4byte	0x4ea0
 16169 429d B7420000 		.4byte	0x42b7
 16170 42a1 30       		.uleb128 0x30
 16171 42a2 01       		.uleb128 0x1
 16172 42a3 51       		.byte	0x51
 16173 42a4 03       		.uleb128 0x3
 16174 42a5 91       		.byte	0x91
 16175 42a6 8471     		.sleb128 -1916
 16176 42a8 30       		.uleb128 0x30
 16177 42a9 02       		.uleb128 0x2
 16178 42aa 90       		.byte	0x90
 16179 42ab 41       		.uleb128 0x41
 16180 42ac 03       		.uleb128 0x3
 16181 42ad F5       		.byte	0xf5
 16182 42ae 50       		.uleb128 0x50
 16183 42af 25       		.uleb128 0x25
 16184 42b0 30       		.uleb128 0x30
 16185 42b1 01       		.uleb128 0x1
 16186 42b2 50       		.byte	0x50
 16187 42b3 02       		.uleb128 0x2
 16188 42b4 74       		.byte	0x74
 16189 42b5 00       		.sleb128 0
 16190 42b6 00       		.byte	0
 16191 42b7 31       		.uleb128 0x31
 16192 42b8 741E0000 		.4byte	.LVL418
 16193 42bc 0A520000 		.4byte	0x520a
 16194 42c0 CA420000 		.4byte	0x42ca
 16195 42c4 30       		.uleb128 0x30
 16196 42c5 01       		.uleb128 0x1
 16197 42c6 50       		.byte	0x50
 16198 42c7 01       		.uleb128 0x1
 16199 42c8 30       		.byte	0x30
 16200 42c9 00       		.byte	0
 16201 42ca 31       		.uleb128 0x31
 16202 42cb 801E0000 		.4byte	.LVL419
 16203 42cf A04E0000 		.4byte	0x4ea0
 16204 42d3 ED420000 		.4byte	0x42ed
 16205 42d7 30       		.uleb128 0x30
 16206 42d8 01       		.uleb128 0x1
 16207 42d9 51       		.byte	0x51
 16208 42da 03       		.uleb128 0x3
 16209 42db 91       		.byte	0x91
 16210 42dc 8471     		.sleb128 -1916
 16211 42de 30       		.uleb128 0x30
 16212 42df 02       		.uleb128 0x2
 16213 42e0 90       		.byte	0x90
 16214 42e1 41       		.uleb128 0x41
 16215 42e2 03       		.uleb128 0x3
 16216 42e3 F5       		.byte	0xf5
 16217 42e4 50       		.uleb128 0x50
 16218 42e5 25       		.uleb128 0x25
 16219 42e6 30       		.uleb128 0x30
 16220 42e7 01       		.uleb128 0x1
 16221 42e8 50       		.byte	0x50
 16222 42e9 02       		.uleb128 0x2
 16223 42ea 74       		.byte	0x74
ARM GAS  /tmp/cc0XcXNK.s 			page 286


 16224 42eb 00       		.sleb128 0
 16225 42ec 00       		.byte	0
 16226 42ed 31       		.uleb128 0x31
 16227 42ee 861E0000 		.4byte	.LVL420
 16228 42f2 1F520000 		.4byte	0x521f
 16229 42f6 00430000 		.4byte	0x4300
 16230 42fa 30       		.uleb128 0x30
 16231 42fb 01       		.uleb128 0x1
 16232 42fc 50       		.byte	0x50
 16233 42fd 01       		.uleb128 0x1
 16234 42fe 30       		.byte	0x30
 16235 42ff 00       		.byte	0
 16236 4300 31       		.uleb128 0x31
 16237 4301 921E0000 		.4byte	.LVL421
 16238 4305 A04E0000 		.4byte	0x4ea0
 16239 4309 23430000 		.4byte	0x4323
 16240 430d 30       		.uleb128 0x30
 16241 430e 01       		.uleb128 0x1
 16242 430f 51       		.byte	0x51
 16243 4310 03       		.uleb128 0x3
 16244 4311 91       		.byte	0x91
 16245 4312 8471     		.sleb128 -1916
 16246 4314 30       		.uleb128 0x30
 16247 4315 02       		.uleb128 0x2
 16248 4316 90       		.byte	0x90
 16249 4317 41       		.uleb128 0x41
 16250 4318 03       		.uleb128 0x3
 16251 4319 F5       		.byte	0xf5
 16252 431a 50       		.uleb128 0x50
 16253 431b 25       		.uleb128 0x25
 16254 431c 30       		.uleb128 0x30
 16255 431d 01       		.uleb128 0x1
 16256 431e 50       		.byte	0x50
 16257 431f 02       		.uleb128 0x2
 16258 4320 74       		.byte	0x74
 16259 4321 00       		.sleb128 0
 16260 4322 00       		.byte	0
 16261 4323 31       		.uleb128 0x31
 16262 4324 981E0000 		.4byte	.LVL422
 16263 4328 34520000 		.4byte	0x5234
 16264 432c 36430000 		.4byte	0x4336
 16265 4330 30       		.uleb128 0x30
 16266 4331 01       		.uleb128 0x1
 16267 4332 50       		.byte	0x50
 16268 4333 01       		.uleb128 0x1
 16269 4334 30       		.byte	0x30
 16270 4335 00       		.byte	0
 16271 4336 31       		.uleb128 0x31
 16272 4337 A21E0000 		.4byte	.LVL423
 16273 433b 9C4D0000 		.4byte	0x4d9c
 16274 433f 51430000 		.4byte	0x4351
 16275 4343 30       		.uleb128 0x30
 16276 4344 01       		.uleb128 0x1
 16277 4345 52       		.byte	0x52
 16278 4346 03       		.uleb128 0x3
 16279 4347 91       		.byte	0x91
 16280 4348 8471     		.sleb128 -1916
ARM GAS  /tmp/cc0XcXNK.s 			page 287


 16281 434a 30       		.uleb128 0x30
 16282 434b 01       		.uleb128 0x1
 16283 434c 50       		.byte	0x50
 16284 434d 02       		.uleb128 0x2
 16285 434e 74       		.byte	0x74
 16286 434f 00       		.sleb128 0
 16287 4350 00       		.byte	0
 16288 4351 31       		.uleb128 0x31
 16289 4352 A81E0000 		.4byte	.LVL424
 16290 4356 49520000 		.4byte	0x5249
 16291 435a 64430000 		.4byte	0x4364
 16292 435e 30       		.uleb128 0x30
 16293 435f 01       		.uleb128 0x1
 16294 4360 50       		.byte	0x50
 16295 4361 01       		.uleb128 0x1
 16296 4362 30       		.byte	0x30
 16297 4363 00       		.byte	0
 16298 4364 31       		.uleb128 0x31
 16299 4365 B21E0000 		.4byte	.LVL425
 16300 4369 9C4D0000 		.4byte	0x4d9c
 16301 436d 7F430000 		.4byte	0x437f
 16302 4371 30       		.uleb128 0x30
 16303 4372 01       		.uleb128 0x1
 16304 4373 52       		.byte	0x52
 16305 4374 03       		.uleb128 0x3
 16306 4375 91       		.byte	0x91
 16307 4376 8471     		.sleb128 -1916
 16308 4378 30       		.uleb128 0x30
 16309 4379 01       		.uleb128 0x1
 16310 437a 50       		.byte	0x50
 16311 437b 02       		.uleb128 0x2
 16312 437c 74       		.byte	0x74
 16313 437d 00       		.sleb128 0
 16314 437e 00       		.byte	0
 16315 437f 44       		.uleb128 0x44
 16316 4380 BC1E0000 		.4byte	.LVL426
 16317 4384 5E520000 		.4byte	0x525e
 16318 4388 31       		.uleb128 0x31
 16319 4389 101F0000 		.4byte	.LVL429
 16320 438d 84500000 		.4byte	0x5084
 16321 4391 A3430000 		.4byte	0x43a3
 16322 4395 30       		.uleb128 0x30
 16323 4396 01       		.uleb128 0x1
 16324 4397 51       		.byte	0x51
 16325 4398 03       		.uleb128 0x3
 16326 4399 91       		.byte	0x91
 16327 439a 8471     		.sleb128 -1916
 16328 439c 30       		.uleb128 0x30
 16329 439d 01       		.uleb128 0x1
 16330 439e 50       		.byte	0x50
 16331 439f 02       		.uleb128 0x2
 16332 43a0 74       		.byte	0x74
 16333 43a1 00       		.sleb128 0
 16334 43a2 00       		.byte	0
 16335 43a3 44       		.uleb128 0x44
 16336 43a4 1C1F0000 		.4byte	.LVL430
 16337 43a8 69520000 		.4byte	0x5269
ARM GAS  /tmp/cc0XcXNK.s 			page 288


 16338 43ac 31       		.uleb128 0x31
 16339 43ad 4C1F0000 		.4byte	.LVL437
 16340 43b1 84500000 		.4byte	0x5084
 16341 43b5 C7430000 		.4byte	0x43c7
 16342 43b9 30       		.uleb128 0x30
 16343 43ba 01       		.uleb128 0x1
 16344 43bb 51       		.byte	0x51
 16345 43bc 03       		.uleb128 0x3
 16346 43bd 91       		.byte	0x91
 16347 43be 8471     		.sleb128 -1916
 16348 43c0 30       		.uleb128 0x30
 16349 43c1 01       		.uleb128 0x1
 16350 43c2 50       		.byte	0x50
 16351 43c3 02       		.uleb128 0x2
 16352 43c4 74       		.byte	0x74
 16353 43c5 00       		.sleb128 0
 16354 43c6 00       		.byte	0
 16355 43c7 44       		.uleb128 0x44
 16356 43c8 501F0000 		.4byte	.LVL438
 16357 43cc 88520000 		.4byte	0x5288
 16358 43d0 44       		.uleb128 0x44
 16359 43d1 741F0000 		.4byte	.LVL442
 16360 43d5 9D520000 		.4byte	0x529d
 16361 43d9 44       		.uleb128 0x44
 16362 43da 9C1F0000 		.4byte	.LVL446
 16363 43de FE500000 		.4byte	0x50fe
 16364 43e2 31       		.uleb128 0x31
 16365 43e3 AA1F0000 		.4byte	.LVL448
 16366 43e7 E64D0000 		.4byte	0x4de6
 16367 43eb FD430000 		.4byte	0x43fd
 16368 43ef 30       		.uleb128 0x30
 16369 43f0 01       		.uleb128 0x1
 16370 43f1 52       		.byte	0x52
 16371 43f2 03       		.uleb128 0x3
 16372 43f3 0A       		.byte	0xa
 16373 43f4 0001     		.2byte	0x100
 16374 43f6 30       		.uleb128 0x30
 16375 43f7 01       		.uleb128 0x1
 16376 43f8 50       		.byte	0x50
 16377 43f9 02       		.uleb128 0x2
 16378 43fa 74       		.byte	0x74
 16379 43fb 00       		.sleb128 0
 16380 43fc 00       		.byte	0
 16381 43fd 44       		.uleb128 0x44
 16382 43fe AE1F0000 		.4byte	.LVL449
 16383 4402 5A4E0000 		.4byte	0x4e5a
 16384 4406 31       		.uleb128 0x31
 16385 4407 BE1F0000 		.4byte	.LVL450
 16386 440b E64D0000 		.4byte	0x4de6
 16387 440f 24440000 		.4byte	0x4424
 16388 4413 30       		.uleb128 0x30
 16389 4414 01       		.uleb128 0x1
 16390 4415 52       		.byte	0x52
 16391 4416 03       		.uleb128 0x3
 16392 4417 0A       		.byte	0xa
 16393 4418 3801     		.2byte	0x138
 16394 441a 30       		.uleb128 0x30
ARM GAS  /tmp/cc0XcXNK.s 			page 289


 16395 441b 01       		.uleb128 0x1
 16396 441c 50       		.byte	0x50
 16397 441d 05       		.uleb128 0x5
 16398 441e 03       		.byte	0x3
 16399 441f 00000000 		.4byte	.LANCHOR12
 16400 4423 00       		.byte	0
 16401 4424 31       		.uleb128 0x31
 16402 4425 24210000 		.4byte	.LVL474
 16403 4429 A4520000 		.4byte	0x52a4
 16404 442d 4B440000 		.4byte	0x444b
 16405 4431 30       		.uleb128 0x30
 16406 4432 01       		.uleb128 0x1
 16407 4433 51       		.byte	0x51
 16408 4434 03       		.uleb128 0x3
 16409 4435 91       		.byte	0x91
 16410 4436 8471     		.sleb128 -1916
 16411 4438 30       		.uleb128 0x30
 16412 4439 02       		.uleb128 0x2
 16413 443a 90       		.byte	0x90
 16414 443b 40       		.uleb128 0x40
 16415 443c 07       		.uleb128 0x7
 16416 443d F4       		.byte	0xf4
 16417 443e 25       		.uleb128 0x25
 16418 443f 04       		.byte	0x4
 16419 4440 0000803F 		.4byte	0x3f800000
 16420 4444 30       		.uleb128 0x30
 16421 4445 01       		.uleb128 0x1
 16422 4446 50       		.byte	0x50
 16423 4447 02       		.uleb128 0x2
 16424 4448 74       		.byte	0x74
 16425 4449 00       		.sleb128 0
 16426 444a 00       		.byte	0
 16427 444b 31       		.uleb128 0x31
 16428 444c 34210000 		.4byte	.LVL477
 16429 4450 A4520000 		.4byte	0x52a4
 16430 4454 72440000 		.4byte	0x4472
 16431 4458 30       		.uleb128 0x30
 16432 4459 01       		.uleb128 0x1
 16433 445a 51       		.byte	0x51
 16434 445b 03       		.uleb128 0x3
 16435 445c 91       		.byte	0x91
 16436 445d 8471     		.sleb128 -1916
 16437 445f 30       		.uleb128 0x30
 16438 4460 02       		.uleb128 0x2
 16439 4461 90       		.byte	0x90
 16440 4462 40       		.uleb128 0x40
 16441 4463 07       		.uleb128 0x7
 16442 4464 F4       		.byte	0xf4
 16443 4465 25       		.uleb128 0x25
 16444 4466 04       		.byte	0x4
 16445 4467 00002041 		.4byte	0x41200000
 16446 446b 30       		.uleb128 0x30
 16447 446c 01       		.uleb128 0x1
 16448 446d 50       		.byte	0x50
 16449 446e 02       		.uleb128 0x2
 16450 446f 74       		.byte	0x74
 16451 4470 00       		.sleb128 0
ARM GAS  /tmp/cc0XcXNK.s 			page 290


 16452 4471 00       		.byte	0
 16453 4472 31       		.uleb128 0x31
 16454 4473 44210000 		.4byte	.LVL480
 16455 4477 A4520000 		.4byte	0x52a4
 16456 447b 99440000 		.4byte	0x4499
 16457 447f 30       		.uleb128 0x30
 16458 4480 01       		.uleb128 0x1
 16459 4481 51       		.byte	0x51
 16460 4482 03       		.uleb128 0x3
 16461 4483 91       		.byte	0x91
 16462 4484 8471     		.sleb128 -1916
 16463 4486 30       		.uleb128 0x30
 16464 4487 02       		.uleb128 0x2
 16465 4488 90       		.byte	0x90
 16466 4489 40       		.uleb128 0x40
 16467 448a 07       		.uleb128 0x7
 16468 448b F4       		.byte	0xf4
 16469 448c 25       		.uleb128 0x25
 16470 448d 04       		.byte	0x4
 16471 448e 00002041 		.4byte	0x41200000
 16472 4492 30       		.uleb128 0x30
 16473 4493 01       		.uleb128 0x1
 16474 4494 50       		.byte	0x50
 16475 4495 02       		.uleb128 0x2
 16476 4496 74       		.byte	0x74
 16477 4497 00       		.sleb128 0
 16478 4498 00       		.byte	0
 16479 4499 31       		.uleb128 0x31
 16480 449a 54210000 		.4byte	.LVL483
 16481 449e A4520000 		.4byte	0x52a4
 16482 44a2 C0440000 		.4byte	0x44c0
 16483 44a6 30       		.uleb128 0x30
 16484 44a7 01       		.uleb128 0x1
 16485 44a8 51       		.byte	0x51
 16486 44a9 03       		.uleb128 0x3
 16487 44aa 91       		.byte	0x91
 16488 44ab 8471     		.sleb128 -1916
 16489 44ad 30       		.uleb128 0x30
 16490 44ae 02       		.uleb128 0x2
 16491 44af 90       		.byte	0x90
 16492 44b0 40       		.uleb128 0x40
 16493 44b1 07       		.uleb128 0x7
 16494 44b2 F4       		.byte	0xf4
 16495 44b3 25       		.uleb128 0x25
 16496 44b4 04       		.byte	0x4
 16497 44b5 00002041 		.4byte	0x41200000
 16498 44b9 30       		.uleb128 0x30
 16499 44ba 01       		.uleb128 0x1
 16500 44bb 50       		.byte	0x50
 16501 44bc 02       		.uleb128 0x2
 16502 44bd 74       		.byte	0x74
 16503 44be 00       		.sleb128 0
 16504 44bf 00       		.byte	0
 16505 44c0 31       		.uleb128 0x31
 16506 44c1 64210000 		.4byte	.LVL486
 16507 44c5 A4520000 		.4byte	0x52a4
 16508 44c9 E7440000 		.4byte	0x44e7
ARM GAS  /tmp/cc0XcXNK.s 			page 291


 16509 44cd 30       		.uleb128 0x30
 16510 44ce 01       		.uleb128 0x1
 16511 44cf 51       		.byte	0x51
 16512 44d0 03       		.uleb128 0x3
 16513 44d1 91       		.byte	0x91
 16514 44d2 8471     		.sleb128 -1916
 16515 44d4 30       		.uleb128 0x30
 16516 44d5 02       		.uleb128 0x2
 16517 44d6 90       		.byte	0x90
 16518 44d7 40       		.uleb128 0x40
 16519 44d8 07       		.uleb128 0x7
 16520 44d9 F4       		.byte	0xf4
 16521 44da 25       		.uleb128 0x25
 16522 44db 04       		.byte	0x4
 16523 44dc 00002041 		.4byte	0x41200000
 16524 44e0 30       		.uleb128 0x30
 16525 44e1 01       		.uleb128 0x1
 16526 44e2 50       		.byte	0x50
 16527 44e3 02       		.uleb128 0x2
 16528 44e4 74       		.byte	0x74
 16529 44e5 00       		.sleb128 0
 16530 44e6 00       		.byte	0
 16531 44e7 31       		.uleb128 0x31
 16532 44e8 74210000 		.4byte	.LVL489
 16533 44ec A4520000 		.4byte	0x52a4
 16534 44f0 0E450000 		.4byte	0x450e
 16535 44f4 30       		.uleb128 0x30
 16536 44f5 01       		.uleb128 0x1
 16537 44f6 51       		.byte	0x51
 16538 44f7 03       		.uleb128 0x3
 16539 44f8 91       		.byte	0x91
 16540 44f9 8471     		.sleb128 -1916
 16541 44fb 30       		.uleb128 0x30
 16542 44fc 02       		.uleb128 0x2
 16543 44fd 90       		.byte	0x90
 16544 44fe 40       		.uleb128 0x40
 16545 44ff 07       		.uleb128 0x7
 16546 4500 F4       		.byte	0xf4
 16547 4501 25       		.uleb128 0x25
 16548 4502 04       		.byte	0x4
 16549 4503 CDCCCC3D 		.4byte	0x3dcccccd
 16550 4507 30       		.uleb128 0x30
 16551 4508 01       		.uleb128 0x1
 16552 4509 50       		.byte	0x50
 16553 450a 02       		.uleb128 0x2
 16554 450b 74       		.byte	0x74
 16555 450c 00       		.sleb128 0
 16556 450d 00       		.byte	0
 16557 450e 44       		.uleb128 0x44
 16558 450f 7C210000 		.4byte	.LVL491
 16559 4513 FE500000 		.4byte	0x50fe
 16560 4517 31       		.uleb128 0x31
 16561 4518 8A210000 		.4byte	.LVL493
 16562 451c E64D0000 		.4byte	0x4de6
 16563 4520 32450000 		.4byte	0x4532
 16564 4524 30       		.uleb128 0x30
 16565 4525 01       		.uleb128 0x1
ARM GAS  /tmp/cc0XcXNK.s 			page 292


 16566 4526 52       		.byte	0x52
 16567 4527 03       		.uleb128 0x3
 16568 4528 0A       		.byte	0xa
 16569 4529 0001     		.2byte	0x100
 16570 452b 30       		.uleb128 0x30
 16571 452c 01       		.uleb128 0x1
 16572 452d 50       		.byte	0x50
 16573 452e 02       		.uleb128 0x2
 16574 452f 74       		.byte	0x74
 16575 4530 00       		.sleb128 0
 16576 4531 00       		.byte	0
 16577 4532 31       		.uleb128 0x31
 16578 4533 9C230000 		.4byte	.LVL519
 16579 4537 C3520000 		.4byte	0x52c3
 16580 453b 4D450000 		.4byte	0x454d
 16581 453f 30       		.uleb128 0x30
 16582 4540 01       		.uleb128 0x1
 16583 4541 51       		.byte	0x51
 16584 4542 03       		.uleb128 0x3
 16585 4543 91       		.byte	0x91
 16586 4544 8471     		.sleb128 -1916
 16587 4546 30       		.uleb128 0x30
 16588 4547 01       		.uleb128 0x1
 16589 4548 50       		.byte	0x50
 16590 4549 02       		.uleb128 0x2
 16591 454a 74       		.byte	0x74
 16592 454b 00       		.sleb128 0
 16593 454c 00       		.byte	0
 16594 454d 31       		.uleb128 0x31
 16595 454e A6230000 		.4byte	.LVL520
 16596 4552 C3520000 		.4byte	0x52c3
 16597 4556 68450000 		.4byte	0x4568
 16598 455a 30       		.uleb128 0x30
 16599 455b 01       		.uleb128 0x1
 16600 455c 51       		.byte	0x51
 16601 455d 03       		.uleb128 0x3
 16602 455e 91       		.byte	0x91
 16603 455f 8471     		.sleb128 -1916
 16604 4561 30       		.uleb128 0x30
 16605 4562 01       		.uleb128 0x1
 16606 4563 50       		.byte	0x50
 16607 4564 02       		.uleb128 0x2
 16608 4565 74       		.byte	0x74
 16609 4566 00       		.sleb128 0
 16610 4567 00       		.byte	0
 16611 4568 31       		.uleb128 0x31
 16612 4569 B0230000 		.4byte	.LVL521
 16613 456d C3520000 		.4byte	0x52c3
 16614 4571 83450000 		.4byte	0x4583
 16615 4575 30       		.uleb128 0x30
 16616 4576 01       		.uleb128 0x1
 16617 4577 51       		.byte	0x51
 16618 4578 03       		.uleb128 0x3
 16619 4579 91       		.byte	0x91
 16620 457a 8471     		.sleb128 -1916
 16621 457c 30       		.uleb128 0x30
 16622 457d 01       		.uleb128 0x1
ARM GAS  /tmp/cc0XcXNK.s 			page 293


 16623 457e 50       		.byte	0x50
 16624 457f 02       		.uleb128 0x2
 16625 4580 74       		.byte	0x74
 16626 4581 00       		.sleb128 0
 16627 4582 00       		.byte	0
 16628 4583 31       		.uleb128 0x31
 16629 4584 B8230000 		.4byte	.LVL522
 16630 4588 DD520000 		.4byte	0x52dd
 16631 458c 98450000 		.4byte	0x4598
 16632 4590 30       		.uleb128 0x30
 16633 4591 01       		.uleb128 0x1
 16634 4592 50       		.byte	0x50
 16635 4593 03       		.uleb128 0x3
 16636 4594 91       		.byte	0x91
 16637 4595 C077     		.sleb128 -1088
 16638 4597 00       		.byte	0
 16639 4598 31       		.uleb128 0x31
 16640 4599 C8230000 		.4byte	.LVL524
 16641 459d 184F0000 		.4byte	0x4f18
 16642 45a1 B7450000 		.4byte	0x45b7
 16643 45a5 30       		.uleb128 0x30
 16644 45a6 01       		.uleb128 0x1
 16645 45a7 53       		.byte	0x53
 16646 45a8 01       		.uleb128 0x1
 16647 45a9 30       		.byte	0x30
 16648 45aa 30       		.uleb128 0x30
 16649 45ab 01       		.uleb128 0x1
 16650 45ac 52       		.byte	0x52
 16651 45ad 02       		.uleb128 0x2
 16652 45ae 75       		.byte	0x75
 16653 45af 7E       		.sleb128 -2
 16654 45b0 30       		.uleb128 0x30
 16655 45b1 01       		.uleb128 0x1
 16656 45b2 51       		.byte	0x51
 16657 45b3 02       		.uleb128 0x2
 16658 45b4 76       		.byte	0x76
 16659 45b5 02       		.sleb128 2
 16660 45b6 00       		.byte	0
 16661 45b7 44       		.uleb128 0x44
 16662 45b8 EC230000 		.4byte	.LVL528
 16663 45bc 5A4E0000 		.4byte	0x4e5a
 16664 45c0 31       		.uleb128 0x31
 16665 45c1 FC230000 		.4byte	.LVL529
 16666 45c5 E64D0000 		.4byte	0x4de6
 16667 45c9 DE450000 		.4byte	0x45de
 16668 45cd 30       		.uleb128 0x30
 16669 45ce 01       		.uleb128 0x1
 16670 45cf 52       		.byte	0x52
 16671 45d0 03       		.uleb128 0x3
 16672 45d1 0A       		.byte	0xa
 16673 45d2 3801     		.2byte	0x138
 16674 45d4 30       		.uleb128 0x30
 16675 45d5 01       		.uleb128 0x1
 16676 45d6 50       		.byte	0x50
 16677 45d7 05       		.uleb128 0x5
 16678 45d8 03       		.byte	0x3
 16679 45d9 00000000 		.4byte	.LANCHOR12
ARM GAS  /tmp/cc0XcXNK.s 			page 294


 16680 45dd 00       		.byte	0
 16681 45de 44       		.uleb128 0x44
 16682 45df 00240000 		.4byte	.LVL530
 16683 45e3 FE500000 		.4byte	0x50fe
 16684 45e7 31       		.uleb128 0x31
 16685 45e8 0C240000 		.4byte	.LVL531
 16686 45ec E64D0000 		.4byte	0x4de6
 16687 45f0 02460000 		.4byte	0x4602
 16688 45f4 30       		.uleb128 0x30
 16689 45f5 01       		.uleb128 0x1
 16690 45f6 52       		.byte	0x52
 16691 45f7 03       		.uleb128 0x3
 16692 45f8 0A       		.byte	0xa
 16693 45f9 0001     		.2byte	0x100
 16694 45fb 30       		.uleb128 0x30
 16695 45fc 01       		.uleb128 0x1
 16696 45fd 50       		.byte	0x50
 16697 45fe 02       		.uleb128 0x2
 16698 45ff 74       		.byte	0x74
 16699 4600 00       		.sleb128 0
 16700 4601 00       		.byte	0
 16701 4602 31       		.uleb128 0x31
 16702 4603 12240000 		.4byte	.LVL532
 16703 4607 9E500000 		.4byte	0x509e
 16704 460b 19460000 		.4byte	0x4619
 16705 460f 30       		.uleb128 0x30
 16706 4610 01       		.uleb128 0x1
 16707 4611 50       		.byte	0x50
 16708 4612 05       		.uleb128 0x5
 16709 4613 03       		.byte	0x3
 16710 4614 00000000 		.4byte	.LANCHOR12
 16711 4618 00       		.byte	0
 16712 4619 31       		.uleb128 0x31
 16713 461a 18240000 		.4byte	.LVL533
 16714 461e 14510000 		.4byte	0x5114
 16715 4622 2D460000 		.4byte	0x462d
 16716 4626 30       		.uleb128 0x30
 16717 4627 01       		.uleb128 0x1
 16718 4628 50       		.byte	0x50
 16719 4629 02       		.uleb128 0x2
 16720 462a 74       		.byte	0x74
 16721 462b 00       		.sleb128 0
 16722 462c 00       		.byte	0
 16723 462d 44       		.uleb128 0x44
 16724 462e 68240000 		.4byte	.LVL544
 16725 4632 FE500000 		.4byte	0x50fe
 16726 4636 31       		.uleb128 0x31
 16727 4637 76240000 		.4byte	.LVL546
 16728 463b E64D0000 		.4byte	0x4de6
 16729 463f 51460000 		.4byte	0x4651
 16730 4643 30       		.uleb128 0x30
 16731 4644 01       		.uleb128 0x1
 16732 4645 52       		.byte	0x52
 16733 4646 03       		.uleb128 0x3
 16734 4647 0A       		.byte	0xa
 16735 4648 0001     		.2byte	0x100
 16736 464a 30       		.uleb128 0x30
ARM GAS  /tmp/cc0XcXNK.s 			page 295


 16737 464b 01       		.uleb128 0x1
 16738 464c 50       		.byte	0x50
 16739 464d 02       		.uleb128 0x2
 16740 464e 74       		.byte	0x74
 16741 464f 00       		.sleb128 0
 16742 4650 00       		.byte	0
 16743 4651 31       		.uleb128 0x31
 16744 4652 86240000 		.4byte	.LVL548
 16745 4656 F4520000 		.4byte	0x52f4
 16746 465a 73460000 		.4byte	0x4673
 16747 465e 30       		.uleb128 0x30
 16748 465f 01       		.uleb128 0x1
 16749 4660 52       		.byte	0x52
 16750 4661 01       		.uleb128 0x1
 16751 4662 38       		.byte	0x38
 16752 4663 30       		.uleb128 0x30
 16753 4664 01       		.uleb128 0x1
 16754 4665 51       		.byte	0x51
 16755 4666 02       		.uleb128 0x2
 16756 4667 08       		.byte	0x8
 16757 4668 FF       		.byte	0xff
 16758 4669 30       		.uleb128 0x30
 16759 466a 01       		.uleb128 0x1
 16760 466b 50       		.byte	0x50
 16761 466c 05       		.uleb128 0x5
 16762 466d 03       		.byte	0x3
 16763 466e 00000000 		.4byte	.LANCHOR8
 16764 4672 00       		.byte	0
 16765 4673 31       		.uleb128 0x31
 16766 4674 A8240000 		.4byte	.LVL551
 16767 4678 A04E0000 		.4byte	0x4ea0
 16768 467c A6460000 		.4byte	0x46a6
 16769 4680 30       		.uleb128 0x30
 16770 4681 01       		.uleb128 0x1
 16771 4682 51       		.byte	0x51
 16772 4683 03       		.uleb128 0x3
 16773 4684 91       		.byte	0x91
 16774 4685 8471     		.sleb128 -1916
 16775 4687 30       		.uleb128 0x30
 16776 4688 02       		.uleb128 0x2
 16777 4689 90       		.byte	0x90
 16778 468a 41       		.uleb128 0x41
 16779 468b 07       		.uleb128 0x7
 16780 468c F4       		.byte	0xf4
 16781 468d 25       		.uleb128 0x25
 16782 468e 04       		.byte	0x4
 16783 468f 00247449 		.4byte	0x49742400
 16784 4693 30       		.uleb128 0x30
 16785 4694 02       		.uleb128 0x2
 16786 4695 90       		.byte	0x90
 16787 4696 40       		.uleb128 0x40
 16788 4697 07       		.uleb128 0x7
 16789 4698 F4       		.byte	0xf4
 16790 4699 25       		.uleb128 0x25
 16791 469a 04       		.byte	0x4
 16792 469b 00407A44 		.4byte	0x447a4000
 16793 469f 30       		.uleb128 0x30
ARM GAS  /tmp/cc0XcXNK.s 			page 296


 16794 46a0 01       		.uleb128 0x1
 16795 46a1 50       		.byte	0x50
 16796 46a2 02       		.uleb128 0x2
 16797 46a3 74       		.byte	0x74
 16798 46a4 00       		.sleb128 0
 16799 46a5 00       		.byte	0
 16800 46a6 31       		.uleb128 0x31
 16801 46a7 B8240000 		.4byte	.LVL552
 16802 46ab A04E0000 		.4byte	0x4ea0
 16803 46af D9460000 		.4byte	0x46d9
 16804 46b3 30       		.uleb128 0x30
 16805 46b4 01       		.uleb128 0x1
 16806 46b5 51       		.byte	0x51
 16807 46b6 03       		.uleb128 0x3
 16808 46b7 91       		.byte	0x91
 16809 46b8 8471     		.sleb128 -1916
 16810 46ba 30       		.uleb128 0x30
 16811 46bb 02       		.uleb128 0x2
 16812 46bc 90       		.byte	0x90
 16813 46bd 41       		.uleb128 0x41
 16814 46be 07       		.uleb128 0x7
 16815 46bf F4       		.byte	0xf4
 16816 46c0 25       		.uleb128 0x25
 16817 46c1 04       		.byte	0x4
 16818 46c2 00247449 		.4byte	0x49742400
 16819 46c6 30       		.uleb128 0x30
 16820 46c7 02       		.uleb128 0x2
 16821 46c8 90       		.byte	0x90
 16822 46c9 40       		.uleb128 0x40
 16823 46ca 07       		.uleb128 0x7
 16824 46cb F4       		.byte	0xf4
 16825 46cc 25       		.uleb128 0x25
 16826 46cd 04       		.byte	0x4
 16827 46ce 00000000 		.4byte	0
 16828 46d2 30       		.uleb128 0x30
 16829 46d3 01       		.uleb128 0x1
 16830 46d4 50       		.byte	0x50
 16831 46d5 02       		.uleb128 0x2
 16832 46d6 74       		.byte	0x74
 16833 46d7 00       		.sleb128 0
 16834 46d8 00       		.byte	0
 16835 46d9 44       		.uleb128 0x44
 16836 46da D6240000 		.4byte	.LVL558
 16837 46de 13530000 		.4byte	0x5313
 16838 46e2 44       		.uleb128 0x44
 16839 46e3 DE240000 		.4byte	.LVL560
 16840 46e7 5A4E0000 		.4byte	0x4e5a
 16841 46eb 32       		.uleb128 0x32
 16842 46ec EA240000 		.4byte	.LVL561
 16843 46f0 E64D0000 		.4byte	0x4de6
 16844 46f4 30       		.uleb128 0x30
 16845 46f5 01       		.uleb128 0x1
 16846 46f6 52       		.byte	0x52
 16847 46f7 03       		.uleb128 0x3
 16848 46f8 0A       		.byte	0xa
 16849 46f9 3801     		.2byte	0x138
 16850 46fb 30       		.uleb128 0x30
ARM GAS  /tmp/cc0XcXNK.s 			page 297


 16851 46fc 01       		.uleb128 0x1
 16852 46fd 50       		.byte	0x50
 16853 46fe 05       		.uleb128 0x5
 16854 46ff 03       		.byte	0x3
 16855 4700 00000000 		.4byte	.LANCHOR12
 16856 4704 00       		.byte	0
 16857 4705 00       		.byte	0
 16858 4706 2A       		.uleb128 0x2a
 16859 4707 23160000 		.4byte	0x1623
 16860 470b 600F0000 		.4byte	.LBB216
 16861 470f 70030000 		.4byte	.Ldebug_ranges0+0x370
 16862 4713 01       		.byte	0x1
 16863 4714 3704     		.2byte	0x437
 16864 4716 39470000 		.4byte	0x4739
 16865 471a 2E       		.uleb128 0x2e
 16866 471b 3A160000 		.4byte	0x163a
 16867 471f 330D0000 		.4byte	.LLST65
 16868 4723 2E       		.uleb128 0x2e
 16869 4724 2F160000 		.4byte	0x162f
 16870 4728 460D0000 		.4byte	.LLST66
 16871 472c 3F       		.uleb128 0x3f
 16872 472d 640F0000 		.4byte	.LVL233
 16873 4731 30       		.uleb128 0x30
 16874 4732 01       		.uleb128 0x1
 16875 4733 50       		.byte	0x50
 16876 4734 02       		.uleb128 0x2
 16877 4735 75       		.byte	0x75
 16878 4736 00       		.sleb128 0
 16879 4737 00       		.byte	0
 16880 4738 00       		.byte	0
 16881 4739 31       		.uleb128 0x31
 16882 473a EC1F0000 		.4byte	.LVL451
 16883 473e 1A530000 		.4byte	0x531a
 16884 4742 5D470000 		.4byte	0x475d
 16885 4746 30       		.uleb128 0x30
 16886 4747 01       		.uleb128 0x1
 16887 4748 52       		.byte	0x52
 16888 4749 03       		.uleb128 0x3
 16889 474a 91       		.byte	0x91
 16890 474b 8471     		.sleb128 -1916
 16891 474d 30       		.uleb128 0x30
 16892 474e 01       		.uleb128 0x1
 16893 474f 51       		.byte	0x51
 16894 4750 05       		.uleb128 0x5
 16895 4751 91       		.byte	0x91
 16896 4752 FC70     		.sleb128 -1924
 16897 4754 94       		.byte	0x94
 16898 4755 02       		.byte	0x2
 16899 4756 30       		.uleb128 0x30
 16900 4757 01       		.uleb128 0x1
 16901 4758 50       		.byte	0x50
 16902 4759 02       		.uleb128 0x2
 16903 475a 75       		.byte	0x75
 16904 475b 00       		.sleb128 0
 16905 475c 00       		.byte	0
 16906 475d 31       		.uleb128 0x31
 16907 475e 0C200000 		.4byte	.LVL452
ARM GAS  /tmp/cc0XcXNK.s 			page 298


 16908 4762 1A530000 		.4byte	0x531a
 16909 4766 81470000 		.4byte	0x4781
 16910 476a 30       		.uleb128 0x30
 16911 476b 01       		.uleb128 0x1
 16912 476c 52       		.byte	0x52
 16913 476d 03       		.uleb128 0x3
 16914 476e 91       		.byte	0x91
 16915 476f 8471     		.sleb128 -1916
 16916 4771 30       		.uleb128 0x30
 16917 4772 01       		.uleb128 0x1
 16918 4773 51       		.byte	0x51
 16919 4774 05       		.uleb128 0x5
 16920 4775 91       		.byte	0x91
 16921 4776 FC70     		.sleb128 -1924
 16922 4778 94       		.byte	0x94
 16923 4779 02       		.byte	0x2
 16924 477a 30       		.uleb128 0x30
 16925 477b 01       		.uleb128 0x1
 16926 477c 50       		.byte	0x50
 16927 477d 02       		.uleb128 0x2
 16928 477e 75       		.byte	0x75
 16929 477f 00       		.sleb128 0
 16930 4780 00       		.byte	0
 16931 4781 31       		.uleb128 0x31
 16932 4782 28200000 		.4byte	.LVL453
 16933 4786 1A530000 		.4byte	0x531a
 16934 478a A5470000 		.4byte	0x47a5
 16935 478e 30       		.uleb128 0x30
 16936 478f 01       		.uleb128 0x1
 16937 4790 52       		.byte	0x52
 16938 4791 03       		.uleb128 0x3
 16939 4792 91       		.byte	0x91
 16940 4793 8471     		.sleb128 -1916
 16941 4795 30       		.uleb128 0x30
 16942 4796 01       		.uleb128 0x1
 16943 4797 51       		.byte	0x51
 16944 4798 05       		.uleb128 0x5
 16945 4799 91       		.byte	0x91
 16946 479a FC70     		.sleb128 -1924
 16947 479c 94       		.byte	0x94
 16948 479d 02       		.byte	0x2
 16949 479e 30       		.uleb128 0x30
 16950 479f 01       		.uleb128 0x1
 16951 47a0 50       		.byte	0x50
 16952 47a1 02       		.uleb128 0x2
 16953 47a2 75       		.byte	0x75
 16954 47a3 00       		.sleb128 0
 16955 47a4 00       		.byte	0
 16956 47a5 31       		.uleb128 0x31
 16957 47a6 44200000 		.4byte	.LVL454
 16958 47aa 1A530000 		.4byte	0x531a
 16959 47ae C9470000 		.4byte	0x47c9
 16960 47b2 30       		.uleb128 0x30
 16961 47b3 01       		.uleb128 0x1
 16962 47b4 52       		.byte	0x52
 16963 47b5 03       		.uleb128 0x3
 16964 47b6 91       		.byte	0x91
ARM GAS  /tmp/cc0XcXNK.s 			page 299


 16965 47b7 8471     		.sleb128 -1916
 16966 47b9 30       		.uleb128 0x30
 16967 47ba 01       		.uleb128 0x1
 16968 47bb 51       		.byte	0x51
 16969 47bc 05       		.uleb128 0x5
 16970 47bd 91       		.byte	0x91
 16971 47be FC70     		.sleb128 -1924
 16972 47c0 94       		.byte	0x94
 16973 47c1 02       		.byte	0x2
 16974 47c2 30       		.uleb128 0x30
 16975 47c3 01       		.uleb128 0x1
 16976 47c4 50       		.byte	0x50
 16977 47c5 02       		.uleb128 0x2
 16978 47c6 75       		.byte	0x75
 16979 47c7 00       		.sleb128 0
 16980 47c8 00       		.byte	0
 16981 47c9 31       		.uleb128 0x31
 16982 47ca 60200000 		.4byte	.LVL455
 16983 47ce 1A530000 		.4byte	0x531a
 16984 47d2 ED470000 		.4byte	0x47ed
 16985 47d6 30       		.uleb128 0x30
 16986 47d7 01       		.uleb128 0x1
 16987 47d8 52       		.byte	0x52
 16988 47d9 03       		.uleb128 0x3
 16989 47da 91       		.byte	0x91
 16990 47db 8471     		.sleb128 -1916
 16991 47dd 30       		.uleb128 0x30
 16992 47de 01       		.uleb128 0x1
 16993 47df 51       		.byte	0x51
 16994 47e0 05       		.uleb128 0x5
 16995 47e1 91       		.byte	0x91
 16996 47e2 FC70     		.sleb128 -1924
 16997 47e4 94       		.byte	0x94
 16998 47e5 02       		.byte	0x2
 16999 47e6 30       		.uleb128 0x30
 17000 47e7 01       		.uleb128 0x1
 17001 47e8 50       		.byte	0x50
 17002 47e9 02       		.uleb128 0x2
 17003 47ea 75       		.byte	0x75
 17004 47eb 00       		.sleb128 0
 17005 47ec 00       		.byte	0
 17006 47ed 32       		.uleb128 0x32
 17007 47ee 7C200000 		.4byte	.LVL456
 17008 47f2 1A530000 		.4byte	0x531a
 17009 47f6 30       		.uleb128 0x30
 17010 47f7 01       		.uleb128 0x1
 17011 47f8 52       		.byte	0x52
 17012 47f9 03       		.uleb128 0x3
 17013 47fa 91       		.byte	0x91
 17014 47fb 8471     		.sleb128 -1916
 17015 47fd 30       		.uleb128 0x30
 17016 47fe 01       		.uleb128 0x1
 17017 47ff 51       		.byte	0x51
 17018 4800 05       		.uleb128 0x5
 17019 4801 91       		.byte	0x91
 17020 4802 FC70     		.sleb128 -1924
 17021 4804 94       		.byte	0x94
ARM GAS  /tmp/cc0XcXNK.s 			page 300


 17022 4805 02       		.byte	0x2
 17023 4806 30       		.uleb128 0x30
 17024 4807 01       		.uleb128 0x1
 17025 4808 50       		.byte	0x50
 17026 4809 02       		.uleb128 0x2
 17027 480a 75       		.byte	0x75
 17028 480b 00       		.sleb128 0
 17029 480c 00       		.byte	0
 17030 480d 00       		.byte	0
 17031 480e 15       		.uleb128 0x15
 17032 480f CA000000 		.4byte	0xca
 17033 4813 1F480000 		.4byte	0x481f
 17034 4817 47       		.uleb128 0x47
 17035 4818 B8040000 		.4byte	0x4b8
 17036 481c FF03     		.2byte	0x3ff
 17037 481e 00       		.byte	0
 17038 481f 0A       		.uleb128 0xa
 17039 4820 04       		.byte	0x4
 17040 4821 61150000 		.4byte	0x1561
 17041 4825 48       		.uleb128 0x48
 17042 4826 75000000 		.4byte	.LASF476
 17043 482a 01       		.byte	0x1
 17044 482b 3B04     		.2byte	0x43b
 17045 482d 00000000 		.4byte	.LFB260
 17046 4831 44000000 		.4byte	.LFE260-.LFB260
 17047 4835 01       		.uleb128 0x1
 17048 4836 9C       		.byte	0x9c
 17049 4837 D9480000 		.4byte	0x48d9
 17050 483b 49       		.uleb128 0x49
 17051 483c 4C150000 		.4byte	.LASF477
 17052 4840 01       		.byte	0x1
 17053 4841 3B04     		.2byte	0x43b
 17054 4843 B2150000 		.4byte	0x15b2
 17055 4847 02       		.uleb128 0x2
 17056 4848 91       		.byte	0x91
 17057 4849 70       		.sleb128 -16
 17058 484a 4A       		.uleb128 0x4a
 17059 484b 2D       		.uleb128 0x2d
 17060 484c 61726700 		.ascii	"arg\000"
 17061 4850 01       		.byte	0x1
 17062 4851 3C04     		.2byte	0x43c
 17063 4853 E8150000 		.4byte	0x15e8
 17064 4857 02       		.uleb128 0x2
 17065 4858 91       		.byte	0x91
 17066 4859 64       		.sleb128 -28
 17067 485a 43       		.uleb128 0x43
 17068 485b 6C656E00 		.ascii	"len\000"
 17069 485f 01       		.byte	0x1
 17070 4860 3E04     		.2byte	0x43e
 17071 4862 2C000000 		.4byte	0x2c
 17072 4866 5E0D0000 		.4byte	.LLST67
 17073 486a 42       		.uleb128 0x42
 17074 486b 4A050000 		.4byte	.LASF478
 17075 486f 01       		.byte	0x1
 17076 4870 3F04     		.2byte	0x43f
 17077 4872 D9480000 		.4byte	0x48d9
 17078 4876 05       		.uleb128 0x5
ARM GAS  /tmp/cc0XcXNK.s 			page 301


 17079 4877 03       		.byte	0x3
 17080 4878 00000000 		.4byte	print_buffer.11457
 17081 487c 2A       		.uleb128 0x2a
 17082 487d 23160000 		.4byte	0x1623
 17083 4881 20000000 		.4byte	.LBB227
 17084 4885 90030000 		.4byte	.Ldebug_ranges0+0x390
 17085 4889 01       		.byte	0x1
 17086 488a 4604     		.2byte	0x446
 17087 488c B2480000 		.4byte	0x48b2
 17088 4890 2E       		.uleb128 0x2e
 17089 4891 3A160000 		.4byte	0x163a
 17090 4895 710D0000 		.4byte	.LLST68
 17091 4899 2E       		.uleb128 0x2e
 17092 489a 2F160000 		.4byte	0x162f
 17093 489e 840D0000 		.4byte	.LLST69
 17094 48a2 3F       		.uleb128 0x3f
 17095 48a3 32000000 		.4byte	.LVL567
 17096 48a7 30       		.uleb128 0x30
 17097 48a8 01       		.uleb128 0x1
 17098 48a9 50       		.byte	0x50
 17099 48aa 05       		.uleb128 0x5
 17100 48ab 03       		.byte	0x3
 17101 48ac 00000000 		.4byte	.LANCHOR16
 17102 48b0 00       		.byte	0
 17103 48b1 00       		.byte	0
 17104 48b2 32       		.uleb128 0x32
 17105 48b3 1C000000 		.4byte	.LVL563
 17106 48b7 35530000 		.4byte	0x5335
 17107 48bb 30       		.uleb128 0x30
 17108 48bc 01       		.uleb128 0x1
 17109 48bd 53       		.byte	0x53
 17110 48be 02       		.uleb128 0x2
 17111 48bf 91       		.byte	0x91
 17112 48c0 54       		.sleb128 -44
 17113 48c1 30       		.uleb128 0x30
 17114 48c2 01       		.uleb128 0x1
 17115 48c3 52       		.byte	0x52
 17116 48c4 03       		.uleb128 0x3
 17117 48c5 91       		.byte	0x91
 17118 48c6 50       		.sleb128 -48
 17119 48c7 06       		.byte	0x6
 17120 48c8 30       		.uleb128 0x30
 17121 48c9 01       		.uleb128 0x1
 17122 48ca 51       		.byte	0x51
 17123 48cb 02       		.uleb128 0x2
 17124 48cc 08       		.byte	0x8
 17125 48cd FE       		.byte	0xfe
 17126 48ce 30       		.uleb128 0x30
 17127 48cf 01       		.uleb128 0x1
 17128 48d0 50       		.byte	0x50
 17129 48d1 05       		.uleb128 0x5
 17130 48d2 03       		.byte	0x3
 17131 48d3 01000000 		.4byte	.LANCHOR16+1
 17132 48d7 00       		.byte	0
 17133 48d8 00       		.byte	0
 17134 48d9 15       		.uleb128 0x15
 17135 48da 25070000 		.4byte	0x725
ARM GAS  /tmp/cc0XcXNK.s 			page 302


 17136 48de E9480000 		.4byte	0x48e9
 17137 48e2 16       		.uleb128 0x16
 17138 48e3 B8040000 		.4byte	0x4b8
 17139 48e7 FE       		.byte	0xfe
 17140 48e8 00       		.byte	0
 17141 48e9 48       		.uleb128 0x48
 17142 48ea 20200000 		.4byte	.LASF479
 17143 48ee 01       		.byte	0x1
 17144 48ef 4A04     		.2byte	0x44a
 17145 48f1 00000000 		.4byte	.LFB261
 17146 48f5 4C000000 		.4byte	.LFE261-.LFB261
 17147 48f9 01       		.uleb128 0x1
 17148 48fa 9C       		.byte	0x9c
 17149 48fb 8F490000 		.4byte	0x498f
 17150 48ff 4B       		.uleb128 0x4b
 17151 4900 E01C0000 		.4byte	.LASF442
 17152 4904 01       		.byte	0x1
 17153 4905 4A04     		.2byte	0x44a
 17154 4907 68070000 		.4byte	0x768
 17155 490b 9C0D0000 		.4byte	.LLST70
 17156 490f 29       		.uleb128 0x29
 17157 4910 6C656E00 		.ascii	"len\000"
 17158 4914 01       		.byte	0x1
 17159 4915 4A04     		.2byte	0x44a
 17160 4917 2C000000 		.4byte	0x2c
 17161 491b C80D0000 		.4byte	.LLST71
 17162 491f 4C       		.uleb128 0x4c
 17163 4920 A2490000 		.4byte	0x49a2
 17164 4924 C80D0000 		.4byte	.LLST71
 17165 4928 42       		.uleb128 0x42
 17166 4929 E6180000 		.4byte	.LASF480
 17167 492d 01       		.byte	0x1
 17168 492e 4B04     		.2byte	0x44b
 17169 4930 8F490000 		.4byte	0x498f
 17170 4934 02       		.uleb128 0x2
 17171 4935 76       		.byte	0x76
 17172 4936 00       		.sleb128 0
 17173 4937 3E       		.uleb128 0x3e
 17174 4938 BC040000 		.4byte	.LASF481
 17175 493c 01       		.byte	0x1
 17176 493d 4C04     		.2byte	0x44c
 17177 493f 2C000000 		.4byte	0x2c
 17178 4943 020E0000 		.4byte	.LLST73
 17179 4947 3D       		.uleb128 0x3d
 17180 4948 A8030000 		.4byte	.Ldebug_ranges0+0x3a8
 17181 494c 5F490000 		.4byte	0x495f
 17182 4950 43       		.uleb128 0x43
 17183 4951 6900     		.ascii	"i\000"
 17184 4953 01       		.byte	0x1
 17185 4954 5004     		.2byte	0x450
 17186 4956 2C000000 		.4byte	0x2c
 17187 495a 460E0000 		.4byte	.LLST74
 17188 495e 00       		.byte	0
 17189 495f 4D       		.uleb128 0x4d
 17190 4960 23160000 		.4byte	0x1623
 17191 4964 34000000 		.4byte	.LBB233
 17192 4968 0A000000 		.4byte	.LBE233-.LBB233
ARM GAS  /tmp/cc0XcXNK.s 			page 303


 17193 496c 01       		.byte	0x1
 17194 496d 5404     		.2byte	0x454
 17195 496f 2E       		.uleb128 0x2e
 17196 4970 3A160000 		.4byte	0x163a
 17197 4974 9A0E0000 		.4byte	.LLST75
 17198 4978 2E       		.uleb128 0x2e
 17199 4979 2F160000 		.4byte	0x162f
 17200 497d AD0E0000 		.4byte	.LLST76
 17201 4981 3F       		.uleb128 0x3f
 17202 4982 3E000000 		.4byte	.LVL575
 17203 4986 30       		.uleb128 0x30
 17204 4987 01       		.uleb128 0x1
 17205 4988 50       		.byte	0x50
 17206 4989 02       		.uleb128 0x2
 17207 498a 76       		.byte	0x76
 17208 498b 00       		.sleb128 0
 17209 498c 00       		.byte	0
 17210 498d 00       		.byte	0
 17211 498e 00       		.byte	0
 17212 498f 15       		.uleb128 0x15
 17213 4990 CA000000 		.4byte	0xca
 17214 4994 A2490000 		.4byte	0x49a2
 17215 4998 4E       		.uleb128 0x4e
 17216 4999 B8040000 		.4byte	0x4b8
 17217 499d 1F490000 		.4byte	0x491f
 17218 49a1 00       		.byte	0
 17219 49a2 14       		.uleb128 0x14
 17220 49a3 B8040000 		.4byte	0x4b8
 17221 49a7 48       		.uleb128 0x48
 17222 49a8 451A0000 		.4byte	.LASF482
 17223 49ac 01       		.byte	0x1
 17224 49ad 5704     		.2byte	0x457
 17225 49af 00000000 		.4byte	.LFB262
 17226 49b3 40000000 		.4byte	.LFE262-.LFB262
 17227 49b7 01       		.uleb128 0x1
 17228 49b8 9C       		.byte	0x9c
 17229 49b9 4C4A0000 		.4byte	0x4a4c
 17230 49bd 4B       		.uleb128 0x4b
 17231 49be 28180000 		.4byte	.LASF483
 17232 49c2 01       		.byte	0x1
 17233 49c3 5704     		.2byte	0x457
 17234 49c5 25000000 		.4byte	0x25
 17235 49c9 C00E0000 		.4byte	.LLST77
 17236 49cd 42       		.uleb128 0x42
 17237 49ce E6180000 		.4byte	.LASF480
 17238 49d2 01       		.byte	0x1
 17239 49d3 5804     		.2byte	0x458
 17240 49d5 4C4A0000 		.4byte	0x4a4c
 17241 49d9 02       		.uleb128 0x2
 17242 49da 91       		.byte	0x91
 17243 49db 70       		.sleb128 -16
 17244 49dc 42       		.uleb128 0x42
 17245 49dd BC040000 		.4byte	.LASF481
 17246 49e1 01       		.byte	0x1
 17247 49e2 5904     		.2byte	0x459
 17248 49e4 EB000000 		.4byte	0xeb
 17249 49e8 02       		.uleb128 0x2
ARM GAS  /tmp/cc0XcXNK.s 			page 304


 17250 49e9 91       		.byte	0x91
 17251 49ea 6C       		.sleb128 -20
 17252 49eb 2A       		.uleb128 0x2a
 17253 49ec 23160000 		.4byte	0x1623
 17254 49f0 28000000 		.4byte	.LBB236
 17255 49f4 C8030000 		.4byte	.Ldebug_ranges0+0x3c8
 17256 49f8 01       		.byte	0x1
 17257 49f9 5E04     		.2byte	0x45e
 17258 49fb 1E4A0000 		.4byte	0x4a1e
 17259 49ff 2E       		.uleb128 0x2e
 17260 4a00 3A160000 		.4byte	0x163a
 17261 4a04 E40E0000 		.4byte	.LLST78
 17262 4a08 2E       		.uleb128 0x2e
 17263 4a09 2F160000 		.4byte	0x162f
 17264 4a0d F70E0000 		.4byte	.LLST79
 17265 4a11 3F       		.uleb128 0x3f
 17266 4a12 34000000 		.4byte	.LVL582
 17267 4a16 30       		.uleb128 0x30
 17268 4a17 01       		.uleb128 0x1
 17269 4a18 50       		.byte	0x50
 17270 4a19 02       		.uleb128 0x2
 17271 4a1a 74       		.byte	0x74
 17272 4a1b 00       		.sleb128 0
 17273 4a1c 00       		.byte	0
 17274 4a1d 00       		.byte	0
 17275 4a1e 32       		.uleb128 0x32
 17276 4a1f 28000000 		.4byte	.LVL580
 17277 4a23 9C4D0000 		.4byte	0x4d9c
 17278 4a27 30       		.uleb128 0x30
 17279 4a28 01       		.uleb128 0x1
 17280 4a29 52       		.byte	0x52
 17281 4a2a 02       		.uleb128 0x2
 17282 4a2b 91       		.byte	0x91
 17283 4a2c 6C       		.sleb128 -20
 17284 4a2d 30       		.uleb128 0x30
 17285 4a2e 01       		.uleb128 0x1
 17286 4a2f 51       		.byte	0x51
 17287 4a30 13       		.uleb128 0x13
 17288 4a31 F3       		.byte	0xf3
 17289 4a32 03       		.uleb128 0x3
 17290 4a33 F5       		.byte	0xf5
 17291 4a34 40       		.uleb128 0x40
 17292 4a35 25       		.uleb128 0x25
 17293 4a36 F4       		.byte	0xf4
 17294 4a37 25       		.uleb128 0x25
 17295 4a38 04       		.byte	0x4
 17296 4a39 0050C347 		.4byte	0x47c35000
 17297 4a3d 1E       		.byte	0x1e
 17298 4a3e F7       		.byte	0xf7
 17299 4a3f 25       		.uleb128 0x25
 17300 4a40 F7       		.byte	0xf7
 17301 4a41 2C       		.uleb128 0x2c
 17302 4a42 F7       		.byte	0xf7
 17303 4a43 00       		.uleb128 0
 17304 4a44 30       		.uleb128 0x30
 17305 4a45 01       		.uleb128 0x1
 17306 4a46 50       		.byte	0x50
ARM GAS  /tmp/cc0XcXNK.s 			page 305


 17307 4a47 02       		.uleb128 0x2
 17308 4a48 74       		.byte	0x74
 17309 4a49 00       		.sleb128 0
 17310 4a4a 00       		.byte	0
 17311 4a4b 00       		.byte	0
 17312 4a4c 15       		.uleb128 0x15
 17313 4a4d CA000000 		.4byte	0xca
 17314 4a51 5C4A0000 		.4byte	0x4a5c
 17315 4a55 16       		.uleb128 0x16
 17316 4a56 B8040000 		.4byte	0x4b8
 17317 4a5a 04       		.byte	0x4
 17318 4a5b 00       		.byte	0
 17319 4a5c 48       		.uleb128 0x48
 17320 4a5d 3D090000 		.4byte	.LASF484
 17321 4a61 01       		.byte	0x1
 17322 4a62 6104     		.2byte	0x461
 17323 4a64 00000000 		.4byte	.LFB263
 17324 4a68 7C000000 		.4byte	.LFE263-.LFB263
 17325 4a6c 01       		.uleb128 0x1
 17326 4a6d 9C       		.byte	0x9c
 17327 4a6e 184B0000 		.4byte	0x4b18
 17328 4a72 4B       		.uleb128 0x4b
 17329 4a73 0A0B0000 		.4byte	.LASF485
 17330 4a77 01       		.byte	0x1
 17331 4a78 6104     		.2byte	0x461
 17332 4a7a 184B0000 		.4byte	0x4b18
 17333 4a7e 190F0000 		.4byte	.LLST80
 17334 4a82 29       		.uleb128 0x29
 17335 4a83 6C656E00 		.ascii	"len\000"
 17336 4a87 01       		.byte	0x1
 17337 4a88 6104     		.2byte	0x461
 17338 4a8a 2C000000 		.4byte	0x2c
 17339 4a8e 450F0000 		.4byte	.LLST81
 17340 4a92 4C       		.uleb128 0x4c
 17341 4a93 314B0000 		.4byte	0x4b31
 17342 4a97 6E0F0000 		.4byte	.LLST82
 17343 4a9b 3E       		.uleb128 0x3e
 17344 4a9c E6180000 		.4byte	.LASF480
 17345 4aa0 01       		.byte	0x1
 17346 4aa1 6604     		.2byte	0x466
 17347 4aa3 1E4B0000 		.4byte	0x4b1e
 17348 4aa7 AC0F0000 		.4byte	.LLST83
 17349 4aab 42       		.uleb128 0x42
 17350 4aac BC040000 		.4byte	.LASF481
 17351 4ab0 01       		.byte	0x1
 17352 4ab1 6704     		.2byte	0x467
 17353 4ab3 EB000000 		.4byte	0xeb
 17354 4ab7 02       		.uleb128 0x2
 17355 4ab8 91       		.byte	0x91
 17356 4ab9 54       		.sleb128 -44
 17357 4aba 3D       		.uleb128 0x3d
 17358 4abb E0030000 		.4byte	.Ldebug_ranges0+0x3e0
 17359 4abf E84A0000 		.4byte	0x4ae8
 17360 4ac3 43       		.uleb128 0x43
 17361 4ac4 6900     		.ascii	"i\000"
 17362 4ac6 01       		.byte	0x1
 17363 4ac7 6B04     		.2byte	0x46b
ARM GAS  /tmp/cc0XcXNK.s 			page 306


 17364 4ac9 2C000000 		.4byte	0x2c
 17365 4acd C00F0000 		.4byte	.LLST84
 17366 4ad1 32       		.uleb128 0x32
 17367 4ad2 52000000 		.4byte	.LVL592
 17368 4ad6 9C4D0000 		.4byte	0x4d9c
 17369 4ada 30       		.uleb128 0x30
 17370 4adb 01       		.uleb128 0x1
 17371 4adc 52       		.byte	0x52
 17372 4add 02       		.uleb128 0x2
 17373 4ade 77       		.byte	0x77
 17374 4adf 24       		.sleb128 36
 17375 4ae0 30       		.uleb128 0x30
 17376 4ae1 01       		.uleb128 0x1
 17377 4ae2 50       		.byte	0x50
 17378 4ae3 02       		.uleb128 0x2
 17379 4ae4 78       		.byte	0x78
 17380 4ae5 00       		.sleb128 0
 17381 4ae6 00       		.byte	0
 17382 4ae7 00       		.byte	0
 17383 4ae8 4D       		.uleb128 0x4d
 17384 4ae9 23160000 		.4byte	0x1623
 17385 4aed 58000000 		.4byte	.LBB242
 17386 4af1 0A000000 		.4byte	.LBE242-.LBB242
 17387 4af5 01       		.byte	0x1
 17388 4af6 6F04     		.2byte	0x46f
 17389 4af8 2E       		.uleb128 0x2e
 17390 4af9 3A160000 		.4byte	0x163a
 17391 4afd F70F0000 		.4byte	.LLST85
 17392 4b01 2E       		.uleb128 0x2e
 17393 4b02 2F160000 		.4byte	0x162f
 17394 4b06 0A100000 		.4byte	.LLST86
 17395 4b0a 3F       		.uleb128 0x3f
 17396 4b0b 62000000 		.4byte	.LVL594
 17397 4b0f 30       		.uleb128 0x30
 17398 4b10 01       		.uleb128 0x1
 17399 4b11 50       		.byte	0x50
 17400 4b12 02       		.uleb128 0x2
 17401 4b13 78       		.byte	0x78
 17402 4b14 00       		.sleb128 0
 17403 4b15 00       		.byte	0
 17404 4b16 00       		.byte	0
 17405 4b17 00       		.byte	0
 17406 4b18 0A       		.uleb128 0xa
 17407 4b19 04       		.byte	0x4
 17408 4b1a 25000000 		.4byte	0x25
 17409 4b1e 15       		.uleb128 0x15
 17410 4b1f CA000000 		.4byte	0xca
 17411 4b23 314B0000 		.4byte	0x4b31
 17412 4b27 4E       		.uleb128 0x4e
 17413 4b28 B8040000 		.4byte	0x4b8
 17414 4b2c 924A0000 		.4byte	0x4a92
 17415 4b30 00       		.byte	0
 17416 4b31 14       		.uleb128 0x14
 17417 4b32 B8040000 		.4byte	0x4b8
 17418 4b36 4F       		.uleb128 0x4f
 17419 4b37 DE080000 		.4byte	.LASF582
 17420 4b3b 01       		.byte	0x1
ARM GAS  /tmp/cc0XcXNK.s 			page 307


 17421 4b3c 7204     		.2byte	0x472
 17422 4b3e A2080000 		.4byte	0x8a2
 17423 4b42 00000000 		.4byte	.LFB264
 17424 4b46 0C000000 		.4byte	.LFE264-.LFB264
 17425 4b4a 01       		.uleb128 0x1
 17426 4b4b 9C       		.byte	0x9c
 17427 4b4c 48       		.uleb128 0x48
 17428 4b4d 01130000 		.4byte	.LASF486
 17429 4b51 01       		.byte	0x1
 17430 4b52 7604     		.2byte	0x476
 17431 4b54 00000000 		.4byte	.LFB265
 17432 4b58 0C000000 		.4byte	.LFE265-.LFB265
 17433 4b5c 01       		.uleb128 0x1
 17434 4b5d 9C       		.byte	0x9c
 17435 4b5e 714B0000 		.4byte	0x4b71
 17436 4b62 49       		.uleb128 0x49
 17437 4b63 EC130000 		.4byte	.LASF446
 17438 4b67 01       		.byte	0x1
 17439 4b68 7604     		.2byte	0x476
 17440 4b6a EC170000 		.4byte	0x17ec
 17441 4b6e 01       		.uleb128 0x1
 17442 4b6f 50       		.byte	0x50
 17443 4b70 00       		.byte	0
 17444 4b71 48       		.uleb128 0x48
 17445 4b72 441D0000 		.4byte	.LASF487
 17446 4b76 01       		.byte	0x1
 17447 4b77 7A04     		.2byte	0x47a
 17448 4b79 00000000 		.4byte	.LFB266
 17449 4b7d 34000000 		.4byte	.LFE266-.LFB266
 17450 4b81 01       		.uleb128 0x1
 17451 4b82 9C       		.byte	0x9c
 17452 4b83 174C0000 		.4byte	0x4c17
 17453 4b87 4B       		.uleb128 0x4b
 17454 4b88 E01C0000 		.4byte	.LASF442
 17455 4b8c 01       		.byte	0x1
 17456 4b8d 7A04     		.2byte	0x47a
 17457 4b8f AC150000 		.4byte	0x15ac
 17458 4b93 1D100000 		.4byte	.LLST87
 17459 4b97 29       		.uleb128 0x29
 17460 4b98 6C656E00 		.ascii	"len\000"
 17461 4b9c 01       		.byte	0x1
 17462 4b9d 7A04     		.2byte	0x47a
 17463 4b9f B8000000 		.4byte	0xb8
 17464 4ba3 54100000 		.4byte	.LLST88
 17465 4ba7 3E       		.uleb128 0x3e
 17466 4ba8 BC040000 		.4byte	.LASF481
 17467 4bac 01       		.byte	0x1
 17468 4bad 7B04     		.2byte	0x47b
 17469 4baf EB000000 		.4byte	0xeb
 17470 4bb3 A5100000 		.4byte	.LLST89
 17471 4bb7 2A       		.uleb128 0x2a
 17472 4bb8 23160000 		.4byte	0x1623
 17473 4bbc 18000000 		.4byte	.LBB244
 17474 4bc0 F8030000 		.4byte	.Ldebug_ranges0+0x3f8
 17475 4bc4 01       		.byte	0x1
 17476 4bc5 8104     		.2byte	0x481
 17477 4bc7 F94B0000 		.4byte	0x4bf9
ARM GAS  /tmp/cc0XcXNK.s 			page 308


 17478 4bcb 2E       		.uleb128 0x2e
 17479 4bcc 3A160000 		.4byte	0x163a
 17480 4bd0 DF100000 		.4byte	.LLST90
 17481 4bd4 2B       		.uleb128 0x2b
 17482 4bd5 2F160000 		.4byte	0x162f
 17483 4bd9 06       		.uleb128 0x6
 17484 4bda 03       		.byte	0x3
 17485 4bdb 00000000 		.4byte	send_buffer
 17486 4bdf 9F       		.byte	0x9f
 17487 4be0 36       		.uleb128 0x36
 17488 4be1 28000000 		.4byte	.LVL604
 17489 4be5 30       		.uleb128 0x30
 17490 4be6 01       		.uleb128 0x1
 17491 4be7 51       		.byte	0x51
 17492 4be8 05       		.uleb128 0x5
 17493 4be9 F3       		.byte	0xf3
 17494 4bea 01       		.uleb128 0x1
 17495 4beb 51       		.byte	0x51
 17496 4bec 23       		.byte	0x23
 17497 4bed 01       		.uleb128 0x1
 17498 4bee 30       		.uleb128 0x30
 17499 4bef 01       		.uleb128 0x1
 17500 4bf0 50       		.byte	0x50
 17501 4bf1 05       		.uleb128 0x5
 17502 4bf2 03       		.byte	0x3
 17503 4bf3 00000000 		.4byte	.LANCHOR8
 17504 4bf7 00       		.byte	0
 17505 4bf8 00       		.byte	0
 17506 4bf9 32       		.uleb128 0x32
 17507 4bfa 18000000 		.4byte	.LVL601
 17508 4bfe E64D0000 		.4byte	0x4de6
 17509 4c02 30       		.uleb128 0x30
 17510 4c03 01       		.uleb128 0x1
 17511 4c04 52       		.byte	0x52
 17512 4c05 02       		.uleb128 0x2
 17513 4c06 74       		.byte	0x74
 17514 4c07 00       		.sleb128 0
 17515 4c08 30       		.uleb128 0x30
 17516 4c09 01       		.uleb128 0x1
 17517 4c0a 51       		.byte	0x51
 17518 4c0b 03       		.uleb128 0x3
 17519 4c0c F3       		.byte	0xf3
 17520 4c0d 01       		.uleb128 0x1
 17521 4c0e 50       		.byte	0x50
 17522 4c0f 30       		.uleb128 0x30
 17523 4c10 01       		.uleb128 0x1
 17524 4c11 50       		.byte	0x50
 17525 4c12 02       		.uleb128 0x2
 17526 4c13 75       		.byte	0x75
 17527 4c14 01       		.sleb128 1
 17528 4c15 00       		.byte	0
 17529 4c16 00       		.byte	0
 17530 4c17 15       		.uleb128 0x15
 17531 4c18 CA040000 		.4byte	0x4ca
 17532 4c1c 284C0000 		.4byte	0x4c28
 17533 4c20 47       		.uleb128 0x47
 17534 4c21 B8040000 		.4byte	0x4b8
ARM GAS  /tmp/cc0XcXNK.s 			page 309


 17535 4c25 3201     		.2byte	0x132
 17536 4c27 00       		.byte	0
 17537 4c28 3C       		.uleb128 0x3c
 17538 4c29 80040000 		.4byte	.LASF488
 17539 4c2d 01       		.byte	0x1
 17540 4c2e 36       		.byte	0x36
 17541 4c2f 174C0000 		.4byte	0x4c17
 17542 4c33 05       		.uleb128 0x5
 17543 4c34 03       		.byte	0x3
 17544 4c35 00000000 		.4byte	detect_thread_wa
 17545 4c39 3C       		.uleb128 0x3c
 17546 4c3a E6070000 		.4byte	.LASF489
 17547 4c3e 01       		.byte	0x1
 17548 4c3f 37       		.byte	0x37
 17549 4c40 A5020000 		.4byte	0x2a5
 17550 4c44 05       		.uleb128 0x5
 17551 4c45 03       		.byte	0x3
 17552 4c46 00000000 		.4byte	detect_tp
 17553 4c4a 3C       		.uleb128 0x3c
 17554 4c4b C21F0000 		.4byte	.LASF490
 17555 4c4f 01       		.byte	0x1
 17556 4c50 3A       		.byte	0x3a
 17557 4c51 0E480000 		.4byte	0x480e
 17558 4c55 05       		.uleb128 0x5
 17559 4c56 03       		.byte	0x3
 17560 4c57 00000000 		.4byte	send_buffer
 17561 4c5b 3C       		.uleb128 0x3c
 17562 4c5c 39100000 		.4byte	.LASF491
 17563 4c60 01       		.byte	0x1
 17564 4c61 3B       		.byte	0x3b
 17565 4c62 25000000 		.4byte	0x25
 17566 4c66 05       		.uleb128 0x5
 17567 4c67 03       		.byte	0x3
 17568 4c68 00000000 		.4byte	detect_cycle_int_limit
 17569 4c6c 3C       		.uleb128 0x3c
 17570 4c6d 450C0000 		.4byte	.LASF492
 17571 4c71 01       		.byte	0x1
 17572 4c72 3C       		.byte	0x3c
 17573 4c73 25000000 		.4byte	0x25
 17574 4c77 05       		.uleb128 0x5
 17575 4c78 03       		.byte	0x3
 17576 4c79 00000000 		.4byte	detect_coupling_k
 17577 4c7d 3C       		.uleb128 0x3c
 17578 4c7e 3A080000 		.4byte	.LASF493
 17579 4c82 01       		.byte	0x1
 17580 4c83 3D       		.byte	0x3d
 17581 4c84 25000000 		.4byte	0x25
 17582 4c88 05       		.uleb128 0x5
 17583 4c89 03       		.byte	0x3
 17584 4c8a 00000000 		.4byte	detect_current
 17585 4c8e 3C       		.uleb128 0x3c
 17586 4c8f 13040000 		.4byte	.LASF494
 17587 4c93 01       		.byte	0x1
 17588 4c94 3E       		.byte	0x3e
 17589 4c95 25000000 		.4byte	0x25
 17590 4c99 05       		.uleb128 0x5
 17591 4c9a 03       		.byte	0x3
ARM GAS  /tmp/cc0XcXNK.s 			page 310


 17592 4c9b 00000000 		.4byte	detect_min_rpm
 17593 4c9f 3C       		.uleb128 0x3c
 17594 4ca0 56120000 		.4byte	.LASF495
 17595 4ca4 01       		.byte	0x1
 17596 4ca5 3F       		.byte	0x3f
 17597 4ca6 25000000 		.4byte	0x25
 17598 4caa 05       		.uleb128 0x5
 17599 4cab 03       		.byte	0x3
 17600 4cac 00000000 		.4byte	detect_low_duty
 17601 4cb0 3C       		.uleb128 0x3c
 17602 4cb1 5A020000 		.4byte	.LASF496
 17603 4cb5 01       		.byte	0x1
 17604 4cb6 40       		.byte	0x40
 17605 4cb7 B20C0000 		.4byte	0xcb2
 17606 4cbb 05       		.uleb128 0x5
 17607 4cbc 03       		.byte	0x3
 17608 4cbd 00000000 		.4byte	detect_hall_table
 17609 4cc1 3C       		.uleb128 0x3c
 17610 4cc2 45130000 		.4byte	.LASF497
 17611 4cc6 01       		.byte	0x1
 17612 4cc7 41       		.byte	0x41
 17613 4cc8 2C000000 		.4byte	0x2c
 17614 4ccc 05       		.uleb128 0x5
 17615 4ccd 03       		.byte	0x3
 17616 4cce 00000000 		.4byte	detect_hall_res
 17617 4cd2 3C       		.uleb128 0x3c
 17618 4cd3 7C010000 		.4byte	.LASF498
 17619 4cd7 01       		.byte	0x1
 17620 4cd8 42       		.byte	0x42
 17621 4cd9 EC170000 		.4byte	0x17ec
 17622 4cdd 05       		.uleb128 0x5
 17623 4cde 03       		.byte	0x3
 17624 4cdf 00000000 		.4byte	send_func
 17625 4ce3 3C       		.uleb128 0x3c
 17626 4ce4 57030000 		.4byte	.LASF499
 17627 4ce8 01       		.byte	0x1
 17628 4ce9 43       		.byte	0x43
 17629 4cea EC170000 		.4byte	0x17ec
 17630 4cee 05       		.uleb128 0x5
 17631 4cef 03       		.byte	0x3
 17632 4cf0 00000000 		.4byte	appdata_func
 17633 4cf4 3C       		.uleb128 0x3c
 17634 4cf5 D81A0000 		.4byte	.LASF500
 17635 4cf9 01       		.byte	0x1
 17636 4cfa 44       		.byte	0x44
 17637 4cfb A2080000 		.4byte	0x8a2
 17638 4cff 05       		.uleb128 0x5
 17639 4d00 03       		.byte	0x3
 17640 4d01 00000000 		.4byte	display_position_mode
 17641 4d05 3C       		.uleb128 0x3c
 17642 4d06 110A0000 		.4byte	.LASF501
 17643 4d0a 01       		.byte	0x1
 17644 4d0b 46       		.byte	0x46
 17645 4d0c CA000000 		.4byte	0xca
 17646 4d10 05       		.uleb128 0x5
 17647 4d11 03       		.byte	0x3
 17648 4d12 00000000 		.4byte	remote_Mode
ARM GAS  /tmp/cc0XcXNK.s 			page 311


 17649 4d16 50       		.uleb128 0x50
 17650 4d17 7C1E0000 		.4byte	.LASF502
 17651 4d1b 15       		.byte	0x15
 17652 4d1c A706     		.2byte	0x6a7
 17653 4d1e 17010000 		.4byte	0x117
 17654 4d22 51       		.uleb128 0x51
 17655 4d23 636800   		.ascii	"ch\000"
 17656 4d26 0A       		.byte	0xa
 17657 4d27 0902     		.2byte	0x209
 17658 4d29 51040000 		.4byte	0x451
 17659 4d2d 15       		.uleb128 0x15
 17660 4d2e E0000000 		.4byte	0xe0
 17661 4d32 384D0000 		.4byte	0x4d38
 17662 4d36 52       		.uleb128 0x52
 17663 4d37 00       		.byte	0
 17664 4d38 53       		.uleb128 0x53
 17665 4d39 A8140000 		.4byte	.LASF503
 17666 4d3d 16       		.byte	0x16
 17667 4d3e 58       		.byte	0x58
 17668 4d3f 434D0000 		.4byte	0x4d43
 17669 4d43 05       		.uleb128 0x5
 17670 4d44 2D4D0000 		.4byte	0x4d2d
 17671 4d48 54       		.uleb128 0x54
 17672 4d49 9A250000 		.4byte	.LASF504
 17673 4d4d 17       		.byte	0x17
 17674 4d4e 8B       		.byte	0x8b
 17675 4d4f 69010000 		.4byte	0x169
 17676 4d53 5D4D0000 		.4byte	0x4d5d
 17677 4d57 0D       		.uleb128 0xd
 17678 4d58 69010000 		.4byte	0x169
 17679 4d5c 00       		.byte	0
 17680 4d5d 54       		.uleb128 0x54
 17681 4d5e 16110000 		.4byte	.LASF505
 17682 4d62 18       		.byte	0x18
 17683 4d63 85       		.byte	0x85
 17684 4d64 AB0C0000 		.4byte	0xcab
 17685 4d68 904D0000 		.4byte	0x4d90
 17686 4d6c 0D       		.uleb128 0xd
 17687 4d6d 25000000 		.4byte	0x25
 17688 4d71 0D       		.uleb128 0xd
 17689 4d72 25000000 		.4byte	0x25
 17690 4d76 0D       		.uleb128 0xd
 17691 4d77 25000000 		.4byte	0x25
 17692 4d7b 0D       		.uleb128 0xd
 17693 4d7c 184B0000 		.4byte	0x4b18
 17694 4d80 0D       		.uleb128 0xd
 17695 4d81 184B0000 		.4byte	0x4b18
 17696 4d85 0D       		.uleb128 0xd
 17697 4d86 904D0000 		.4byte	0x4d90
 17698 4d8a 0D       		.uleb128 0xd
 17699 4d8b 964D0000 		.4byte	0x4d96
 17700 4d8f 00       		.byte	0
 17701 4d90 0A       		.uleb128 0xa
 17702 4d91 04       		.byte	0x4
 17703 4d92 BF000000 		.4byte	0xbf
 17704 4d96 0A       		.uleb128 0xa
 17705 4d97 04       		.byte	0x4
ARM GAS  /tmp/cc0XcXNK.s 			page 312


 17706 4d98 2C000000 		.4byte	0x2c
 17707 4d9c 55       		.uleb128 0x55
 17708 4d9d AD180000 		.4byte	.LASF507
 17709 4da1 19       		.byte	0x19
 17710 4da2 20       		.byte	0x20
 17711 4da3 B74D0000 		.4byte	0x4db7
 17712 4da7 0D       		.uleb128 0xd
 17713 4da8 68070000 		.4byte	0x768
 17714 4dac 0D       		.uleb128 0xd
 17715 4dad EB000000 		.4byte	0xeb
 17716 4db1 0D       		.uleb128 0xd
 17717 4db2 B74D0000 		.4byte	0x4db7
 17718 4db6 00       		.byte	0
 17719 4db7 0A       		.uleb128 0xa
 17720 4db8 04       		.byte	0x4
 17721 4db9 EB000000 		.4byte	0xeb
 17722 4dbd 54       		.uleb128 0x54
 17723 4dbe 79070000 		.4byte	.LASF508
 17724 4dc2 10       		.byte	0x10
 17725 4dc3 89       		.byte	0x89
 17726 4dc4 A5020000 		.4byte	0x2a5
 17727 4dc8 E64D0000 		.4byte	0x4de6
 17728 4dcc 0D       		.uleb128 0xd
 17729 4dcd 82030000 		.4byte	0x382
 17730 4dd1 0D       		.uleb128 0xd
 17731 4dd2 0C010000 		.4byte	0x10c
 17732 4dd6 0D       		.uleb128 0xd
 17733 4dd7 53010000 		.4byte	0x153
 17734 4ddb 0D       		.uleb128 0xd
 17735 4ddc 4C070000 		.4byte	0x74c
 17736 4de0 0D       		.uleb128 0xd
 17737 4de1 82030000 		.4byte	0x382
 17738 4de5 00       		.byte	0
 17739 4de6 56       		.uleb128 0x56
 17740 4de7 68050000 		.4byte	.LASF509
 17741 4deb 82030000 		.4byte	0x382
 17742 4def 034E0000 		.4byte	0x4e03
 17743 4df3 0D       		.uleb128 0xd
 17744 4df4 82030000 		.4byte	0x382
 17745 4df8 0D       		.uleb128 0xd
 17746 4df9 034E0000 		.4byte	0x4e03
 17747 4dfd 0D       		.uleb128 0xd
 17748 4dfe B8040000 		.4byte	0x4b8
 17749 4e02 00       		.byte	0
 17750 4e03 0A       		.uleb128 0xa
 17751 4e04 04       		.byte	0x4
 17752 4e05 094E0000 		.4byte	0x4e09
 17753 4e09 57       		.uleb128 0x57
 17754 4e0a 54       		.uleb128 0x54
 17755 4e0b 4F230000 		.4byte	.LASF510
 17756 4e0f 19       		.byte	0x19
 17757 4e10 29       		.byte	0x29
 17758 4e11 25000000 		.4byte	0x25
 17759 4e15 294E0000 		.4byte	0x4e29
 17760 4e19 0D       		.uleb128 0xd
 17761 4e1a 6E070000 		.4byte	0x76e
 17762 4e1e 0D       		.uleb128 0xd
ARM GAS  /tmp/cc0XcXNK.s 			page 313


 17763 4e1f 25000000 		.4byte	0x25
 17764 4e23 0D       		.uleb128 0xd
 17765 4e24 B74D0000 		.4byte	0x4db7
 17766 4e28 00       		.byte	0
 17767 4e29 55       		.uleb128 0x55
 17768 4e2a D9200000 		.4byte	.LASF511
 17769 4e2e 16       		.byte	0x16
 17770 4e2f 21       		.byte	0x21
 17771 4e30 3A4E0000 		.4byte	0x4e3a
 17772 4e34 0D       		.uleb128 0xd
 17773 4e35 3A4E0000 		.4byte	0x4e3a
 17774 4e39 00       		.byte	0
 17775 4e3a 0A       		.uleb128 0xa
 17776 4e3b 04       		.byte	0x4
 17777 4e3c D20C0000 		.4byte	0xcd2
 17778 4e40 54       		.uleb128 0x54
 17779 4e41 02090000 		.4byte	.LASF512
 17780 4e45 1A       		.byte	0x1a
 17781 4e46 47       		.byte	0x47
 17782 4e47 AB0C0000 		.4byte	0xcab
 17783 4e4b 5A4E0000 		.4byte	0x4e5a
 17784 4e4f 0D       		.uleb128 0xd
 17785 4e50 25000000 		.4byte	0x25
 17786 4e54 0D       		.uleb128 0xd
 17787 4e55 68070000 		.4byte	0x768
 17788 4e59 00       		.byte	0
 17789 4e5a 58       		.uleb128 0x58
 17790 4e5b 591F0000 		.4byte	.LASF529
 17791 4e5f 16       		.byte	0x16
 17792 4e60 20       		.byte	0x20
 17793 4e61 654E0000 		.4byte	0x4e65
 17794 4e65 0A       		.uleb128 0xa
 17795 4e66 04       		.byte	0x4
 17796 4e67 6B4E0000 		.4byte	0x4e6b
 17797 4e6b 14       		.uleb128 0x14
 17798 4e6c 704E0000 		.4byte	0x4e70
 17799 4e70 05       		.uleb128 0x5
 17800 4e71 D20C0000 		.4byte	0xcd2
 17801 4e75 55       		.uleb128 0x55
 17802 4e76 68220000 		.4byte	.LASF513
 17803 4e7a 1A       		.byte	0x1a
 17804 4e7b 43       		.byte	0x43
 17805 4e7c 9A4E0000 		.4byte	0x4e9a
 17806 4e80 0D       		.uleb128 0xd
 17807 4e81 25000000 		.4byte	0x25
 17808 4e85 0D       		.uleb128 0xd
 17809 4e86 AB0C0000 		.4byte	0xcab
 17810 4e8a 0D       		.uleb128 0xd
 17811 4e8b 184B0000 		.4byte	0x4b18
 17812 4e8f 0D       		.uleb128 0xd
 17813 4e90 184B0000 		.4byte	0x4b18
 17814 4e94 0D       		.uleb128 0xd
 17815 4e95 9A4E0000 		.4byte	0x4e9a
 17816 4e99 00       		.byte	0
 17817 4e9a 0A       		.uleb128 0xa
 17818 4e9b 04       		.byte	0x4
 17819 4e9c AB0C0000 		.4byte	0xcab
ARM GAS  /tmp/cc0XcXNK.s 			page 314


 17820 4ea0 55       		.uleb128 0x55
 17821 4ea1 B90E0000 		.4byte	.LASF514
 17822 4ea5 19       		.byte	0x19
 17823 4ea6 23       		.byte	0x23
 17824 4ea7 C04E0000 		.4byte	0x4ec0
 17825 4eab 0D       		.uleb128 0xd
 17826 4eac 68070000 		.4byte	0x768
 17827 4eb0 0D       		.uleb128 0xd
 17828 4eb1 25000000 		.4byte	0x25
 17829 4eb5 0D       		.uleb128 0xd
 17830 4eb6 25000000 		.4byte	0x25
 17831 4eba 0D       		.uleb128 0xd
 17832 4ebb B74D0000 		.4byte	0x4db7
 17833 4ebf 00       		.byte	0
 17834 4ec0 54       		.uleb128 0x54
 17835 4ec1 AB000000 		.4byte	.LASF515
 17836 4ec5 18       		.byte	0x18
 17837 4ec6 87       		.byte	0x87
 17838 4ec7 AB0C0000 		.4byte	0xcab
 17839 4ecb E94E0000 		.4byte	0x4ee9
 17840 4ecf 0D       		.uleb128 0xd
 17841 4ed0 25000000 		.4byte	0x25
 17842 4ed4 0D       		.uleb128 0xd
 17843 4ed5 25000000 		.4byte	0x25
 17844 4ed9 0D       		.uleb128 0xd
 17845 4eda 25000000 		.4byte	0x25
 17846 4ede 0D       		.uleb128 0xd
 17847 4edf 25000000 		.4byte	0x25
 17848 4ee3 0D       		.uleb128 0xd
 17849 4ee4 184B0000 		.4byte	0x4b18
 17850 4ee8 00       		.byte	0
 17851 4ee9 54       		.uleb128 0x54
 17852 4eea EE1A0000 		.4byte	.LASF516
 17853 4eee 1A       		.byte	0x1a
 17854 4eef 46       		.byte	0x46
 17855 4ef0 AB0C0000 		.4byte	0xcab
 17856 4ef4 034F0000 		.4byte	0x4f03
 17857 4ef8 0D       		.uleb128 0xd
 17858 4ef9 184B0000 		.4byte	0x4b18
 17859 4efd 0D       		.uleb128 0xd
 17860 4efe 184B0000 		.4byte	0x4b18
 17861 4f02 00       		.byte	0
 17862 4f03 54       		.uleb128 0x54
 17863 4f04 A2220000 		.4byte	.LASF517
 17864 4f08 1B       		.byte	0x1b
 17865 4f09 2C       		.byte	0x2c
 17866 4f0a 1F480000 		.4byte	0x481f
 17867 4f0e 184F0000 		.4byte	0x4f18
 17868 4f12 0D       		.uleb128 0xd
 17869 4f13 2C000000 		.4byte	0x2c
 17870 4f17 00       		.byte	0
 17871 4f18 55       		.uleb128 0x55
 17872 4f19 F1190000 		.4byte	.LASF518
 17873 4f1d 1B       		.byte	0x1b
 17874 4f1e 25       		.byte	0x25
 17875 4f1f 384F0000 		.4byte	0x4f38
 17876 4f23 0D       		.uleb128 0xd
ARM GAS  /tmp/cc0XcXNK.s 			page 315


 17877 4f24 CA000000 		.4byte	0xca
 17878 4f28 0D       		.uleb128 0xd
 17879 4f29 68070000 		.4byte	0x768
 17880 4f2d 0D       		.uleb128 0xd
 17881 4f2e B8000000 		.4byte	0xb8
 17882 4f32 0D       		.uleb128 0xd
 17883 4f33 AB0C0000 		.4byte	0xcab
 17884 4f37 00       		.byte	0
 17885 4f38 55       		.uleb128 0x55
 17886 4f39 7E100000 		.4byte	.LASF519
 17887 4f3d 18       		.byte	0x18
 17888 4f3e 81       		.byte	0x81
 17889 4f3f 494F0000 		.4byte	0x4f49
 17890 4f43 0D       		.uleb128 0xd
 17891 4f44 494F0000 		.4byte	0x4f49
 17892 4f48 00       		.byte	0
 17893 4f49 0A       		.uleb128 0xa
 17894 4f4a 04       		.byte	0x4
 17895 4f4b 87130000 		.4byte	0x1387
 17896 4f4f 55       		.uleb128 0x55
 17897 4f50 9B050000 		.4byte	.LASF520
 17898 4f54 18       		.byte	0x18
 17899 4f55 83       		.byte	0x83
 17900 4f56 604F0000 		.4byte	0x4f60
 17901 4f5a 0D       		.uleb128 0xd
 17902 4f5b 3A4E0000 		.4byte	0x4e3a
 17903 4f5f 00       		.byte	0
 17904 4f60 55       		.uleb128 0x55
 17905 4f61 620B0000 		.4byte	.LASF521
 17906 4f65 1C       		.byte	0x1c
 17907 4f66 21       		.byte	0x21
 17908 4f67 714F0000 		.4byte	0x4f71
 17909 4f6b 0D       		.uleb128 0xd
 17910 4f6c 494F0000 		.4byte	0x4f49
 17911 4f70 00       		.byte	0
 17912 4f71 55       		.uleb128 0x55
 17913 4f72 F6220000 		.4byte	.LASF522
 17914 4f76 1D       		.byte	0x1d
 17915 4f77 22       		.byte	0x22
 17916 4f78 874F0000 		.4byte	0x4f87
 17917 4f7c 0D       		.uleb128 0xd
 17918 4f7d 7F010000 		.4byte	0x17f
 17919 4f81 0D       		.uleb128 0xd
 17920 4f82 25000000 		.4byte	0x25
 17921 4f86 00       		.byte	0
 17922 4f87 59       		.uleb128 0x59
 17923 4f88 360F0000 		.4byte	.LASF525
 17924 4f8c 1D       		.byte	0x1d
 17925 4f8d 23       		.byte	0x23
 17926 4f8e 55       		.uleb128 0x55
 17927 4f8f D9150000 		.4byte	.LASF523
 17928 4f93 18       		.byte	0x18
 17929 4f94 80       		.byte	0x80
 17930 4f95 9F4F0000 		.4byte	0x4f9f
 17931 4f99 0D       		.uleb128 0xd
 17932 4f9a 3A4E0000 		.4byte	0x4e3a
 17933 4f9e 00       		.byte	0
ARM GAS  /tmp/cc0XcXNK.s 			page 316


 17934 4f9f 55       		.uleb128 0x55
 17935 4fa0 620E0000 		.4byte	.LASF524
 17936 4fa4 19       		.byte	0x19
 17937 4fa5 21       		.byte	0x21
 17938 4fa6 BA4F0000 		.4byte	0x4fba
 17939 4faa 0D       		.uleb128 0xd
 17940 4fab 68070000 		.4byte	0x768
 17941 4faf 0D       		.uleb128 0xd
 17942 4fb0 F6000000 		.4byte	0xf6
 17943 4fb4 0D       		.uleb128 0xd
 17944 4fb5 B74D0000 		.4byte	0x4db7
 17945 4fb9 00       		.byte	0
 17946 4fba 59       		.uleb128 0x59
 17947 4fbb B4190000 		.4byte	.LASF526
 17948 4fbf 1E       		.byte	0x1e
 17949 4fc0 3D       		.byte	0x3d
 17950 4fc1 54       		.uleb128 0x54
 17951 4fc2 96120000 		.4byte	.LASF527
 17952 4fc6 1F       		.byte	0x1f
 17953 4fc7 22       		.byte	0x22
 17954 4fc8 25000000 		.4byte	0x25
 17955 4fcc D64F0000 		.4byte	0x4fd6
 17956 4fd0 0D       		.uleb128 0xd
 17957 4fd1 2C000000 		.4byte	0x2c
 17958 4fd5 00       		.byte	0
 17959 4fd6 54       		.uleb128 0x54
 17960 4fd7 7F050000 		.4byte	.LASF528
 17961 4fdb 1F       		.byte	0x1f
 17962 4fdc 24       		.byte	0x24
 17963 4fdd 25000000 		.4byte	0x25
 17964 4fe1 EB4F0000 		.4byte	0x4feb
 17965 4fe5 0D       		.uleb128 0xd
 17966 4fe6 2C000000 		.4byte	0x2c
 17967 4fea 00       		.byte	0
 17968 4feb 58       		.uleb128 0x58
 17969 4fec 9F200000 		.4byte	.LASF530
 17970 4ff0 1C       		.byte	0x1c
 17971 4ff1 30       		.byte	0x30
 17972 4ff2 25000000 		.4byte	0x25
 17973 4ff6 58       		.uleb128 0x58
 17974 4ff7 66040000 		.4byte	.LASF531
 17975 4ffb 1C       		.byte	0x1c
 17976 4ffc 28       		.byte	0x28
 17977 4ffd 25000000 		.4byte	0x25
 17978 5001 58       		.uleb128 0x58
 17979 5002 66250000 		.4byte	.LASF532
 17980 5006 1C       		.byte	0x1c
 17981 5007 29       		.byte	0x29
 17982 5008 25000000 		.4byte	0x25
 17983 500c 58       		.uleb128 0x58
 17984 500d F4060000 		.4byte	.LASF533
 17985 5011 1C       		.byte	0x1c
 17986 5012 2A       		.byte	0x2a
 17987 5013 25000000 		.4byte	0x25
 17988 5017 58       		.uleb128 0x58
 17989 5018 B6130000 		.4byte	.LASF534
 17990 501c 1C       		.byte	0x1c
ARM GAS  /tmp/cc0XcXNK.s 			page 317


 17991 501d 2B       		.byte	0x2b
 17992 501e 25000000 		.4byte	0x25
 17993 5022 58       		.uleb128 0x58
 17994 5023 641C0000 		.4byte	.LASF535
 17995 5027 20       		.byte	0x20
 17996 5028 22       		.byte	0x22
 17997 5029 AB0C0000 		.4byte	0xcab
 17998 502d 55       		.uleb128 0x55
 17999 502e BE050000 		.4byte	.LASF536
 18000 5032 18       		.byte	0x18
 18001 5033 7F       		.byte	0x7f
 18002 5034 3E500000 		.4byte	0x503e
 18003 5038 0D       		.uleb128 0xd
 18004 5039 494F0000 		.4byte	0x4f49
 18005 503d 00       		.byte	0
 18006 503e 55       		.uleb128 0x55
 18007 503f BE0C0000 		.4byte	.LASF537
 18008 5043 19       		.byte	0x19
 18009 5044 1F       		.byte	0x1f
 18010 5045 59500000 		.4byte	0x5059
 18011 5049 0D       		.uleb128 0xd
 18012 504a 68070000 		.4byte	0x768
 18013 504e 0D       		.uleb128 0xd
 18014 504f E0000000 		.4byte	0xe0
 18015 5053 0D       		.uleb128 0xd
 18016 5054 B74D0000 		.4byte	0x4db7
 18017 5058 00       		.byte	0
 18018 5059 55       		.uleb128 0x55
 18019 505a A9120000 		.4byte	.LASF538
 18020 505e 21       		.byte	0x21
 18021 505f 1F       		.byte	0x1f
 18022 5060 6A500000 		.4byte	0x506a
 18023 5064 0D       		.uleb128 0xd
 18024 5065 B2150000 		.4byte	0x15b2
 18025 5069 00       		.byte	0
 18026 506a 54       		.uleb128 0x54
 18027 506b E3120000 		.4byte	.LASF539
 18028 506f 19       		.byte	0x19
 18029 5070 26       		.byte	0x26
 18030 5071 EB000000 		.4byte	0xeb
 18031 5075 84500000 		.4byte	0x5084
 18032 5079 0D       		.uleb128 0xd
 18033 507a 6E070000 		.4byte	0x76e
 18034 507e 0D       		.uleb128 0xd
 18035 507f B74D0000 		.4byte	0x4db7
 18036 5083 00       		.byte	0
 18037 5084 54       		.uleb128 0x54
 18038 5085 E51C0000 		.4byte	.LASF540
 18039 5089 19       		.byte	0x19
 18040 508a 27       		.byte	0x27
 18041 508b F6000000 		.4byte	0xf6
 18042 508f 9E500000 		.4byte	0x509e
 18043 5093 0D       		.uleb128 0xd
 18044 5094 6E070000 		.4byte	0x76e
 18045 5098 0D       		.uleb128 0xd
 18046 5099 B74D0000 		.4byte	0x4db7
 18047 509d 00       		.byte	0
ARM GAS  /tmp/cc0XcXNK.s 			page 318


 18048 509e 54       		.uleb128 0x54
 18049 509f 34040000 		.4byte	.LASF541
 18050 50a3 18       		.byte	0x18
 18051 50a4 84       		.byte	0x84
 18052 50a5 AB0C0000 		.4byte	0xcab
 18053 50a9 B3500000 		.4byte	0x50b3
 18054 50ad 0D       		.uleb128 0xd
 18055 50ae 3A4E0000 		.4byte	0x4e3a
 18056 50b2 00       		.byte	0
 18057 50b3 55       		.uleb128 0x55
 18058 50b4 50180000 		.4byte	.LASF542
 18059 50b8 17       		.byte	0x17
 18060 50b9 84       		.byte	0x84
 18061 50ba C9500000 		.4byte	0x50c9
 18062 50be 0D       		.uleb128 0xd
 18063 50bf A5020000 		.4byte	0x2a5
 18064 50c3 0D       		.uleb128 0xd
 18065 50c4 69010000 		.4byte	0x169
 18066 50c8 00       		.byte	0
 18067 50c9 54       		.uleb128 0x54
 18068 50ca 551B0000 		.4byte	.LASF543
 18069 50ce 19       		.byte	0x19
 18070 50cf 25       		.byte	0x25
 18071 50d0 E0000000 		.4byte	0xe0
 18072 50d4 E3500000 		.4byte	0x50e3
 18073 50d8 0D       		.uleb128 0xd
 18074 50d9 6E070000 		.4byte	0x76e
 18075 50dd 0D       		.uleb128 0xd
 18076 50de B74D0000 		.4byte	0x4db7
 18077 50e2 00       		.byte	0
 18078 50e3 55       		.uleb128 0x55
 18079 50e4 AB150000 		.4byte	.LASF544
 18080 50e8 16       		.byte	0x16
 18081 50e9 4D       		.byte	0x4d
 18082 50ea FE500000 		.4byte	0x50fe
 18083 50ee 0D       		.uleb128 0xd
 18084 50ef AB0C0000 		.4byte	0xcab
 18085 50f3 0D       		.uleb128 0xd
 18086 50f4 E0000000 		.4byte	0xe0
 18087 50f8 0D       		.uleb128 0xd
 18088 50f9 CA000000 		.4byte	0xca
 18089 50fd 00       		.byte	0
 18090 50fe 58       		.uleb128 0x58
 18091 50ff 65200000 		.4byte	.LASF545
 18092 5103 1C       		.byte	0x1c
 18093 5104 20       		.byte	0x20
 18094 5105 09510000 		.4byte	0x5109
 18095 5109 0A       		.uleb128 0xa
 18096 510a 04       		.byte	0x4
 18097 510b 0F510000 		.4byte	0x510f
 18098 510f 14       		.uleb128 0x14
 18099 5110 87130000 		.4byte	0x1387
 18100 5114 54       		.uleb128 0x54
 18101 5115 351E0000 		.4byte	.LASF546
 18102 5119 18       		.byte	0x18
 18103 511a 82       		.byte	0x82
 18104 511b AB0C0000 		.4byte	0xcab
ARM GAS  /tmp/cc0XcXNK.s 			page 319


 18105 511f 29510000 		.4byte	0x5129
 18106 5123 0D       		.uleb128 0xd
 18107 5124 494F0000 		.4byte	0x4f49
 18108 5128 00       		.byte	0
 18109 5129 55       		.uleb128 0x55
 18110 512a 1E1C0000 		.4byte	.LASF547
 18111 512e 16       		.byte	0x16
 18112 512f 2F       		.byte	0x2f
 18113 5130 3A510000 		.4byte	0x513a
 18114 5134 0D       		.uleb128 0xd
 18115 5135 25000000 		.4byte	0x25
 18116 5139 00       		.byte	0
 18117 513a 55       		.uleb128 0x55
 18118 513b 0F070000 		.4byte	.LASF548
 18119 513f 16       		.byte	0x16
 18120 5140 2B       		.byte	0x2b
 18121 5141 4B510000 		.4byte	0x514b
 18122 5145 0D       		.uleb128 0xd
 18123 5146 25000000 		.4byte	0x25
 18124 514a 00       		.byte	0
 18125 514b 55       		.uleb128 0x55
 18126 514c 031F0000 		.4byte	.LASF549
 18127 5150 16       		.byte	0x16
 18128 5151 31       		.byte	0x31
 18129 5152 5C510000 		.4byte	0x515c
 18130 5156 0D       		.uleb128 0xd
 18131 5157 25000000 		.4byte	0x25
 18132 515b 00       		.byte	0
 18133 515c 55       		.uleb128 0x55
 18134 515d E6140000 		.4byte	.LASF550
 18135 5161 16       		.byte	0x16
 18136 5162 30       		.byte	0x30
 18137 5163 6D510000 		.4byte	0x516d
 18138 5167 0D       		.uleb128 0xd
 18139 5168 25000000 		.4byte	0x25
 18140 516c 00       		.byte	0
 18141 516d 55       		.uleb128 0x55
 18142 516e D5220000 		.4byte	.LASF551
 18143 5172 16       		.byte	0x16
 18144 5173 29       		.byte	0x29
 18145 5174 7E510000 		.4byte	0x517e
 18146 5178 0D       		.uleb128 0xd
 18147 5179 25000000 		.4byte	0x25
 18148 517d 00       		.byte	0
 18149 517e 5A       		.uleb128 0x5a
 18150 517f F71C0000 		.4byte	.LASF552
 18151 5183 22       		.byte	0x22
 18152 5184 5101     		.2byte	0x151
 18153 5186 25000000 		.4byte	0x25
 18154 518a 94510000 		.4byte	0x5194
 18155 518e 0D       		.uleb128 0xd
 18156 518f 25000000 		.4byte	0x25
 18157 5193 00       		.byte	0
 18158 5194 55       		.uleb128 0x55
 18159 5195 CD120000 		.4byte	.LASF553
 18160 5199 19       		.byte	0x19
 18161 519a 22       		.byte	0x22
ARM GAS  /tmp/cc0XcXNK.s 			page 320


 18162 519b B4510000 		.4byte	0x51b4
 18163 519f 0D       		.uleb128 0xd
 18164 51a0 68070000 		.4byte	0x768
 18165 51a4 0D       		.uleb128 0xd
 18166 51a5 25000000 		.4byte	0x25
 18167 51a9 0D       		.uleb128 0xd
 18168 51aa 25000000 		.4byte	0x25
 18169 51ae 0D       		.uleb128 0xd
 18170 51af B74D0000 		.4byte	0x4db7
 18171 51b3 00       		.byte	0
 18172 51b4 58       		.uleb128 0x58
 18173 51b5 75090000 		.4byte	.LASF554
 18174 51b9 16       		.byte	0x16
 18175 51ba 45       		.byte	0x45
 18176 51bb 25000000 		.4byte	0x25
 18177 51bf 58       		.uleb128 0x58
 18178 51c0 7F0C0000 		.4byte	.LASF555
 18179 51c4 16       		.byte	0x16
 18180 51c5 46       		.byte	0x46
 18181 51c6 25000000 		.4byte	0x25
 18182 51ca 58       		.uleb128 0x58
 18183 51cb CD0D0000 		.4byte	.LASF556
 18184 51cf 16       		.byte	0x16
 18185 51d0 35       		.byte	0x35
 18186 51d1 25000000 		.4byte	0x25
 18187 51d5 58       		.uleb128 0x58
 18188 51d6 A90C0000 		.4byte	.LASF557
 18189 51da 16       		.byte	0x16
 18190 51db 37       		.byte	0x37
 18191 51dc 25000000 		.4byte	0x25
 18192 51e0 54       		.uleb128 0x54
 18193 51e1 F8200000 		.4byte	.LASF558
 18194 51e5 16       		.byte	0x16
 18195 51e6 38       		.byte	0x38
 18196 51e7 25000000 		.4byte	0x25
 18197 51eb F5510000 		.4byte	0x51f5
 18198 51ef 0D       		.uleb128 0xd
 18199 51f0 AB0C0000 		.4byte	0xcab
 18200 51f4 00       		.byte	0
 18201 51f5 54       		.uleb128 0x54
 18202 51f6 8A180000 		.4byte	.LASF559
 18203 51fa 16       		.byte	0x16
 18204 51fb 39       		.byte	0x39
 18205 51fc 25000000 		.4byte	0x25
 18206 5200 0A520000 		.4byte	0x520a
 18207 5204 0D       		.uleb128 0xd
 18208 5205 AB0C0000 		.4byte	0xcab
 18209 5209 00       		.byte	0
 18210 520a 54       		.uleb128 0x54
 18211 520b 03170000 		.4byte	.LASF560
 18212 520f 16       		.byte	0x16
 18213 5210 3A       		.byte	0x3a
 18214 5211 25000000 		.4byte	0x25
 18215 5215 1F520000 		.4byte	0x521f
 18216 5219 0D       		.uleb128 0xd
 18217 521a AB0C0000 		.4byte	0xcab
 18218 521e 00       		.byte	0
ARM GAS  /tmp/cc0XcXNK.s 			page 321


 18219 521f 54       		.uleb128 0x54
 18220 5220 E6230000 		.4byte	.LASF561
 18221 5224 16       		.byte	0x16
 18222 5225 3B       		.byte	0x3b
 18223 5226 25000000 		.4byte	0x25
 18224 522a 34520000 		.4byte	0x5234
 18225 522e 0D       		.uleb128 0xd
 18226 522f AB0C0000 		.4byte	0xcab
 18227 5233 00       		.byte	0
 18228 5234 54       		.uleb128 0x54
 18229 5235 5B170000 		.4byte	.LASF562
 18230 5239 16       		.byte	0x16
 18231 523a 42       		.byte	0x42
 18232 523b 2C000000 		.4byte	0x2c
 18233 523f 49520000 		.4byte	0x5249
 18234 5243 0D       		.uleb128 0xd
 18235 5244 AB0C0000 		.4byte	0xcab
 18236 5248 00       		.byte	0
 18237 5249 54       		.uleb128 0x54
 18238 524a 1F1A0000 		.4byte	.LASF563
 18239 524e 16       		.byte	0x16
 18240 524f 43       		.byte	0x43
 18241 5250 2C000000 		.4byte	0x2c
 18242 5254 5E520000 		.4byte	0x525e
 18243 5258 0D       		.uleb128 0xd
 18244 5259 AB0C0000 		.4byte	0xcab
 18245 525d 00       		.byte	0
 18246 525e 58       		.uleb128 0x58
 18247 525f E20E0000 		.4byte	.LASF564
 18248 5263 16       		.byte	0x16
 18249 5264 26       		.byte	0x26
 18250 5265 64080000 		.4byte	0x864
 18251 5269 54       		.uleb128 0x54
 18252 526a A2020000 		.4byte	.LASF565
 18253 526e 23       		.byte	0x23
 18254 526f 20       		.byte	0x20
 18255 5270 E0000000 		.4byte	0xe0
 18256 5274 88520000 		.4byte	0x5288
 18257 5278 0D       		.uleb128 0xd
 18258 5279 F6000000 		.4byte	0xf6
 18259 527d 0D       		.uleb128 0xd
 18260 527e 68070000 		.4byte	0x768
 18261 5282 0D       		.uleb128 0xd
 18262 5283 F6000000 		.4byte	0xf6
 18263 5287 00       		.byte	0
 18264 5288 54       		.uleb128 0x54
 18265 5289 BD1A0000 		.4byte	.LASF566
 18266 528d 23       		.byte	0x23
 18267 528e 1F       		.byte	0x1f
 18268 528f E0000000 		.4byte	0xe0
 18269 5293 9D520000 		.4byte	0x529d
 18270 5297 0D       		.uleb128 0xd
 18271 5298 F6000000 		.4byte	0xf6
 18272 529c 00       		.byte	0
 18273 529d 59       		.uleb128 0x59
 18274 529e AD160000 		.4byte	.LASF567
 18275 52a2 23       		.byte	0x23
ARM GAS  /tmp/cc0XcXNK.s 			page 322


 18276 52a3 21       		.byte	0x21
 18277 52a4 54       		.uleb128 0x54
 18278 52a5 C5210000 		.4byte	.LASF568
 18279 52a9 19       		.byte	0x19
 18280 52aa 28       		.byte	0x28
 18281 52ab 25000000 		.4byte	0x25
 18282 52af C3520000 		.4byte	0x52c3
 18283 52b3 0D       		.uleb128 0xd
 18284 52b4 6E070000 		.4byte	0x76e
 18285 52b8 0D       		.uleb128 0xd
 18286 52b9 25000000 		.4byte	0x25
 18287 52bd 0D       		.uleb128 0xd
 18288 52be B74D0000 		.4byte	0x4db7
 18289 52c2 00       		.byte	0
 18290 52c3 54       		.uleb128 0x54
 18291 52c4 FF110000 		.4byte	.LASF569
 18292 52c8 19       		.byte	0x19
 18293 52c9 24       		.byte	0x24
 18294 52ca D5000000 		.4byte	0xd5
 18295 52ce DD520000 		.4byte	0x52dd
 18296 52d2 0D       		.uleb128 0xd
 18297 52d3 6E070000 		.4byte	0x76e
 18298 52d7 0D       		.uleb128 0xd
 18299 52d8 B74D0000 		.4byte	0x4db7
 18300 52dc 00       		.byte	0
 18301 52dd 55       		.uleb128 0x55
 18302 52de E2090000 		.4byte	.LASF570
 18303 52e2 1C       		.byte	0x1c
 18304 52e3 31       		.byte	0x31
 18305 52e4 EE520000 		.4byte	0x52ee
 18306 52e8 0D       		.uleb128 0xd
 18307 52e9 EE520000 		.4byte	0x52ee
 18308 52ed 00       		.byte	0
 18309 52ee 0A       		.uleb128 0xa
 18310 52ef 04       		.byte	0x4
 18311 52f0 FE140000 		.4byte	0x14fe
 18312 52f4 54       		.uleb128 0x54
 18313 52f5 EB100000 		.4byte	.LASF571
 18314 52f9 24       		.byte	0x24
 18315 52fa 19       		.byte	0x19
 18316 52fb 82030000 		.4byte	0x382
 18317 52ff 13530000 		.4byte	0x5313
 18318 5303 0D       		.uleb128 0xd
 18319 5304 82030000 		.4byte	0x382
 18320 5308 0D       		.uleb128 0xd
 18321 5309 2C000000 		.4byte	0x2c
 18322 530d 0D       		.uleb128 0xd
 18323 530e 0C010000 		.4byte	0x10c
 18324 5312 00       		.byte	0
 18325 5313 59       		.uleb128 0x59
 18326 5314 0E1B0000 		.4byte	.LASF572
 18327 5318 16       		.byte	0x16
 18328 5319 33       		.byte	0x33
 18329 531a 55       		.uleb128 0x55
 18330 531b D2170000 		.4byte	.LASF573
 18331 531f 19       		.byte	0x19
 18332 5320 1E       		.byte	0x1e
ARM GAS  /tmp/cc0XcXNK.s 			page 323


 18333 5321 35530000 		.4byte	0x5335
 18334 5325 0D       		.uleb128 0xd
 18335 5326 68070000 		.4byte	0x768
 18336 532a 0D       		.uleb128 0xd
 18337 532b D5000000 		.4byte	0xd5
 18338 532f 0D       		.uleb128 0xd
 18339 5330 B74D0000 		.4byte	0x4db7
 18340 5334 00       		.byte	0
 18341 5335 5B       		.uleb128 0x5b
 18342 5336 9D060000 		.4byte	.LASF574
 18343 533a 25       		.byte	0x25
 18344 533b 2F01     		.2byte	0x12f
 18345 533d 2C000000 		.4byte	0x2c
 18346 5341 0D       		.uleb128 0xd
 18347 5342 B2150000 		.4byte	0x15b2
 18348 5346 0D       		.uleb128 0xd
 18349 5347 0C010000 		.4byte	0x10c
 18350 534b 0D       		.uleb128 0xd
 18351 534c 1A070000 		.4byte	0x71a
 18352 5350 0D       		.uleb128 0xd
 18353 5351 C6150000 		.4byte	0x15c6
 18354 5355 00       		.byte	0
 18355 5356 00       		.byte	0
 18356              		.section	.debug_abbrev,"",%progbits
 18357              	.Ldebug_abbrev0:
 18358 0000 01       		.uleb128 0x1
 18359 0001 11       		.uleb128 0x11
 18360 0002 01       		.byte	0x1
 18361 0003 25       		.uleb128 0x25
 18362 0004 0E       		.uleb128 0xe
 18363 0005 13       		.uleb128 0x13
 18364 0006 0B       		.uleb128 0xb
 18365 0007 03       		.uleb128 0x3
 18366 0008 0E       		.uleb128 0xe
 18367 0009 1B       		.uleb128 0x1b
 18368 000a 0E       		.uleb128 0xe
 18369 000b 55       		.uleb128 0x55
 18370 000c 17       		.uleb128 0x17
 18371 000d 11       		.uleb128 0x11
 18372 000e 01       		.uleb128 0x1
 18373 000f 10       		.uleb128 0x10
 18374 0010 17       		.uleb128 0x17
 18375 0011 00       		.byte	0
 18376 0012 00       		.byte	0
 18377 0013 02       		.uleb128 0x2
 18378 0014 24       		.uleb128 0x24
 18379 0015 00       		.byte	0
 18380 0016 0B       		.uleb128 0xb
 18381 0017 0B       		.uleb128 0xb
 18382 0018 3E       		.uleb128 0x3e
 18383 0019 0B       		.uleb128 0xb
 18384 001a 03       		.uleb128 0x3
 18385 001b 0E       		.uleb128 0xe
 18386 001c 00       		.byte	0
 18387 001d 00       		.byte	0
 18388 001e 03       		.uleb128 0x3
 18389 001f 24       		.uleb128 0x24
ARM GAS  /tmp/cc0XcXNK.s 			page 324


 18390 0020 00       		.byte	0
 18391 0021 0B       		.uleb128 0xb
 18392 0022 0B       		.uleb128 0xb
 18393 0023 3E       		.uleb128 0x3e
 18394 0024 0B       		.uleb128 0xb
 18395 0025 03       		.uleb128 0x3
 18396 0026 08       		.uleb128 0x8
 18397 0027 00       		.byte	0
 18398 0028 00       		.byte	0
 18399 0029 04       		.uleb128 0x4
 18400 002a 16       		.uleb128 0x16
 18401 002b 00       		.byte	0
 18402 002c 03       		.uleb128 0x3
 18403 002d 0E       		.uleb128 0xe
 18404 002e 3A       		.uleb128 0x3a
 18405 002f 0B       		.uleb128 0xb
 18406 0030 3B       		.uleb128 0x3b
 18407 0031 0B       		.uleb128 0xb
 18408 0032 49       		.uleb128 0x49
 18409 0033 13       		.uleb128 0x13
 18410 0034 00       		.byte	0
 18411 0035 00       		.byte	0
 18412 0036 05       		.uleb128 0x5
 18413 0037 35       		.uleb128 0x35
 18414 0038 00       		.byte	0
 18415 0039 49       		.uleb128 0x49
 18416 003a 13       		.uleb128 0x13
 18417 003b 00       		.byte	0
 18418 003c 00       		.byte	0
 18419 003d 06       		.uleb128 0x6
 18420 003e 13       		.uleb128 0x13
 18421 003f 01       		.byte	0x1
 18422 0040 03       		.uleb128 0x3
 18423 0041 0E       		.uleb128 0xe
 18424 0042 0B       		.uleb128 0xb
 18425 0043 0B       		.uleb128 0xb
 18426 0044 3A       		.uleb128 0x3a
 18427 0045 0B       		.uleb128 0xb
 18428 0046 3B       		.uleb128 0x3b
 18429 0047 0B       		.uleb128 0xb
 18430 0048 01       		.uleb128 0x1
 18431 0049 13       		.uleb128 0x13
 18432 004a 00       		.byte	0
 18433 004b 00       		.byte	0
 18434 004c 07       		.uleb128 0x7
 18435 004d 0D       		.uleb128 0xd
 18436 004e 00       		.byte	0
 18437 004f 03       		.uleb128 0x3
 18438 0050 0E       		.uleb128 0xe
 18439 0051 3A       		.uleb128 0x3a
 18440 0052 0B       		.uleb128 0xb
 18441 0053 3B       		.uleb128 0x3b
 18442 0054 0B       		.uleb128 0xb
 18443 0055 49       		.uleb128 0x49
 18444 0056 13       		.uleb128 0x13
 18445 0057 38       		.uleb128 0x38
 18446 0058 0B       		.uleb128 0xb
ARM GAS  /tmp/cc0XcXNK.s 			page 325


 18447 0059 00       		.byte	0
 18448 005a 00       		.byte	0
 18449 005b 08       		.uleb128 0x8
 18450 005c 0D       		.uleb128 0xd
 18451 005d 00       		.byte	0
 18452 005e 03       		.uleb128 0x3
 18453 005f 08       		.uleb128 0x8
 18454 0060 3A       		.uleb128 0x3a
 18455 0061 0B       		.uleb128 0xb
 18456 0062 3B       		.uleb128 0x3b
 18457 0063 05       		.uleb128 0x5
 18458 0064 49       		.uleb128 0x49
 18459 0065 13       		.uleb128 0x13
 18460 0066 38       		.uleb128 0x38
 18461 0067 0B       		.uleb128 0xb
 18462 0068 00       		.byte	0
 18463 0069 00       		.byte	0
 18464 006a 09       		.uleb128 0x9
 18465 006b 0D       		.uleb128 0xd
 18466 006c 00       		.byte	0
 18467 006d 03       		.uleb128 0x3
 18468 006e 0E       		.uleb128 0xe
 18469 006f 3A       		.uleb128 0x3a
 18470 0070 0B       		.uleb128 0xb
 18471 0071 3B       		.uleb128 0x3b
 18472 0072 05       		.uleb128 0x5
 18473 0073 49       		.uleb128 0x49
 18474 0074 13       		.uleb128 0x13
 18475 0075 38       		.uleb128 0x38
 18476 0076 0B       		.uleb128 0xb
 18477 0077 00       		.byte	0
 18478 0078 00       		.byte	0
 18479 0079 0A       		.uleb128 0xa
 18480 007a 0F       		.uleb128 0xf
 18481 007b 00       		.byte	0
 18482 007c 0B       		.uleb128 0xb
 18483 007d 0B       		.uleb128 0xb
 18484 007e 49       		.uleb128 0x49
 18485 007f 13       		.uleb128 0x13
 18486 0080 00       		.byte	0
 18487 0081 00       		.byte	0
 18488 0082 0B       		.uleb128 0xb
 18489 0083 13       		.uleb128 0x13
 18490 0084 01       		.byte	0x1
 18491 0085 03       		.uleb128 0x3
 18492 0086 0E       		.uleb128 0xe
 18493 0087 0B       		.uleb128 0xb
 18494 0088 0B       		.uleb128 0xb
 18495 0089 3A       		.uleb128 0x3a
 18496 008a 0B       		.uleb128 0xb
 18497 008b 3B       		.uleb128 0x3b
 18498 008c 05       		.uleb128 0x5
 18499 008d 01       		.uleb128 0x1
 18500 008e 13       		.uleb128 0x13
 18501 008f 00       		.byte	0
 18502 0090 00       		.byte	0
 18503 0091 0C       		.uleb128 0xc
ARM GAS  /tmp/cc0XcXNK.s 			page 326


 18504 0092 15       		.uleb128 0x15
 18505 0093 01       		.byte	0x1
 18506 0094 27       		.uleb128 0x27
 18507 0095 19       		.uleb128 0x19
 18508 0096 01       		.uleb128 0x1
 18509 0097 13       		.uleb128 0x13
 18510 0098 00       		.byte	0
 18511 0099 00       		.byte	0
 18512 009a 0D       		.uleb128 0xd
 18513 009b 05       		.uleb128 0x5
 18514 009c 00       		.byte	0
 18515 009d 49       		.uleb128 0x49
 18516 009e 13       		.uleb128 0x13
 18517 009f 00       		.byte	0
 18518 00a0 00       		.byte	0
 18519 00a1 0E       		.uleb128 0xe
 18520 00a2 0F       		.uleb128 0xf
 18521 00a3 00       		.byte	0
 18522 00a4 0B       		.uleb128 0xb
 18523 00a5 0B       		.uleb128 0xb
 18524 00a6 00       		.byte	0
 18525 00a7 00       		.byte	0
 18526 00a8 0F       		.uleb128 0xf
 18527 00a9 13       		.uleb128 0x13
 18528 00aa 01       		.byte	0x1
 18529 00ab 03       		.uleb128 0x3
 18530 00ac 0E       		.uleb128 0xe
 18531 00ad 0B       		.uleb128 0xb
 18532 00ae 05       		.uleb128 0x5
 18533 00af 3A       		.uleb128 0x3a
 18534 00b0 0B       		.uleb128 0xb
 18535 00b1 3B       		.uleb128 0x3b
 18536 00b2 05       		.uleb128 0x5
 18537 00b3 01       		.uleb128 0x1
 18538 00b4 13       		.uleb128 0x13
 18539 00b5 00       		.byte	0
 18540 00b6 00       		.byte	0
 18541 00b7 10       		.uleb128 0x10
 18542 00b8 0D       		.uleb128 0xd
 18543 00b9 00       		.byte	0
 18544 00ba 03       		.uleb128 0x3
 18545 00bb 08       		.uleb128 0x8
 18546 00bc 3A       		.uleb128 0x3a
 18547 00bd 0B       		.uleb128 0xb
 18548 00be 3B       		.uleb128 0x3b
 18549 00bf 0B       		.uleb128 0xb
 18550 00c0 49       		.uleb128 0x49
 18551 00c1 13       		.uleb128 0x13
 18552 00c2 38       		.uleb128 0x38
 18553 00c3 0B       		.uleb128 0xb
 18554 00c4 00       		.byte	0
 18555 00c5 00       		.byte	0
 18556 00c6 11       		.uleb128 0x11
 18557 00c7 13       		.uleb128 0x13
 18558 00c8 01       		.byte	0x1
 18559 00c9 0B       		.uleb128 0xb
 18560 00ca 0B       		.uleb128 0xb
ARM GAS  /tmp/cc0XcXNK.s 			page 327


 18561 00cb 3A       		.uleb128 0x3a
 18562 00cc 0B       		.uleb128 0xb
 18563 00cd 3B       		.uleb128 0x3b
 18564 00ce 0B       		.uleb128 0xb
 18565 00cf 01       		.uleb128 0x1
 18566 00d0 13       		.uleb128 0x13
 18567 00d1 00       		.byte	0
 18568 00d2 00       		.byte	0
 18569 00d3 12       		.uleb128 0x12
 18570 00d4 17       		.uleb128 0x17
 18571 00d5 01       		.byte	0x1
 18572 00d6 0B       		.uleb128 0xb
 18573 00d7 0B       		.uleb128 0xb
 18574 00d8 3A       		.uleb128 0x3a
 18575 00d9 0B       		.uleb128 0xb
 18576 00da 3B       		.uleb128 0x3b
 18577 00db 0B       		.uleb128 0xb
 18578 00dc 01       		.uleb128 0x1
 18579 00dd 13       		.uleb128 0x13
 18580 00de 00       		.byte	0
 18581 00df 00       		.byte	0
 18582 00e0 13       		.uleb128 0x13
 18583 00e1 0D       		.uleb128 0xd
 18584 00e2 00       		.byte	0
 18585 00e3 03       		.uleb128 0x3
 18586 00e4 0E       		.uleb128 0xe
 18587 00e5 3A       		.uleb128 0x3a
 18588 00e6 0B       		.uleb128 0xb
 18589 00e7 3B       		.uleb128 0x3b
 18590 00e8 05       		.uleb128 0x5
 18591 00e9 49       		.uleb128 0x49
 18592 00ea 13       		.uleb128 0x13
 18593 00eb 00       		.byte	0
 18594 00ec 00       		.byte	0
 18595 00ed 14       		.uleb128 0x14
 18596 00ee 26       		.uleb128 0x26
 18597 00ef 00       		.byte	0
 18598 00f0 49       		.uleb128 0x49
 18599 00f1 13       		.uleb128 0x13
 18600 00f2 00       		.byte	0
 18601 00f3 00       		.byte	0
 18602 00f4 15       		.uleb128 0x15
 18603 00f5 01       		.uleb128 0x1
 18604 00f6 01       		.byte	0x1
 18605 00f7 49       		.uleb128 0x49
 18606 00f8 13       		.uleb128 0x13
 18607 00f9 01       		.uleb128 0x1
 18608 00fa 13       		.uleb128 0x13
 18609 00fb 00       		.byte	0
 18610 00fc 00       		.byte	0
 18611 00fd 16       		.uleb128 0x16
 18612 00fe 21       		.uleb128 0x21
 18613 00ff 00       		.byte	0
 18614 0100 49       		.uleb128 0x49
 18615 0101 13       		.uleb128 0x13
 18616 0102 2F       		.uleb128 0x2f
 18617 0103 0B       		.uleb128 0xb
ARM GAS  /tmp/cc0XcXNK.s 			page 328


 18618 0104 00       		.byte	0
 18619 0105 00       		.byte	0
 18620 0106 17       		.uleb128 0x17
 18621 0107 04       		.uleb128 0x4
 18622 0108 01       		.byte	0x1
 18623 0109 0B       		.uleb128 0xb
 18624 010a 0B       		.uleb128 0xb
 18625 010b 3A       		.uleb128 0x3a
 18626 010c 0B       		.uleb128 0xb
 18627 010d 3B       		.uleb128 0x3b
 18628 010e 0B       		.uleb128 0xb
 18629 010f 01       		.uleb128 0x1
 18630 0110 13       		.uleb128 0x13
 18631 0111 00       		.byte	0
 18632 0112 00       		.byte	0
 18633 0113 18       		.uleb128 0x18
 18634 0114 28       		.uleb128 0x28
 18635 0115 00       		.byte	0
 18636 0116 03       		.uleb128 0x3
 18637 0117 0E       		.uleb128 0xe
 18638 0118 1C       		.uleb128 0x1c
 18639 0119 0D       		.uleb128 0xd
 18640 011a 00       		.byte	0
 18641 011b 00       		.byte	0
 18642 011c 19       		.uleb128 0x19
 18643 011d 13       		.uleb128 0x13
 18644 011e 01       		.byte	0x1
 18645 011f 0B       		.uleb128 0xb
 18646 0120 05       		.uleb128 0x5
 18647 0121 3A       		.uleb128 0x3a
 18648 0122 0B       		.uleb128 0xb
 18649 0123 3B       		.uleb128 0x3b
 18650 0124 0B       		.uleb128 0xb
 18651 0125 01       		.uleb128 0x1
 18652 0126 13       		.uleb128 0x13
 18653 0127 00       		.byte	0
 18654 0128 00       		.byte	0
 18655 0129 1A       		.uleb128 0x1a
 18656 012a 0D       		.uleb128 0xd
 18657 012b 00       		.byte	0
 18658 012c 03       		.uleb128 0x3
 18659 012d 0E       		.uleb128 0xe
 18660 012e 3A       		.uleb128 0x3a
 18661 012f 0B       		.uleb128 0xb
 18662 0130 3B       		.uleb128 0x3b
 18663 0131 0B       		.uleb128 0xb
 18664 0132 49       		.uleb128 0x49
 18665 0133 13       		.uleb128 0x13
 18666 0134 38       		.uleb128 0x38
 18667 0135 05       		.uleb128 0x5
 18668 0136 00       		.byte	0
 18669 0137 00       		.byte	0
 18670 0138 1B       		.uleb128 0x1b
 18671 0139 04       		.uleb128 0x4
 18672 013a 01       		.byte	0x1
 18673 013b 0B       		.uleb128 0xb
 18674 013c 0B       		.uleb128 0xb
ARM GAS  /tmp/cc0XcXNK.s 			page 329


 18675 013d 3A       		.uleb128 0x3a
 18676 013e 0B       		.uleb128 0xb
 18677 013f 3B       		.uleb128 0x3b
 18678 0140 05       		.uleb128 0x5
 18679 0141 01       		.uleb128 0x1
 18680 0142 13       		.uleb128 0x13
 18681 0143 00       		.byte	0
 18682 0144 00       		.byte	0
 18683 0145 1C       		.uleb128 0x1c
 18684 0146 16       		.uleb128 0x16
 18685 0147 00       		.byte	0
 18686 0148 03       		.uleb128 0x3
 18687 0149 0E       		.uleb128 0xe
 18688 014a 3A       		.uleb128 0x3a
 18689 014b 0B       		.uleb128 0xb
 18690 014c 3B       		.uleb128 0x3b
 18691 014d 05       		.uleb128 0x5
 18692 014e 49       		.uleb128 0x49
 18693 014f 13       		.uleb128 0x13
 18694 0150 00       		.byte	0
 18695 0151 00       		.byte	0
 18696 0152 1D       		.uleb128 0x1d
 18697 0153 13       		.uleb128 0x13
 18698 0154 01       		.byte	0x1
 18699 0155 0B       		.uleb128 0xb
 18700 0156 0B       		.uleb128 0xb
 18701 0157 3A       		.uleb128 0x3a
 18702 0158 0B       		.uleb128 0xb
 18703 0159 3B       		.uleb128 0x3b
 18704 015a 05       		.uleb128 0x5
 18705 015b 01       		.uleb128 0x1
 18706 015c 13       		.uleb128 0x13
 18707 015d 00       		.byte	0
 18708 015e 00       		.byte	0
 18709 015f 1E       		.uleb128 0x1e
 18710 0160 13       		.uleb128 0x13
 18711 0161 01       		.byte	0x1
 18712 0162 0B       		.uleb128 0xb
 18713 0163 05       		.uleb128 0x5
 18714 0164 3A       		.uleb128 0x3a
 18715 0165 0B       		.uleb128 0xb
 18716 0166 3B       		.uleb128 0x3b
 18717 0167 05       		.uleb128 0x5
 18718 0168 01       		.uleb128 0x1
 18719 0169 13       		.uleb128 0x13
 18720 016a 00       		.byte	0
 18721 016b 00       		.byte	0
 18722 016c 1F       		.uleb128 0x1f
 18723 016d 0D       		.uleb128 0xd
 18724 016e 00       		.byte	0
 18725 016f 03       		.uleb128 0x3
 18726 0170 0E       		.uleb128 0xe
 18727 0171 49       		.uleb128 0x49
 18728 0172 13       		.uleb128 0x13
 18729 0173 38       		.uleb128 0x38
 18730 0174 0B       		.uleb128 0xb
 18731 0175 34       		.uleb128 0x34
ARM GAS  /tmp/cc0XcXNK.s 			page 330


 18732 0176 19       		.uleb128 0x19
 18733 0177 00       		.byte	0
 18734 0178 00       		.byte	0
 18735 0179 20       		.uleb128 0x20
 18736 017a 2E       		.uleb128 0x2e
 18737 017b 00       		.byte	0
 18738 017c 03       		.uleb128 0x3
 18739 017d 0E       		.uleb128 0xe
 18740 017e 3A       		.uleb128 0x3a
 18741 017f 0B       		.uleb128 0xb
 18742 0180 3B       		.uleb128 0x3b
 18743 0181 0B       		.uleb128 0xb
 18744 0182 27       		.uleb128 0x27
 18745 0183 19       		.uleb128 0x19
 18746 0184 49       		.uleb128 0x49
 18747 0185 13       		.uleb128 0x13
 18748 0186 20       		.uleb128 0x20
 18749 0187 0B       		.uleb128 0xb
 18750 0188 00       		.byte	0
 18751 0189 00       		.byte	0
 18752 018a 21       		.uleb128 0x21
 18753 018b 2E       		.uleb128 0x2e
 18754 018c 01       		.byte	0x1
 18755 018d 03       		.uleb128 0x3
 18756 018e 0E       		.uleb128 0xe
 18757 018f 3A       		.uleb128 0x3a
 18758 0190 0B       		.uleb128 0xb
 18759 0191 3B       		.uleb128 0x3b
 18760 0192 0B       		.uleb128 0xb
 18761 0193 27       		.uleb128 0x27
 18762 0194 19       		.uleb128 0x19
 18763 0195 20       		.uleb128 0x20
 18764 0196 0B       		.uleb128 0xb
 18765 0197 01       		.uleb128 0x1
 18766 0198 13       		.uleb128 0x13
 18767 0199 00       		.byte	0
 18768 019a 00       		.byte	0
 18769 019b 22       		.uleb128 0x22
 18770 019c 05       		.uleb128 0x5
 18771 019d 00       		.byte	0
 18772 019e 03       		.uleb128 0x3
 18773 019f 0E       		.uleb128 0xe
 18774 01a0 3A       		.uleb128 0x3a
 18775 01a1 0B       		.uleb128 0xb
 18776 01a2 3B       		.uleb128 0x3b
 18777 01a3 0B       		.uleb128 0xb
 18778 01a4 49       		.uleb128 0x49
 18779 01a5 13       		.uleb128 0x13
 18780 01a6 00       		.byte	0
 18781 01a7 00       		.byte	0
 18782 01a8 23       		.uleb128 0x23
 18783 01a9 2E       		.uleb128 0x2e
 18784 01aa 01       		.byte	0x1
 18785 01ab 3F       		.uleb128 0x3f
 18786 01ac 19       		.uleb128 0x19
 18787 01ad 03       		.uleb128 0x3
 18788 01ae 0E       		.uleb128 0xe
ARM GAS  /tmp/cc0XcXNK.s 			page 331


 18789 01af 3A       		.uleb128 0x3a
 18790 01b0 0B       		.uleb128 0xb
 18791 01b1 3B       		.uleb128 0x3b
 18792 01b2 0B       		.uleb128 0xb
 18793 01b3 27       		.uleb128 0x27
 18794 01b4 19       		.uleb128 0x19
 18795 01b5 20       		.uleb128 0x20
 18796 01b6 0B       		.uleb128 0xb
 18797 01b7 01       		.uleb128 0x1
 18798 01b8 13       		.uleb128 0x13
 18799 01b9 00       		.byte	0
 18800 01ba 00       		.byte	0
 18801 01bb 24       		.uleb128 0x24
 18802 01bc 05       		.uleb128 0x5
 18803 01bd 00       		.byte	0
 18804 01be 03       		.uleb128 0x3
 18805 01bf 08       		.uleb128 0x8
 18806 01c0 3A       		.uleb128 0x3a
 18807 01c1 0B       		.uleb128 0xb
 18808 01c2 3B       		.uleb128 0x3b
 18809 01c3 0B       		.uleb128 0xb
 18810 01c4 49       		.uleb128 0x49
 18811 01c5 13       		.uleb128 0x13
 18812 01c6 00       		.byte	0
 18813 01c7 00       		.byte	0
 18814 01c8 25       		.uleb128 0x25
 18815 01c9 2E       		.uleb128 0x2e
 18816 01ca 00       		.byte	0
 18817 01cb 03       		.uleb128 0x3
 18818 01cc 0E       		.uleb128 0xe
 18819 01cd 3A       		.uleb128 0x3a
 18820 01ce 0B       		.uleb128 0xb
 18821 01cf 3B       		.uleb128 0x3b
 18822 01d0 05       		.uleb128 0x5
 18823 01d1 27       		.uleb128 0x27
 18824 01d2 19       		.uleb128 0x19
 18825 01d3 20       		.uleb128 0x20
 18826 01d4 0B       		.uleb128 0xb
 18827 01d5 00       		.byte	0
 18828 01d6 00       		.byte	0
 18829 01d7 26       		.uleb128 0x26
 18830 01d8 2E       		.uleb128 0x2e
 18831 01d9 01       		.byte	0x1
 18832 01da 03       		.uleb128 0x3
 18833 01db 0E       		.uleb128 0xe
 18834 01dc 3A       		.uleb128 0x3a
 18835 01dd 0B       		.uleb128 0xb
 18836 01de 3B       		.uleb128 0x3b
 18837 01df 05       		.uleb128 0x5
 18838 01e0 27       		.uleb128 0x27
 18839 01e1 19       		.uleb128 0x19
 18840 01e2 49       		.uleb128 0x49
 18841 01e3 13       		.uleb128 0x13
 18842 01e4 20       		.uleb128 0x20
 18843 01e5 0B       		.uleb128 0xb
 18844 01e6 01       		.uleb128 0x1
 18845 01e7 13       		.uleb128 0x13
ARM GAS  /tmp/cc0XcXNK.s 			page 332


 18846 01e8 00       		.byte	0
 18847 01e9 00       		.byte	0
 18848 01ea 27       		.uleb128 0x27
 18849 01eb 05       		.uleb128 0x5
 18850 01ec 00       		.byte	0
 18851 01ed 03       		.uleb128 0x3
 18852 01ee 0E       		.uleb128 0xe
 18853 01ef 3A       		.uleb128 0x3a
 18854 01f0 0B       		.uleb128 0xb
 18855 01f1 3B       		.uleb128 0x3b
 18856 01f2 05       		.uleb128 0x5
 18857 01f3 49       		.uleb128 0x49
 18858 01f4 13       		.uleb128 0x13
 18859 01f5 00       		.byte	0
 18860 01f6 00       		.byte	0
 18861 01f7 28       		.uleb128 0x28
 18862 01f8 2E       		.uleb128 0x2e
 18863 01f9 01       		.byte	0x1
 18864 01fa 03       		.uleb128 0x3
 18865 01fb 0E       		.uleb128 0xe
 18866 01fc 3A       		.uleb128 0x3a
 18867 01fd 0B       		.uleb128 0xb
 18868 01fe 3B       		.uleb128 0x3b
 18869 01ff 05       		.uleb128 0x5
 18870 0200 27       		.uleb128 0x27
 18871 0201 19       		.uleb128 0x19
 18872 0202 11       		.uleb128 0x11
 18873 0203 01       		.uleb128 0x1
 18874 0204 12       		.uleb128 0x12
 18875 0205 06       		.uleb128 0x6
 18876 0206 40       		.uleb128 0x40
 18877 0207 18       		.uleb128 0x18
 18878 0208 9742     		.uleb128 0x2117
 18879 020a 19       		.uleb128 0x19
 18880 020b 01       		.uleb128 0x1
 18881 020c 13       		.uleb128 0x13
 18882 020d 00       		.byte	0
 18883 020e 00       		.byte	0
 18884 020f 29       		.uleb128 0x29
 18885 0210 05       		.uleb128 0x5
 18886 0211 00       		.byte	0
 18887 0212 03       		.uleb128 0x3
 18888 0213 08       		.uleb128 0x8
 18889 0214 3A       		.uleb128 0x3a
 18890 0215 0B       		.uleb128 0xb
 18891 0216 3B       		.uleb128 0x3b
 18892 0217 05       		.uleb128 0x5
 18893 0218 49       		.uleb128 0x49
 18894 0219 13       		.uleb128 0x13
 18895 021a 02       		.uleb128 0x2
 18896 021b 17       		.uleb128 0x17
 18897 021c 00       		.byte	0
 18898 021d 00       		.byte	0
 18899 021e 2A       		.uleb128 0x2a
 18900 021f 1D       		.uleb128 0x1d
 18901 0220 01       		.byte	0x1
 18902 0221 31       		.uleb128 0x31
ARM GAS  /tmp/cc0XcXNK.s 			page 333


 18903 0222 13       		.uleb128 0x13
 18904 0223 52       		.uleb128 0x52
 18905 0224 01       		.uleb128 0x1
 18906 0225 55       		.uleb128 0x55
 18907 0226 17       		.uleb128 0x17
 18908 0227 58       		.uleb128 0x58
 18909 0228 0B       		.uleb128 0xb
 18910 0229 59       		.uleb128 0x59
 18911 022a 05       		.uleb128 0x5
 18912 022b 01       		.uleb128 0x1
 18913 022c 13       		.uleb128 0x13
 18914 022d 00       		.byte	0
 18915 022e 00       		.byte	0
 18916 022f 2B       		.uleb128 0x2b
 18917 0230 05       		.uleb128 0x5
 18918 0231 00       		.byte	0
 18919 0232 31       		.uleb128 0x31
 18920 0233 13       		.uleb128 0x13
 18921 0234 02       		.uleb128 0x2
 18922 0235 18       		.uleb128 0x18
 18923 0236 00       		.byte	0
 18924 0237 00       		.byte	0
 18925 0238 2C       		.uleb128 0x2c
 18926 0239 0B       		.uleb128 0xb
 18927 023a 01       		.byte	0x1
 18928 023b 55       		.uleb128 0x55
 18929 023c 17       		.uleb128 0x17
 18930 023d 00       		.byte	0
 18931 023e 00       		.byte	0
 18932 023f 2D       		.uleb128 0x2d
 18933 0240 34       		.uleb128 0x34
 18934 0241 00       		.byte	0
 18935 0242 03       		.uleb128 0x3
 18936 0243 08       		.uleb128 0x8
 18937 0244 3A       		.uleb128 0x3a
 18938 0245 0B       		.uleb128 0xb
 18939 0246 3B       		.uleb128 0x3b
 18940 0247 05       		.uleb128 0x5
 18941 0248 49       		.uleb128 0x49
 18942 0249 13       		.uleb128 0x13
 18943 024a 02       		.uleb128 0x2
 18944 024b 18       		.uleb128 0x18
 18945 024c 00       		.byte	0
 18946 024d 00       		.byte	0
 18947 024e 2E       		.uleb128 0x2e
 18948 024f 05       		.uleb128 0x5
 18949 0250 00       		.byte	0
 18950 0251 31       		.uleb128 0x31
 18951 0252 13       		.uleb128 0x13
 18952 0253 02       		.uleb128 0x2
 18953 0254 17       		.uleb128 0x17
 18954 0255 00       		.byte	0
 18955 0256 00       		.byte	0
 18956 0257 2F       		.uleb128 0x2f
 18957 0258 898201   		.uleb128 0x4109
 18958 025b 01       		.byte	0x1
 18959 025c 11       		.uleb128 0x11
ARM GAS  /tmp/cc0XcXNK.s 			page 334


 18960 025d 01       		.uleb128 0x1
 18961 025e 9342     		.uleb128 0x2113
 18962 0260 18       		.uleb128 0x18
 18963 0261 00       		.byte	0
 18964 0262 00       		.byte	0
 18965 0263 30       		.uleb128 0x30
 18966 0264 8A8201   		.uleb128 0x410a
 18967 0267 00       		.byte	0
 18968 0268 02       		.uleb128 0x2
 18969 0269 18       		.uleb128 0x18
 18970 026a 9142     		.uleb128 0x2111
 18971 026c 18       		.uleb128 0x18
 18972 026d 00       		.byte	0
 18973 026e 00       		.byte	0
 18974 026f 31       		.uleb128 0x31
 18975 0270 898201   		.uleb128 0x4109
 18976 0273 01       		.byte	0x1
 18977 0274 11       		.uleb128 0x11
 18978 0275 01       		.uleb128 0x1
 18979 0276 31       		.uleb128 0x31
 18980 0277 13       		.uleb128 0x13
 18981 0278 01       		.uleb128 0x1
 18982 0279 13       		.uleb128 0x13
 18983 027a 00       		.byte	0
 18984 027b 00       		.byte	0
 18985 027c 32       		.uleb128 0x32
 18986 027d 898201   		.uleb128 0x4109
 18987 0280 01       		.byte	0x1
 18988 0281 11       		.uleb128 0x11
 18989 0282 01       		.uleb128 0x1
 18990 0283 31       		.uleb128 0x31
 18991 0284 13       		.uleb128 0x13
 18992 0285 00       		.byte	0
 18993 0286 00       		.byte	0
 18994 0287 33       		.uleb128 0x33
 18995 0288 2E       		.uleb128 0x2e
 18996 0289 01       		.byte	0x1
 18997 028a 3F       		.uleb128 0x3f
 18998 028b 19       		.uleb128 0x19
 18999 028c 03       		.uleb128 0x3
 19000 028d 0E       		.uleb128 0xe
 19001 028e 3A       		.uleb128 0x3a
 19002 028f 0B       		.uleb128 0xb
 19003 0290 3B       		.uleb128 0x3b
 19004 0291 0B       		.uleb128 0xb
 19005 0292 27       		.uleb128 0x27
 19006 0293 19       		.uleb128 0x19
 19007 0294 11       		.uleb128 0x11
 19008 0295 01       		.uleb128 0x1
 19009 0296 12       		.uleb128 0x12
 19010 0297 06       		.uleb128 0x6
 19011 0298 40       		.uleb128 0x40
 19012 0299 18       		.uleb128 0x18
 19013 029a 9742     		.uleb128 0x2117
 19014 029c 19       		.uleb128 0x19
 19015 029d 01       		.uleb128 0x1
 19016 029e 13       		.uleb128 0x13
ARM GAS  /tmp/cc0XcXNK.s 			page 335


 19017 029f 00       		.byte	0
 19018 02a0 00       		.byte	0
 19019 02a1 34       		.uleb128 0x34
 19020 02a2 05       		.uleb128 0x5
 19021 02a3 00       		.byte	0
 19022 02a4 03       		.uleb128 0x3
 19023 02a5 0E       		.uleb128 0xe
 19024 02a6 3A       		.uleb128 0x3a
 19025 02a7 0B       		.uleb128 0xb
 19026 02a8 3B       		.uleb128 0x3b
 19027 02a9 0B       		.uleb128 0xb
 19028 02aa 49       		.uleb128 0x49
 19029 02ab 13       		.uleb128 0x13
 19030 02ac 02       		.uleb128 0x2
 19031 02ad 18       		.uleb128 0x18
 19032 02ae 00       		.byte	0
 19033 02af 00       		.byte	0
 19034 02b0 35       		.uleb128 0x35
 19035 02b1 2E       		.uleb128 0x2e
 19036 02b2 01       		.byte	0x1
 19037 02b3 31       		.uleb128 0x31
 19038 02b4 13       		.uleb128 0x13
 19039 02b5 11       		.uleb128 0x11
 19040 02b6 01       		.uleb128 0x1
 19041 02b7 12       		.uleb128 0x12
 19042 02b8 06       		.uleb128 0x6
 19043 02b9 40       		.uleb128 0x40
 19044 02ba 18       		.uleb128 0x18
 19045 02bb 9742     		.uleb128 0x2117
 19046 02bd 19       		.uleb128 0x19
 19047 02be 01       		.uleb128 0x1
 19048 02bf 13       		.uleb128 0x13
 19049 02c0 00       		.byte	0
 19050 02c1 00       		.byte	0
 19051 02c2 36       		.uleb128 0x36
 19052 02c3 898201   		.uleb128 0x4109
 19053 02c6 01       		.byte	0x1
 19054 02c7 11       		.uleb128 0x11
 19055 02c8 01       		.uleb128 0x1
 19056 02c9 9542     		.uleb128 0x2115
 19057 02cb 19       		.uleb128 0x19
 19058 02cc 00       		.byte	0
 19059 02cd 00       		.byte	0
 19060 02ce 37       		.uleb128 0x37
 19061 02cf 2E       		.uleb128 0x2e
 19062 02d0 01       		.byte	0x1
 19063 02d1 3F       		.uleb128 0x3f
 19064 02d2 19       		.uleb128 0x19
 19065 02d3 03       		.uleb128 0x3
 19066 02d4 0E       		.uleb128 0xe
 19067 02d5 3A       		.uleb128 0x3a
 19068 02d6 0B       		.uleb128 0xb
 19069 02d7 3B       		.uleb128 0x3b
 19070 02d8 0B       		.uleb128 0xb
 19071 02d9 27       		.uleb128 0x27
 19072 02da 19       		.uleb128 0x19
 19073 02db 11       		.uleb128 0x11
ARM GAS  /tmp/cc0XcXNK.s 			page 336


 19074 02dc 01       		.uleb128 0x1
 19075 02dd 12       		.uleb128 0x12
 19076 02de 06       		.uleb128 0x6
 19077 02df 40       		.uleb128 0x40
 19078 02e0 18       		.uleb128 0x18
 19079 02e1 9642     		.uleb128 0x2116
 19080 02e3 19       		.uleb128 0x19
 19081 02e4 01       		.uleb128 0x1
 19082 02e5 13       		.uleb128 0x13
 19083 02e6 00       		.byte	0
 19084 02e7 00       		.byte	0
 19085 02e8 38       		.uleb128 0x38
 19086 02e9 05       		.uleb128 0x5
 19087 02ea 00       		.byte	0
 19088 02eb 03       		.uleb128 0x3
 19089 02ec 0E       		.uleb128 0xe
 19090 02ed 3A       		.uleb128 0x3a
 19091 02ee 0B       		.uleb128 0xb
 19092 02ef 3B       		.uleb128 0x3b
 19093 02f0 0B       		.uleb128 0xb
 19094 02f1 49       		.uleb128 0x49
 19095 02f2 13       		.uleb128 0x13
 19096 02f3 02       		.uleb128 0x2
 19097 02f4 17       		.uleb128 0x17
 19098 02f5 00       		.byte	0
 19099 02f6 00       		.byte	0
 19100 02f7 39       		.uleb128 0x39
 19101 02f8 05       		.uleb128 0x5
 19102 02f9 00       		.byte	0
 19103 02fa 03       		.uleb128 0x3
 19104 02fb 08       		.uleb128 0x8
 19105 02fc 3A       		.uleb128 0x3a
 19106 02fd 0B       		.uleb128 0xb
 19107 02fe 3B       		.uleb128 0x3b
 19108 02ff 0B       		.uleb128 0xb
 19109 0300 49       		.uleb128 0x49
 19110 0301 13       		.uleb128 0x13
 19111 0302 02       		.uleb128 0x2
 19112 0303 17       		.uleb128 0x17
 19113 0304 00       		.byte	0
 19114 0305 00       		.byte	0
 19115 0306 3A       		.uleb128 0x3a
 19116 0307 34       		.uleb128 0x34
 19117 0308 00       		.byte	0
 19118 0309 03       		.uleb128 0x3
 19119 030a 0E       		.uleb128 0xe
 19120 030b 3A       		.uleb128 0x3a
 19121 030c 0B       		.uleb128 0xb
 19122 030d 3B       		.uleb128 0x3b
 19123 030e 0B       		.uleb128 0xb
 19124 030f 49       		.uleb128 0x49
 19125 0310 13       		.uleb128 0x13
 19126 0311 02       		.uleb128 0x2
 19127 0312 17       		.uleb128 0x17
 19128 0313 00       		.byte	0
 19129 0314 00       		.byte	0
 19130 0315 3B       		.uleb128 0x3b
ARM GAS  /tmp/cc0XcXNK.s 			page 337


 19131 0316 34       		.uleb128 0x34
 19132 0317 00       		.byte	0
 19133 0318 03       		.uleb128 0x3
 19134 0319 08       		.uleb128 0x8
 19135 031a 3A       		.uleb128 0x3a
 19136 031b 0B       		.uleb128 0xb
 19137 031c 3B       		.uleb128 0x3b
 19138 031d 0B       		.uleb128 0xb
 19139 031e 49       		.uleb128 0x49
 19140 031f 13       		.uleb128 0x13
 19141 0320 02       		.uleb128 0x2
 19142 0321 17       		.uleb128 0x17
 19143 0322 00       		.byte	0
 19144 0323 00       		.byte	0
 19145 0324 3C       		.uleb128 0x3c
 19146 0325 34       		.uleb128 0x34
 19147 0326 00       		.byte	0
 19148 0327 03       		.uleb128 0x3
 19149 0328 0E       		.uleb128 0xe
 19150 0329 3A       		.uleb128 0x3a
 19151 032a 0B       		.uleb128 0xb
 19152 032b 3B       		.uleb128 0x3b
 19153 032c 0B       		.uleb128 0xb
 19154 032d 49       		.uleb128 0x49
 19155 032e 13       		.uleb128 0x13
 19156 032f 02       		.uleb128 0x2
 19157 0330 18       		.uleb128 0x18
 19158 0331 00       		.byte	0
 19159 0332 00       		.byte	0
 19160 0333 3D       		.uleb128 0x3d
 19161 0334 0B       		.uleb128 0xb
 19162 0335 01       		.byte	0x1
 19163 0336 55       		.uleb128 0x55
 19164 0337 17       		.uleb128 0x17
 19165 0338 01       		.uleb128 0x1
 19166 0339 13       		.uleb128 0x13
 19167 033a 00       		.byte	0
 19168 033b 00       		.byte	0
 19169 033c 3E       		.uleb128 0x3e
 19170 033d 34       		.uleb128 0x34
 19171 033e 00       		.byte	0
 19172 033f 03       		.uleb128 0x3
 19173 0340 0E       		.uleb128 0xe
 19174 0341 3A       		.uleb128 0x3a
 19175 0342 0B       		.uleb128 0xb
 19176 0343 3B       		.uleb128 0x3b
 19177 0344 05       		.uleb128 0x5
 19178 0345 49       		.uleb128 0x49
 19179 0346 13       		.uleb128 0x13
 19180 0347 02       		.uleb128 0x2
 19181 0348 17       		.uleb128 0x17
 19182 0349 00       		.byte	0
 19183 034a 00       		.byte	0
 19184 034b 3F       		.uleb128 0x3f
 19185 034c 898201   		.uleb128 0x4109
 19186 034f 01       		.byte	0x1
 19187 0350 11       		.uleb128 0x11
ARM GAS  /tmp/cc0XcXNK.s 			page 338


 19188 0351 01       		.uleb128 0x1
 19189 0352 00       		.byte	0
 19190 0353 00       		.byte	0
 19191 0354 40       		.uleb128 0x40
 19192 0355 1D       		.uleb128 0x1d
 19193 0356 00       		.byte	0
 19194 0357 31       		.uleb128 0x31
 19195 0358 13       		.uleb128 0x13
 19196 0359 11       		.uleb128 0x11
 19197 035a 01       		.uleb128 0x1
 19198 035b 12       		.uleb128 0x12
 19199 035c 06       		.uleb128 0x6
 19200 035d 58       		.uleb128 0x58
 19201 035e 0B       		.uleb128 0xb
 19202 035f 59       		.uleb128 0x59
 19203 0360 05       		.uleb128 0x5
 19204 0361 00       		.byte	0
 19205 0362 00       		.byte	0
 19206 0363 41       		.uleb128 0x41
 19207 0364 0B       		.uleb128 0xb
 19208 0365 01       		.byte	0x1
 19209 0366 11       		.uleb128 0x11
 19210 0367 01       		.uleb128 0x1
 19211 0368 12       		.uleb128 0x12
 19212 0369 06       		.uleb128 0x6
 19213 036a 01       		.uleb128 0x1
 19214 036b 13       		.uleb128 0x13
 19215 036c 00       		.byte	0
 19216 036d 00       		.byte	0
 19217 036e 42       		.uleb128 0x42
 19218 036f 34       		.uleb128 0x34
 19219 0370 00       		.byte	0
 19220 0371 03       		.uleb128 0x3
 19221 0372 0E       		.uleb128 0xe
 19222 0373 3A       		.uleb128 0x3a
 19223 0374 0B       		.uleb128 0xb
 19224 0375 3B       		.uleb128 0x3b
 19225 0376 05       		.uleb128 0x5
 19226 0377 49       		.uleb128 0x49
 19227 0378 13       		.uleb128 0x13
 19228 0379 02       		.uleb128 0x2
 19229 037a 18       		.uleb128 0x18
 19230 037b 00       		.byte	0
 19231 037c 00       		.byte	0
 19232 037d 43       		.uleb128 0x43
 19233 037e 34       		.uleb128 0x34
 19234 037f 00       		.byte	0
 19235 0380 03       		.uleb128 0x3
 19236 0381 08       		.uleb128 0x8
 19237 0382 3A       		.uleb128 0x3a
 19238 0383 0B       		.uleb128 0xb
 19239 0384 3B       		.uleb128 0x3b
 19240 0385 05       		.uleb128 0x5
 19241 0386 49       		.uleb128 0x49
 19242 0387 13       		.uleb128 0x13
 19243 0388 02       		.uleb128 0x2
 19244 0389 17       		.uleb128 0x17
ARM GAS  /tmp/cc0XcXNK.s 			page 339


 19245 038a 00       		.byte	0
 19246 038b 00       		.byte	0
 19247 038c 44       		.uleb128 0x44
 19248 038d 898201   		.uleb128 0x4109
 19249 0390 00       		.byte	0
 19250 0391 11       		.uleb128 0x11
 19251 0392 01       		.uleb128 0x1
 19252 0393 31       		.uleb128 0x31
 19253 0394 13       		.uleb128 0x13
 19254 0395 00       		.byte	0
 19255 0396 00       		.byte	0
 19256 0397 45       		.uleb128 0x45
 19257 0398 1D       		.uleb128 0x1d
 19258 0399 01       		.byte	0x1
 19259 039a 31       		.uleb128 0x31
 19260 039b 13       		.uleb128 0x13
 19261 039c 52       		.uleb128 0x52
 19262 039d 01       		.uleb128 0x1
 19263 039e 55       		.uleb128 0x55
 19264 039f 17       		.uleb128 0x17
 19265 03a0 58       		.uleb128 0x58
 19266 03a1 0B       		.uleb128 0xb
 19267 03a2 59       		.uleb128 0x59
 19268 03a3 0B       		.uleb128 0xb
 19269 03a4 01       		.uleb128 0x1
 19270 03a5 13       		.uleb128 0x13
 19271 03a6 00       		.byte	0
 19272 03a7 00       		.byte	0
 19273 03a8 46       		.uleb128 0x46
 19274 03a9 1D       		.uleb128 0x1d
 19275 03aa 00       		.byte	0
 19276 03ab 31       		.uleb128 0x31
 19277 03ac 13       		.uleb128 0x13
 19278 03ad 52       		.uleb128 0x52
 19279 03ae 01       		.uleb128 0x1
 19280 03af 55       		.uleb128 0x55
 19281 03b0 17       		.uleb128 0x17
 19282 03b1 58       		.uleb128 0x58
 19283 03b2 0B       		.uleb128 0xb
 19284 03b3 59       		.uleb128 0x59
 19285 03b4 05       		.uleb128 0x5
 19286 03b5 00       		.byte	0
 19287 03b6 00       		.byte	0
 19288 03b7 47       		.uleb128 0x47
 19289 03b8 21       		.uleb128 0x21
 19290 03b9 00       		.byte	0
 19291 03ba 49       		.uleb128 0x49
 19292 03bb 13       		.uleb128 0x13
 19293 03bc 2F       		.uleb128 0x2f
 19294 03bd 05       		.uleb128 0x5
 19295 03be 00       		.byte	0
 19296 03bf 00       		.byte	0
 19297 03c0 48       		.uleb128 0x48
 19298 03c1 2E       		.uleb128 0x2e
 19299 03c2 01       		.byte	0x1
 19300 03c3 3F       		.uleb128 0x3f
 19301 03c4 19       		.uleb128 0x19
ARM GAS  /tmp/cc0XcXNK.s 			page 340


 19302 03c5 03       		.uleb128 0x3
 19303 03c6 0E       		.uleb128 0xe
 19304 03c7 3A       		.uleb128 0x3a
 19305 03c8 0B       		.uleb128 0xb
 19306 03c9 3B       		.uleb128 0x3b
 19307 03ca 05       		.uleb128 0x5
 19308 03cb 27       		.uleb128 0x27
 19309 03cc 19       		.uleb128 0x19
 19310 03cd 11       		.uleb128 0x11
 19311 03ce 01       		.uleb128 0x1
 19312 03cf 12       		.uleb128 0x12
 19313 03d0 06       		.uleb128 0x6
 19314 03d1 40       		.uleb128 0x40
 19315 03d2 18       		.uleb128 0x18
 19316 03d3 9742     		.uleb128 0x2117
 19317 03d5 19       		.uleb128 0x19
 19318 03d6 01       		.uleb128 0x1
 19319 03d7 13       		.uleb128 0x13
 19320 03d8 00       		.byte	0
 19321 03d9 00       		.byte	0
 19322 03da 49       		.uleb128 0x49
 19323 03db 05       		.uleb128 0x5
 19324 03dc 00       		.byte	0
 19325 03dd 03       		.uleb128 0x3
 19326 03de 0E       		.uleb128 0xe
 19327 03df 3A       		.uleb128 0x3a
 19328 03e0 0B       		.uleb128 0xb
 19329 03e1 3B       		.uleb128 0x3b
 19330 03e2 05       		.uleb128 0x5
 19331 03e3 49       		.uleb128 0x49
 19332 03e4 13       		.uleb128 0x13
 19333 03e5 02       		.uleb128 0x2
 19334 03e6 18       		.uleb128 0x18
 19335 03e7 00       		.byte	0
 19336 03e8 00       		.byte	0
 19337 03e9 4A       		.uleb128 0x4a
 19338 03ea 18       		.uleb128 0x18
 19339 03eb 00       		.byte	0
 19340 03ec 00       		.byte	0
 19341 03ed 00       		.byte	0
 19342 03ee 4B       		.uleb128 0x4b
 19343 03ef 05       		.uleb128 0x5
 19344 03f0 00       		.byte	0
 19345 03f1 03       		.uleb128 0x3
 19346 03f2 0E       		.uleb128 0xe
 19347 03f3 3A       		.uleb128 0x3a
 19348 03f4 0B       		.uleb128 0xb
 19349 03f5 3B       		.uleb128 0x3b
 19350 03f6 05       		.uleb128 0x5
 19351 03f7 49       		.uleb128 0x49
 19352 03f8 13       		.uleb128 0x13
 19353 03f9 02       		.uleb128 0x2
 19354 03fa 17       		.uleb128 0x17
 19355 03fb 00       		.byte	0
 19356 03fc 00       		.byte	0
 19357 03fd 4C       		.uleb128 0x4c
 19358 03fe 34       		.uleb128 0x34
ARM GAS  /tmp/cc0XcXNK.s 			page 341


 19359 03ff 00       		.byte	0
 19360 0400 34       		.uleb128 0x34
 19361 0401 19       		.uleb128 0x19
 19362 0402 49       		.uleb128 0x49
 19363 0403 13       		.uleb128 0x13
 19364 0404 02       		.uleb128 0x2
 19365 0405 17       		.uleb128 0x17
 19366 0406 00       		.byte	0
 19367 0407 00       		.byte	0
 19368 0408 4D       		.uleb128 0x4d
 19369 0409 1D       		.uleb128 0x1d
 19370 040a 01       		.byte	0x1
 19371 040b 31       		.uleb128 0x31
 19372 040c 13       		.uleb128 0x13
 19373 040d 11       		.uleb128 0x11
 19374 040e 01       		.uleb128 0x1
 19375 040f 12       		.uleb128 0x12
 19376 0410 06       		.uleb128 0x6
 19377 0411 58       		.uleb128 0x58
 19378 0412 0B       		.uleb128 0xb
 19379 0413 59       		.uleb128 0x59
 19380 0414 05       		.uleb128 0x5
 19381 0415 00       		.byte	0
 19382 0416 00       		.byte	0
 19383 0417 4E       		.uleb128 0x4e
 19384 0418 21       		.uleb128 0x21
 19385 0419 00       		.byte	0
 19386 041a 49       		.uleb128 0x49
 19387 041b 13       		.uleb128 0x13
 19388 041c 2F       		.uleb128 0x2f
 19389 041d 13       		.uleb128 0x13
 19390 041e 00       		.byte	0
 19391 041f 00       		.byte	0
 19392 0420 4F       		.uleb128 0x4f
 19393 0421 2E       		.uleb128 0x2e
 19394 0422 00       		.byte	0
 19395 0423 3F       		.uleb128 0x3f
 19396 0424 19       		.uleb128 0x19
 19397 0425 03       		.uleb128 0x3
 19398 0426 0E       		.uleb128 0xe
 19399 0427 3A       		.uleb128 0x3a
 19400 0428 0B       		.uleb128 0xb
 19401 0429 3B       		.uleb128 0x3b
 19402 042a 05       		.uleb128 0x5
 19403 042b 27       		.uleb128 0x27
 19404 042c 19       		.uleb128 0x19
 19405 042d 49       		.uleb128 0x49
 19406 042e 13       		.uleb128 0x13
 19407 042f 11       		.uleb128 0x11
 19408 0430 01       		.uleb128 0x1
 19409 0431 12       		.uleb128 0x12
 19410 0432 06       		.uleb128 0x6
 19411 0433 40       		.uleb128 0x40
 19412 0434 18       		.uleb128 0x18
 19413 0435 9742     		.uleb128 0x2117
 19414 0437 19       		.uleb128 0x19
 19415 0438 00       		.byte	0
ARM GAS  /tmp/cc0XcXNK.s 			page 342


 19416 0439 00       		.byte	0
 19417 043a 50       		.uleb128 0x50
 19418 043b 34       		.uleb128 0x34
 19419 043c 00       		.byte	0
 19420 043d 03       		.uleb128 0x3
 19421 043e 0E       		.uleb128 0xe
 19422 043f 3A       		.uleb128 0x3a
 19423 0440 0B       		.uleb128 0xb
 19424 0441 3B       		.uleb128 0x3b
 19425 0442 05       		.uleb128 0x5
 19426 0443 49       		.uleb128 0x49
 19427 0444 13       		.uleb128 0x13
 19428 0445 3F       		.uleb128 0x3f
 19429 0446 19       		.uleb128 0x19
 19430 0447 3C       		.uleb128 0x3c
 19431 0448 19       		.uleb128 0x19
 19432 0449 00       		.byte	0
 19433 044a 00       		.byte	0
 19434 044b 51       		.uleb128 0x51
 19435 044c 34       		.uleb128 0x34
 19436 044d 00       		.byte	0
 19437 044e 03       		.uleb128 0x3
 19438 044f 08       		.uleb128 0x8
 19439 0450 3A       		.uleb128 0x3a
 19440 0451 0B       		.uleb128 0xb
 19441 0452 3B       		.uleb128 0x3b
 19442 0453 05       		.uleb128 0x5
 19443 0454 49       		.uleb128 0x49
 19444 0455 13       		.uleb128 0x13
 19445 0456 3F       		.uleb128 0x3f
 19446 0457 19       		.uleb128 0x19
 19447 0458 3C       		.uleb128 0x3c
 19448 0459 19       		.uleb128 0x19
 19449 045a 00       		.byte	0
 19450 045b 00       		.byte	0
 19451 045c 52       		.uleb128 0x52
 19452 045d 21       		.uleb128 0x21
 19453 045e 00       		.byte	0
 19454 045f 00       		.byte	0
 19455 0460 00       		.byte	0
 19456 0461 53       		.uleb128 0x53
 19457 0462 34       		.uleb128 0x34
 19458 0463 00       		.byte	0
 19459 0464 03       		.uleb128 0x3
 19460 0465 0E       		.uleb128 0xe
 19461 0466 3A       		.uleb128 0x3a
 19462 0467 0B       		.uleb128 0xb
 19463 0468 3B       		.uleb128 0x3b
 19464 0469 0B       		.uleb128 0xb
 19465 046a 49       		.uleb128 0x49
 19466 046b 13       		.uleb128 0x13
 19467 046c 3F       		.uleb128 0x3f
 19468 046d 19       		.uleb128 0x19
 19469 046e 3C       		.uleb128 0x3c
 19470 046f 19       		.uleb128 0x19
 19471 0470 00       		.byte	0
 19472 0471 00       		.byte	0
ARM GAS  /tmp/cc0XcXNK.s 			page 343


 19473 0472 54       		.uleb128 0x54
 19474 0473 2E       		.uleb128 0x2e
 19475 0474 01       		.byte	0x1
 19476 0475 3F       		.uleb128 0x3f
 19477 0476 19       		.uleb128 0x19
 19478 0477 03       		.uleb128 0x3
 19479 0478 0E       		.uleb128 0xe
 19480 0479 3A       		.uleb128 0x3a
 19481 047a 0B       		.uleb128 0xb
 19482 047b 3B       		.uleb128 0x3b
 19483 047c 0B       		.uleb128 0xb
 19484 047d 27       		.uleb128 0x27
 19485 047e 19       		.uleb128 0x19
 19486 047f 49       		.uleb128 0x49
 19487 0480 13       		.uleb128 0x13
 19488 0481 3C       		.uleb128 0x3c
 19489 0482 19       		.uleb128 0x19
 19490 0483 01       		.uleb128 0x1
 19491 0484 13       		.uleb128 0x13
 19492 0485 00       		.byte	0
 19493 0486 00       		.byte	0
 19494 0487 55       		.uleb128 0x55
 19495 0488 2E       		.uleb128 0x2e
 19496 0489 01       		.byte	0x1
 19497 048a 3F       		.uleb128 0x3f
 19498 048b 19       		.uleb128 0x19
 19499 048c 03       		.uleb128 0x3
 19500 048d 0E       		.uleb128 0xe
 19501 048e 3A       		.uleb128 0x3a
 19502 048f 0B       		.uleb128 0xb
 19503 0490 3B       		.uleb128 0x3b
 19504 0491 0B       		.uleb128 0xb
 19505 0492 27       		.uleb128 0x27
 19506 0493 19       		.uleb128 0x19
 19507 0494 3C       		.uleb128 0x3c
 19508 0495 19       		.uleb128 0x19
 19509 0496 01       		.uleb128 0x1
 19510 0497 13       		.uleb128 0x13
 19511 0498 00       		.byte	0
 19512 0499 00       		.byte	0
 19513 049a 56       		.uleb128 0x56
 19514 049b 2E       		.uleb128 0x2e
 19515 049c 01       		.byte	0x1
 19516 049d 3F       		.uleb128 0x3f
 19517 049e 19       		.uleb128 0x19
 19518 049f 03       		.uleb128 0x3
 19519 04a0 0E       		.uleb128 0xe
 19520 04a1 27       		.uleb128 0x27
 19521 04a2 19       		.uleb128 0x19
 19522 04a3 49       		.uleb128 0x49
 19523 04a4 13       		.uleb128 0x13
 19524 04a5 34       		.uleb128 0x34
 19525 04a6 19       		.uleb128 0x19
 19526 04a7 3C       		.uleb128 0x3c
 19527 04a8 19       		.uleb128 0x19
 19528 04a9 01       		.uleb128 0x1
 19529 04aa 13       		.uleb128 0x13
ARM GAS  /tmp/cc0XcXNK.s 			page 344


 19530 04ab 00       		.byte	0
 19531 04ac 00       		.byte	0
 19532 04ad 57       		.uleb128 0x57
 19533 04ae 26       		.uleb128 0x26
 19534 04af 00       		.byte	0
 19535 04b0 00       		.byte	0
 19536 04b1 00       		.byte	0
 19537 04b2 58       		.uleb128 0x58
 19538 04b3 2E       		.uleb128 0x2e
 19539 04b4 00       		.byte	0
 19540 04b5 3F       		.uleb128 0x3f
 19541 04b6 19       		.uleb128 0x19
 19542 04b7 03       		.uleb128 0x3
 19543 04b8 0E       		.uleb128 0xe
 19544 04b9 3A       		.uleb128 0x3a
 19545 04ba 0B       		.uleb128 0xb
 19546 04bb 3B       		.uleb128 0x3b
 19547 04bc 0B       		.uleb128 0xb
 19548 04bd 27       		.uleb128 0x27
 19549 04be 19       		.uleb128 0x19
 19550 04bf 49       		.uleb128 0x49
 19551 04c0 13       		.uleb128 0x13
 19552 04c1 3C       		.uleb128 0x3c
 19553 04c2 19       		.uleb128 0x19
 19554 04c3 00       		.byte	0
 19555 04c4 00       		.byte	0
 19556 04c5 59       		.uleb128 0x59
 19557 04c6 2E       		.uleb128 0x2e
 19558 04c7 00       		.byte	0
 19559 04c8 3F       		.uleb128 0x3f
 19560 04c9 19       		.uleb128 0x19
 19561 04ca 03       		.uleb128 0x3
 19562 04cb 0E       		.uleb128 0xe
 19563 04cc 3A       		.uleb128 0x3a
 19564 04cd 0B       		.uleb128 0xb
 19565 04ce 3B       		.uleb128 0x3b
 19566 04cf 0B       		.uleb128 0xb
 19567 04d0 27       		.uleb128 0x27
 19568 04d1 19       		.uleb128 0x19
 19569 04d2 3C       		.uleb128 0x3c
 19570 04d3 19       		.uleb128 0x19
 19571 04d4 00       		.byte	0
 19572 04d5 00       		.byte	0
 19573 04d6 5A       		.uleb128 0x5a
 19574 04d7 2E       		.uleb128 0x2e
 19575 04d8 01       		.byte	0x1
 19576 04d9 3F       		.uleb128 0x3f
 19577 04da 19       		.uleb128 0x19
 19578 04db 03       		.uleb128 0x3
 19579 04dc 0E       		.uleb128 0xe
 19580 04dd 3A       		.uleb128 0x3a
 19581 04de 0B       		.uleb128 0xb
 19582 04df 3B       		.uleb128 0x3b
 19583 04e0 05       		.uleb128 0x5
 19584 04e1 27       		.uleb128 0x27
 19585 04e2 19       		.uleb128 0x19
 19586 04e3 49       		.uleb128 0x49
ARM GAS  /tmp/cc0XcXNK.s 			page 345


 19587 04e4 13       		.uleb128 0x13
 19588 04e5 3C       		.uleb128 0x3c
 19589 04e6 19       		.uleb128 0x19
 19590 04e7 01       		.uleb128 0x1
 19591 04e8 13       		.uleb128 0x13
 19592 04e9 00       		.byte	0
 19593 04ea 00       		.byte	0
 19594 04eb 5B       		.uleb128 0x5b
 19595 04ec 2E       		.uleb128 0x2e
 19596 04ed 01       		.byte	0x1
 19597 04ee 3F       		.uleb128 0x3f
 19598 04ef 19       		.uleb128 0x19
 19599 04f0 03       		.uleb128 0x3
 19600 04f1 0E       		.uleb128 0xe
 19601 04f2 3A       		.uleb128 0x3a
 19602 04f3 0B       		.uleb128 0xb
 19603 04f4 3B       		.uleb128 0x3b
 19604 04f5 05       		.uleb128 0x5
 19605 04f6 27       		.uleb128 0x27
 19606 04f7 19       		.uleb128 0x19
 19607 04f8 49       		.uleb128 0x49
 19608 04f9 13       		.uleb128 0x13
 19609 04fa 3C       		.uleb128 0x3c
 19610 04fb 19       		.uleb128 0x19
 19611 04fc 00       		.byte	0
 19612 04fd 00       		.byte	0
 19613 04fe 00       		.byte	0
 19614              		.section	.debug_loc,"",%progbits
 19615              	.Ldebug_loc0:
 19616              	.LLST0:
 19617 0000 00000000 		.4byte	.LVL0
 19618 0004 34000000 		.4byte	.LVL1
 19619 0008 0100     		.2byte	0x1
 19620 000a 50       		.byte	0x50
 19621 000b 34000000 		.4byte	.LVL1
 19622 000f 00010000 		.4byte	.LFE267
 19623 0013 0400     		.2byte	0x4
 19624 0015 F3       		.byte	0xf3
 19625 0016 01       		.uleb128 0x1
 19626 0017 50       		.byte	0x50
 19627 0018 9F       		.byte	0x9f
 19628 0019 00000000 		.4byte	0
 19629 001d 00000000 		.4byte	0
 19630              	.LLST1:
 19631 0021 B4000000 		.4byte	.LVL6
 19632 0025 B9000000 		.4byte	.LVL7-1
 19633 0029 0100     		.2byte	0x1
 19634 002b 51       		.byte	0x51
 19635 002c 00000000 		.4byte	0
 19636 0030 00000000 		.4byte	0
 19637              	.LLST2:
 19638 0034 B4000000 		.4byte	.LVL6
 19639 0038 BC000000 		.4byte	.LVL8
 19640 003c 0600     		.2byte	0x6
 19641 003e 03       		.byte	0x3
 19642 003f 00000000 		.4byte	send_buffer
 19643 0043 9F       		.byte	0x9f
ARM GAS  /tmp/cc0XcXNK.s 			page 346


 19644 0044 00000000 		.4byte	0
 19645 0048 00000000 		.4byte	0
 19646              	.LLST3:
 19647 004c 00000000 		.4byte	.LVL11
 19648 0050 07000000 		.4byte	.LVL12-1
 19649 0054 0100     		.2byte	0x1
 19650 0056 50       		.byte	0x50
 19651 0057 07000000 		.4byte	.LVL12-1
 19652 005b 08000000 		.4byte	.LVL12
 19653 005f 0400     		.2byte	0x4
 19654 0061 F3       		.byte	0xf3
 19655 0062 01       		.uleb128 0x1
 19656 0063 50       		.byte	0x50
 19657 0064 9F       		.byte	0x9f
 19658 0065 08000000 		.4byte	.LVL12
 19659 0069 10000000 		.4byte	.LFE258
 19660 006d 0100     		.2byte	0x1
 19661 006f 50       		.byte	0x50
 19662 0070 00000000 		.4byte	0
 19663 0074 00000000 		.4byte	0
 19664              	.LLST4:
 19665 0078 00000000 		.4byte	.LVL11
 19666 007c 07000000 		.4byte	.LVL12-1
 19667 0080 0100     		.2byte	0x1
 19668 0082 51       		.byte	0x51
 19669 0083 07000000 		.4byte	.LVL12-1
 19670 0087 08000000 		.4byte	.LVL12
 19671 008b 0400     		.2byte	0x4
 19672 008d F3       		.byte	0xf3
 19673 008e 01       		.uleb128 0x1
 19674 008f 51       		.byte	0x51
 19675 0090 9F       		.byte	0x9f
 19676 0091 08000000 		.4byte	.LVL12
 19677 0095 10000000 		.4byte	.LFE258
 19678 0099 0100     		.2byte	0x1
 19679 009b 51       		.byte	0x51
 19680 009c 00000000 		.4byte	0
 19681 00a0 00000000 		.4byte	0
 19682              	.LLST5:
 19683 00a4 00000000 		.4byte	.LVL13
 19684 00a8 1C000000 		.4byte	.LVL14
 19685 00ac 0100     		.2byte	0x1
 19686 00ae 50       		.byte	0x50
 19687 00af 1C000000 		.4byte	.LVL14
 19688 00b3 7A000000 		.4byte	.LVL16
 19689 00b7 0100     		.2byte	0x1
 19690 00b9 54       		.byte	0x54
 19691 00ba 7A000000 		.4byte	.LVL16
 19692 00be 7C000000 		.4byte	.LVL17
 19693 00c2 0100     		.2byte	0x1
 19694 00c4 50       		.byte	0x50
 19695 00c5 7C000000 		.4byte	.LVL17
 19696 00c9 94000000 		.4byte	.LVL19
 19697 00cd 0100     		.2byte	0x1
 19698 00cf 54       		.byte	0x54
 19699 00d0 94000000 		.4byte	.LVL19
 19700 00d4 A0000000 		.4byte	.LVL20
ARM GAS  /tmp/cc0XcXNK.s 			page 347


 19701 00d8 0300     		.2byte	0x3
 19702 00da 76       		.byte	0x76
 19703 00db 01       		.sleb128 1
 19704 00dc 9F       		.byte	0x9f
 19705 00dd A0000000 		.4byte	.LVL20
 19706 00e1 6A060000 		.4byte	.LVL89
 19707 00e5 0600     		.2byte	0x6
 19708 00e7 F3       		.byte	0xf3
 19709 00e8 01       		.uleb128 0x1
 19710 00e9 50       		.byte	0x50
 19711 00ea 23       		.byte	0x23
 19712 00eb 01       		.uleb128 0x1
 19713 00ec 9F       		.byte	0x9f
 19714 00ed 6A060000 		.4byte	.LVL89
 19715 00f1 70060000 		.4byte	.LVL91
 19716 00f5 0100     		.2byte	0x1
 19717 00f7 54       		.byte	0x54
 19718 00f8 70060000 		.4byte	.LVL91
 19719 00fc 9E060000 		.4byte	.LVL95
 19720 0100 0300     		.2byte	0x3
 19721 0102 76       		.byte	0x76
 19722 0103 01       		.sleb128 1
 19723 0104 9F       		.byte	0x9f
 19724 0105 9E060000 		.4byte	.LVL95
 19725 0109 A0060000 		.4byte	.LVL96
 19726 010d 0100     		.2byte	0x1
 19727 010f 54       		.byte	0x54
 19728 0110 A0060000 		.4byte	.LVL96
 19729 0114 AA060000 		.4byte	.LVL97
 19730 0118 0300     		.2byte	0x3
 19731 011a 70       		.byte	0x70
 19732 011b 01       		.sleb128 1
 19733 011c 9F       		.byte	0x9f
 19734 011d AA060000 		.4byte	.LVL97
 19735 0121 FA060000 		.4byte	.LVL105
 19736 0125 0300     		.2byte	0x3
 19737 0127 76       		.byte	0x76
 19738 0128 01       		.sleb128 1
 19739 0129 9F       		.byte	0x9f
 19740 012a FA060000 		.4byte	.LVL105
 19741 012e FC060000 		.4byte	.LVL106
 19742 0132 0100     		.2byte	0x1
 19743 0134 54       		.byte	0x54
 19744 0135 FC060000 		.4byte	.LVL106
 19745 0139 07070000 		.4byte	.LVL107-1
 19746 013d 0300     		.2byte	0x3
 19747 013f 70       		.byte	0x70
 19748 0140 01       		.sleb128 1
 19749 0141 9F       		.byte	0x9f
 19750 0142 07070000 		.4byte	.LVL107-1
 19751 0146 12070000 		.4byte	.LVL108
 19752 014a 0300     		.2byte	0x3
 19753 014c 76       		.byte	0x76
 19754 014d 01       		.sleb128 1
 19755 014e 9F       		.byte	0x9f
 19756 014f 12070000 		.4byte	.LVL108
 19757 0153 14070000 		.4byte	.LVL109
ARM GAS  /tmp/cc0XcXNK.s 			page 348


 19758 0157 0100     		.2byte	0x1
 19759 0159 54       		.byte	0x54
 19760 015a 14070000 		.4byte	.LVL109
 19761 015e 23070000 		.4byte	.LVL110-1
 19762 0162 0300     		.2byte	0x3
 19763 0164 70       		.byte	0x70
 19764 0165 01       		.sleb128 1
 19765 0166 9F       		.byte	0x9f
 19766 0167 23070000 		.4byte	.LVL110-1
 19767 016b 72070000 		.4byte	.LVL117
 19768 016f 0300     		.2byte	0x3
 19769 0171 76       		.byte	0x76
 19770 0172 01       		.sleb128 1
 19771 0173 9F       		.byte	0x9f
 19772 0174 72070000 		.4byte	.LVL117
 19773 0178 D8070000 		.4byte	.LVL125
 19774 017c 0100     		.2byte	0x1
 19775 017e 54       		.byte	0x54
 19776 017f D8070000 		.4byte	.LVL125
 19777 0183 0E080000 		.4byte	.LVL130
 19778 0187 0600     		.2byte	0x6
 19779 0189 F3       		.byte	0xf3
 19780 018a 01       		.uleb128 0x1
 19781 018b 50       		.byte	0x50
 19782 018c 23       		.byte	0x23
 19783 018d 01       		.uleb128 0x1
 19784 018e 9F       		.byte	0x9f
 19785 018f 0E080000 		.4byte	.LVL130
 19786 0193 68080000 		.4byte	.LVL138
 19787 0197 0100     		.2byte	0x1
 19788 0199 54       		.byte	0x54
 19789 019a 68080000 		.4byte	.LVL138
 19790 019e CE080000 		.4byte	.LVL147
 19791 01a2 0600     		.2byte	0x6
 19792 01a4 F3       		.byte	0xf3
 19793 01a5 01       		.uleb128 0x1
 19794 01a6 50       		.byte	0x50
 19795 01a7 23       		.byte	0x23
 19796 01a8 01       		.uleb128 0x1
 19797 01a9 9F       		.byte	0x9f
 19798 01aa CE080000 		.4byte	.LVL147
 19799 01ae 34090000 		.4byte	.LVL161
 19800 01b2 0100     		.2byte	0x1
 19801 01b4 54       		.byte	0x54
 19802 01b5 34090000 		.4byte	.LVL161
 19803 01b9 88090000 		.4byte	.LVL166
 19804 01bd 0300     		.2byte	0x3
 19805 01bf 76       		.byte	0x76
 19806 01c0 01       		.sleb128 1
 19807 01c1 9F       		.byte	0x9f
 19808 01c2 88090000 		.4byte	.LVL166
 19809 01c6 8E090000 		.4byte	.LVL168
 19810 01ca 0100     		.2byte	0x1
 19811 01cc 54       		.byte	0x54
 19812 01cd 8E090000 		.4byte	.LVL168
 19813 01d1 1C0A0000 		.4byte	.LVL178
 19814 01d5 0300     		.2byte	0x3
ARM GAS  /tmp/cc0XcXNK.s 			page 349


 19815 01d7 76       		.byte	0x76
 19816 01d8 01       		.sleb128 1
 19817 01d9 9F       		.byte	0x9f
 19818 01da 1C0A0000 		.4byte	.LVL178
 19819 01de 240A0000 		.4byte	.LVL179
 19820 01e2 0100     		.2byte	0x1
 19821 01e4 54       		.byte	0x54
 19822 01e5 240A0000 		.4byte	.LVL179
 19823 01e9 260A0000 		.4byte	.LVL180
 19824 01ed 0300     		.2byte	0x3
 19825 01ef 70       		.byte	0x70
 19826 01f0 01       		.sleb128 1
 19827 01f1 9F       		.byte	0x9f
 19828 01f2 260A0000 		.4byte	.LVL180
 19829 01f6 2E0A0000 		.4byte	.LVL182
 19830 01fa 0300     		.2byte	0x3
 19831 01fc 76       		.byte	0x76
 19832 01fd 01       		.sleb128 1
 19833 01fe 9F       		.byte	0x9f
 19834 01ff 2E0A0000 		.4byte	.LVL182
 19835 0203 700F0000 		.4byte	.LVL234
 19836 0207 0600     		.2byte	0x6
 19837 0209 F3       		.byte	0xf3
 19838 020a 01       		.uleb128 0x1
 19839 020b 50       		.byte	0x50
 19840 020c 23       		.byte	0x23
 19841 020d 01       		.uleb128 0x1
 19842 020e 9F       		.byte	0x9f
 19843 020f 700F0000 		.4byte	.LVL234
 19844 0213 18150000 		.4byte	.LVL306
 19845 0217 0100     		.2byte	0x1
 19846 0219 54       		.byte	0x54
 19847 021a 18150000 		.4byte	.LVL306
 19848 021e 1E150000 		.4byte	.LVL308
 19849 0222 0600     		.2byte	0x6
 19850 0224 F3       		.byte	0xf3
 19851 0225 01       		.uleb128 0x1
 19852 0226 50       		.byte	0x50
 19853 0227 23       		.byte	0x23
 19854 0228 01       		.uleb128 0x1
 19855 0229 9F       		.byte	0x9f
 19856 022a 1E150000 		.4byte	.LVL308
 19857 022e 441C0000 		.4byte	.LVL390
 19858 0232 0100     		.2byte	0x1
 19859 0234 54       		.byte	0x54
 19860 0235 441C0000 		.4byte	.LVL390
 19861 0239 751C0000 		.4byte	.LVL391-1
 19862 023d 0300     		.2byte	0x3
 19863 023f 70       		.byte	0x70
 19864 0240 01       		.sleb128 1
 19865 0241 9F       		.byte	0x9f
 19866 0242 751C0000 		.4byte	.LVL391-1
 19867 0246 081F0000 		.4byte	.LVL428
 19868 024a 0300     		.2byte	0x3
 19869 024c 76       		.byte	0x76
 19870 024d 01       		.sleb128 1
 19871 024e 9F       		.byte	0x9f
ARM GAS  /tmp/cc0XcXNK.s 			page 350


 19872 024f 081F0000 		.4byte	.LVL428
 19873 0253 281F0000 		.4byte	.LVL432
 19874 0257 0100     		.2byte	0x1
 19875 0259 54       		.byte	0x54
 19876 025a 281F0000 		.4byte	.LVL432
 19877 025e 441F0000 		.4byte	.LVL436
 19878 0262 0300     		.2byte	0x3
 19879 0264 76       		.byte	0x76
 19880 0265 01       		.sleb128 1
 19881 0266 9F       		.byte	0x9f
 19882 0267 441F0000 		.4byte	.LVL436
 19883 026b 821F0000 		.4byte	.LVL443
 19884 026f 0100     		.2byte	0x1
 19885 0271 54       		.byte	0x54
 19886 0272 821F0000 		.4byte	.LVL443
 19887 0276 981F0000 		.4byte	.LVL445
 19888 027a 0300     		.2byte	0x3
 19889 027c 76       		.byte	0x76
 19890 027d 01       		.sleb128 1
 19891 027e 9F       		.byte	0x9f
 19892 027f 981F0000 		.4byte	.LVL445
 19893 0283 9E1F0000 		.4byte	.LVL447
 19894 0287 0100     		.2byte	0x1
 19895 0289 54       		.byte	0x54
 19896 028a 9E1F0000 		.4byte	.LVL447
 19897 028e BE1F0000 		.4byte	.LVL450
 19898 0292 0300     		.2byte	0x3
 19899 0294 76       		.byte	0x76
 19900 0295 01       		.sleb128 1
 19901 0296 9F       		.byte	0x9f
 19902 0297 BE1F0000 		.4byte	.LVL450
 19903 029b 8C200000 		.4byte	.LVL458
 19904 029f 0600     		.2byte	0x6
 19905 02a1 F3       		.byte	0xf3
 19906 02a2 01       		.uleb128 0x1
 19907 02a3 50       		.byte	0x50
 19908 02a4 23       		.byte	0x23
 19909 02a5 01       		.uleb128 0x1
 19910 02a6 9F       		.byte	0x9f
 19911 02a7 8C200000 		.4byte	.LVL458
 19912 02ab 8E200000 		.4byte	.LVL459
 19913 02af 0100     		.2byte	0x1
 19914 02b1 54       		.byte	0x54
 19915 02b2 8E200000 		.4byte	.LVL459
 19916 02b6 AE200000 		.4byte	.LVL464
 19917 02ba 0300     		.2byte	0x3
 19918 02bc 70       		.byte	0x70
 19919 02bd 01       		.sleb128 1
 19920 02be 9F       		.byte	0x9f
 19921 02bf AE200000 		.4byte	.LVL464
 19922 02c3 0C210000 		.4byte	.LVL471
 19923 02c7 0600     		.2byte	0x6
 19924 02c9 F3       		.byte	0xf3
 19925 02ca 01       		.uleb128 0x1
 19926 02cb 50       		.byte	0x50
 19927 02cc 23       		.byte	0x23
 19928 02cd 01       		.uleb128 0x1
ARM GAS  /tmp/cc0XcXNK.s 			page 351


 19929 02ce 9F       		.byte	0x9f
 19930 02cf 0C210000 		.4byte	.LVL471
 19931 02d3 7E210000 		.4byte	.LVL492
 19932 02d7 0100     		.2byte	0x1
 19933 02d9 54       		.byte	0x54
 19934 02da 7E210000 		.4byte	.LVL492
 19935 02de 0A230000 		.4byte	.LVL502
 19936 02e2 0300     		.2byte	0x3
 19937 02e4 76       		.byte	0x76
 19938 02e5 01       		.sleb128 1
 19939 02e6 9F       		.byte	0x9f
 19940 02e7 0A230000 		.4byte	.LVL502
 19941 02eb 0C230000 		.4byte	.LVL503
 19942 02ef 0300     		.2byte	0x3
 19943 02f1 73       		.byte	0x73
 19944 02f2 01       		.sleb128 1
 19945 02f3 9F       		.byte	0x9f
 19946 02f4 0C230000 		.4byte	.LVL503
 19947 02f8 70230000 		.4byte	.LVL516
 19948 02fc 0600     		.2byte	0x6
 19949 02fe F3       		.byte	0xf3
 19950 02ff 01       		.uleb128 0x1
 19951 0300 50       		.byte	0x50
 19952 0301 23       		.byte	0x23
 19953 0302 01       		.uleb128 0x1
 19954 0303 9F       		.byte	0x9f
 19955 0304 70230000 		.4byte	.LVL516
 19956 0308 DE230000 		.4byte	.LVL525
 19957 030c 0100     		.2byte	0x1
 19958 030e 54       		.byte	0x54
 19959 030f DE230000 		.4byte	.LVL525
 19960 0313 E6230000 		.4byte	.LVL526
 19961 0317 0300     		.2byte	0x3
 19962 0319 76       		.byte	0x76
 19963 031a 01       		.sleb128 1
 19964 031b 9F       		.byte	0x9f
 19965 031c E6230000 		.4byte	.LVL526
 19966 0320 E8230000 		.4byte	.LVL527
 19967 0324 0300     		.2byte	0x3
 19968 0326 70       		.byte	0x70
 19969 0327 01       		.sleb128 1
 19970 0328 9F       		.byte	0x9f
 19971 0329 E8230000 		.4byte	.LVL527
 19972 032d 28240000 		.4byte	.LVL534
 19973 0331 0600     		.2byte	0x6
 19974 0333 F3       		.byte	0xf3
 19975 0334 01       		.uleb128 0x1
 19976 0335 50       		.byte	0x50
 19977 0336 23       		.byte	0x23
 19978 0337 01       		.uleb128 0x1
 19979 0338 9F       		.byte	0x9f
 19980 0339 28240000 		.4byte	.LVL534
 19981 033d 30240000 		.4byte	.LVL535
 19982 0341 0100     		.2byte	0x1
 19983 0343 54       		.byte	0x54
 19984 0344 30240000 		.4byte	.LVL535
 19985 0348 32240000 		.4byte	.LVL536
ARM GAS  /tmp/cc0XcXNK.s 			page 352


 19986 034c 0300     		.2byte	0x3
 19987 034e 76       		.byte	0x76
 19988 034f 01       		.sleb128 1
 19989 0350 9F       		.byte	0x9f
 19990 0351 32240000 		.4byte	.LVL536
 19991 0355 56240000 		.4byte	.LVL541
 19992 0359 0600     		.2byte	0x6
 19993 035b F3       		.byte	0xf3
 19994 035c 01       		.uleb128 0x1
 19995 035d 50       		.byte	0x50
 19996 035e 23       		.byte	0x23
 19997 035f 01       		.uleb128 0x1
 19998 0360 9F       		.byte	0x9f
 19999 0361 56240000 		.4byte	.LVL541
 20000 0365 64240000 		.4byte	.LVL543
 20001 0369 0300     		.2byte	0x3
 20002 036b 76       		.byte	0x76
 20003 036c 01       		.sleb128 1
 20004 036d 9F       		.byte	0x9f
 20005 036e 64240000 		.4byte	.LVL543
 20006 0372 6A240000 		.4byte	.LVL545
 20007 0376 0100     		.2byte	0x1
 20008 0378 54       		.byte	0x54
 20009 0379 6A240000 		.4byte	.LVL545
 20010 037d 7A240000 		.4byte	.LVL547
 20011 0381 0300     		.2byte	0x3
 20012 0383 76       		.byte	0x76
 20013 0384 01       		.sleb128 1
 20014 0385 9F       		.byte	0x9f
 20015 0386 7A240000 		.4byte	.LVL547
 20016 038a 90240000 		.4byte	.LVL550
 20017 038e 0100     		.2byte	0x1
 20018 0390 54       		.byte	0x54
 20019 0391 90240000 		.4byte	.LVL550
 20020 0395 CE240000 		.4byte	.LVL555
 20021 0399 0300     		.2byte	0x3
 20022 039b 76       		.byte	0x76
 20023 039c 01       		.sleb128 1
 20024 039d 9F       		.byte	0x9f
 20025 039e CE240000 		.4byte	.LVL555
 20026 03a2 D2240000 		.4byte	.LVL557
 20027 03a6 0600     		.2byte	0x6
 20028 03a8 F3       		.byte	0xf3
 20029 03a9 01       		.uleb128 0x1
 20030 03aa 50       		.byte	0x50
 20031 03ab 23       		.byte	0x23
 20032 03ac 01       		.uleb128 0x1
 20033 03ad 9F       		.byte	0x9f
 20034 03ae D2240000 		.4byte	.LVL557
 20035 03b2 DA240000 		.4byte	.LVL559
 20036 03b6 0300     		.2byte	0x3
 20037 03b8 76       		.byte	0x76
 20038 03b9 01       		.sleb128 1
 20039 03ba 9F       		.byte	0x9f
 20040 03bb DA240000 		.4byte	.LVL559
 20041 03bf 2C250000 		.4byte	.LFE259
 20042 03c3 0100     		.2byte	0x1
ARM GAS  /tmp/cc0XcXNK.s 			page 353


 20043 03c5 54       		.byte	0x54
 20044 03c6 00000000 		.4byte	0
 20045 03ca 00000000 		.4byte	0
 20046              	.LLST6:
 20047 03ce 00000000 		.4byte	.LVL13
 20048 03d2 20000000 		.4byte	.LVL15
 20049 03d6 0100     		.2byte	0x1
 20050 03d8 51       		.byte	0x51
 20051 03d9 20000000 		.4byte	.LVL15
 20052 03dd 7A000000 		.4byte	.LVL16
 20053 03e1 0100     		.2byte	0x1
 20054 03e3 58       		.byte	0x58
 20055 03e4 7A000000 		.4byte	.LVL16
 20056 03e8 7C000000 		.4byte	.LVL17
 20057 03ec 0100     		.2byte	0x1
 20058 03ee 51       		.byte	0x51
 20059 03ef 7C000000 		.4byte	.LVL17
 20060 03f3 5E060000 		.4byte	.LVL88
 20061 03f7 0100     		.2byte	0x1
 20062 03f9 58       		.byte	0x58
 20063 03fa 5E060000 		.4byte	.LVL88
 20064 03fe 6A060000 		.4byte	.LVL89
 20065 0402 0600     		.2byte	0x6
 20066 0404 F3       		.byte	0xf3
 20067 0405 01       		.uleb128 0x1
 20068 0406 51       		.byte	0x51
 20069 0407 31       		.byte	0x31
 20070 0408 1C       		.byte	0x1c
 20071 0409 9F       		.byte	0x9f
 20072 040a 6A060000 		.4byte	.LVL89
 20073 040e CC0B0000 		.4byte	.LVL197
 20074 0412 0100     		.2byte	0x1
 20075 0414 58       		.byte	0x58
 20076 0415 CC0B0000 		.4byte	.LVL197
 20077 0419 700F0000 		.4byte	.LVL234
 20078 041d 0600     		.2byte	0x6
 20079 041f F3       		.byte	0xf3
 20080 0420 01       		.uleb128 0x1
 20081 0421 51       		.byte	0x51
 20082 0422 31       		.byte	0x31
 20083 0423 1C       		.byte	0x1c
 20084 0424 9F       		.byte	0x9f
 20085 0425 700F0000 		.4byte	.LVL234
 20086 0429 D2180000 		.4byte	.LVL347
 20087 042d 0100     		.2byte	0x1
 20088 042f 58       		.byte	0x58
 20089 0430 D2180000 		.4byte	.LVL347
 20090 0434 8A1B0000 		.4byte	.LVL374
 20091 0438 0600     		.2byte	0x6
 20092 043a F3       		.byte	0xf3
 20093 043b 01       		.uleb128 0x1
 20094 043c 51       		.byte	0x51
 20095 043d 31       		.byte	0x31
 20096 043e 1C       		.byte	0x1c
 20097 043f 9F       		.byte	0x9f
 20098 0440 8A1B0000 		.4byte	.LVL374
 20099 0444 BE1F0000 		.4byte	.LVL450
ARM GAS  /tmp/cc0XcXNK.s 			page 354


 20100 0448 0100     		.2byte	0x1
 20101 044a 58       		.byte	0x58
 20102 044b BE1F0000 		.4byte	.LVL450
 20103 044f 8C200000 		.4byte	.LVL458
 20104 0453 0600     		.2byte	0x6
 20105 0455 F3       		.byte	0xf3
 20106 0456 01       		.uleb128 0x1
 20107 0457 51       		.byte	0x51
 20108 0458 31       		.byte	0x31
 20109 0459 1C       		.byte	0x1c
 20110 045a 9F       		.byte	0x9f
 20111 045b 8C200000 		.4byte	.LVL458
 20112 045f A0200000 		.4byte	.LVL462
 20113 0463 0100     		.2byte	0x1
 20114 0465 58       		.byte	0x58
 20115 0466 A0200000 		.4byte	.LVL462
 20116 046a AE200000 		.4byte	.LVL464
 20117 046e 0300     		.2byte	0x3
 20118 0470 71       		.byte	0x71
 20119 0471 7F       		.sleb128 -1
 20120 0472 9F       		.byte	0x9f
 20121 0473 AE200000 		.4byte	.LVL464
 20122 0477 0C210000 		.4byte	.LVL471
 20123 047b 0300     		.2byte	0x3
 20124 047d 75       		.byte	0x75
 20125 047e 7F       		.sleb128 -1
 20126 047f 9F       		.byte	0x9f
 20127 0480 0C210000 		.4byte	.LVL471
 20128 0484 24230000 		.4byte	.LVL507
 20129 0488 0100     		.2byte	0x1
 20130 048a 58       		.byte	0x58
 20131 048b 24230000 		.4byte	.LVL507
 20132 048f 6E230000 		.4byte	.LVL515
 20133 0493 0300     		.2byte	0x3
 20134 0495 75       		.byte	0x75
 20135 0496 7F       		.sleb128 -1
 20136 0497 9F       		.byte	0x9f
 20137 0498 6E230000 		.4byte	.LVL515
 20138 049c 70230000 		.4byte	.LVL516
 20139 04a0 0600     		.2byte	0x6
 20140 04a2 F3       		.byte	0xf3
 20141 04a3 01       		.uleb128 0x1
 20142 04a4 51       		.byte	0x51
 20143 04a5 31       		.byte	0x31
 20144 04a6 1C       		.byte	0x1c
 20145 04a7 9F       		.byte	0x9f
 20146 04a8 70230000 		.4byte	.LVL516
 20147 04ac E8230000 		.4byte	.LVL527
 20148 04b0 0100     		.2byte	0x1
 20149 04b2 58       		.byte	0x58
 20150 04b3 E8230000 		.4byte	.LVL527
 20151 04b7 28240000 		.4byte	.LVL534
 20152 04bb 0600     		.2byte	0x6
 20153 04bd F3       		.byte	0xf3
 20154 04be 01       		.uleb128 0x1
 20155 04bf 51       		.byte	0x51
 20156 04c0 31       		.byte	0x31
ARM GAS  /tmp/cc0XcXNK.s 			page 355


 20157 04c1 1C       		.byte	0x1c
 20158 04c2 9F       		.byte	0x9f
 20159 04c3 28240000 		.4byte	.LVL534
 20160 04c7 32240000 		.4byte	.LVL536
 20161 04cb 0100     		.2byte	0x1
 20162 04cd 58       		.byte	0x58
 20163 04ce 32240000 		.4byte	.LVL536
 20164 04d2 56240000 		.4byte	.LVL541
 20165 04d6 0600     		.2byte	0x6
 20166 04d8 F3       		.byte	0xf3
 20167 04d9 01       		.uleb128 0x1
 20168 04da 51       		.byte	0x51
 20169 04db 31       		.byte	0x31
 20170 04dc 1C       		.byte	0x1c
 20171 04dd 9F       		.byte	0x9f
 20172 04de 56240000 		.4byte	.LVL541
 20173 04e2 CE240000 		.4byte	.LVL555
 20174 04e6 0100     		.2byte	0x1
 20175 04e8 58       		.byte	0x58
 20176 04e9 CE240000 		.4byte	.LVL555
 20177 04ed D0240000 		.4byte	.LVL556
 20178 04f1 0300     		.2byte	0x3
 20179 04f3 75       		.byte	0x75
 20180 04f4 7F       		.sleb128 -1
 20181 04f5 9F       		.byte	0x9f
 20182 04f6 D0240000 		.4byte	.LVL556
 20183 04fa D2240000 		.4byte	.LVL557
 20184 04fe 0600     		.2byte	0x6
 20185 0500 F3       		.byte	0xf3
 20186 0501 01       		.uleb128 0x1
 20187 0502 51       		.byte	0x51
 20188 0503 31       		.byte	0x31
 20189 0504 1C       		.byte	0x1c
 20190 0505 9F       		.byte	0x9f
 20191 0506 D2240000 		.4byte	.LVL557
 20192 050a 2C250000 		.4byte	.LFE259
 20193 050e 0100     		.2byte	0x1
 20194 0510 58       		.byte	0x58
 20195 0511 00000000 		.4byte	0
 20196 0515 00000000 		.4byte	0
 20197              	.LLST7:
 20198 0519 1C000000 		.4byte	.LVL14
 20199 051d 7A000000 		.4byte	.LVL16
 20200 0521 0100     		.2byte	0x1
 20201 0523 57       		.byte	0x57
 20202 0524 7C000000 		.4byte	.LVL17
 20203 0528 F6010000 		.4byte	.LVL34
 20204 052c 0100     		.2byte	0x1
 20205 052e 57       		.byte	0x57
 20206 052f 6A060000 		.4byte	.LVL89
 20207 0533 EA060000 		.4byte	.LVL103
 20208 0537 0100     		.2byte	0x1
 20209 0539 57       		.byte	0x57
 20210 053a FA060000 		.4byte	.LVL105
 20211 053e 3C080000 		.4byte	.LVL135
 20212 0542 0100     		.2byte	0x1
 20213 0544 57       		.byte	0x57
ARM GAS  /tmp/cc0XcXNK.s 			page 356


 20214 0545 CE080000 		.4byte	.LVL147
 20215 0549 44090000 		.4byte	.LVL163
 20216 054d 0100     		.2byte	0x1
 20217 054f 57       		.byte	0x57
 20218 0550 88090000 		.4byte	.LVL166
 20219 0554 AC090000 		.4byte	.LVL171
 20220 0558 0100     		.2byte	0x1
 20221 055a 57       		.byte	0x57
 20222 055b 1C0A0000 		.4byte	.LVL178
 20223 055f 8C0A0000 		.4byte	.LVL186
 20224 0563 0100     		.2byte	0x1
 20225 0565 57       		.byte	0x57
 20226 0566 700F0000 		.4byte	.LVL234
 20227 056a AC0F0000 		.4byte	.LVL238
 20228 056e 0100     		.2byte	0x1
 20229 0570 57       		.byte	0x57
 20230 0571 1E150000 		.4byte	.LVL308
 20231 0575 6E170000 		.4byte	.LVL334
 20232 0579 0100     		.2byte	0x1
 20233 057b 57       		.byte	0x57
 20234 057c 8A1B0000 		.4byte	.LVL374
 20235 0580 BE1F0000 		.4byte	.LVL450
 20236 0584 0100     		.2byte	0x1
 20237 0586 57       		.byte	0x57
 20238 0587 8C200000 		.4byte	.LVL458
 20239 058b 98200000 		.4byte	.LVL461
 20240 058f 0100     		.2byte	0x1
 20241 0591 57       		.byte	0x57
 20242 0592 98200000 		.4byte	.LVL461
 20243 0596 AE200000 		.4byte	.LVL464
 20244 059a 0200     		.2byte	0x2
 20245 059c 70       		.byte	0x70
 20246 059d 00       		.sleb128 0
 20247 059e 0C210000 		.4byte	.LVL471
 20248 05a2 A2210000 		.4byte	.LVL496
 20249 05a6 0100     		.2byte	0x1
 20250 05a8 57       		.byte	0x57
 20251 05a9 70230000 		.4byte	.LVL516
 20252 05ad 76230000 		.4byte	.LVL517
 20253 05b1 0100     		.2byte	0x1
 20254 05b3 57       		.byte	0x57
 20255 05b4 76230000 		.4byte	.LVL517
 20256 05b8 8C230000 		.4byte	.LVL518
 20257 05bc 0200     		.2byte	0x2
 20258 05be 70       		.byte	0x70
 20259 05bf 00       		.sleb128 0
 20260 05c0 8C230000 		.4byte	.LVL518
 20261 05c4 9B230000 		.4byte	.LVL519-1
 20262 05c8 0200     		.2byte	0x2
 20263 05ca 74       		.byte	0x74
 20264 05cb 7F       		.sleb128 -1
 20265 05cc BC230000 		.4byte	.LVL523
 20266 05d0 DE230000 		.4byte	.LVL525
 20267 05d4 0100     		.2byte	0x1
 20268 05d6 57       		.byte	0x57
 20269 05d7 E6230000 		.4byte	.LVL526
 20270 05db E8230000 		.4byte	.LVL527
ARM GAS  /tmp/cc0XcXNK.s 			page 357


 20271 05df 0100     		.2byte	0x1
 20272 05e1 57       		.byte	0x57
 20273 05e2 28240000 		.4byte	.LVL534
 20274 05e6 30240000 		.4byte	.LVL535
 20275 05ea 0100     		.2byte	0x1
 20276 05ec 57       		.byte	0x57
 20277 05ed 64240000 		.4byte	.LVL543
 20278 05f1 CE240000 		.4byte	.LVL555
 20279 05f5 0100     		.2byte	0x1
 20280 05f7 57       		.byte	0x57
 20281 05f8 D2240000 		.4byte	.LVL557
 20282 05fc 2C250000 		.4byte	.LFE259
 20283 0600 0100     		.2byte	0x1
 20284 0602 57       		.byte	0x57
 20285 0603 00000000 		.4byte	0
 20286 0607 00000000 		.4byte	0
 20287              	.LLST8:
 20288 060b 7A240000 		.4byte	.LVL547
 20289 060f 86240000 		.4byte	.LVL548
 20290 0613 0200     		.2byte	0x2
 20291 0615 31       		.byte	0x31
 20292 0616 9F       		.byte	0x9f
 20293 0617 86240000 		.4byte	.LVL548
 20294 061b 8E240000 		.4byte	.LVL549
 20295 061f 0200     		.2byte	0x2
 20296 0621 3A       		.byte	0x3a
 20297 0622 9F       		.byte	0x9f
 20298 0623 00000000 		.4byte	0
 20299 0627 00000000 		.4byte	0
 20300              	.LLST9:
 20301 062b 7A150000 		.4byte	.LVL315
 20302 062f 85150000 		.4byte	.LVL317-1
 20303 0633 0100     		.2byte	0x1
 20304 0635 51       		.byte	0x51
 20305 0636 00000000 		.4byte	0
 20306 063a 00000000 		.4byte	0
 20307              	.LLST10:
 20308 063e 82150000 		.4byte	.LVL316
 20309 0642 85150000 		.4byte	.LVL317-1
 20310 0646 0700     		.2byte	0x7
 20311 0648 74       		.byte	0x74
 20312 0649 00       		.sleb128 0
 20313 064a 73       		.byte	0x73
 20314 064b 00       		.sleb128 0
 20315 064c 22       		.byte	0x22
 20316 064d 31       		.byte	0x31
 20317 064e 1C       		.byte	0x1c
 20318 064f 00000000 		.4byte	0
 20319 0653 00000000 		.4byte	0
 20320              	.LLST11:
 20321 0657 70150000 		.4byte	.LVL313
 20322 065b AC150000 		.4byte	.LVL318
 20323 065f 0100     		.2byte	0x1
 20324 0661 55       		.byte	0x55
 20325 0662 00000000 		.4byte	0
 20326 0666 00000000 		.4byte	0
 20327              	.LLST12:
ARM GAS  /tmp/cc0XcXNK.s 			page 358


 20328 066a 1C1F0000 		.4byte	.LVL430
 20329 066e 261F0000 		.4byte	.LVL431
 20330 0672 0100     		.2byte	0x1
 20331 0674 50       		.byte	0x50
 20332 0675 501F0000 		.4byte	.LVL438
 20333 0679 5C1F0000 		.4byte	.LVL439
 20334 067d 0100     		.2byte	0x1
 20335 067f 50       		.byte	0x50
 20336 0680 00000000 		.4byte	0
 20337 0684 00000000 		.4byte	0
 20338              	.LLST13:
 20339 0688 101F0000 		.4byte	.LVL429
 20340 068c 1B1F0000 		.4byte	.LVL430-1
 20341 0690 0100     		.2byte	0x1
 20342 0692 50       		.byte	0x50
 20343 0693 00000000 		.4byte	0
 20344 0697 00000000 		.4byte	0
 20345              	.LLST14:
 20346 069b 1C000000 		.4byte	.LVL14
 20347 069f 7A000000 		.4byte	.LVL16
 20348 06a3 0200     		.2byte	0x2
 20349 06a5 30       		.byte	0x30
 20350 06a6 9F       		.byte	0x9f
 20351 06a7 7C000000 		.4byte	.LVL17
 20352 06ab 5E060000 		.4byte	.LVL88
 20353 06af 0200     		.2byte	0x2
 20354 06b1 30       		.byte	0x30
 20355 06b2 9F       		.byte	0x9f
 20356 06b3 6A060000 		.4byte	.LVL89
 20357 06b7 600F0000 		.4byte	.LVL232
 20358 06bb 0200     		.2byte	0x2
 20359 06bd 30       		.byte	0x30
 20360 06be 9F       		.byte	0x9f
 20361 06bf 700F0000 		.4byte	.LVL234
 20362 06c3 BE1F0000 		.4byte	.LVL450
 20363 06c7 0200     		.2byte	0x2
 20364 06c9 30       		.byte	0x30
 20365 06ca 9F       		.byte	0x9f
 20366 06cb 8C200000 		.4byte	.LVL458
 20367 06cf 96200000 		.4byte	.LVL460
 20368 06d3 0200     		.2byte	0x2
 20369 06d5 30       		.byte	0x30
 20370 06d6 9F       		.byte	0x9f
 20371 06d7 96200000 		.4byte	.LVL460
 20372 06db 0C210000 		.4byte	.LVL471
 20373 06df 0200     		.2byte	0x2
 20374 06e1 31       		.byte	0x31
 20375 06e2 9F       		.byte	0x9f
 20376 06e3 0C210000 		.4byte	.LVL471
 20377 06e7 F2220000 		.4byte	.LVL500
 20378 06eb 0200     		.2byte	0x2
 20379 06ed 30       		.byte	0x30
 20380 06ee 9F       		.byte	0x9f
 20381 06ef F2220000 		.4byte	.LVL500
 20382 06f3 70230000 		.4byte	.LVL516
 20383 06f7 0200     		.2byte	0x2
 20384 06f9 31       		.byte	0x31
ARM GAS  /tmp/cc0XcXNK.s 			page 359


 20385 06fa 9F       		.byte	0x9f
 20386 06fb 70230000 		.4byte	.LVL516
 20387 06ff E8230000 		.4byte	.LVL527
 20388 0703 0200     		.2byte	0x2
 20389 0705 30       		.byte	0x30
 20390 0706 9F       		.byte	0x9f
 20391 0707 E8230000 		.4byte	.LVL527
 20392 070b 28240000 		.4byte	.LVL534
 20393 070f 0100     		.2byte	0x1
 20394 0711 55       		.byte	0x55
 20395 0712 28240000 		.4byte	.LVL534
 20396 0716 32240000 		.4byte	.LVL536
 20397 071a 0200     		.2byte	0x2
 20398 071c 30       		.byte	0x30
 20399 071d 9F       		.byte	0x9f
 20400 071e 32240000 		.4byte	.LVL536
 20401 0722 56240000 		.4byte	.LVL541
 20402 0726 0100     		.2byte	0x1
 20403 0728 55       		.byte	0x55
 20404 0729 56240000 		.4byte	.LVL541
 20405 072d CE240000 		.4byte	.LVL555
 20406 0731 0200     		.2byte	0x2
 20407 0733 30       		.byte	0x30
 20408 0734 9F       		.byte	0x9f
 20409 0735 CE240000 		.4byte	.LVL555
 20410 0739 D2240000 		.4byte	.LVL557
 20411 073d 0200     		.2byte	0x2
 20412 073f 31       		.byte	0x31
 20413 0740 9F       		.byte	0x9f
 20414 0741 D2240000 		.4byte	.LVL557
 20415 0745 2C250000 		.4byte	.LFE259
 20416 0749 0200     		.2byte	0x2
 20417 074b 30       		.byte	0x30
 20418 074c 9F       		.byte	0x9f
 20419 074d 00000000 		.4byte	0
 20420 0751 00000000 		.4byte	0
 20421              	.LLST15:
 20422 0755 1C210000 		.4byte	.LVL472
 20423 0759 70230000 		.4byte	.LVL516
 20424 075d 0100     		.2byte	0x1
 20425 075f 5A       		.byte	0x5a
 20426 0760 30240000 		.4byte	.LVL535
 20427 0764 64240000 		.4byte	.LVL543
 20428 0768 0100     		.2byte	0x1
 20429 076a 5A       		.byte	0x5a
 20430 076b 00000000 		.4byte	0
 20431 076f 00000000 		.4byte	0
 20432              	.LLST16:
 20433 0773 20210000 		.4byte	.LVL473
 20434 0777 E8220000 		.4byte	.LVL499
 20435 077b 0100     		.2byte	0x1
 20436 077d 59       		.byte	0x59
 20437 077e 56240000 		.4byte	.LVL541
 20438 0782 5A240000 		.4byte	.LVL542
 20439 0786 0100     		.2byte	0x1
 20440 0788 59       		.byte	0x59
 20441 0789 00000000 		.4byte	0
ARM GAS  /tmp/cc0XcXNK.s 			page 360


 20442 078d 00000000 		.4byte	0
 20443              	.LLST17:
 20444 0791 2C210000 		.4byte	.LVL475
 20445 0795 30210000 		.4byte	.LVL476
 20446 0799 0200     		.2byte	0x2
 20447 079b 90       		.byte	0x90
 20448 079c 40       		.uleb128 0x40
 20449 079d 30210000 		.4byte	.LVL476
 20450 07a1 70230000 		.4byte	.LVL516
 20451 07a5 0200     		.2byte	0x2
 20452 07a7 90       		.byte	0x90
 20453 07a8 55       		.uleb128 0x55
 20454 07a9 30240000 		.4byte	.LVL535
 20455 07ad 64240000 		.4byte	.LVL543
 20456 07b1 0200     		.2byte	0x2
 20457 07b3 90       		.byte	0x90
 20458 07b4 55       		.uleb128 0x55
 20459 07b5 00000000 		.4byte	0
 20460 07b9 00000000 		.4byte	0
 20461              	.LLST18:
 20462 07bd 3C210000 		.4byte	.LVL478
 20463 07c1 40210000 		.4byte	.LVL479
 20464 07c5 0200     		.2byte	0x2
 20465 07c7 90       		.byte	0x90
 20466 07c8 40       		.uleb128 0x40
 20467 07c9 40210000 		.4byte	.LVL479
 20468 07cd 70230000 		.4byte	.LVL516
 20469 07d1 0200     		.2byte	0x2
 20470 07d3 90       		.byte	0x90
 20471 07d4 54       		.uleb128 0x54
 20472 07d5 30240000 		.4byte	.LVL535
 20473 07d9 64240000 		.4byte	.LVL543
 20474 07dd 0200     		.2byte	0x2
 20475 07df 90       		.byte	0x90
 20476 07e0 54       		.uleb128 0x54
 20477 07e1 00000000 		.4byte	0
 20478 07e5 00000000 		.4byte	0
 20479              	.LLST19:
 20480 07e9 4C210000 		.4byte	.LVL481
 20481 07ed 50210000 		.4byte	.LVL482
 20482 07f1 0200     		.2byte	0x2
 20483 07f3 90       		.byte	0x90
 20484 07f4 40       		.uleb128 0x40
 20485 07f5 50210000 		.4byte	.LVL482
 20486 07f9 70230000 		.4byte	.LVL516
 20487 07fd 0200     		.2byte	0x2
 20488 07ff 90       		.byte	0x90
 20489 0800 53       		.uleb128 0x53
 20490 0801 30240000 		.4byte	.LVL535
 20491 0805 64240000 		.4byte	.LVL543
 20492 0809 0200     		.2byte	0x2
 20493 080b 90       		.byte	0x90
 20494 080c 53       		.uleb128 0x53
 20495 080d 00000000 		.4byte	0
 20496 0811 00000000 		.4byte	0
 20497              	.LLST20:
 20498 0815 5C210000 		.4byte	.LVL484
ARM GAS  /tmp/cc0XcXNK.s 			page 361


 20499 0819 60210000 		.4byte	.LVL485
 20500 081d 0200     		.2byte	0x2
 20501 081f 90       		.byte	0x90
 20502 0820 40       		.uleb128 0x40
 20503 0821 60210000 		.4byte	.LVL485
 20504 0825 70230000 		.4byte	.LVL516
 20505 0829 0200     		.2byte	0x2
 20506 082b 90       		.byte	0x90
 20507 082c 52       		.uleb128 0x52
 20508 082d 30240000 		.4byte	.LVL535
 20509 0831 64240000 		.4byte	.LVL543
 20510 0835 0200     		.2byte	0x2
 20511 0837 90       		.byte	0x90
 20512 0838 52       		.uleb128 0x52
 20513 0839 00000000 		.4byte	0
 20514 083d 00000000 		.4byte	0
 20515              	.LLST21:
 20516 0841 6C210000 		.4byte	.LVL487
 20517 0845 70210000 		.4byte	.LVL488
 20518 0849 0200     		.2byte	0x2
 20519 084b 90       		.byte	0x90
 20520 084c 40       		.uleb128 0x40
 20521 084d 70210000 		.4byte	.LVL488
 20522 0851 28230000 		.4byte	.LVL508
 20523 0855 0200     		.2byte	0x2
 20524 0857 90       		.byte	0x90
 20525 0858 51       		.uleb128 0x51
 20526 0859 30240000 		.4byte	.LVL535
 20527 085d 32240000 		.4byte	.LVL536
 20528 0861 0200     		.2byte	0x2
 20529 0863 90       		.byte	0x90
 20530 0864 51       		.uleb128 0x51
 20531 0865 56240000 		.4byte	.LVL541
 20532 0869 64240000 		.4byte	.LVL543
 20533 086d 0200     		.2byte	0x2
 20534 086f 90       		.byte	0x90
 20535 0870 51       		.uleb128 0x51
 20536 0871 00000000 		.4byte	0
 20537 0875 00000000 		.4byte	0
 20538              	.LLST22:
 20539 0879 78210000 		.4byte	.LVL490
 20540 087d 7B210000 		.4byte	.LVL491-1
 20541 0881 0200     		.2byte	0x2
 20542 0883 90       		.byte	0x90
 20543 0884 40       		.uleb128 0x40
 20544 0885 7B210000 		.4byte	.LVL491-1
 20545 0889 2E230000 		.4byte	.LVL509
 20546 088d 0200     		.2byte	0x2
 20547 088f 90       		.byte	0x90
 20548 0890 50       		.uleb128 0x50
 20549 0891 30240000 		.4byte	.LVL535
 20550 0895 32240000 		.4byte	.LVL536
 20551 0899 0200     		.2byte	0x2
 20552 089b 90       		.byte	0x90
 20553 089c 50       		.uleb128 0x50
 20554 089d 56240000 		.4byte	.LVL541
 20555 08a1 64240000 		.4byte	.LVL543
ARM GAS  /tmp/cc0XcXNK.s 			page 362


 20556 08a5 0200     		.2byte	0x2
 20557 08a7 90       		.byte	0x90
 20558 08a8 50       		.uleb128 0x50
 20559 08a9 00000000 		.4byte	0
 20560 08ad 00000000 		.4byte	0
 20561              	.LLST23:
 20562 08b1 56060000 		.4byte	.LVL87
 20563 08b5 5D060000 		.4byte	.LVL88-1
 20564 08b9 0100     		.2byte	0x1
 20565 08bb 51       		.byte	0x51
 20566 08bc 00000000 		.4byte	0
 20567 08c0 00000000 		.4byte	0
 20568              	.LLST24:
 20569 08c4 54060000 		.4byte	.LVL86
 20570 08c8 5E060000 		.4byte	.LVL88
 20571 08cc 0600     		.2byte	0x6
 20572 08ce 03       		.byte	0x3
 20573 08cf 00000000 		.4byte	send_buffer
 20574 08d3 9F       		.byte	0x9f
 20575 08d4 00000000 		.4byte	0
 20576 08d8 00000000 		.4byte	0
 20577              	.LLST25:
 20578 08dc E4060000 		.4byte	.LVL102
 20579 08e0 EA060000 		.4byte	.LVL103
 20580 08e4 0100     		.2byte	0x1
 20581 08e6 51       		.byte	0x51
 20582 08e7 00000000 		.4byte	0
 20583 08eb 00000000 		.4byte	0
 20584              	.LLST26:
 20585 08ef E4060000 		.4byte	.LVL102
 20586 08f3 EA060000 		.4byte	.LVL103
 20587 08f7 0600     		.2byte	0x6
 20588 08f9 03       		.byte	0x3
 20589 08fa 00000000 		.4byte	send_buffer
 20590 08fe 9F       		.byte	0x9f
 20591 08ff 00000000 		.4byte	0
 20592 0903 00000000 		.4byte	0
 20593              	.LLST27:
 20594 0907 C2070000 		.4byte	.LVL122
 20595 090b CB070000 		.4byte	.LVL123-1
 20596 090f 0200     		.2byte	0x2
 20597 0911 90       		.byte	0x90
 20598 0912 40       		.uleb128 0x40
 20599 0913 CB070000 		.4byte	.LVL123-1
 20600 0917 0E080000 		.4byte	.LVL130
 20601 091b 0200     		.2byte	0x2
 20602 091d 90       		.byte	0x90
 20603 091e 50       		.uleb128 0x50
 20604 091f 00000000 		.4byte	0
 20605 0923 00000000 		.4byte	0
 20606              	.LLST28:
 20607 0927 D8070000 		.4byte	.LVL125
 20608 092b F8070000 		.4byte	.LVL127
 20609 092f 0100     		.2byte	0x1
 20610 0931 54       		.byte	0x54
 20611 0932 00000000 		.4byte	0
 20612 0936 00000000 		.4byte	0
ARM GAS  /tmp/cc0XcXNK.s 			page 363


 20613              	.LLST29:
 20614 093a 00080000 		.4byte	.LVL128
 20615 093e 0E080000 		.4byte	.LVL130
 20616 0942 0200     		.2byte	0x2
 20617 0944 3A       		.byte	0x3a
 20618 0945 9F       		.byte	0x9f
 20619 0946 00000000 		.4byte	0
 20620 094a 00000000 		.4byte	0
 20621              	.LLST30:
 20622 094e 00080000 		.4byte	.LVL128
 20623 0952 0E080000 		.4byte	.LVL130
 20624 0956 0600     		.2byte	0x6
 20625 0958 03       		.byte	0x3
 20626 0959 00000000 		.4byte	send_buffer
 20627 095d 9F       		.byte	0x9f
 20628 095e 00000000 		.4byte	0
 20629 0962 00000000 		.4byte	0
 20630              	.LLST31:
 20631 0966 5C080000 		.4byte	.LVL137
 20632 096a 6B080000 		.4byte	.LVL139-1
 20633 096e 0200     		.2byte	0x2
 20634 0970 90       		.byte	0x90
 20635 0971 40       		.uleb128 0x40
 20636 0972 6B080000 		.4byte	.LVL139-1
 20637 0976 CE080000 		.4byte	.LVL147
 20638 097a 0200     		.2byte	0x2
 20639 097c 90       		.byte	0x90
 20640 097d 50       		.uleb128 0x50
 20641 097e 00000000 		.4byte	0
 20642 0982 00000000 		.4byte	0
 20643              	.LLST32:
 20644 0986 C0080000 		.4byte	.LVL145
 20645 098a CB080000 		.4byte	.LVL146-1
 20646 098e 0100     		.2byte	0x1
 20647 0990 51       		.byte	0x51
 20648 0991 00000000 		.4byte	0
 20649 0995 00000000 		.4byte	0
 20650              	.LLST33:
 20651 0999 BE080000 		.4byte	.LVL144
 20652 099d CE080000 		.4byte	.LVL147
 20653 09a1 0600     		.2byte	0x6
 20654 09a3 03       		.byte	0x3
 20655 09a4 00000000 		.4byte	send_buffer
 20656 09a8 9F       		.byte	0x9f
 20657 09a9 00000000 		.4byte	0
 20658 09ad 00000000 		.4byte	0
 20659              	.LLST34:
 20660 09b1 E0080000 		.4byte	.LVL149
 20661 09b5 E6080000 		.4byte	.LVL150
 20662 09b9 0200     		.2byte	0x2
 20663 09bb 90       		.byte	0x90
 20664 09bc 40       		.uleb128 0x40
 20665 09bd E6080000 		.4byte	.LVL150
 20666 09c1 44090000 		.4byte	.LVL163
 20667 09c5 0200     		.2byte	0x2
 20668 09c7 90       		.byte	0x90
 20669 09c8 50       		.uleb128 0x50
ARM GAS  /tmp/cc0XcXNK.s 			page 364


 20670 09c9 28240000 		.4byte	.LVL534
 20671 09cd 30240000 		.4byte	.LVL535
 20672 09d1 0200     		.2byte	0x2
 20673 09d3 90       		.byte	0x90
 20674 09d4 50       		.uleb128 0x50
 20675 09d5 00000000 		.4byte	0
 20676 09d9 00000000 		.4byte	0
 20677              	.LLST35:
 20678 09dd F0080000 		.4byte	.LVL152
 20679 09e1 F6080000 		.4byte	.LVL153
 20680 09e5 0200     		.2byte	0x2
 20681 09e7 90       		.byte	0x90
 20682 09e8 40       		.uleb128 0x40
 20683 09e9 F6080000 		.4byte	.LVL153
 20684 09ed 44090000 		.4byte	.LVL163
 20685 09f1 0200     		.2byte	0x2
 20686 09f3 90       		.byte	0x90
 20687 09f4 51       		.uleb128 0x51
 20688 09f5 28240000 		.4byte	.LVL534
 20689 09f9 30240000 		.4byte	.LVL535
 20690 09fd 0200     		.2byte	0x2
 20691 09ff 90       		.byte	0x90
 20692 0a00 51       		.uleb128 0x51
 20693 0a01 00000000 		.4byte	0
 20694 0a05 00000000 		.4byte	0
 20695              	.LLST36:
 20696 0a09 00090000 		.4byte	.LVL155
 20697 0a0d 06090000 		.4byte	.LVL156
 20698 0a11 0200     		.2byte	0x2
 20699 0a13 90       		.byte	0x90
 20700 0a14 40       		.uleb128 0x40
 20701 0a15 06090000 		.4byte	.LVL156
 20702 0a19 44090000 		.4byte	.LVL163
 20703 0a1d 0200     		.2byte	0x2
 20704 0a1f 90       		.byte	0x90
 20705 0a20 52       		.uleb128 0x52
 20706 0a21 28240000 		.4byte	.LVL534
 20707 0a25 30240000 		.4byte	.LVL535
 20708 0a29 0200     		.2byte	0x2
 20709 0a2b 90       		.byte	0x90
 20710 0a2c 52       		.uleb128 0x52
 20711 0a2d 00000000 		.4byte	0
 20712 0a31 00000000 		.4byte	0
 20713              	.LLST37:
 20714 0a35 12090000 		.4byte	.LVL158
 20715 0a39 1A090000 		.4byte	.LVL159
 20716 0a3d 0200     		.2byte	0x2
 20717 0a3f 90       		.byte	0x90
 20718 0a40 40       		.uleb128 0x40
 20719 0a41 1A090000 		.4byte	.LVL159
 20720 0a45 1F090000 		.4byte	.LVL160-1
 20721 0a49 0200     		.2byte	0x2
 20722 0a4b 90       		.byte	0x90
 20723 0a4c 43       		.uleb128 0x43
 20724 0a4d 00000000 		.4byte	0
 20725 0a51 00000000 		.4byte	0
 20726              	.LLST38:
ARM GAS  /tmp/cc0XcXNK.s 			page 365


 20727 0a55 20090000 		.4byte	.LVL160
 20728 0a59 3E090000 		.4byte	.LVL162
 20729 0a5d 0100     		.2byte	0x1
 20730 0a5f 50       		.byte	0x50
 20731 0a60 28240000 		.4byte	.LVL534
 20732 0a64 30240000 		.4byte	.LVL535
 20733 0a68 0100     		.2byte	0x1
 20734 0a6a 50       		.byte	0x50
 20735 0a6b 00000000 		.4byte	0
 20736 0a6f 00000000 		.4byte	0
 20737              	.LLST39:
 20738 0a73 4C090000 		.4byte	.LVL165
 20739 0a77 88090000 		.4byte	.LVL166
 20740 0a7b 0100     		.2byte	0x1
 20741 0a7d 51       		.byte	0x51
 20742 0a7e 00000000 		.4byte	0
 20743 0a82 00000000 		.4byte	0
 20744              	.LLST40:
 20745 0a86 4C090000 		.4byte	.LVL165
 20746 0a8a 88090000 		.4byte	.LVL166
 20747 0a8e 0600     		.2byte	0x6
 20748 0a90 03       		.byte	0x3
 20749 0a91 00000000 		.4byte	send_buffer
 20750 0a95 9F       		.byte	0x9f
 20751 0a96 00000000 		.4byte	0
 20752 0a9a 00000000 		.4byte	0
 20753              	.LLST41:
 20754 0a9e C8090000 		.4byte	.LVL174
 20755 0aa2 E2090000 		.4byte	.LVL176
 20756 0aa6 0100     		.2byte	0x1
 20757 0aa8 54       		.byte	0x54
 20758 0aa9 DE230000 		.4byte	.LVL525
 20759 0aad E6230000 		.4byte	.LVL526
 20760 0ab1 0100     		.2byte	0x1
 20761 0ab3 54       		.byte	0x54
 20762 0ab4 00000000 		.4byte	0
 20763 0ab8 00000000 		.4byte	0
 20764              	.LLST42:
 20765 0abc 580F0000 		.4byte	.LVL231
 20766 0ac0 600F0000 		.4byte	.LVL232
 20767 0ac4 0100     		.2byte	0x1
 20768 0ac6 51       		.byte	0x51
 20769 0ac7 00000000 		.4byte	0
 20770 0acb 00000000 		.4byte	0
 20771              	.LLST43:
 20772 0acf 580F0000 		.4byte	.LVL231
 20773 0ad3 600F0000 		.4byte	.LVL232
 20774 0ad7 0600     		.2byte	0x6
 20775 0ad9 03       		.byte	0x3
 20776 0ada 00000000 		.4byte	send_buffer
 20777 0ade 9F       		.byte	0x9f
 20778 0adf 00000000 		.4byte	0
 20779 0ae3 00000000 		.4byte	0
 20780              	.LLST44:
 20781 0ae7 10150000 		.4byte	.LVL305
 20782 0aeb 18150000 		.4byte	.LVL306
 20783 0aef 0200     		.2byte	0x2
ARM GAS  /tmp/cc0XcXNK.s 			page 366


 20784 0af1 31       		.byte	0x31
 20785 0af2 9F       		.byte	0x9f
 20786 0af3 00000000 		.4byte	0
 20787 0af7 00000000 		.4byte	0
 20788              	.LLST45:
 20789 0afb 10150000 		.4byte	.LVL305
 20790 0aff 18150000 		.4byte	.LVL306
 20791 0b03 0600     		.2byte	0x6
 20792 0b05 03       		.byte	0x3
 20793 0b06 00000000 		.4byte	send_buffer
 20794 0b0a 9F       		.byte	0x9f
 20795 0b0b 00000000 		.4byte	0
 20796 0b0f 00000000 		.4byte	0
 20797              	.LLST46:
 20798 0b13 7C1B0000 		.4byte	.LVL372
 20799 0b17 8A1B0000 		.4byte	.LVL374
 20800 0b1b 0200     		.2byte	0x2
 20801 0b1d 31       		.byte	0x31
 20802 0b1e 9F       		.byte	0x9f
 20803 0b1f 00000000 		.4byte	0
 20804 0b23 00000000 		.4byte	0
 20805              	.LLST47:
 20806 0b27 7C1B0000 		.4byte	.LVL372
 20807 0b2b 8A1B0000 		.4byte	.LVL374
 20808 0b2f 0600     		.2byte	0x6
 20809 0b31 03       		.byte	0x3
 20810 0b32 00000000 		.4byte	send_buffer
 20811 0b36 9F       		.byte	0x9f
 20812 0b37 00000000 		.4byte	0
 20813 0b3b 00000000 		.4byte	0
 20814              	.LLST48:
 20815 0b3f C41E0000 		.4byte	.LVL427
 20816 0b43 081F0000 		.4byte	.LVL428
 20817 0b47 0100     		.2byte	0x1
 20818 0b49 51       		.byte	0x51
 20819 0b4a 00000000 		.4byte	0
 20820 0b4e 00000000 		.4byte	0
 20821              	.LLST49:
 20822 0b52 C41E0000 		.4byte	.LVL427
 20823 0b56 081F0000 		.4byte	.LVL428
 20824 0b5a 0600     		.2byte	0x6
 20825 0b5c 03       		.byte	0x3
 20826 0b5d 00000000 		.4byte	send_buffer
 20827 0b61 9F       		.byte	0x9f
 20828 0b62 00000000 		.4byte	0
 20829 0b66 00000000 		.4byte	0
 20830              	.LLST50:
 20831 0b6a 321F0000 		.4byte	.LVL433
 20832 0b6e 3C1F0000 		.4byte	.LVL434
 20833 0b72 0200     		.2byte	0x2
 20834 0b74 32       		.byte	0x32
 20835 0b75 9F       		.byte	0x9f
 20836 0b76 00000000 		.4byte	0
 20837 0b7a 00000000 		.4byte	0
 20838              	.LLST51:
 20839 0b7e 321F0000 		.4byte	.LVL433
 20840 0b82 3C1F0000 		.4byte	.LVL434
ARM GAS  /tmp/cc0XcXNK.s 			page 367


 20841 0b86 0600     		.2byte	0x6
 20842 0b88 03       		.byte	0x3
 20843 0b89 00000000 		.4byte	send_buffer
 20844 0b8d 9F       		.byte	0x9f
 20845 0b8e 00000000 		.4byte	0
 20846 0b92 00000000 		.4byte	0
 20847              	.LLST52:
 20848 0b96 641F0000 		.4byte	.LVL440
 20849 0b9a 701F0000 		.4byte	.LVL441
 20850 0b9e 0200     		.2byte	0x2
 20851 0ba0 32       		.byte	0x32
 20852 0ba1 9F       		.byte	0x9f
 20853 0ba2 00000000 		.4byte	0
 20854 0ba6 00000000 		.4byte	0
 20855              	.LLST53:
 20856 0baa 641F0000 		.4byte	.LVL440
 20857 0bae 701F0000 		.4byte	.LVL441
 20858 0bb2 0600     		.2byte	0x6
 20859 0bb4 03       		.byte	0x3
 20860 0bb5 00000000 		.4byte	send_buffer
 20861 0bb9 9F       		.byte	0x9f
 20862 0bba 00000000 		.4byte	0
 20863 0bbe 00000000 		.4byte	0
 20864              	.LLST54:
 20865 0bc2 8C1F0000 		.4byte	.LVL444
 20866 0bc6 981F0000 		.4byte	.LVL445
 20867 0bca 0200     		.2byte	0x2
 20868 0bcc 33       		.byte	0x33
 20869 0bcd 9F       		.byte	0x9f
 20870 0bce 00000000 		.4byte	0
 20871 0bd2 00000000 		.4byte	0
 20872              	.LLST55:
 20873 0bd6 8C1F0000 		.4byte	.LVL444
 20874 0bda 981F0000 		.4byte	.LVL445
 20875 0bde 0600     		.2byte	0x6
 20876 0be0 03       		.byte	0x3
 20877 0be1 00000000 		.4byte	send_buffer
 20878 0be5 9F       		.byte	0x9f
 20879 0be6 00000000 		.4byte	0
 20880 0bea 00000000 		.4byte	0
 20881              	.LLST56:
 20882 0bee A6200000 		.4byte	.LVL463
 20883 0bf2 AE200000 		.4byte	.LVL464
 20884 0bf6 0200     		.2byte	0x2
 20885 0bf8 30       		.byte	0x30
 20886 0bf9 9F       		.byte	0x9f
 20887 0bfa AE200000 		.4byte	.LVL464
 20888 0bfe C2200000 		.4byte	.LVL467
 20889 0c02 0100     		.2byte	0x1
 20890 0c04 56       		.byte	0x56
 20891 0c05 C2200000 		.4byte	.LVL467
 20892 0c09 0C210000 		.4byte	.LVL471
 20893 0c0d 0300     		.2byte	0x3
 20894 0c0f 76       		.byte	0x76
 20895 0c10 7F       		.sleb128 -1
 20896 0c11 9F       		.byte	0x9f
 20897 0c12 CE240000 		.4byte	.LVL555
ARM GAS  /tmp/cc0XcXNK.s 			page 368


 20898 0c16 D2240000 		.4byte	.LVL557
 20899 0c1a 0100     		.2byte	0x1
 20900 0c1c 56       		.byte	0x56
 20901 0c1d 00000000 		.4byte	0
 20902 0c21 00000000 		.4byte	0
 20903              	.LLST57:
 20904 0c25 BA200000 		.4byte	.LVL466
 20905 0c29 E4200000 		.4byte	.LVL468
 20906 0c2d 0100     		.2byte	0x1
 20907 0c2f 50       		.byte	0x50
 20908 0c30 00000000 		.4byte	0
 20909 0c34 00000000 		.4byte	0
 20910              	.LLST58:
 20911 0c38 BA200000 		.4byte	.LVL466
 20912 0c3c E4200000 		.4byte	.LVL468
 20913 0c40 0200     		.2byte	0x2
 20914 0c42 70       		.byte	0x70
 20915 0c43 04       		.sleb128 4
 20916 0c44 E4200000 		.4byte	.LVL468
 20917 0c48 E6200000 		.4byte	.LVL469
 20918 0c4c 0100     		.2byte	0x1
 20919 0c4e 51       		.byte	0x51
 20920 0c4f 00000000 		.4byte	0
 20921 0c53 00000000 		.4byte	0
 20922              	.LLST59:
 20923 0c57 FA220000 		.4byte	.LVL501
 20924 0c5b 0C230000 		.4byte	.LVL503
 20925 0c5f 0200     		.2byte	0x2
 20926 0c61 30       		.byte	0x30
 20927 0c62 9F       		.byte	0x9f
 20928 0c63 0C230000 		.4byte	.LVL503
 20929 0c67 14230000 		.4byte	.LVL504
 20930 0c6b 0700     		.2byte	0x7
 20931 0c6d 73       		.byte	0x73
 20932 0c6e 00       		.sleb128 0
 20933 0c6f F3       		.byte	0xf3
 20934 0c70 01       		.uleb128 0x1
 20935 0c71 50       		.byte	0x50
 20936 0c72 1C       		.byte	0x1c
 20937 0c73 9F       		.byte	0x9f
 20938 0c74 14230000 		.4byte	.LVL504
 20939 0c78 18230000 		.4byte	.LVL505
 20940 0c7c 0800     		.2byte	0x8
 20941 0c7e F3       		.byte	0xf3
 20942 0c7f 01       		.uleb128 0x1
 20943 0c80 50       		.byte	0x50
 20944 0c81 20       		.byte	0x20
 20945 0c82 73       		.byte	0x73
 20946 0c83 00       		.sleb128 0
 20947 0c84 22       		.byte	0x22
 20948 0c85 9F       		.byte	0x9f
 20949 0c86 18230000 		.4byte	.LVL505
 20950 0c8a 20230000 		.4byte	.LVL506
 20951 0c8e 0700     		.2byte	0x7
 20952 0c90 73       		.byte	0x73
 20953 0c91 00       		.sleb128 0
 20954 0c92 F3       		.byte	0xf3
ARM GAS  /tmp/cc0XcXNK.s 			page 369


 20955 0c93 01       		.uleb128 0x1
 20956 0c94 50       		.byte	0x50
 20957 0c95 1C       		.byte	0x1c
 20958 0c96 9F       		.byte	0x9f
 20959 0c97 00000000 		.4byte	0
 20960 0c9b 00000000 		.4byte	0
 20961              	.LLST60:
 20962 0c9f 20230000 		.4byte	.LVL506
 20963 0ca3 2E230000 		.4byte	.LVL509
 20964 0ca7 0200     		.2byte	0x2
 20965 0ca9 30       		.byte	0x30
 20966 0caa 9F       		.byte	0x9f
 20967 0cab 2E230000 		.4byte	.LVL509
 20968 0caf 3C230000 		.4byte	.LVL511
 20969 0cb3 0100     		.2byte	0x1
 20970 0cb5 56       		.byte	0x56
 20971 0cb6 3C230000 		.4byte	.LVL511
 20972 0cba 68230000 		.4byte	.LVL514
 20973 0cbe 0300     		.2byte	0x3
 20974 0cc0 76       		.byte	0x76
 20975 0cc1 7F       		.sleb128 -1
 20976 0cc2 9F       		.byte	0x9f
 20977 0cc3 68230000 		.4byte	.LVL514
 20978 0cc7 70230000 		.4byte	.LVL516
 20979 0ccb 0100     		.2byte	0x1
 20980 0ccd 56       		.byte	0x56
 20981 0cce 00000000 		.4byte	0
 20982 0cd2 00000000 		.4byte	0
 20983              	.LLST61:
 20984 0cd6 34230000 		.4byte	.LVL510
 20985 0cda 5E230000 		.4byte	.LVL512
 20986 0cde 0100     		.2byte	0x1
 20987 0ce0 50       		.byte	0x50
 20988 0ce1 00000000 		.4byte	0
 20989 0ce5 00000000 		.4byte	0
 20990              	.LLST62:
 20991 0ce9 34230000 		.4byte	.LVL510
 20992 0ced 5E230000 		.4byte	.LVL512
 20993 0cf1 0200     		.2byte	0x2
 20994 0cf3 70       		.byte	0x70
 20995 0cf4 04       		.sleb128 4
 20996 0cf5 5E230000 		.4byte	.LVL512
 20997 0cf9 60230000 		.4byte	.LVL513
 20998 0cfd 0100     		.2byte	0x1
 20999 0cff 51       		.byte	0x51
 21000 0d00 00000000 		.4byte	0
 21001 0d04 00000000 		.4byte	0
 21002              	.LLST63:
 21003 0d08 C2240000 		.4byte	.LVL554
 21004 0d0c CE240000 		.4byte	.LVL555
 21005 0d10 0100     		.2byte	0x1
 21006 0d12 51       		.byte	0x51
 21007 0d13 00000000 		.4byte	0
 21008 0d17 00000000 		.4byte	0
 21009              	.LLST64:
 21010 0d1b C0240000 		.4byte	.LVL553
 21011 0d1f CE240000 		.4byte	.LVL555
ARM GAS  /tmp/cc0XcXNK.s 			page 370


 21012 0d23 0600     		.2byte	0x6
 21013 0d25 03       		.byte	0x3
 21014 0d26 00000000 		.4byte	send_buffer
 21015 0d2a 9F       		.byte	0x9f
 21016 0d2b 00000000 		.4byte	0
 21017 0d2f 00000000 		.4byte	0
 21018              	.LLST65:
 21019 0d33 80200000 		.4byte	.LVL457
 21020 0d37 8C200000 		.4byte	.LVL458
 21021 0d3b 0100     		.2byte	0x1
 21022 0d3d 51       		.byte	0x51
 21023 0d3e 00000000 		.4byte	0
 21024 0d42 00000000 		.4byte	0
 21025              	.LLST66:
 21026 0d46 80200000 		.4byte	.LVL457
 21027 0d4a 8C200000 		.4byte	.LVL458
 21028 0d4e 0600     		.2byte	0x6
 21029 0d50 03       		.byte	0x3
 21030 0d51 00000000 		.4byte	send_buffer
 21031 0d55 9F       		.byte	0x9f
 21032 0d56 00000000 		.4byte	0
 21033 0d5a 00000000 		.4byte	0
 21034              	.LLST67:
 21035 0d5e 1C000000 		.4byte	.LVL563
 21036 0d62 30000000 		.4byte	.LVL566
 21037 0d66 0100     		.2byte	0x1
 21038 0d68 50       		.byte	0x50
 21039 0d69 00000000 		.4byte	0
 21040 0d6d 00000000 		.4byte	0
 21041              	.LLST68:
 21042 0d71 2C000000 		.4byte	.LVL565
 21043 0d75 31000000 		.4byte	.LVL567-1
 21044 0d79 0100     		.2byte	0x1
 21045 0d7b 51       		.byte	0x51
 21046 0d7c 00000000 		.4byte	0
 21047 0d80 00000000 		.4byte	0
 21048              	.LLST69:
 21049 0d84 20000000 		.4byte	.LVL564
 21050 0d88 32000000 		.4byte	.LVL567
 21051 0d8c 0600     		.2byte	0x6
 21052 0d8e 03       		.byte	0x3
 21053 0d8f 00000000 		.4byte	print_buffer.11457
 21054 0d93 9F       		.byte	0x9f
 21055 0d94 00000000 		.4byte	0
 21056 0d98 00000000 		.4byte	0
 21057              	.LLST70:
 21058 0d9c 00000000 		.4byte	.LVL568
 21059 0da0 3C000000 		.4byte	.LVL574
 21060 0da4 0100     		.2byte	0x1
 21061 0da6 50       		.byte	0x50
 21062 0da7 3C000000 		.4byte	.LVL574
 21063 0dab 42000000 		.4byte	.LVL576
 21064 0daf 0400     		.2byte	0x4
 21065 0db1 F3       		.byte	0xf3
 21066 0db2 01       		.uleb128 0x1
 21067 0db3 50       		.byte	0x50
 21068 0db4 9F       		.byte	0x9f
ARM GAS  /tmp/cc0XcXNK.s 			page 371


 21069 0db5 42000000 		.4byte	.LVL576
 21070 0db9 4C000000 		.4byte	.LFE261
 21071 0dbd 0100     		.2byte	0x1
 21072 0dbf 50       		.byte	0x50
 21073 0dc0 00000000 		.4byte	0
 21074 0dc4 00000000 		.4byte	0
 21075              	.LLST71:
 21076 0dc8 00000000 		.4byte	.LVL568
 21077 0dcc 34000000 		.4byte	.LVL573
 21078 0dd0 0100     		.2byte	0x1
 21079 0dd2 51       		.byte	0x51
 21080 0dd3 34000000 		.4byte	.LVL573
 21081 0dd7 42000000 		.4byte	.LVL576
 21082 0ddb 0400     		.2byte	0x4
 21083 0ddd F3       		.byte	0xf3
 21084 0dde 01       		.uleb128 0x1
 21085 0ddf 51       		.byte	0x51
 21086 0de0 9F       		.byte	0x9f
 21087 0de1 42000000 		.4byte	.LVL576
 21088 0de5 44000000 		.4byte	.LVL577
 21089 0de9 0100     		.2byte	0x1
 21090 0deb 51       		.byte	0x51
 21091 0dec 44000000 		.4byte	.LVL577
 21092 0df0 4C000000 		.4byte	.LFE261
 21093 0df4 0400     		.2byte	0x4
 21094 0df6 F3       		.byte	0xf3
 21095 0df7 01       		.uleb128 0x1
 21096 0df8 51       		.byte	0x51
 21097 0df9 9F       		.byte	0x9f
 21098 0dfa 00000000 		.4byte	0
 21099 0dfe 00000000 		.4byte	0
 21100              	.LLST73:
 21101 0e02 1C000000 		.4byte	.LVL569
 21102 0e06 26000000 		.4byte	.LVL570
 21103 0e0a 0200     		.2byte	0x2
 21104 0e0c 31       		.byte	0x31
 21105 0e0d 9F       		.byte	0x9f
 21106 0e0e 26000000 		.4byte	.LVL570
 21107 0e12 2A000000 		.4byte	.LVL571
 21108 0e16 0800     		.2byte	0x8
 21109 0e18 72       		.byte	0x72
 21110 0e19 00       		.sleb128 0
 21111 0e1a 70       		.byte	0x70
 21112 0e1b 00       		.sleb128 0
 21113 0e1c 1C       		.byte	0x1c
 21114 0e1d 23       		.byte	0x23
 21115 0e1e 03       		.uleb128 0x3
 21116 0e1f 9F       		.byte	0x9f
 21117 0e20 2A000000 		.4byte	.LVL571
 21118 0e24 34000000 		.4byte	.LVL573
 21119 0e28 0800     		.2byte	0x8
 21120 0e2a 72       		.byte	0x72
 21121 0e2b 00       		.sleb128 0
 21122 0e2c 70       		.byte	0x70
 21123 0e2d 00       		.sleb128 0
 21124 0e2e 1C       		.byte	0x1c
 21125 0e2f 23       		.byte	0x23
ARM GAS  /tmp/cc0XcXNK.s 			page 372


 21126 0e30 02       		.uleb128 0x2
 21127 0e31 9F       		.byte	0x9f
 21128 0e32 42000000 		.4byte	.LVL576
 21129 0e36 4C000000 		.4byte	.LFE261
 21130 0e3a 0200     		.2byte	0x2
 21131 0e3c 31       		.byte	0x31
 21132 0e3d 9F       		.byte	0x9f
 21133 0e3e 00000000 		.4byte	0
 21134 0e42 00000000 		.4byte	0
 21135              	.LLST74:
 21136 0e46 1C000000 		.4byte	.LVL569
 21137 0e4a 26000000 		.4byte	.LVL570
 21138 0e4e 0200     		.2byte	0x2
 21139 0e50 30       		.byte	0x30
 21140 0e51 9F       		.byte	0x9f
 21141 0e52 26000000 		.4byte	.LVL570
 21142 0e56 2A000000 		.4byte	.LVL571
 21143 0e5a 0800     		.2byte	0x8
 21144 0e5c 72       		.byte	0x72
 21145 0e5d 00       		.sleb128 0
 21146 0e5e 70       		.byte	0x70
 21147 0e5f 00       		.sleb128 0
 21148 0e60 1C       		.byte	0x1c
 21149 0e61 23       		.byte	0x23
 21150 0e62 01       		.uleb128 0x1
 21151 0e63 9F       		.byte	0x9f
 21152 0e64 2A000000 		.4byte	.LVL571
 21153 0e68 2E000000 		.4byte	.LVL572
 21154 0e6c 0600     		.2byte	0x6
 21155 0e6e 72       		.byte	0x72
 21156 0e6f 00       		.sleb128 0
 21157 0e70 70       		.byte	0x70
 21158 0e71 00       		.sleb128 0
 21159 0e72 1C       		.byte	0x1c
 21160 0e73 9F       		.byte	0x9f
 21161 0e74 2E000000 		.4byte	.LVL572
 21162 0e78 34000000 		.4byte	.LVL573
 21163 0e7c 0800     		.2byte	0x8
 21164 0e7e 72       		.byte	0x72
 21165 0e7f 00       		.sleb128 0
 21166 0e80 70       		.byte	0x70
 21167 0e81 00       		.sleb128 0
 21168 0e82 1C       		.byte	0x1c
 21169 0e83 23       		.byte	0x23
 21170 0e84 01       		.uleb128 0x1
 21171 0e85 9F       		.byte	0x9f
 21172 0e86 42000000 		.4byte	.LVL576
 21173 0e8a 4C000000 		.4byte	.LFE261
 21174 0e8e 0200     		.2byte	0x2
 21175 0e90 30       		.byte	0x30
 21176 0e91 9F       		.byte	0x9f
 21177 0e92 00000000 		.4byte	0
 21178 0e96 00000000 		.4byte	0
 21179              	.LLST75:
 21180 0e9a 34000000 		.4byte	.LVL573
 21181 0e9e 3D000000 		.4byte	.LVL575-1
 21182 0ea2 0100     		.2byte	0x1
ARM GAS  /tmp/cc0XcXNK.s 			page 373


 21183 0ea4 51       		.byte	0x51
 21184 0ea5 00000000 		.4byte	0
 21185 0ea9 00000000 		.4byte	0
 21186              	.LLST76:
 21187 0ead 34000000 		.4byte	.LVL573
 21188 0eb1 42000000 		.4byte	.LVL576
 21189 0eb5 0100     		.2byte	0x1
 21190 0eb7 56       		.byte	0x56
 21191 0eb8 00000000 		.4byte	0
 21192 0ebc 00000000 		.4byte	0
 21193              	.LLST77:
 21194 0ec0 00000000 		.4byte	.LVL578
 21195 0ec4 0E000000 		.4byte	.LVL579
 21196 0ec8 0200     		.2byte	0x2
 21197 0eca 90       		.byte	0x90
 21198 0ecb 40       		.uleb128 0x40
 21199 0ecc 0E000000 		.4byte	.LVL579
 21200 0ed0 40000000 		.4byte	.LFE262
 21201 0ed4 0600     		.2byte	0x6
 21202 0ed6 F3       		.byte	0xf3
 21203 0ed7 03       		.uleb128 0x3
 21204 0ed8 F5       		.byte	0xf5
 21205 0ed9 40       		.uleb128 0x40
 21206 0eda 25       		.uleb128 0x25
 21207 0edb 9F       		.byte	0x9f
 21208 0edc 00000000 		.4byte	0
 21209 0ee0 00000000 		.4byte	0
 21210              	.LLST78:
 21211 0ee4 2C000000 		.4byte	.LVL581
 21212 0ee8 33000000 		.4byte	.LVL582-1
 21213 0eec 0100     		.2byte	0x1
 21214 0eee 51       		.byte	0x51
 21215 0eef 00000000 		.4byte	0
 21216 0ef3 00000000 		.4byte	0
 21217              	.LLST79:
 21218 0ef7 2C000000 		.4byte	.LVL581
 21219 0efb 38000000 		.4byte	.LVL583
 21220 0eff 0300     		.2byte	0x3
 21221 0f01 91       		.byte	0x91
 21222 0f02 70       		.sleb128 -16
 21223 0f03 9F       		.byte	0x9f
 21224 0f04 38000000 		.4byte	.LVL583
 21225 0f08 40000000 		.4byte	.LFE262
 21226 0f0c 0300     		.2byte	0x3
 21227 0f0e 7D       		.byte	0x7d
 21228 0f0f 70       		.sleb128 -16
 21229 0f10 9F       		.byte	0x9f
 21230 0f11 00000000 		.4byte	0
 21231 0f15 00000000 		.4byte	0
 21232              	.LLST80:
 21233 0f19 00000000 		.4byte	.LVL584
 21234 0f1d 38000000 		.4byte	.LVL590
 21235 0f21 0100     		.2byte	0x1
 21236 0f23 50       		.byte	0x50
 21237 0f24 38000000 		.4byte	.LVL590
 21238 0f28 70000000 		.4byte	.LVL595
 21239 0f2c 0400     		.2byte	0x4
ARM GAS  /tmp/cc0XcXNK.s 			page 374


 21240 0f2e F3       		.byte	0xf3
 21241 0f2f 01       		.uleb128 0x1
 21242 0f30 50       		.byte	0x50
 21243 0f31 9F       		.byte	0x9f
 21244 0f32 70000000 		.4byte	.LVL595
 21245 0f36 7C000000 		.4byte	.LFE263
 21246 0f3a 0100     		.2byte	0x1
 21247 0f3c 50       		.byte	0x50
 21248 0f3d 00000000 		.4byte	0
 21249 0f41 00000000 		.4byte	0
 21250              	.LLST81:
 21251 0f45 00000000 		.4byte	.LVL584
 21252 0f49 22000000 		.4byte	.LVL588
 21253 0f4d 0100     		.2byte	0x1
 21254 0f4f 51       		.byte	0x51
 21255 0f50 22000000 		.4byte	.LVL588
 21256 0f54 70000000 		.4byte	.LVL595
 21257 0f58 0100     		.2byte	0x1
 21258 0f5a 56       		.byte	0x56
 21259 0f5b 70000000 		.4byte	.LVL595
 21260 0f5f 7C000000 		.4byte	.LFE263
 21261 0f63 0100     		.2byte	0x1
 21262 0f65 51       		.byte	0x51
 21263 0f66 00000000 		.4byte	0
 21264 0f6a 00000000 		.4byte	0
 21265              	.LLST82:
 21266 0f6e 06000000 		.4byte	.LVL585
 21267 0f72 10000000 		.4byte	.LVL586
 21268 0f76 0100     		.2byte	0x1
 21269 0f78 53       		.byte	0x53
 21270 0f79 10000000 		.4byte	.LVL586
 21271 0f7d 16000000 		.4byte	.LVL587
 21272 0f81 0300     		.2byte	0x3
 21273 0f83 73       		.byte	0x73
 21274 0f84 78       		.sleb128 -8
 21275 0f85 9F       		.byte	0x9f
 21276 0f86 16000000 		.4byte	.LVL587
 21277 0f8a 22000000 		.4byte	.LVL588
 21278 0f8e 0500     		.2byte	0x5
 21279 0f90 71       		.byte	0x71
 21280 0f91 00       		.sleb128 0
 21281 0f92 32       		.byte	0x32
 21282 0f93 24       		.byte	0x24
 21283 0f94 9F       		.byte	0x9f
 21284 0f95 22000000 		.4byte	.LVL588
 21285 0f99 70000000 		.4byte	.LVL595
 21286 0f9d 0500     		.2byte	0x5
 21287 0f9f 76       		.byte	0x76
 21288 0fa0 00       		.sleb128 0
 21289 0fa1 32       		.byte	0x32
 21290 0fa2 24       		.byte	0x24
 21291 0fa3 9F       		.byte	0x9f
 21292 0fa4 00000000 		.4byte	0
 21293 0fa8 00000000 		.4byte	0
 21294              	.LLST83:
 21295 0fac 2C000000 		.4byte	.LVL589
 21296 0fb0 70000000 		.4byte	.LVL595
ARM GAS  /tmp/cc0XcXNK.s 			page 375


 21297 0fb4 0200     		.2byte	0x2
 21298 0fb6 78       		.byte	0x78
 21299 0fb7 00       		.sleb128 0
 21300 0fb8 00000000 		.4byte	0
 21301 0fbc 00000000 		.4byte	0
 21302              	.LLST84:
 21303 0fc0 2C000000 		.4byte	.LVL589
 21304 0fc4 38000000 		.4byte	.LVL590
 21305 0fc8 0200     		.2byte	0x2
 21306 0fca 30       		.byte	0x30
 21307 0fcb 9F       		.byte	0x9f
 21308 0fcc 38000000 		.4byte	.LVL590
 21309 0fd0 42000000 		.4byte	.LVL591
 21310 0fd4 0100     		.2byte	0x1
 21311 0fd6 54       		.byte	0x54
 21312 0fd7 42000000 		.4byte	.LVL591
 21313 0fdb 52000000 		.4byte	.LVL592
 21314 0fdf 0300     		.2byte	0x3
 21315 0fe1 74       		.byte	0x74
 21316 0fe2 7F       		.sleb128 -1
 21317 0fe3 9F       		.byte	0x9f
 21318 0fe4 52000000 		.4byte	.LVL592
 21319 0fe8 58000000 		.4byte	.LVL593
 21320 0fec 0100     		.2byte	0x1
 21321 0fee 54       		.byte	0x54
 21322 0fef 00000000 		.4byte	0
 21323 0ff3 00000000 		.4byte	0
 21324              	.LLST85:
 21325 0ff7 58000000 		.4byte	.LVL593
 21326 0ffb 61000000 		.4byte	.LVL594-1
 21327 0fff 0100     		.2byte	0x1
 21328 1001 51       		.byte	0x51
 21329 1002 00000000 		.4byte	0
 21330 1006 00000000 		.4byte	0
 21331              	.LLST86:
 21332 100a 58000000 		.4byte	.LVL593
 21333 100e 70000000 		.4byte	.LVL595
 21334 1012 0100     		.2byte	0x1
 21335 1014 58       		.byte	0x58
 21336 1015 00000000 		.4byte	0
 21337 1019 00000000 		.4byte	0
 21338              	.LLST87:
 21339 101d 00000000 		.4byte	.LVL597
 21340 1021 08000000 		.4byte	.LVL598
 21341 1025 0100     		.2byte	0x1
 21342 1027 50       		.byte	0x50
 21343 1028 08000000 		.4byte	.LVL598
 21344 102c 14000000 		.4byte	.LVL600
 21345 1030 0100     		.2byte	0x1
 21346 1032 52       		.byte	0x52
 21347 1033 14000000 		.4byte	.LVL600
 21348 1037 17000000 		.4byte	.LVL601-1
 21349 103b 0100     		.2byte	0x1
 21350 103d 51       		.byte	0x51
 21351 103e 17000000 		.4byte	.LVL601-1
 21352 1042 34000000 		.4byte	.LFE266
 21353 1046 0400     		.2byte	0x4
ARM GAS  /tmp/cc0XcXNK.s 			page 376


 21354 1048 F3       		.byte	0xf3
 21355 1049 01       		.uleb128 0x1
 21356 104a 50       		.byte	0x50
 21357 104b 9F       		.byte	0x9f
 21358 104c 00000000 		.4byte	0
 21359 1050 00000000 		.4byte	0
 21360              	.LLST88:
 21361 1054 00000000 		.4byte	.LVL597
 21362 1058 0E000000 		.4byte	.LVL599
 21363 105c 0100     		.2byte	0x1
 21364 105e 51       		.byte	0x51
 21365 105f 0E000000 		.4byte	.LVL599
 21366 1063 26000000 		.4byte	.LVL603
 21367 1067 0100     		.2byte	0x1
 21368 1069 54       		.byte	0x54
 21369 106a 26000000 		.4byte	.LVL603
 21370 106e 27000000 		.4byte	.LVL604-1
 21371 1072 0300     		.2byte	0x3
 21372 1074 71       		.byte	0x71
 21373 1075 7F       		.sleb128 -1
 21374 1076 9F       		.byte	0x9f
 21375 1077 27000000 		.4byte	.LVL604-1
 21376 107b 28000000 		.4byte	.LVL604
 21377 107f 0400     		.2byte	0x4
 21378 1081 F3       		.byte	0xf3
 21379 1082 01       		.uleb128 0x1
 21380 1083 51       		.byte	0x51
 21381 1084 9F       		.byte	0x9f
 21382 1085 28000000 		.4byte	.LVL604
 21383 1089 2A000000 		.4byte	.LVL605
 21384 108d 0100     		.2byte	0x1
 21385 108f 54       		.byte	0x54
 21386 1090 2A000000 		.4byte	.LVL605
 21387 1094 34000000 		.4byte	.LFE266
 21388 1098 0300     		.2byte	0x3
 21389 109a 71       		.byte	0x71
 21390 109b 7F       		.sleb128 -1
 21391 109c 9F       		.byte	0x9f
 21392 109d 00000000 		.4byte	0
 21393 10a1 00000000 		.4byte	0
 21394              	.LLST89:
 21395 10a5 00000000 		.4byte	.LVL597
 21396 10a9 1E000000 		.4byte	.LVL602
 21397 10ad 0200     		.2byte	0x2
 21398 10af 31       		.byte	0x31
 21399 10b0 9F       		.byte	0x9f
 21400 10b1 1E000000 		.4byte	.LVL602
 21401 10b5 27000000 		.4byte	.LVL604-1
 21402 10b9 0100     		.2byte	0x1
 21403 10bb 51       		.byte	0x51
 21404 10bc 27000000 		.4byte	.LVL604-1
 21405 10c0 28000000 		.4byte	.LVL604
 21406 10c4 0600     		.2byte	0x6
 21407 10c6 F3       		.byte	0xf3
 21408 10c7 01       		.uleb128 0x1
 21409 10c8 51       		.byte	0x51
 21410 10c9 23       		.byte	0x23
ARM GAS  /tmp/cc0XcXNK.s 			page 377


 21411 10ca 01       		.uleb128 0x1
 21412 10cb 9F       		.byte	0x9f
 21413 10cc 28000000 		.4byte	.LVL604
 21414 10d0 34000000 		.4byte	.LFE266
 21415 10d4 0100     		.2byte	0x1
 21416 10d6 51       		.byte	0x51
 21417 10d7 00000000 		.4byte	0
 21418 10db 00000000 		.4byte	0
 21419              	.LLST90:
 21420 10df 1E000000 		.4byte	.LVL602
 21421 10e3 27000000 		.4byte	.LVL604-1
 21422 10e7 0100     		.2byte	0x1
 21423 10e9 51       		.byte	0x51
 21424 10ea 27000000 		.4byte	.LVL604-1
 21425 10ee 28000000 		.4byte	.LVL604
 21426 10f2 0600     		.2byte	0x6
 21427 10f4 F3       		.byte	0xf3
 21428 10f5 01       		.uleb128 0x1
 21429 10f6 51       		.byte	0x51
 21430 10f7 23       		.byte	0x23
 21431 10f8 01       		.uleb128 0x1
 21432 10f9 9F       		.byte	0x9f
 21433 10fa 28000000 		.4byte	.LVL604
 21434 10fe 34000000 		.4byte	.LFE266
 21435 1102 0100     		.2byte	0x1
 21436 1104 51       		.byte	0x51
 21437 1105 00000000 		.4byte	0
 21438 1109 00000000 		.4byte	0
 21439              		.section	.debug_aranges,"",%progbits
 21440 0000 74000000 		.4byte	0x74
 21441 0004 0200     		.2byte	0x2
 21442 0006 00000000 		.4byte	.Ldebug_info0
 21443 000a 04       		.byte	0x4
 21444 000b 00       		.byte	0
 21445 000c 0000     		.2byte	0
 21446 000e 0000     		.2byte	0
 21447 0010 00000000 		.4byte	.LFB267
 21448 0014 00010000 		.4byte	.LFE267-.LFB267
 21449 0018 00000000 		.4byte	.LFB256
 21450 001c 2C000000 		.4byte	.LFE256-.LFB256
 21451 0020 00000000 		.4byte	.LFB257
 21452 0024 0C000000 		.4byte	.LFE257-.LFB257
 21453 0028 00000000 		.4byte	.LFB258
 21454 002c 10000000 		.4byte	.LFE258-.LFB258
 21455 0030 00000000 		.4byte	.LFB259
 21456 0034 2C250000 		.4byte	.LFE259-.LFB259
 21457 0038 00000000 		.4byte	.LFB260
 21458 003c 44000000 		.4byte	.LFE260-.LFB260
 21459 0040 00000000 		.4byte	.LFB261
 21460 0044 4C000000 		.4byte	.LFE261-.LFB261
 21461 0048 00000000 		.4byte	.LFB262
 21462 004c 40000000 		.4byte	.LFE262-.LFB262
 21463 0050 00000000 		.4byte	.LFB263
 21464 0054 7C000000 		.4byte	.LFE263-.LFB263
 21465 0058 00000000 		.4byte	.LFB264
 21466 005c 0C000000 		.4byte	.LFE264-.LFB264
 21467 0060 00000000 		.4byte	.LFB265
ARM GAS  /tmp/cc0XcXNK.s 			page 378


 21468 0064 0C000000 		.4byte	.LFE265-.LFB265
 21469 0068 00000000 		.4byte	.LFB266
 21470 006c 34000000 		.4byte	.LFE266-.LFB266
 21471 0070 00000000 		.4byte	0
 21472 0074 00000000 		.4byte	0
 21473              		.section	.debug_ranges,"",%progbits
 21474              	.Ldebug_ranges0:
 21475 0000 04000000 		.4byte	.LBB80
 21476 0004 06000000 		.4byte	.LBE80
 21477 0008 08000000 		.4byte	.LBB84
 21478 000c 20000000 		.4byte	.LBE84
 21479 0010 2E000000 		.4byte	.LBB97
 21480 0014 30000000 		.4byte	.LBE97
 21481 0018 00000000 		.4byte	0
 21482 001c 00000000 		.4byte	0
 21483 0020 20000000 		.4byte	.LBB85
 21484 0024 22000000 		.4byte	.LBE85
 21485 0028 26000000 		.4byte	.LBB96
 21486 002c 2E000000 		.4byte	.LBE96
 21487 0030 34000000 		.4byte	.LBB98
 21488 0034 BA000000 		.4byte	.LBE98
 21489 0038 BC000000 		.4byte	.LBB99
 21490 003c 00010000 		.4byte	.LBE99
 21491 0040 00000000 		.4byte	0
 21492 0044 00000000 		.4byte	0
 21493 0048 92000000 		.4byte	.LBB86
 21494 004c 94000000 		.4byte	.LBE86
 21495 0050 98000000 		.4byte	.LBB92
 21496 0054 9A000000 		.4byte	.LBE92
 21497 0058 AA000000 		.4byte	.LBB93
 21498 005c AC000000 		.4byte	.LBE93
 21499 0060 AE000000 		.4byte	.LBB94
 21500 0064 B0000000 		.4byte	.LBE94
 21501 0068 B4000000 		.4byte	.LBB95
 21502 006c BA000000 		.4byte	.LBE95
 21503 0070 00000000 		.4byte	0
 21504 0074 00000000 		.4byte	0
 21505 0078 7C000000 		.4byte	.LBB100
 21506 007c 5E060000 		.4byte	.LBE100
 21507 0080 6A060000 		.4byte	.LBB214
 21508 0084 EE060000 		.4byte	.LBE214
 21509 0088 FA060000 		.4byte	.LBB215
 21510 008c 600F0000 		.4byte	.LBE215
 21511 0090 700F0000 		.4byte	.LBB220
 21512 0094 BE1F0000 		.4byte	.LBE220
 21513 0098 8C200000 		.4byte	.LBB223
 21514 009c E6230000 		.4byte	.LBE223
 21515 00a0 E8230000 		.4byte	.LBB224
 21516 00a4 1E240000 		.4byte	.LBE224
 21517 00a8 32240000 		.4byte	.LBB225
 21518 00ac 4C240000 		.4byte	.LBE225
 21519 00b0 56240000 		.4byte	.LBB226
 21520 00b4 2C250000 		.4byte	.LBE226
 21521 00b8 00000000 		.4byte	0
 21522 00bc 00000000 		.4byte	0
 21523 00c0 42060000 		.4byte	.LBB101
 21524 00c4 44060000 		.4byte	.LBE101
ARM GAS  /tmp/cc0XcXNK.s 			page 379


 21525 00c8 48060000 		.4byte	.LBB105
 21526 00cc 4A060000 		.4byte	.LBE105
 21527 00d0 58060000 		.4byte	.LBB106
 21528 00d4 5E060000 		.4byte	.LBE106
 21529 00d8 00000000 		.4byte	0
 21530 00dc 00000000 		.4byte	0
 21531 00e0 E0060000 		.4byte	.LBB107
 21532 00e4 E2060000 		.4byte	.LBE107
 21533 00e8 E4060000 		.4byte	.LBB110
 21534 00ec EE060000 		.4byte	.LBE110
 21535 00f0 00000000 		.4byte	0
 21536 00f4 00000000 		.4byte	0
 21537 00f8 DA070000 		.4byte	.LBB114
 21538 00fc DC070000 		.4byte	.LBE114
 21539 0100 EE070000 		.4byte	.LBB118
 21540 0104 F0070000 		.4byte	.LBE118
 21541 0108 00080000 		.4byte	.LBB119
 21542 010c 0E080000 		.4byte	.LBE119
 21543 0110 00000000 		.4byte	0
 21544 0114 00000000 		.4byte	0
 21545 0118 B2080000 		.4byte	.LBB121
 21546 011c B4080000 		.4byte	.LBE121
 21547 0120 BA080000 		.4byte	.LBB125
 21548 0124 BC080000 		.4byte	.LBE125
 21549 0128 C2080000 		.4byte	.LBB126
 21550 012c CE080000 		.4byte	.LBE126
 21551 0130 00000000 		.4byte	0
 21552 0134 00000000 		.4byte	0
 21553 0138 48090000 		.4byte	.LBB128
 21554 013c 4A090000 		.4byte	.LBE128
 21555 0140 4C090000 		.4byte	.LBB131
 21556 0144 88090000 		.4byte	.LBE131
 21557 0148 00000000 		.4byte	0
 21558 014c 00000000 		.4byte	0
 21559 0150 540F0000 		.4byte	.LBB133
 21560 0154 560F0000 		.4byte	.LBE133
 21561 0158 580F0000 		.4byte	.LBB136
 21562 015c 600F0000 		.4byte	.LBE136
 21563 0160 00000000 		.4byte	0
 21564 0164 00000000 		.4byte	0
 21565 0168 04150000 		.4byte	.LBB137
 21566 016c 06150000 		.4byte	.LBE137
 21567 0170 08150000 		.4byte	.LBB141
 21568 0174 0A150000 		.4byte	.LBE141
 21569 0178 12150000 		.4byte	.LBB142
 21570 017c 18150000 		.4byte	.LBE142
 21571 0180 00000000 		.4byte	0
 21572 0184 00000000 		.4byte	0
 21573 0188 701B0000 		.4byte	.LBB143
 21574 018c 721B0000 		.4byte	.LBE143
 21575 0190 741B0000 		.4byte	.LBB147
 21576 0194 761B0000 		.4byte	.LBE147
 21577 0198 7C1B0000 		.4byte	.LBB148
 21578 019c 8A1B0000 		.4byte	.LBE148
 21579 01a0 00000000 		.4byte	0
 21580 01a4 00000000 		.4byte	0
 21581 01a8 BC1E0000 		.4byte	.LBB149
ARM GAS  /tmp/cc0XcXNK.s 			page 380


 21582 01ac BE1E0000 		.4byte	.LBE149
 21583 01b0 C01E0000 		.4byte	.LBB153
 21584 01b4 C21E0000 		.4byte	.LBE153
 21585 01b8 C41E0000 		.4byte	.LBB154
 21586 01bc 081F0000 		.4byte	.LBE154
 21587 01c0 00000000 		.4byte	0
 21588 01c4 00000000 		.4byte	0
 21589 01c8 1C1F0000 		.4byte	.LBB155
 21590 01cc 1E1F0000 		.4byte	.LBE155
 21591 01d0 201F0000 		.4byte	.LBB159
 21592 01d4 221F0000 		.4byte	.LBE159
 21593 01d8 361F0000 		.4byte	.LBB160
 21594 01dc 441F0000 		.4byte	.LBE160
 21595 01e0 00000000 		.4byte	0
 21596 01e4 00000000 		.4byte	0
 21597 01e8 501F0000 		.4byte	.LBB161
 21598 01ec 521F0000 		.4byte	.LBE161
 21599 01f0 541F0000 		.4byte	.LBB165
 21600 01f4 561F0000 		.4byte	.LBE165
 21601 01f8 681F0000 		.4byte	.LBB166
 21602 01fc 701F0000 		.4byte	.LBE166
 21603 0200 00000000 		.4byte	0
 21604 0204 00000000 		.4byte	0
 21605 0208 781F0000 		.4byte	.LBB167
 21606 020c 7A1F0000 		.4byte	.LBE167
 21607 0210 7C1F0000 		.4byte	.LBB171
 21608 0214 7E1F0000 		.4byte	.LBE171
 21609 0218 8E1F0000 		.4byte	.LBB172
 21610 021c 981F0000 		.4byte	.LBE172
 21611 0220 00000000 		.4byte	0
 21612 0224 00000000 		.4byte	0
 21613 0228 96200000 		.4byte	.LBB173
 21614 022c 0C210000 		.4byte	.LBE173
 21615 0230 CE240000 		.4byte	.LBB213
 21616 0234 D2240000 		.4byte	.LBE213
 21617 0238 00000000 		.4byte	0
 21618 023c 00000000 		.4byte	0
 21619 0240 9C200000 		.4byte	.LBB174
 21620 0244 A4200000 		.4byte	.LBE174
 21621 0248 A8200000 		.4byte	.LBB187
 21622 024c 0C210000 		.4byte	.LBE187
 21623 0250 00000000 		.4byte	0
 21624 0254 00000000 		.4byte	0
 21625 0258 9C200000 		.4byte	.LBB175
 21626 025c A4200000 		.4byte	.LBE175
 21627 0260 A8200000 		.4byte	.LBB184
 21628 0264 AE200000 		.4byte	.LBE184
 21629 0268 B4200000 		.4byte	.LBB185
 21630 026c BE200000 		.4byte	.LBE185
 21631 0270 C2200000 		.4byte	.LBB186
 21632 0274 0C210000 		.4byte	.LBE186
 21633 0278 00000000 		.4byte	0
 21634 027c 00000000 		.4byte	0
 21635 0280 9C200000 		.4byte	.LBB176
 21636 0284 A0200000 		.4byte	.LBE176
 21637 0288 C4200000 		.4byte	.LBB183
 21638 028c D0200000 		.4byte	.LBE183
ARM GAS  /tmp/cc0XcXNK.s 			page 381


 21639 0290 00000000 		.4byte	0
 21640 0294 00000000 		.4byte	0
 21641 0298 9C200000 		.4byte	.LBB178
 21642 029c A0200000 		.4byte	.LBE178
 21643 02a0 C6200000 		.4byte	.LBB181
 21644 02a4 CA200000 		.4byte	.LBE181
 21645 02a8 00000000 		.4byte	0
 21646 02ac 00000000 		.4byte	0
 21647 02b0 96210000 		.4byte	.LBB188
 21648 02b4 70230000 		.4byte	.LBE188
 21649 02b8 32240000 		.4byte	.LBB205
 21650 02bc 4C240000 		.4byte	.LBE205
 21651 02c0 56240000 		.4byte	.LBB206
 21652 02c4 64240000 		.4byte	.LBE206
 21653 02c8 00000000 		.4byte	0
 21654 02cc 00000000 		.4byte	0
 21655 02d0 FC220000 		.4byte	.LBB190
 21656 02d4 20230000 		.4byte	.LBE190
 21657 02d8 28230000 		.4byte	.LBB203
 21658 02dc 2A230000 		.4byte	.LBE203
 21659 02e0 00000000 		.4byte	0
 21660 02e4 00000000 		.4byte	0
 21661 02e8 20230000 		.4byte	.LBB191
 21662 02ec 28230000 		.4byte	.LBE191
 21663 02f0 2A230000 		.4byte	.LBB204
 21664 02f4 6C230000 		.4byte	.LBE204
 21665 02f8 00000000 		.4byte	0
 21666 02fc 00000000 		.4byte	0
 21667 0300 20230000 		.4byte	.LBB192
 21668 0304 28230000 		.4byte	.LBE192
 21669 0308 2A230000 		.4byte	.LBB201
 21670 030c 38230000 		.4byte	.LBE201
 21671 0310 3C230000 		.4byte	.LBB202
 21672 0314 68230000 		.4byte	.LBE202
 21673 0318 00000000 		.4byte	0
 21674 031c 00000000 		.4byte	0
 21675 0320 20230000 		.4byte	.LBB193
 21676 0324 24230000 		.4byte	.LBE193
 21677 0328 3E230000 		.4byte	.LBB200
 21678 032c 4A230000 		.4byte	.LBE200
 21679 0330 00000000 		.4byte	0
 21680 0334 00000000 		.4byte	0
 21681 0338 20230000 		.4byte	.LBB195
 21682 033c 24230000 		.4byte	.LBE195
 21683 0340 40230000 		.4byte	.LBB198
 21684 0344 44230000 		.4byte	.LBE198
 21685 0348 00000000 		.4byte	0
 21686 034c 00000000 		.4byte	0
 21687 0350 B8240000 		.4byte	.LBB207
 21688 0354 BA240000 		.4byte	.LBE207
 21689 0358 BC240000 		.4byte	.LBB211
 21690 035c BE240000 		.4byte	.LBE211
 21691 0360 C4240000 		.4byte	.LBB212
 21692 0364 CE240000 		.4byte	.LBE212
 21693 0368 00000000 		.4byte	0
 21694 036c 00000000 		.4byte	0
 21695 0370 600F0000 		.4byte	.LBB216
ARM GAS  /tmp/cc0XcXNK.s 			page 382


 21696 0374 640F0000 		.4byte	.LBE216
 21697 0378 7C200000 		.4byte	.LBB221
 21698 037c 7E200000 		.4byte	.LBE221
 21699 0380 80200000 		.4byte	.LBB222
 21700 0384 8C200000 		.4byte	.LBE222
 21701 0388 00000000 		.4byte	0
 21702 038c 00000000 		.4byte	0
 21703 0390 20000000 		.4byte	.LBB227
 21704 0394 24000000 		.4byte	.LBE227
 21705 0398 2C000000 		.4byte	.LBB230
 21706 039c 32000000 		.4byte	.LBE230
 21707 03a0 00000000 		.4byte	0
 21708 03a4 00000000 		.4byte	0
 21709 03a8 10000000 		.4byte	.LBB231
 21710 03ac 12000000 		.4byte	.LBE231
 21711 03b0 1C000000 		.4byte	.LBB232
 21712 03b4 34000000 		.4byte	.LBE232
 21713 03b8 42000000 		.4byte	.LBB235
 21714 03bc 4C000000 		.4byte	.LBE235
 21715 03c0 00000000 		.4byte	0
 21716 03c4 00000000 		.4byte	0
 21717 03c8 28000000 		.4byte	.LBB236
 21718 03cc 2A000000 		.4byte	.LBE236
 21719 03d0 2C000000 		.4byte	.LBB239
 21720 03d4 34000000 		.4byte	.LBE239
 21721 03d8 00000000 		.4byte	0
 21722 03dc 00000000 		.4byte	0
 21723 03e0 24000000 		.4byte	.LBB240
 21724 03e4 26000000 		.4byte	.LBE240
 21725 03e8 2E000000 		.4byte	.LBB241
 21726 03ec 58000000 		.4byte	.LBE241
 21727 03f0 00000000 		.4byte	0
 21728 03f4 00000000 		.4byte	0
 21729 03f8 18000000 		.4byte	.LBB244
 21730 03fc 1C000000 		.4byte	.LBE244
 21731 0400 1E000000 		.4byte	.LBB248
 21732 0404 22000000 		.4byte	.LBE248
 21733 0408 26000000 		.4byte	.LBB249
 21734 040c 34000000 		.4byte	.LBE249
 21735 0410 00000000 		.4byte	0
 21736 0414 00000000 		.4byte	0
 21737 0418 00000000 		.4byte	.LFB267
 21738 041c 00010000 		.4byte	.LFE267
 21739 0420 00000000 		.4byte	.LFB256
 21740 0424 2C000000 		.4byte	.LFE256
 21741 0428 00000000 		.4byte	.LFB257
 21742 042c 0C000000 		.4byte	.LFE257
 21743 0430 00000000 		.4byte	.LFB258
 21744 0434 10000000 		.4byte	.LFE258
 21745 0438 00000000 		.4byte	.LFB259
 21746 043c 2C250000 		.4byte	.LFE259
 21747 0440 00000000 		.4byte	.LFB260
 21748 0444 44000000 		.4byte	.LFE260
 21749 0448 00000000 		.4byte	.LFB261
 21750 044c 4C000000 		.4byte	.LFE261
 21751 0450 00000000 		.4byte	.LFB262
 21752 0454 40000000 		.4byte	.LFE262
ARM GAS  /tmp/cc0XcXNK.s 			page 383


 21753 0458 00000000 		.4byte	.LFB263
 21754 045c 7C000000 		.4byte	.LFE263
 21755 0460 00000000 		.4byte	.LFB264
 21756 0464 0C000000 		.4byte	.LFE264
 21757 0468 00000000 		.4byte	.LFB265
 21758 046c 0C000000 		.4byte	.LFE265
 21759 0470 00000000 		.4byte	.LFB266
 21760 0474 34000000 		.4byte	.LFE266
 21761 0478 00000000 		.4byte	0
 21762 047c 00000000 		.4byte	0
 21763              		.section	.debug_line,"",%progbits
 21764              	.Ldebug_line0:
 21765 0000 C20C0000 		.section	.debug_str,"MS",%progbits,1
 21765      02005C03 
 21765      00000201 
 21765      FB0E0D00 
 21765      01010101 
 21766              	.LASF293:
 21767 0000 4348554B 		.ascii	"CHUK_CTRL_TYPE_CURRENT\000"
 21767      5F435452 
 21767      4C5F5459 
 21767      50455F43 
 21767      55525245 
 21768              	.LASF93:
 21769 0017 706F7274 		.ascii	"port_intctx\000"
 21769      5F696E74 
 21769      63747800 
 21770              	.LASF256:
 21771 0023 6374726C 		.ascii	"ctrl_type\000"
 21771      5F747970 
 21771      6500
 21772              	.LASF163:
 21773 002d 6C5F6D61 		.ascii	"l_max_erpm_fbrake\000"
 21773      785F6572 
 21773      706D5F66 
 21773      6272616B 
 21773      6500
 21774              	.LASF160:
 21775 003f 6C5F6162 		.ascii	"l_abs_current_max\000"
 21775      735F6375 
 21775      7272656E 
 21775      745F6D61 
 21775      7800
 21776              	.LASF244:
 21777 0051 50504D5F 		.ascii	"PPM_CTRL_TYPE_NONE\000"
 21777      4354524C 
 21777      5F545950 
 21777      455F4E4F 
 21777      4E4500
 21778              	.LASF269:
 21779 0064 6D61785F 		.ascii	"max_watt_enabled\000"
 21779      77617474 
 21779      5F656E61 
 21779      626C6564 
 21779      00
 21780              	.LASF476:
 21781 0075 636F6D6D 		.ascii	"commands_printf\000"
ARM GAS  /tmp/cc0XcXNK.s 			page 384


 21781      616E6473 
 21781      5F707269 
 21781      6E746600 
 21782              	.LASF31:
 21783 0085 6D73675F 		.ascii	"msg_t\000"
 21783      7400
 21784              	.LASF370:
 21785 008b 434F4D4D 		.ascii	"COMM_FW_VERSION\000"
 21785      5F46575F 
 21785      56455253 
 21785      494F4E00 
 21786              	.LASF428:
 21787 009b 464C4153 		.ascii	"FLASH_ERROR_PGA\000"
 21787      485F4552 
 21787      524F525F 
 21787      50474100 
 21788              	.LASF515:
 21789 00ab 636F6E66 		.ascii	"conf_general_measure_flux_linkage\000"
 21789      5F67656E 
 21789      6572616C 
 21789      5F6D6561 
 21789      73757265 
 21790              	.LASF397:
 21791 00cd 434F4D4D 		.ascii	"COMM_DETECT_HALL_FOC\000"
 21791      5F444554 
 21791      4543545F 
 21791      48414C4C 
 21791      5F464F43 
 21792              	.LASF427:
 21793 00e2 464C4153 		.ascii	"FLASH_ERROR_PGP\000"
 21793      485F4552 
 21793      524F525F 
 21793      50475000 
 21794              	.LASF426:
 21795 00f2 464C4153 		.ascii	"FLASH_ERROR_PGS\000"
 21795      485F4552 
 21795      524F525F 
 21795      50475300 
 21796              	.LASF317:
 21797 0102 4E52465F 		.ascii	"NRF_RETR_DELAY_750US\000"
 21797      52455452 
 21797      5F44454C 
 21797      41595F37 
 21797      35305553 
 21798              	.LASF83:
 21799 0117 63685F73 		.ascii	"ch_system_t\000"
 21799      79737465 
 21799      6D5F7400 
 21800              	.LASF3:
 21801 0123 5F5F7569 		.ascii	"__uint8_t\000"
 21801      6E74385F 
 21801      7400
 21802              	.LASF100:
 21803 012d 77747365 		.ascii	"wtsemp\000"
 21803      6D7000
 21804              	.LASF258:
 21805 0134 68797374 		.ascii	"hyst\000"
ARM GAS  /tmp/cc0XcXNK.s 			page 385


 21805      00
 21806              	.LASF232:
 21807 0139 5F426F6F 		.ascii	"_Bool\000"
 21807      6C00
 21808              	.LASF287:
 21809 013f 63635F62 		.ascii	"cc_button_inverted\000"
 21809      7574746F 
 21809      6E5F696E 
 21809      76657274 
 21809      656400
 21810              	.LASF444:
 21811 0152 636F6D6D 		.ascii	"commands_init\000"
 21811      616E6473 
 21811      5F696E69 
 21811      7400
 21812              	.LASF79:
 21813 0160 76745F73 		.ascii	"vt_systime\000"
 21813      79737469 
 21813      6D6500
 21814              	.LASF289:
 21815 016b 766F6C74 		.ascii	"voltage_inverted\000"
 21815      6167655F 
 21815      696E7665 
 21815      72746564 
 21815      00
 21816              	.LASF498:
 21817 017c 73656E64 		.ascii	"send_func\000"
 21817      5F66756E 
 21817      6300
 21818              	.LASF109:
 21819 0186 6D5F6E65 		.ascii	"m_next\000"
 21819      787400
 21820              	.LASF466:
 21821 018d 6D61785F 		.ascii	"max_erpm\000"
 21821      6572706D 
 21821      00
 21822              	.LASF169:
 21823 0196 6C5F736C 		.ascii	"l_slow_abs_current\000"
 21823      6F775F61 
 21823      62735F63 
 21823      75727265 
 21823      6E7400
 21824              	.LASF296:
 21825 01a9 4348554B 		.ascii	"CHUK_CTRL_TYPE_WATT_NOREV\000"
 21825      5F435452 
 21825      4C5F5459 
 21825      50455F57 
 21825      4154545F 
 21826              	.LASF159:
 21827 01c3 6C5F696E 		.ascii	"l_in_current_min\000"
 21827      5F637572 
 21827      72656E74 
 21827      5F6D696E 
 21827      00
 21828              	.LASF20:
 21829 01d4 75696E74 		.ascii	"uint16_t\000"
 21829      31365F74 
ARM GAS  /tmp/cc0XcXNK.s 			page 386


 21829      00
 21830              	.LASF306:
 21831 01dd 4E52465F 		.ascii	"NRF_POWER_M18DBM\000"
 21831      504F5745 
 21831      525F4D31 
 21831      3844424D 
 21831      00
 21832              	.LASF143:
 21833 01ee 44495350 		.ascii	"DISP_POS_MODE_ENCODER\000"
 21833      5F504F53 
 21833      5F4D4F44 
 21833      455F454E 
 21833      434F4445 
 21834              	.LASF431:
 21835 0204 464C4153 		.ascii	"FLASH_ERROR_OPERATION\000"
 21835      485F4552 
 21835      524F525F 
 21835      4F504552 
 21835      4154494F 
 21836              	.LASF222:
 21837 021a 63635F73 		.ascii	"cc_startup_boost_duty\000"
 21837      74617274 
 21837      75705F62 
 21837      6F6F7374 
 21837      5F647574 
 21838              	.LASF141:
 21839 0230 44495350 		.ascii	"DISP_POS_MODE_INDUCTANCE\000"
 21839      5F504F53 
 21839      5F4D4F44 
 21839      455F494E 
 21839      44554354 
 21840              	.LASF60:
 21841 0249 63685F74 		.ascii	"ch_threads_queue\000"
 21841      68726561 
 21841      64735F71 
 21841      75657565 
 21841      00
 21842              	.LASF496:
 21843 025a 64657465 		.ascii	"detect_hall_table\000"
 21843      63745F68 
 21843      616C6C5F 
 21843      7461626C 
 21843      6500
 21844              	.LASF161:
 21845 026c 6C5F6D69 		.ascii	"l_min_erpm\000"
 21845      6E5F6572 
 21845      706D00
 21846              	.LASF459:
 21847 0277 6E65775F 		.ascii	"new_remote_Mode\000"
 21847      72656D6F 
 21847      74655F4D 
 21847      6F646500 
 21848              	.LASF40:
 21849 0287 705F6E65 		.ascii	"p_newer\000"
 21849      77657200 
 21850              	.LASF194:
 21851 028f 666F635F 		.ascii	"foc_encoder_offset\000"
ARM GAS  /tmp/cc0XcXNK.s 			page 387


 21851      656E636F 
 21851      6465725F 
 21851      6F666673 
 21851      657400
 21852              	.LASF565:
 21853 02a2 666C6173 		.ascii	"flash_helper_write_new_app_data\000"
 21853      685F6865 
 21853      6C706572 
 21853      5F777269 
 21853      74655F6E 
 21854              	.LASF411:
 21855 02c2 6A735F78 		.ascii	"js_x\000"
 21855      00
 21856              	.LASF412:
 21857 02c7 6A735F79 		.ascii	"js_y\000"
 21857      00
 21858              	.LASF265:
 21859 02cc 6D756C74 		.ascii	"multi_esc\000"
 21859      695F6573 
 21859      6300
 21860              	.LASF336:
 21861 02d6 72657472 		.ascii	"retries\000"
 21861      69657300 
 21862              	.LASF278:
 21863 02de 4144435F 		.ascii	"ADC_CTRL_TYPE_CURRENT_NOREV_BRAKE_BUTTON\000"
 21863      4354524C 
 21863      5F545950 
 21863      455F4355 
 21863      5252454E 
 21864              	.LASF316:
 21865 0307 4E52465F 		.ascii	"NRF_RETR_DELAY_500US\000"
 21865      52455452 
 21865      5F44454C 
 21865      41595F35 
 21865      30305553 
 21866              	.LASF309:
 21867 031c 4E52465F 		.ascii	"NRF_POWER_0DBM\000"
 21867      504F5745 
 21867      525F3044 
 21867      424D00
 21868              	.LASF458:
 21869 032b 73656E64 		.ascii	"sendActualSpeedMode\000"
 21869      41637475 
 21869      616C5370 
 21869      6565644D 
 21869      6F646500 
 21870              	.LASF463:
 21871 033f 6375725F 		.ascii	"cur_bat_max\000"
 21871      6261745F 
 21871      6D617800 
 21872              	.LASF457:
 21873 034b 63687563 		.ascii	"chuck_d_tmp\000"
 21873      6B5F645F 
 21873      746D7000 
 21874              	.LASF499:
 21875 0357 61707064 		.ascii	"appdata_func\000"
 21875      6174615F 
ARM GAS  /tmp/cc0XcXNK.s 			page 388


 21875      66756E63 
 21875      00
 21876              	.LASF172:
 21877 0364 6C5F7465 		.ascii	"l_temp_fet_end\000"
 21877      6D705F66 
 21877      65745F65 
 21877      6E6400
 21878              	.LASF228:
 21879 0373 6D5F6475 		.ascii	"m_duty_ramp_step_rpm_lim\000"
 21879      74795F72 
 21879      616D705F 
 21879      73746570 
 21879      5F72706D 
 21880              	.LASF35:
 21881 038c 74687265 		.ascii	"thread_t\000"
 21881      61645F74 
 21881      00
 21882              	.LASF78:
 21883 0395 63685F76 		.ascii	"ch_virtual_timers_list\000"
 21883      69727475 
 21883      616C5F74 
 21883      696D6572 
 21883      735F6C69 
 21884              	.LASF21:
 21885 03ac 696E7433 		.ascii	"int32_t\000"
 21885      325F7400 
 21886              	.LASF34:
 21887 03b4 73797374 		.ascii	"systime_t\000"
 21887      696D655F 
 21887      7400
 21888              	.LASF382:
 21889 03be 434F4D4D 		.ascii	"COMM_SET_MCCONF\000"
 21889      5F534554 
 21889      5F4D4343 
 21889      4F4E4600 
 21890              	.LASF137:
 21891 03ce 4641554C 		.ascii	"FAULT_CODE_OVER_TEMP_FET\000"
 21891      545F434F 
 21891      44455F4F 
 21891      5645525F 
 21891      54454D50 
 21892              	.LASF331:
 21893 03e7 4E52465F 		.ascii	"NRF_RETR_DELAY\000"
 21893      52455452 
 21893      5F44454C 
 21893      415900
 21894              	.LASF115:
 21895 03f6 50574D5F 		.ascii	"PWM_MODE_BIPOLAR\000"
 21895      4D4F4445 
 21895      5F424950 
 21895      4F4C4152 
 21895      00
 21896              	.LASF116:
 21897 0407 6D635F70 		.ascii	"mc_pwm_mode\000"
 21897      776D5F6D 
 21897      6F646500 
 21898              	.LASF494:
ARM GAS  /tmp/cc0XcXNK.s 			page 389


 21899 0413 64657465 		.ascii	"detect_min_rpm\000"
 21899      63745F6D 
 21899      696E5F72 
 21899      706D00
 21900              	.LASF365:
 21901 0422 6170705F 		.ascii	"app_uart_baudrate\000"
 21901      75617274 
 21901      5F626175 
 21901      64726174 
 21901      6500
 21902              	.LASF541:
 21903 0434 636F6E66 		.ascii	"conf_general_store_mc_configuration\000"
 21903      5F67656E 
 21903      6572616C 
 21903      5F73746F 
 21903      72655F6D 
 21904              	.LASF263:
 21905 0458 72706D5F 		.ascii	"rpm_lim_start\000"
 21905      6C696D5F 
 21905      73746172 
 21905      7400
 21906              	.LASF531:
 21907 0466 6170705F 		.ascii	"app_adc_get_decoded_level\000"
 21907      6164635F 
 21907      6765745F 
 21907      6465636F 
 21907      6465645F 
 21908              	.LASF488:
 21909 0480 64657465 		.ascii	"detect_thread_wa\000"
 21909      63745F74 
 21909      68726561 
 21909      645F7761 
 21909      00
 21910              	.LASF413:
 21911 0491 6163635F 		.ascii	"acc_x\000"
 21911      7800
 21912              	.LASF414:
 21913 0497 6163635F 		.ascii	"acc_y\000"
 21913      7900
 21914              	.LASF415:
 21915 049d 6163635F 		.ascii	"acc_z\000"
 21915      7A00
 21916              	.LASF86:
 21917 04a3 76746C69 		.ascii	"vtlist\000"
 21917      737400
 21918              	.LASF243:
 21919 04aa 6170705F 		.ascii	"app_use\000"
 21919      75736500 
 21920              	.LASF48:
 21921 04b2 705F7761 		.ascii	"p_waiting\000"
 21921      6974696E 
 21921      6700
 21922              	.LASF481:
 21923 04bc 696E6465 		.ascii	"index\000"
 21923      7800
 21924              	.LASF270:
 21925 04c2 6D61785F 		.ascii	"max_watt\000"
ARM GAS  /tmp/cc0XcXNK.s 			page 390


 21925      77617474 
 21925      00
 21926              	.LASF471:
 21927 04cb 72657369 		.ascii	"resistance\000"
 21927      7374616E 
 21927      636500
 21928              	.LASF398:
 21929 04d6 434F4D4D 		.ascii	"COMM_REBOOT\000"
 21929      5F524542 
 21929      4F4F5400 
 21930              	.LASF85:
 21931 04e2 726C6973 		.ascii	"rlist\000"
 21931      7400
 21932              	.LASF56:
 21933 04e8 74687265 		.ascii	"threads_list_t\000"
 21933      6164735F 
 21933      6C697374 
 21933      5F7400
 21934              	.LASF182:
 21935 04f7 736C5F6D 		.ascii	"sl_min_erpm_cycle_int_limit\000"
 21935      696E5F65 
 21935      72706D5F 
 21935      6379636C 
 21935      655F696E 
 21936              	.LASF191:
 21937 0513 666F635F 		.ascii	"foc_current_ki\000"
 21937      63757272 
 21937      656E745F 
 21937      6B6900
 21938              	.LASF367:
 21939 0522 6170705F 		.ascii	"app_nrf_conf\000"
 21939      6E72665F 
 21939      636F6E66 
 21939      00
 21940              	.LASF266:
 21941 052f 74635F6D 		.ascii	"tc_max_diff\000"
 21941      61785F64 
 21941      69666600 
 21942              	.LASF190:
 21943 053b 666F635F 		.ascii	"foc_current_kp\000"
 21943      63757272 
 21943      656E745F 
 21943      6B7000
 21944              	.LASF478:
 21945 054a 7072696E 		.ascii	"print_buffer\000"
 21945      745F6275 
 21945      66666572 
 21945      00
 21946              	.LASF307:
 21947 0557 4E52465F 		.ascii	"NRF_POWER_M12DBM\000"
 21947      504F5745 
 21947      525F4D31 
 21947      3244424D 
 21947      00
 21948              	.LASF509:
 21949 0568 6D656D63 		.ascii	"memcpy\000"
 21949      707900
ARM GAS  /tmp/cc0XcXNK.s 			page 391


 21950              	.LASF349:
 21951 056f 79315F6E 		.ascii	"y1_neg_throttle\000"
 21951      65675F74 
 21951      68726F74 
 21951      746C6500 
 21952              	.LASF528:
 21953 057f 73657276 		.ascii	"servodec_get_last_pulse_len\000"
 21953      6F646563 
 21953      5F676574 
 21953      5F6C6173 
 21953      745F7075 
 21954              	.LASF520:
 21955 059b 636F6E66 		.ascii	"conf_general_read_mc_configuration\000"
 21955      5F67656E 
 21955      6572616C 
 21955      5F726561 
 21955      645F6D63 
 21956              	.LASF536:
 21957 05be 636F6E66 		.ascii	"conf_general_get_default_app_configuration\000"
 21957      5F67656E 
 21957      6572616C 
 21957      5F676574 
 21957      5F646566 
 21958              	.LASF30:
 21959 05e9 74707269 		.ascii	"tprio_t\000"
 21959      6F5F7400 
 21960              	.LASF364:
 21961 05f1 6170705F 		.ascii	"app_adc_conf\000"
 21961      6164635F 
 21961      636F6E66 
 21961      00
 21962              	.LASF423:
 21963 05fe 63616E5F 		.ascii	"can_status_msg\000"
 21963      73746174 
 21963      75735F6D 
 21963      736700
 21964              	.LASF314:
 21965 060d 4E52465F 		.ascii	"NRF_CRC\000"
 21965      43524300 
 21966              	.LASF472:
 21967 0615 6C696E6B 		.ascii	"linkage\000"
 21967      61676500 
 21968              	.LASF409:
 21969 061d 434F4D4D 		.ascii	"COMM_SET_CURRENT_CONF_AS_DEFAULT\000"
 21969      5F534554 
 21969      5F435552 
 21969      52454E54 
 21969      5F434F4E 
 21970              	.LASF125:
 21971 063e 464F435F 		.ascii	"FOC_SENSOR_MODE_ENCODER\000"
 21971      53454E53 
 21971      4F525F4D 
 21971      4F44455F 
 21971      454E434F 
 21972              	.LASF272:
 21973 0656 70706D5F 		.ascii	"ppm_config\000"
 21973      636F6E66 
ARM GAS  /tmp/cc0XcXNK.s 			page 392


 21973      696700
 21974              	.LASF579:
 21975 0661 5F5F6469 		.ascii	"__disable_irq\000"
 21975      7361626C 
 21975      655F6972 
 21975      7100
 21976              	.LASF251:
 21977 066f 50504D5F 		.ascii	"PPM_CTRL_TYPE_PID_NOREV\000"
 21977      4354524C 
 21977      5F545950 
 21977      455F5049 
 21977      445F4E4F 
 21978              	.LASF284:
 21979 0687 766F6C74 		.ascii	"voltage_start\000"
 21979      6167655F 
 21979      73746172 
 21979      7400
 21980              	.LASF111:
 21981 0695 7466756E 		.ascii	"tfunc_t\000"
 21981      635F7400 
 21982              	.LASF574:
 21983 069d 76736E70 		.ascii	"vsnprintf\000"
 21983      72696E74 
 21983      6600
 21984              	.LASF5:
 21985 06a7 5F5F696E 		.ascii	"__int16_t\000"
 21985      7431365F 
 21985      7400
 21986              	.LASF7:
 21987 06b1 5F5F7569 		.ascii	"__uint16_t\000"
 21987      6E743136 
 21987      5F7400
 21988              	.LASF388:
 21989 06bc 434F4D4D 		.ascii	"COMM_SAMPLE_PRINT\000"
 21989      5F53414D 
 21989      504C455F 
 21989      5052494E 
 21989      5400
 21990              	.LASF291:
 21991 06ce 6164635F 		.ascii	"adc_config\000"
 21991      636F6E66 
 21991      696700
 21992              	.LASF50:
 21993 06d9 705F6D73 		.ascii	"p_msg\000"
 21993      6700
 21994              	.LASF226:
 21995 06df 6D5F6661 		.ascii	"m_fault_stop_time_ms\000"
 21995      756C745F 
 21995      73746F70 
 21995      5F74696D 
 21995      655F6D73 
 21996              	.LASF533:
 21997 06f4 6170705F 		.ascii	"app_adc_get_decoded_level2\000"
 21997      6164635F 
 21997      6765745F 
 21997      6465636F 
 21997      6465645F 
ARM GAS  /tmp/cc0XcXNK.s 			page 393


 21998              	.LASF548:
 21999 070f 6D635F69 		.ascii	"mc_interface_set_pid_speed\000"
 21999      6E746572 
 21999      66616365 
 21999      5F736574 
 21999      5F706964 
 22000              	.LASF215:
 22001 072a 735F7069 		.ascii	"s_pid_kd\000"
 22001      645F6B64 
 22001      00
 22002              	.LASF465:
 22003 0733 6375725F 		.ascii	"cur_bat_min\000"
 22003      6261745F 
 22003      6D696E00 
 22004              	.LASF435:
 22005 073f 5F5F676E 		.ascii	"__gnuc_va_list\000"
 22005      75635F76 
 22005      615F6C69 
 22005      737400
 22006              	.LASF197:
 22007 074e 666F635F 		.ascii	"foc_motor_l\000"
 22007      6D6F746F 
 22007      725F6C00 
 22008              	.LASF198:
 22009 075a 666F635F 		.ascii	"foc_motor_r\000"
 22009      6D6F746F 
 22009      725F7200 
 22010              	.LASF91:
 22011 0766 73746B61 		.ascii	"stkalign_t\000"
 22011      6C69676E 
 22011      5F7400
 22012              	.LASF73:
 22013 0771 76745F70 		.ascii	"vt_prev\000"
 22013      72657600 
 22014              	.LASF508:
 22015 0779 63685468 		.ascii	"chThdCreateStatic\000"
 22015      64437265 
 22015      61746553 
 22015      74617469 
 22015      6300
 22016              	.LASF4:
 22017 078b 756E7369 		.ascii	"unsigned char\000"
 22017      676E6564 
 22017      20636861 
 22017      7200
 22018              	.LASF216:
 22019 0799 735F7069 		.ascii	"s_pid_min_erpm\000"
 22019      645F6D69 
 22019      6E5F6572 
 22019      706D00
 22020              	.LASF105:
 22021 07a8 735F636E 		.ascii	"s_cnt\000"
 22021      7400
 22022              	.LASF61:
 22023 07ae 72656164 		.ascii	"ready_list_t\000"
 22023      795F6C69 
 22023      73745F74 
ARM GAS  /tmp/cc0XcXNK.s 			page 394


 22023      00
 22024              	.LASF57:
 22025 07bb 63685F74 		.ascii	"ch_thread\000"
 22025      68726561 
 22025      6400
 22026              	.LASF0:
 22027 07c5 666C6F61 		.ascii	"float\000"
 22027      7400
 22028              	.LASF340:
 22029 07cb 6E72665F 		.ascii	"nrf_config\000"
 22029      636F6E66 
 22029      696700
 22030              	.LASF308:
 22031 07d6 4E52465F 		.ascii	"NRF_POWER_M6DBM\000"
 22031      504F5745 
 22031      525F4D36 
 22031      44424D00 
 22032              	.LASF489:
 22033 07e6 64657465 		.ascii	"detect_tp\000"
 22033      63745F74 
 22033      7000
 22034              	.LASF192:
 22035 07f0 666F635F 		.ascii	"foc_f_sw\000"
 22035      665F7377 
 22035      00
 22036              	.LASF261:
 22037 07f9 6D656469 		.ascii	"median_filter\000"
 22037      616E5F66 
 22037      696C7465 
 22037      7200
 22038              	.LASF80:
 22039 0807 73797374 		.ascii	"system_debug_t\000"
 22039      656D5F64 
 22039      65627567 
 22039      5F7400
 22040              	.LASF171:
 22041 0816 6C5F7465 		.ascii	"l_temp_fet_start\000"
 22041      6D705F66 
 22041      65745F73 
 22041      74617274 
 22041      00
 22042              	.LASF231:
 22043 0827 6D5F7365 		.ascii	"m_sensor_port_mode\000"
 22043      6E736F72 
 22043      5F706F72 
 22043      745F6D6F 
 22043      646500
 22044              	.LASF493:
 22045 083a 64657465 		.ascii	"detect_current\000"
 22045      63745F63 
 22045      75727265 
 22045      6E7400
 22046              	.LASF39:
 22047 0849 705F6374 		.ascii	"p_ctx\000"
 22047      7800
 22048              	.LASF76:
 22049 084f 76745F70 		.ascii	"vt_par\000"
ARM GAS  /tmp/cc0XcXNK.s 			page 395


 22049      617200
 22050              	.LASF290:
 22051 0856 75706461 		.ascii	"update_rate_hz\000"
 22051      74655F72 
 22051      6174655F 
 22051      687A00
 22052              	.LASF68:
 22053 0865 725F6375 		.ascii	"r_current\000"
 22053      7272656E 
 22053      7400
 22054              	.LASF399:
 22055 086f 434F4D4D 		.ascii	"COMM_ALIVE\000"
 22055      5F414C49 
 22055      564500
 22056              	.LASF153:
 22057 087a 636F6D6D 		.ascii	"comm_mode\000"
 22057      5F6D6F64 
 22057      6500
 22058              	.LASF170:
 22059 0884 6C5F7270 		.ascii	"l_rpm_lim_neg_torque\000"
 22059      6D5F6C69 
 22059      6D5F6E65 
 22059      675F746F 
 22059      72717565 
 22060              	.LASF136:
 22061 0899 4641554C 		.ascii	"FAULT_CODE_ABS_OVER_CURRENT\000"
 22061      545F434F 
 22061      44455F41 
 22061      42535F4F 
 22061      5645525F 
 22062              	.LASF200:
 22063 08b5 666F635F 		.ascii	"foc_observer_gain\000"
 22063      6F627365 
 22063      72766572 
 22063      5F676169 
 22063      6E00
 22064              	.LASF300:
 22065 08c7 73746963 		.ascii	"stick_erpm_per_s_in_cc\000"
 22065      6B5F6572 
 22065      706D5F70 
 22065      65725F73 
 22065      5F696E5F 
 22066              	.LASF582:
 22067 08de 636F6D6D 		.ascii	"commands_get_disp_pos_mode\000"
 22067      616E6473 
 22067      5F676574 
 22067      5F646973 
 22067      705F706F 
 22068              	.LASF23:
 22069 08f9 75696E74 		.ascii	"uint64_t\000"
 22069      36345F74 
 22069      00
 22070              	.LASF512:
 22071 0902 6D637077 		.ascii	"mcpwm_foc_hall_detect\000"
 22071      6D5F666F 
 22071      635F6861 
 22071      6C6C5F64 
ARM GAS  /tmp/cc0XcXNK.s 			page 396


 22071      65746563 
 22072              	.LASF330:
 22073 0918 4E52465F 		.ascii	"NRF_RETR_DELAY_4000US\000"
 22073      52455452 
 22073      5F44454C 
 22073      41595F34 
 22073      30303055 
 22074              	.LASF425:
 22075 092e 464C4153 		.ascii	"FLASH_ERROR_RD\000"
 22075      485F4552 
 22075      524F525F 
 22075      524400
 22076              	.LASF484:
 22077 093d 636F6D6D 		.ascii	"commands_send_experiment_samples\000"
 22077      616E6473 
 22077      5F73656E 
 22077      645F6578 
 22077      70657269 
 22078              	.LASF142:
 22079 095e 44495350 		.ascii	"DISP_POS_MODE_OBSERVER\000"
 22079      5F504F53 
 22079      5F4D4F44 
 22079      455F4F42 
 22079      53455256 
 22080              	.LASF554:
 22081 0975 6D635F69 		.ascii	"mc_interface_read_reset_avg_motor_current\000"
 22081      6E746572 
 22081      66616365 
 22081      5F726561 
 22081      645F7265 
 22082              	.LASF106:
 22083 099f 63685F6D 		.ascii	"ch_mutex\000"
 22083      75746578 
 22083      00
 22084              	.LASF140:
 22085 09a8 44495350 		.ascii	"DISP_POS_MODE_NONE\000"
 22085      5F504F53 
 22085      5F4D4F44 
 22085      455F4E4F 
 22085      4E4500
 22086              	.LASF460:
 22087 09bb 6E65775F 		.ascii	"new_speed_mode_int\000"
 22087      73706565 
 22087      645F6D6F 
 22087      64655F69 
 22087      6E7400
 22088              	.LASF430:
 22089 09ce 464C4153 		.ascii	"FLASH_ERROR_PROGRAM\000"
 22089      485F4552 
 22089      524F525F 
 22089      50524F47 
 22089      52414D00 
 22090              	.LASF570:
 22091 09e2 6170705F 		.ascii	"app_nunchuk_update_output\000"
 22091      6E756E63 
 22091      68756B5F 
 22091      75706461 
ARM GAS  /tmp/cc0XcXNK.s 			page 397


 22091      74655F6F 
 22092              	.LASF121:
 22093 09fc 53454E53 		.ascii	"SENSOR_MODE_SENSORED\000"
 22093      4F525F4D 
 22093      4F44455F 
 22093      53454E53 
 22093      4F524544 
 22094              	.LASF501:
 22095 0a11 72656D6F 		.ascii	"remote_Mode\000"
 22095      74655F4D 
 22095      6F646500 
 22096              	.LASF276:
 22097 0a1d 4144435F 		.ascii	"ADC_CTRL_TYPE_CURRENT_REV_BUTTON\000"
 22097      4354524C 
 22097      5F545950 
 22097      455F4355 
 22097      5252454E 
 22098              	.LASF438:
 22099 0a3e 76615F6C 		.ascii	"va_list\000"
 22099      69737400 
 22100              	.LASF416:
 22101 0a46 62745F63 		.ascii	"bt_c\000"
 22101      00
 22102              	.LASF305:
 22103 0a4b 4E52465F 		.ascii	"NRF_SPEED\000"
 22103      53504545 
 22103      4400
 22104              	.LASF299:
 22105 0a55 72616D70 		.ascii	"ramp_time_neg\000"
 22105      5F74696D 
 22105      655F6E65 
 22105      6700
 22106              	.LASF417:
 22107 0a63 62745F7A 		.ascii	"bt_z\000"
 22107      00
 22108              	.LASF70:
 22109 0a68 76697274 		.ascii	"virtual_timer_t\000"
 22109      75616C5F 
 22109      74696D65 
 22109      725F7400 
 22110              	.LASF65:
 22111 0a78 725F6374 		.ascii	"r_ctx\000"
 22111      7800
 22112              	.LASF72:
 22113 0a7e 76745F6E 		.ascii	"vt_next\000"
 22113      65787400 
 22114              	.LASF373:
 22115 0a86 434F4D4D 		.ascii	"COMM_WRITE_NEW_APP_DATA\000"
 22115      5F575249 
 22115      54455F4E 
 22115      45575F41 
 22115      50505F44 
 22116              	.LASF372:
 22117 0a9e 434F4D4D 		.ascii	"COMM_ERASE_NEW_APP\000"
 22117      5F455241 
 22117      53455F4E 
 22117      45575F41 
ARM GAS  /tmp/cc0XcXNK.s 			page 398


 22117      505000
 22118              	.LASF25:
 22119 0ab1 7274636E 		.ascii	"rtcnt_t\000"
 22119      745F7400 
 22120              	.LASF122:
 22121 0ab9 53454E53 		.ascii	"SENSOR_MODE_HYBRID\000"
 22121      4F525F4D 
 22121      4F44455F 
 22121      48594252 
 22121      494400
 22122              	.LASF424:
 22123 0acc 464C4153 		.ascii	"FLASH_BUSY\000"
 22123      485F4255 
 22123      535900
 22124              	.LASF177:
 22125 0ad7 6C6F5F63 		.ascii	"lo_current_max\000"
 22125      75727265 
 22125      6E745F6D 
 22125      617800
 22126              	.LASF195:
 22127 0ae6 666F635F 		.ascii	"foc_encoder_inverted\000"
 22127      656E636F 
 22127      6465725F 
 22127      696E7665 
 22127      72746564 
 22128              	.LASF223:
 22129 0afb 63635F6D 		.ascii	"cc_min_current\000"
 22129      696E5F63 
 22129      75727265 
 22129      6E7400
 22130              	.LASF485:
 22131 0b0a 73616D70 		.ascii	"samples\000"
 22131      6C657300 
 22132              	.LASF260:
 22133 0b12 70756C73 		.ascii	"pulse_end\000"
 22133      655F656E 
 22133      6400
 22134              	.LASF149:
 22135 0b1c 53454E53 		.ascii	"SENSOR_PORT_MODE_ABI\000"
 22135      4F525F50 
 22135      4F52545F 
 22135      4D4F4445 
 22135      5F414249 
 22136              	.LASF352:
 22137 0b31 78315F6E 		.ascii	"x1_neg_throttle\000"
 22137      65675F74 
 22137      68726F74 
 22137      746C6500 
 22138              	.LASF275:
 22139 0b41 4144435F 		.ascii	"ADC_CTRL_TYPE_CURRENT_REV_CENTER\000"
 22139      4354524C 
 22139      5F545950 
 22139      455F4355 
 22139      5252454E 
 22140              	.LASF521:
 22141 0b62 6170705F 		.ascii	"app_set_configuration\000"
 22141      7365745F 
ARM GAS  /tmp/cc0XcXNK.s 			page 399


 22141      636F6E66 
 22141      69677572 
 22141      6174696F 
 22142              	.LASF24:
 22143 0b78 73697A65 		.ascii	"size_t\000"
 22143      5F7400
 22144              	.LASF150:
 22145 0b7f 53454E53 		.ascii	"SENSOR_PORT_MODE_AS5047_SPI\000"
 22145      4F525F50 
 22145      4F52545F 
 22145      4D4F4445 
 22145      5F415335 
 22146              	.LASF358:
 22147 0b9b 74696D65 		.ascii	"timeout_msec\000"
 22147      6F75745F 
 22147      6D736563 
 22147      00
 22148              	.LASF18:
 22149 0ba8 75696E74 		.ascii	"uint8_t\000"
 22149      385F7400 
 22150              	.LASF271:
 22151 0bb0 6D61785F 		.ascii	"max_watt_ramp_factor\000"
 22151      77617474 
 22151      5F72616D 
 22151      705F6661 
 22151      63746F72 
 22152              	.LASF360:
 22153 0bc5 73656E64 		.ascii	"send_can_status\000"
 22153      5F63616E 
 22153      5F737461 
 22153      74757300 
 22154              	.LASF67:
 22155 0bd5 725F6F6C 		.ascii	"r_older\000"
 22155      64657200 
 22156              	.LASF37:
 22157 0bdd 705F7072 		.ascii	"p_prev\000"
 22157      657600
 22158              	.LASF395:
 22159 0be4 434F4D4D 		.ascii	"COMM_DETECT_MOTOR_FLUX_LINKAGE\000"
 22159      5F444554 
 22159      4543545F 
 22159      4D4F544F 
 22159      525F464C 
 22160              	.LASF240:
 22161 0c03 4150505F 		.ascii	"APP_NUNCHUK\000"
 22161      4E554E43 
 22161      48554B00 
 22162              	.LASF343:
 22163 0c0f 79325F74 		.ascii	"y2_throttle\000"
 22163      68726F74 
 22163      746C6500 
 22164              	.LASF348:
 22165 0c1b 62657A69 		.ascii	"bezier_reduce_factor\000"
 22165      65725F72 
 22165      65647563 
 22165      655F6661 
 22165      63746F72 
ARM GAS  /tmp/cc0XcXNK.s 			page 400


 22166              	.LASF418:
 22167 0c30 63687563 		.ascii	"chuck_data\000"
 22167      6B5F6461 
 22167      746100
 22168              	.LASF166:
 22169 0c3b 6C5F6D61 		.ascii	"l_max_vin\000"
 22169      785F7669 
 22169      6E00
 22170              	.LASF492:
 22171 0c45 64657465 		.ascii	"detect_coupling_k\000"
 22171      63745F63 
 22171      6F75706C 
 22171      696E675F 
 22171      6B00
 22172              	.LASF97:
 22173 0c57 65786974 		.ascii	"exitcode\000"
 22173      636F6465 
 22173      00
 22174              	.LASF339:
 22175 0c60 73656E64 		.ascii	"send_crc_ack\000"
 22175      5F637263 
 22175      5F61636B 
 22175      00
 22176              	.LASF448:
 22177 0c6d 7061636B 		.ascii	"packet_id\000"
 22177      65745F69 
 22177      6400
 22178              	.LASF235:
 22179 0c77 4150505F 		.ascii	"APP_PPM\000"
 22179      50504D00 
 22180              	.LASF555:
 22181 0c7f 6D635F69 		.ascii	"mc_interface_read_reset_avg_input_current\000"
 22181      6E746572 
 22181      66616365 
 22181      5F726561 
 22181      645F7265 
 22182              	.LASF557:
 22183 0ca9 6D635F69 		.ascii	"mc_interface_get_rpm\000"
 22183      6E746572 
 22183      66616365 
 22183      5F676574 
 22183      5F72706D 
 22184              	.LASF537:
 22185 0cbe 62756666 		.ascii	"buffer_append_uint16\000"
 22185      65725F61 
 22185      7070656E 
 22185      645F7569 
 22185      6E743136 
 22186              	.LASF281:
 22187 0cd3 4144435F 		.ascii	"ADC_CTRL_TYPE_DUTY_REV_CENTER\000"
 22187      4354524C 
 22187      5F545950 
 22187      455F4455 
 22187      54595F52 
 22188              	.LASF255:
 22189 0cf1 70706D5F 		.ascii	"ppm_control_type\000"
 22189      636F6E74 
ARM GAS  /tmp/cc0XcXNK.s 			page 401


 22189      726F6C5F 
 22189      74797065 
 22189      00
 22190              	.LASF408:
 22191 0d02 434F4D4D 		.ascii	"COMM_GET_SPEED_MODE\000"
 22191      5F474554 
 22191      5F535045 
 22191      45445F4D 
 22191      4F444500 
 22192              	.LASF455:
 22193 0d16 666C6173 		.ascii	"flash_res\000"
 22193      685F7265 
 22193      7300
 22194              	.LASF375:
 22195 0d20 434F4D4D 		.ascii	"COMM_SET_DUTY\000"
 22195      5F534554 
 22195      5F445554 
 22195      5900
 22196              	.LASF268:
 22197 0d2e 74635F6F 		.ascii	"tc_offset\000"
 22197      66667365 
 22197      7400
 22198              	.LASF167:
 22199 0d38 6C5F6261 		.ascii	"l_battery_cut_start\000"
 22199      74746572 
 22199      795F6375 
 22199      745F7374 
 22199      61727400 
 22200              	.LASF145:
 22201 0d4c 44495350 		.ascii	"DISP_POS_MODE_PID_POS_ERROR\000"
 22201      5F504F53 
 22201      5F4D4F44 
 22201      455F5049 
 22201      445F504F 
 22202              	.LASF165:
 22203 0d68 6C5F6D69 		.ascii	"l_min_vin\000"
 22203      6E5F7669 
 22203      6E00
 22204              	.LASF324:
 22205 0d72 4E52465F 		.ascii	"NRF_RETR_DELAY_2500US\000"
 22205      52455452 
 22205      5F44454C 
 22205      41595F32 
 22205      35303055 
 22206              	.LASF383:
 22207 0d88 434F4D4D 		.ascii	"COMM_GET_MCCONF\000"
 22207      5F474554 
 22207      5F4D4343 
 22207      4F4E4600 
 22208              	.LASF474:
 22209 0d98 73617665 		.ascii	"saved_appconf\000"
 22209      645F6170 
 22209      70636F6E 
 22209      6600
 22210              	.LASF461:
 22211 0da6 77617474 		.ascii	"watt\000"
 22211      00
ARM GAS  /tmp/cc0XcXNK.s 			page 402


 22212              	.LASF211:
 22213 0dab 666F635F 		.ascii	"foc_hall_table\000"
 22213      68616C6C 
 22213      5F746162 
 22213      6C6500
 22214              	.LASF381:
 22215 0dba 434F4D4D 		.ascii	"COMM_SET_SERVO_POS\000"
 22215      5F534554 
 22215      5F534552 
 22215      564F5F50 
 22215      4F5300
 22216              	.LASF556:
 22217 0dcd 6D635F69 		.ascii	"mc_interface_get_duty_cycle_now\000"
 22217      6E746572 
 22217      66616365 
 22217      5F676574 
 22217      5F647574 
 22218              	.LASF400:
 22219 0ded 434F4D4D 		.ascii	"COMM_GET_DECODED_PPM\000"
 22219      5F474554 
 22219      5F444543 
 22219      4F444544 
 22219      5F50504D 
 22220              	.LASF144:
 22221 0e02 44495350 		.ascii	"DISP_POS_MODE_PID_POS\000"
 22221      5F504F53 
 22221      5F4D4F44 
 22221      455F5049 
 22221      445F504F 
 22222              	.LASF130:
 22223 0e18 4D4F544F 		.ascii	"MOTOR_TYPE_FOC\000"
 22223      525F5459 
 22223      50455F46 
 22223      4F4300
 22224              	.LASF181:
 22225 0e27 736C5F6D 		.ascii	"sl_min_erpm\000"
 22225      696E5F65 
 22225      72706D00 
 22226              	.LASF133:
 22227 0e33 4641554C 		.ascii	"FAULT_CODE_OVER_VOLTAGE\000"
 22227      545F434F 
 22227      44455F4F 
 22227      5645525F 
 22227      564F4C54 
 22228              	.LASF229:
 22229 0e4b 6D5F6375 		.ascii	"m_current_backoff_gain\000"
 22229      7272656E 
 22229      745F6261 
 22229      636B6F66 
 22229      665F6761 
 22230              	.LASF524:
 22231 0e62 62756666 		.ascii	"buffer_append_uint32\000"
 22231      65725F61 
 22231      7070656E 
 22231      645F7569 
 22231      6E743332 
 22232              	.LASF403:
ARM GAS  /tmp/cc0XcXNK.s 			page 403


 22233 0e77 434F4D4D 		.ascii	"COMM_FORWARD_CAN\000"
 22233      5F464F52 
 22233      57415244 
 22233      5F43414E 
 22233      00
 22234              	.LASF96:
 22235 0e88 7264796D 		.ascii	"rdymsg\000"
 22235      736700
 22236              	.LASF176:
 22237 0e8f 6C5F6D61 		.ascii	"l_max_duty\000"
 22237      785F6475 
 22237      747900
 22238              	.LASF392:
 22239 0e9a 434F4D4D 		.ascii	"COMM_EXPERIMENT_SAMPLE\000"
 22239      5F455850 
 22239      4552494D 
 22239      454E545F 
 22239      53414D50 
 22240              	.LASF454:
 22241 0eb1 61707063 		.ascii	"appconf\000"
 22241      6F6E6600 
 22242              	.LASF514:
 22243 0eb9 62756666 		.ascii	"buffer_append_float32\000"
 22243      65725F61 
 22243      7070656E 
 22243      645F666C 
 22243      6F617433 
 22244              	.LASF38:
 22245 0ecf 705F7072 		.ascii	"p_prio\000"
 22245      696F00
 22246              	.LASF462:
 22247 0ed6 6375725F 		.ascii	"cur_mot_max\000"
 22247      6D6F745F 
 22247      6D617800 
 22248              	.LASF564:
 22249 0ee2 6D635F69 		.ascii	"mc_interface_get_fault\000"
 22249      6E746572 
 22249      66616365 
 22249      5F676574 
 22249      5F666175 
 22250              	.LASF14:
 22251 0ef9 5F5F7569 		.ascii	"__uint64_t\000"
 22251      6E743634 
 22251      5F7400
 22252              	.LASF328:
 22253 0f04 4E52465F 		.ascii	"NRF_RETR_DELAY_3500US\000"
 22253      52455452 
 22253      5F44454C 
 22253      41595F33 
 22253      35303055 
 22254              	.LASF356:
 22255 0f1a 7468726F 		.ascii	"throttle_config\000"
 22255      74746C65 
 22255      5F636F6E 
 22255      66696700 
 22256              	.LASF212:
 22257 0f2a 666F635F 		.ascii	"foc_sl_erpm\000"
ARM GAS  /tmp/cc0XcXNK.s 			page 404


 22257      736C5F65 
 22257      72706D00 
 22258              	.LASF525:
 22259 0f36 74696D65 		.ascii	"timeout_reset\000"
 22259      6F75745F 
 22259      72657365 
 22259      7400
 22260              	.LASF338:
 22261 0f44 61646472 		.ascii	"address\000"
 22261      65737300 
 22262              	.LASF185:
 22263 0f4c 736C5F70 		.ascii	"sl_phase_advance_at_br\000"
 22263      68617365 
 22263      5F616476 
 22263      616E6365 
 22263      5F61745F 
 22264              	.LASF277:
 22265 0f63 4144435F 		.ascii	"ADC_CTRL_TYPE_CURRENT_NOREV_BRAKE_CENTER\000"
 22265      4354524C 
 22265      5F545950 
 22265      455F4355 
 22265      5252454E 
 22266              	.LASF36:
 22267 0f8c 705F6E65 		.ascii	"p_next\000"
 22267      787400
 22268              	.LASF337:
 22269 0f93 6368616E 		.ascii	"channel\000"
 22269      6E656C00 
 22270              	.LASF224:
 22271 0f9b 63635F67 		.ascii	"cc_gain\000"
 22271      61696E00 
 22272              	.LASF320:
 22273 0fa3 4E52465F 		.ascii	"NRF_RETR_DELAY_1500US\000"
 22273      52455452 
 22273      5F44454C 
 22273      41595F31 
 22273      35303055 
 22274              	.LASF28:
 22275 0fb9 74726566 		.ascii	"trefs_t\000"
 22275      735F7400 
 22276              	.LASF576:
 22277 0fc1 636F6D6D 		.ascii	"commands.c\000"
 22277      616E6473 
 22277      2E6300
 22278              	.LASF54:
 22279 0fcc 705F6D70 		.ascii	"p_mpool\000"
 22279      6F6F6C00 
 22280              	.LASF152:
 22281 0fd4 70776D5F 		.ascii	"pwm_mode\000"
 22281      6D6F6465 
 22281      00
 22282              	.LASF282:
 22283 0fdd 4144435F 		.ascii	"ADC_CTRL_TYPE_DUTY_REV_BUTTON\000"
 22283      4354524C 
 22283      5F545950 
 22283      455F4455 
 22283      54595F52 
ARM GAS  /tmp/cc0XcXNK.s 			page 405


 22284              	.LASF154:
 22285 0ffb 6D6F746F 		.ascii	"motor_type\000"
 22285      725F7479 
 22285      706500
 22286              	.LASF178:
 22287 1006 6C6F5F63 		.ascii	"lo_current_min\000"
 22287      75727265 
 22287      6E745F6D 
 22287      696E00
 22288              	.LASF183:
 22289 1015 736C5F6D 		.ascii	"sl_max_fullbreak_current_dir_change\000"
 22289      61785F66 
 22289      756C6C62 
 22289      7265616B 
 22289      5F637572 
 22290              	.LASF491:
 22291 1039 64657465 		.ascii	"detect_cycle_int_limit\000"
 22291      63745F63 
 22291      79636C65 
 22291      5F696E74 
 22291      5F6C696D 
 22292              	.LASF26:
 22293 1050 746D6F64 		.ascii	"tmode_t\000"
 22293      655F7400 
 22294              	.LASF208:
 22295 1058 666F635F 		.ascii	"foc_sl_d_current_duty\000"
 22295      736C5F64 
 22295      5F637572 
 22295      72656E74 
 22295      5F647574 
 22296              	.LASF350:
 22297 106e 79325F6E 		.ascii	"y2_neg_throttle\000"
 22297      65675F74 
 22297      68726F74 
 22297      746C6500 
 22298              	.LASF519:
 22299 107e 636F6E66 		.ascii	"conf_general_read_app_configuration\000"
 22299      5F67656E 
 22299      6572616C 
 22299      5F726561 
 22299      645F6170 
 22300              	.LASF325:
 22301 10a2 4E52465F 		.ascii	"NRF_RETR_DELAY_2750US\000"
 22301      52455452 
 22301      5F44454C 
 22301      41595F32 
 22301      37353055 
 22302              	.LASF188:
 22303 10b8 68616C6C 		.ascii	"hall_table\000"
 22303      5F746162 
 22303      6C6500
 22304              	.LASF252:
 22305 10c3 50504D5F 		.ascii	"PPM_CTRL_TYPE_WATT_NOREV_BRAKE\000"
 22305      4354524C 
 22305      5F545950 
 22305      455F5741 
 22305      54545F4E 
ARM GAS  /tmp/cc0XcXNK.s 			page 406


 22306              	.LASF467:
 22307 10e2 68616C6C 		.ascii	"hall_tab\000"
 22307      5F746162 
 22307      00
 22308              	.LASF571:
 22309 10eb 6D656D73 		.ascii	"memset\000"
 22309      657400
 22310              	.LASF129:
 22311 10f2 4D4F544F 		.ascii	"MOTOR_TYPE_DC\000"
 22311      525F5459 
 22311      50455F44 
 22311      4300
 22312              	.LASF321:
 22313 1100 4E52465F 		.ascii	"NRF_RETR_DELAY_1750US\000"
 22313      52455452 
 22313      5F44454C 
 22313      41595F31 
 22313      37353055 
 22314              	.LASF505:
 22315 1116 636F6E66 		.ascii	"conf_general_detect_motor_param\000"
 22315      5F67656E 
 22315      6572616C 
 22315      5F646574 
 22315      6563745F 
 22316              	.LASF245:
 22317 1136 50504D5F 		.ascii	"PPM_CTRL_TYPE_CURRENT\000"
 22317      4354524C 
 22317      5F545950 
 22317      455F4355 
 22317      5252454E 
 22318              	.LASF366:
 22319 114c 6170705F 		.ascii	"app_chuk_conf\000"
 22319      6368756B 
 22319      5F636F6E 
 22319      6600
 22320              	.LASF199:
 22321 115a 666F635F 		.ascii	"foc_motor_flux_linkage\000"
 22321      6D6F746F 
 22321      725F666C 
 22321      75785F6C 
 22321      696E6B61 
 22322              	.LASF441:
 22323 1171 6E616D65 		.ascii	"name\000"
 22323      00
 22324              	.LASF184:
 22325 1176 736C5F63 		.ascii	"sl_cycle_int_limit\000"
 22325      79636C65 
 22325      5F696E74 
 22325      5F6C696D 
 22325      697400
 22326              	.LASF17:
 22327 1189 696E7438 		.ascii	"int8_t\000"
 22327      5F7400
 22328              	.LASF354:
 22329 1190 78335F6E 		.ascii	"x3_neg_throttle\000"
 22329      65675F74 
 22329      68726F74 
ARM GAS  /tmp/cc0XcXNK.s 			page 407


 22329      746C6500 
 22330              	.LASF82:
 22331 11a0 70616E69 		.ascii	"panic_msg\000"
 22331      635F6D73 
 22331      6700
 22332              	.LASF359:
 22333 11aa 74696D65 		.ascii	"timeout_brake_current\000"
 22333      6F75745F 
 22333      6272616B 
 22333      655F6375 
 22333      7272656E 
 22334              	.LASF66:
 22335 11c0 725F6E65 		.ascii	"r_newer\000"
 22335      77657200 
 22336              	.LASF376:
 22337 11c8 434F4D4D 		.ascii	"COMM_SET_CURRENT\000"
 22337      5F534554 
 22337      5F435552 
 22337      52454E54 
 22337      00
 22338              	.LASF410:
 22339 11d9 434F4D4D 		.ascii	"COMM_PACKET_ID\000"
 22339      5F504143 
 22339      4B45545F 
 22339      494400
 22340              	.LASF29:
 22341 11e8 74736C69 		.ascii	"tslices_t\000"
 22341      6365735F 
 22341      7400
 22342              	.LASF267:
 22343 11f2 70756C73 		.ascii	"pulse_center\000"
 22343      655F6365 
 22343      6E746572 
 22343      00
 22344              	.LASF569:
 22345 11ff 62756666 		.ascii	"buffer_get_int16\000"
 22345      65725F67 
 22345      65745F69 
 22345      6E743136 
 22345      00
 22346              	.LASF475:
 22347 1210 73617665 		.ascii	"saved_mcconf\000"
 22347      645F6D63 
 22347      636F6E66 
 22347      00
 22348              	.LASF74:
 22349 121d 76745F64 		.ascii	"vt_delta\000"
 22349      656C7461 
 22349      00
 22350              	.LASF89:
 22351 1226 73697A65 		.ascii	"sizetype\000"
 22351      74797065 
 22351      00
 22352              	.LASF19:
 22353 122f 696E7431 		.ascii	"int16_t\000"
 22353      365F7400 
 22354              	.LASF8:
ARM GAS  /tmp/cc0XcXNK.s 			page 408


 22355 1237 73686F72 		.ascii	"short unsigned int\000"
 22355      7420756E 
 22355      7369676E 
 22355      65642069 
 22355      6E7400
 22356              	.LASF1:
 22357 124a 7369676E 		.ascii	"signed char\000"
 22357      65642063 
 22357      68617200 
 22358              	.LASF495:
 22359 1256 64657465 		.ascii	"detect_low_duty\000"
 22359      63745F6C 
 22359      6F775F64 
 22359      75747900 
 22360              	.LASF46:
 22361 1266 705F7072 		.ascii	"p_preempt\000"
 22361      65656D70 
 22361      7400
 22362              	.LASF344:
 22363 1270 79335F74 		.ascii	"y3_throttle\000"
 22363      68726F74 
 22363      746C6500 
 22364              	.LASF162:
 22365 127c 6C5F6D61 		.ascii	"l_max_erpm\000"
 22365      785F6572 
 22365      706D00
 22366              	.LASF47:
 22367 1287 705F7469 		.ascii	"p_time\000"
 22367      6D6500
 22368              	.LASF420:
 22369 128e 63757272 		.ascii	"current\000"
 22369      656E7400 
 22370              	.LASF527:
 22371 1296 73657276 		.ascii	"servodec_get_servo\000"
 22371      6F646563 
 22371      5F676574 
 22371      5F736572 
 22371      766F00
 22372              	.LASF538:
 22373 12a9 7465726D 		.ascii	"terminal_process_string\000"
 22373      696E616C 
 22373      5F70726F 
 22373      63657373 
 22373      5F737472 
 22374              	.LASF464:
 22375 12c1 6375725F 		.ascii	"cur_mot_min\000"
 22375      6D6F745F 
 22375      6D696E00 
 22376              	.LASF553:
 22377 12cd 62756666 		.ascii	"buffer_append_float16\000"
 22377      65725F61 
 22377      7070656E 
 22377      645F666C 
 22377      6F617431 
 22378              	.LASF539:
 22379 12e3 62756666 		.ascii	"buffer_get_int32\000"
 22379      65725F67 
ARM GAS  /tmp/cc0XcXNK.s 			page 409


 22379      65745F69 
 22379      6E743332 
 22379      00
 22380              	.LASF363:
 22381 12f4 6170705F 		.ascii	"app_ppm_conf\000"
 22381      70706D5F 
 22381      636F6E66 
 22381      00
 22382              	.LASF486:
 22383 1301 636F6D6D 		.ascii	"commands_set_app_data_handler\000"
 22383      616E6473 
 22383      5F736574 
 22383      5F617070 
 22383      5F646174 
 22384              	.LASF138:
 22385 131f 4641554C 		.ascii	"FAULT_CODE_OVER_TEMP_MOTOR\000"
 22385      545F434F 
 22385      44455F4F 
 22385      5645525F 
 22385      54454D50 
 22386              	.LASF49:
 22387 133a 705F6D73 		.ascii	"p_msgqueue\000"
 22387      67717565 
 22387      756500
 22388              	.LASF497:
 22389 1345 64657465 		.ascii	"detect_hall_res\000"
 22389      63745F68 
 22389      616C6C5F 
 22389      72657300 
 22390              	.LASF264:
 22391 1355 72706D5F 		.ascii	"rpm_lim_end\000"
 22391      6C696D5F 
 22391      656E6400 
 22392              	.LASF204:
 22393 1361 666F635F 		.ascii	"foc_duty_dowmramp_ki\000"
 22393      64757479 
 22393      5F646F77 
 22393      6D72616D 
 22393      705F6B69 
 22394              	.LASF315:
 22395 1376 4E52465F 		.ascii	"NRF_RETR_DELAY_250US\000"
 22395      52455452 
 22395      5F44454C 
 22395      41595F32 
 22395      35305553 
 22396              	.LASF108:
 22397 138b 6D5F6F77 		.ascii	"m_owner\000"
 22397      6E657200 
 22398              	.LASF203:
 22399 1393 666F635F 		.ascii	"foc_duty_dowmramp_kp\000"
 22399      64757479 
 22399      5F646F77 
 22399      6D72616D 
 22399      705F6B70 
 22400              	.LASF581:
 22401 13a8 64657465 		.ascii	"detect_thread\000"
 22401      63745F74 
ARM GAS  /tmp/cc0XcXNK.s 			page 410


 22401      68726561 
 22401      6400
 22402              	.LASF534:
 22403 13b6 6170705F 		.ascii	"app_adc_get_voltage2\000"
 22403      6164635F 
 22403      6765745F 
 22403      766F6C74 
 22403      61676532 
 22404              	.LASF451:
 22405 13cb 61745F73 		.ascii	"at_start\000"
 22405      74617274 
 22405      00
 22406              	.LASF84:
 22407 13d4 63685F73 		.ascii	"ch_system\000"
 22407      79737465 
 22407      6D00
 22408              	.LASF156:
 22409 13de 6C5F6375 		.ascii	"l_current_max\000"
 22409      7272656E 
 22409      745F6D61 
 22409      7800
 22410              	.LASF446:
 22411 13ec 66756E63 		.ascii	"func\000"
 22411      00
 22412              	.LASF302:
 22413 13f1 4E52465F 		.ascii	"NRF_SPEED_250K\000"
 22413      53504545 
 22413      445F3235 
 22413      304B00
 22414              	.LASF103:
 22415 1400 63685F73 		.ascii	"ch_semaphore\000"
 22415      656D6170 
 22415      686F7265 
 22415      00
 22416              	.LASF247:
 22417 140d 50504D5F 		.ascii	"PPM_CTRL_TYPE_CURRENT_NOREV_BRAKE\000"
 22417      4354524C 
 22417      5F545950 
 22417      455F4355 
 22417      5252454E 
 22418              	.LASF294:
 22419 142f 4348554B 		.ascii	"CHUK_CTRL_TYPE_CURRENT_NOREV\000"
 22419      5F435452 
 22419      4C5F5459 
 22419      50455F43 
 22419      55525245 
 22420              	.LASF292:
 22421 144c 4348554B 		.ascii	"CHUK_CTRL_TYPE_NONE\000"
 22421      5F435452 
 22421      4C5F5459 
 22421      50455F4E 
 22421      4F4E4500 
 22422              	.LASF355:
 22423 1460 62657A69 		.ascii	"bezier_neg_reduce_factor\000"
 22423      65725F6E 
 22423      65675F72 
 22423      65647563 
ARM GAS  /tmp/cc0XcXNK.s 			page 411


 22423      655F6661 
 22424              	.LASF59:
 22425 1479 74687265 		.ascii	"threads_queue_t\000"
 22425      6164735F 
 22425      71756575 
 22425      655F7400 
 22426              	.LASF148:
 22427 1489 53454E53 		.ascii	"SENSOR_PORT_MODE_HALL\000"
 22427      4F525F50 
 22427      4F52545F 
 22427      4D4F4445 
 22427      5F48414C 
 22428              	.LASF334:
 22429 149f 6372635F 		.ascii	"crc_type\000"
 22429      74797065 
 22429      00
 22430              	.LASF503:
 22431 14a8 4144435F 		.ascii	"ADC_Value\000"
 22431      56616C75 
 22431      6500
 22432              	.LASF124:
 22433 14b2 464F435F 		.ascii	"FOC_SENSOR_MODE_SENSORLESS\000"
 22433      53454E53 
 22433      4F525F4D 
 22433      4F44455F 
 22433      53454E53 
 22434              	.LASF45:
 22435 14cd 705F7265 		.ascii	"p_refs\000"
 22435      667300
 22436              	.LASF297:
 22437 14d4 6368756B 		.ascii	"chuk_control_type\000"
 22437      5F636F6E 
 22437      74726F6C 
 22437      5F747970 
 22437      6500
 22438              	.LASF550:
 22439 14e6 6D635F69 		.ascii	"mc_interface_set_current\000"
 22439      6E746572 
 22439      66616365 
 22439      5F736574 
 22439      5F637572 
 22440              	.LASF123:
 22441 14ff 6D635F73 		.ascii	"mc_sensor_mode\000"
 22441      656E736F 
 22441      725F6D6F 
 22441      646500
 22442              	.LASF10:
 22443 150e 6C6F6E67 		.ascii	"long int\000"
 22443      20696E74 
 22443      00
 22444              	.LASF87:
 22445 1517 6D61696E 		.ascii	"mainthread\000"
 22445      74687265 
 22445      616400
 22446              	.LASF368:
 22447 1522 6170705F 		.ascii	"app_throttle_conf\000"
 22447      7468726F 
ARM GAS  /tmp/cc0XcXNK.s 			page 412


 22447      74746C65 
 22447      5F636F6E 
 22447      6600
 22448              	.LASF107:
 22449 1534 6D5F7175 		.ascii	"m_queue\000"
 22449      65756500 
 22450              	.LASF380:
 22451 153c 434F4D4D 		.ascii	"COMM_SET_DETECT\000"
 22451      5F534554 
 22451      5F444554 
 22451      45435400 
 22452              	.LASF477:
 22453 154c 666F726D 		.ascii	"format\000"
 22453      617400
 22454              	.LASF342:
 22455 1553 79315F74 		.ascii	"y1_throttle\000"
 22455      68726F74 
 22455      746C6500 
 22456              	.LASF371:
 22457 155f 434F4D4D 		.ascii	"COMM_JUMP_TO_BOOTLOADER\000"
 22457      5F4A554D 
 22457      505F544F 
 22457      5F424F4F 
 22457      544C4F41 
 22458              	.LASF117:
 22459 1577 434F4D4D 		.ascii	"COMM_MODE_INTEGRATE\000"
 22459      5F4D4F44 
 22459      455F494E 
 22459      54454752 
 22459      41544500 
 22460              	.LASF250:
 22461 158b 50504D5F 		.ascii	"PPM_CTRL_TYPE_PID\000"
 22461      4354524C 
 22461      5F545950 
 22461      455F5049 
 22461      4400
 22462              	.LASF99:
 22463 159d 77747472 		.ascii	"wttrp\000"
 22463      7000
 22464              	.LASF92:
 22465 15a3 636F6E74 		.ascii	"context\000"
 22465      65787400 
 22466              	.LASF544:
 22467 15ab 6D635F69 		.ascii	"mc_interface_sample_print_data\000"
 22467      6E746572 
 22467      66616365 
 22467      5F73616D 
 22467      706C655F 
 22468              	.LASF456:
 22469 15ca 6E65775F 		.ascii	"new_app_offset\000"
 22469      6170705F 
 22469      6F666673 
 22469      657400
 22470              	.LASF523:
 22471 15d9 636F6E66 		.ascii	"conf_general_get_default_mc_configuration\000"
 22471      5F67656E 
 22471      6572616C 
ARM GAS  /tmp/cc0XcXNK.s 			page 413


 22471      5F676574 
 22471      5F646566 
 22472              	.LASF196:
 22473 1603 666F635F 		.ascii	"foc_encoder_ratio\000"
 22473      656E636F 
 22473      6465725F 
 22473      72617469 
 22473      6F00
 22474              	.LASF22:
 22475 1615 75696E74 		.ascii	"uint32_t\000"
 22475      33325F74 
 22475      00
 22476              	.LASF353:
 22477 161e 78325F6E 		.ascii	"x2_neg_throttle\000"
 22477      65675F74 
 22477      68726F74 
 22477      746C6500 
 22478              	.LASF402:
 22479 162e 434F4D4D 		.ascii	"COMM_GET_DECODED_CHUK\000"
 22479      5F474554 
 22479      5F444543 
 22479      4F444544 
 22479      5F434855 
 22480              	.LASF406:
 22481 1644 434F4D4D 		.ascii	"COMM_SET_SPEED_MODE\000"
 22481      5F534554 
 22481      5F535045 
 22481      45445F4D 
 22481      4F444500 
 22482              	.LASF168:
 22483 1658 6C5F6261 		.ascii	"l_battery_cut_end\000"
 22483      74746572 
 22483      795F6375 
 22483      745F656E 
 22483      6400
 22484              	.LASF310:
 22485 166a 4E52465F 		.ascii	"NRF_POWER\000"
 22485      504F5745 
 22485      5200
 22486              	.LASF434:
 22487 1674 6C6F6E67 		.ascii	"long double\000"
 22487      20646F75 
 22487      626C6500 
 22488              	.LASF379:
 22489 1680 434F4D4D 		.ascii	"COMM_SET_POS\000"
 22489      5F534554 
 22489      5F504F53 
 22489      00
 22490              	.LASF90:
 22491 168d 72656761 		.ascii	"regarm_t\000"
 22491      726D5F74 
 22491      00
 22492              	.LASF32:
 22493 1696 6576656E 		.ascii	"eventmask_t\000"
 22493      746D6173 
 22493      6B5F7400 
 22494              	.LASF449:
ARM GAS  /tmp/cc0XcXNK.s 			page 414


 22495 16a2 73616D70 		.ascii	"sample_len\000"
 22495      6C655F6C 
 22495      656E00
 22496              	.LASF567:
 22497 16ad 666C6173 		.ascii	"flash_helper_jump_to_bootloader\000"
 22497      685F6865 
 22497      6C706572 
 22497      5F6A756D 
 22497      705F746F 
 22498              	.LASF280:
 22499 16cd 4144435F 		.ascii	"ADC_CTRL_TYPE_DUTY\000"
 22499      4354524C 
 22499      5F545950 
 22499      455F4455 
 22499      545900
 22500              	.LASF12:
 22501 16e0 6C6F6E67 		.ascii	"long unsigned int\000"
 22501      20756E73 
 22501      69676E65 
 22501      6420696E 
 22501      7400
 22502              	.LASF225:
 22503 16f2 63635F72 		.ascii	"cc_ramp_step_max\000"
 22503      616D705F 
 22503      73746570 
 22503      5F6D6178 
 22503      00
 22504              	.LASF560:
 22505 1703 6D635F69 		.ascii	"mc_interface_get_watt_hours\000"
 22505      6E746572 
 22505      66616365 
 22505      5F676574 
 22505      5F776174 
 22506              	.LASF473:
 22507 171f 73656E64 		.ascii	"send_buffer_can\000"
 22507      5F627566 
 22507      6665725F 
 22507      63616E00 
 22508              	.LASF220:
 22509 172f 705F7069 		.ascii	"p_pid_kd\000"
 22509      645F6B64 
 22509      00
 22510              	.LASF219:
 22511 1738 705F7069 		.ascii	"p_pid_ki\000"
 22511      645F6B69 
 22511      00
 22512              	.LASF311:
 22513 1741 4E52465F 		.ascii	"NRF_CRC_DISABLED\000"
 22513      4352435F 
 22513      44495341 
 22513      424C4544 
 22513      00
 22514              	.LASF218:
 22515 1752 705F7069 		.ascii	"p_pid_kp\000"
 22515      645F6B70 
 22515      00
 22516              	.LASF562:
ARM GAS  /tmp/cc0XcXNK.s 			page 415


 22517 175b 6D635F69 		.ascii	"mc_interface_get_tachometer_value\000"
 22517      6E746572 
 22517      66616365 
 22517      5F676574 
 22517      5F746163 
 22518              	.LASF333:
 22519 177d 706F7765 		.ascii	"power\000"
 22519      7200
 22520              	.LASF234:
 22521 1783 4150505F 		.ascii	"APP_NONE\000"
 22521      4E4F4E45 
 22521      00
 22522              	.LASF114:
 22523 178c 50574D5F 		.ascii	"PWM_MODE_SYNCHRONOUS\000"
 22523      4D4F4445 
 22523      5F53594E 
 22523      4348524F 
 22523      4E4F5553 
 22524              	.LASF285:
 22525 17a1 766F6C74 		.ascii	"voltage_end\000"
 22525      6167655F 
 22525      656E6400 
 22526              	.LASF146:
 22527 17ad 44495350 		.ascii	"DISP_POS_MODE_ENCODER_OBSERVER_ERROR\000"
 22527      5F504F53 
 22527      5F4D4F44 
 22527      455F454E 
 22527      434F4445 
 22528              	.LASF573:
 22529 17d2 62756666 		.ascii	"buffer_append_int16\000"
 22529      65725F61 
 22529      7070656E 
 22529      645F696E 
 22529      74313600 
 22530              	.LASF110:
 22531 17e6 63686172 		.ascii	"char\000"
 22531      00
 22532              	.LASF63:
 22533 17eb 725F7175 		.ascii	"r_queue\000"
 22533      65756500 
 22534              	.LASF187:
 22535 17f3 736C5F62 		.ascii	"sl_bemf_coupling_k\000"
 22535      656D665F 
 22535      636F7570 
 22535      6C696E67 
 22535      5F6B00
 22536              	.LASF298:
 22537 1806 72616D70 		.ascii	"ramp_time_pos\000"
 22537      5F74696D 
 22537      655F706F 
 22537      7300
 22538              	.LASF295:
 22539 1814 4348554B 		.ascii	"CHUK_CTRL_TYPE_WATT\000"
 22539      5F435452 
 22539      4C5F5459 
 22539      50455F57 
 22539      41545400 
ARM GAS  /tmp/cc0XcXNK.s 			page 416


 22540              	.LASF483:
 22541 1828 726F746F 		.ascii	"rotor_pos\000"
 22541      725F706F 
 22541      7300
 22542              	.LASF329:
 22543 1832 4E52465F 		.ascii	"NRF_RETR_DELAY_3750US\000"
 22543      52455452 
 22543      5F44454C 
 22543      41595F33 
 22543      37353055 
 22544              	.LASF470:
 22545 1848 6D696E5F 		.ascii	"min_rpm\000"
 22545      72706D00 
 22546              	.LASF542:
 22547 1850 63684576 		.ascii	"chEvtSignal\000"
 22547      74536967 
 22547      6E616C00 
 22548              	.LASF238:
 22549 185c 4150505F 		.ascii	"APP_PPM_UART\000"
 22549      50504D5F 
 22549      55415254 
 22549      00
 22550              	.LASF173:
 22551 1869 6C5F7465 		.ascii	"l_temp_motor_start\000"
 22551      6D705F6D 
 22551      6F746F72 
 22551      5F737461 
 22551      727400
 22552              	.LASF440:
 22553 187c 63685468 		.ascii	"chThdGetSelfX\000"
 22553      64476574 
 22553      53656C66 
 22553      5800
 22554              	.LASF559:
 22555 188a 6D635F69 		.ascii	"mc_interface_get_amp_hours_charged\000"
 22555      6E746572 
 22555      66616365 
 22555      5F676574 
 22555      5F616D70 
 22556              	.LASF507:
 22557 18ad 62756666 		.ascii	"buffer_append_int32\000"
 22557      65725F61 
 22557      7070656E 
 22557      645F696E 
 22557      74333200 
 22558              	.LASF407:
 22559 18c1 434F4D4D 		.ascii	"COMM_CHANGE_SPEED_MODE\000"
 22559      5F434841 
 22559      4E47455F 
 22559      53504545 
 22559      445F4D4F 
 22560              	.LASF157:
 22561 18d8 6C5F6375 		.ascii	"l_current_min\000"
 22561      7272656E 
 22561      745F6D69 
 22561      6E00
 22562              	.LASF480:
ARM GAS  /tmp/cc0XcXNK.s 			page 417


 22563 18e6 62756666 		.ascii	"buffer\000"
 22563      657200
 22564              	.LASF241:
 22565 18ed 4150505F 		.ascii	"APP_NRF\000"
 22565      4E524600 
 22566              	.LASF236:
 22567 18f5 4150505F 		.ascii	"APP_ADC\000"
 22567      41444300 
 22568              	.LASF134:
 22569 18fd 4641554C 		.ascii	"FAULT_CODE_UNDER_VOLTAGE\000"
 22569      545F434F 
 22569      44455F55 
 22569      4E444552 
 22569      5F564F4C 
 22570              	.LASF396:
 22571 1916 434F4D4D 		.ascii	"COMM_DETECT_ENCODER\000"
 22571      5F444554 
 22571      4543545F 
 22571      454E434F 
 22571      44455200 
 22572              	.LASF384:
 22573 192a 434F4D4D 		.ascii	"COMM_GET_MCCONF_DEFAULT\000"
 22573      5F474554 
 22573      5F4D4343 
 22573      4F4E465F 
 22573      44454641 
 22574              	.LASF374:
 22575 1942 434F4D4D 		.ascii	"COMM_GET_VALUES\000"
 22575      5F474554 
 22575      5F56414C 
 22575      55455300 
 22576              	.LASF33:
 22577 1952 636E745F 		.ascii	"cnt_t\000"
 22577      7400
 22578              	.LASF445:
 22579 1958 636F6D6D 		.ascii	"commands_set_send_func\000"
 22579      616E6473 
 22579      5F736574 
 22579      5F73656E 
 22579      645F6675 
 22580              	.LASF421:
 22581 196f 64757479 		.ascii	"duty\000"
 22581      00
 22582              	.LASF283:
 22583 1974 6164635F 		.ascii	"adc_control_type\000"
 22583      636F6E74 
 22583      726F6C5F 
 22583      74797065 
 22583      00
 22584              	.LASF132:
 22585 1985 4641554C 		.ascii	"FAULT_CODE_NONE\000"
 22585      545F434F 
 22585      44455F4E 
 22585      4F4E4500 
 22586              	.LASF214:
 22587 1995 735F7069 		.ascii	"s_pid_ki\000"
 22587      645F6B69 
ARM GAS  /tmp/cc0XcXNK.s 			page 418


 22587      00
 22588              	.LASF189:
 22589 199e 68616C6C 		.ascii	"hall_sl_erpm\000"
 22589      5F736C5F 
 22589      6572706D 
 22589      00
 22590              	.LASF213:
 22591 19ab 735F7069 		.ascii	"s_pid_kp\000"
 22591      645F6B70 
 22591      00
 22592              	.LASF526:
 22593 19b4 6D637077 		.ascii	"mcpwm_set_detect\000"
 22593      6D5F7365 
 22593      745F6465 
 22593      74656374 
 22593      00
 22594              	.LASF390:
 22595 19c5 434F4D4D 		.ascii	"COMM_PRINT\000"
 22595      5F505249 
 22595      4E5400
 22596              	.LASF369:
 22597 19d0 6170705F 		.ascii	"app_configuration\000"
 22597      636F6E66 
 22597      69677572 
 22597      6174696F 
 22597      6E00
 22598              	.LASF432:
 22599 19e2 464C4153 		.ascii	"FLASH_COMPLETE\000"
 22599      485F434F 
 22599      4D504C45 
 22599      544500
 22600              	.LASF518:
 22601 19f1 636F6D6D 		.ascii	"comm_can_send_buffer\000"
 22601      5F63616E 
 22601      5F73656E 
 22601      645F6275 
 22601      66666572 
 22602              	.LASF345:
 22603 1a06 78315F74 		.ascii	"x1_throttle\000"
 22603      68726F74 
 22603      746C6500 
 22604              	.LASF303:
 22605 1a12 4E52465F 		.ascii	"NRF_SPEED_1M\000"
 22605      53504545 
 22605      445F314D 
 22605      00
 22606              	.LASF563:
 22607 1a1f 6D635F69 		.ascii	"mc_interface_get_tachometer_abs_value\000"
 22607      6E746572 
 22607      66616365 
 22607      5F676574 
 22607      5F746163 
 22608              	.LASF482:
 22609 1a45 636F6D6D 		.ascii	"commands_send_rotor_pos\000"
 22609      616E6473 
 22609      5F73656E 
 22609      645F726F 
ARM GAS  /tmp/cc0XcXNK.s 			page 419


 22609      746F725F 
 22610              	.LASF205:
 22611 1a5d 666F635F 		.ascii	"foc_openloop_rpm\000"
 22611      6F70656E 
 22611      6C6F6F70 
 22611      5F72706D 
 22611      00
 22612              	.LASF209:
 22613 1a6e 666F635F 		.ascii	"foc_sl_d_current_factor\000"
 22613      736C5F64 
 22613      5F637572 
 22613      72656E74 
 22613      5F666163 
 22614              	.LASF202:
 22615 1a86 666F635F 		.ascii	"foc_pll_ki\000"
 22615      706C6C5F 
 22615      6B6900
 22616              	.LASF422:
 22617 1a91 63727569 		.ascii	"cruise_control_status\000"
 22617      73655F63 
 22617      6F6E7472 
 22617      6F6C5F73 
 22617      74617475 
 22618              	.LASF201:
 22619 1aa7 666F635F 		.ascii	"foc_pll_kp\000"
 22619      706C6C5F 
 22619      6B7000
 22620              	.LASF242:
 22621 1ab2 4150505F 		.ascii	"APP_CUSTOM\000"
 22621      43555354 
 22621      4F4D00
 22622              	.LASF566:
 22623 1abd 666C6173 		.ascii	"flash_helper_erase_new_app\000"
 22623      685F6865 
 22623      6C706572 
 22623      5F657261 
 22623      73655F6E 
 22624              	.LASF500:
 22625 1ad8 64697370 		.ascii	"display_position_mode\000"
 22625      6C61795F 
 22625      706F7369 
 22625      74696F6E 
 22625      5F6D6F64 
 22626              	.LASF516:
 22627 1aee 6D637077 		.ascii	"mcpwm_foc_measure_res_ind\000"
 22627      6D5F666F 
 22627      635F6D65 
 22627      61737572 
 22627      655F7265 
 22628              	.LASF468:
 22629 1b08 72617469 		.ascii	"ratio\000"
 22629      6F00
 22630              	.LASF572:
 22631 1b0e 6D635F69 		.ascii	"mc_interface_release_motor\000"
 22631      6E746572 
 22631      66616365 
 22631      5F72656C 
ARM GAS  /tmp/cc0XcXNK.s 			page 420


 22631      65617365 
 22632              	.LASF69:
 22633 1b29 76746675 		.ascii	"vtfunc_t\000"
 22633      6E635F74 
 22633      00
 22634              	.LASF394:
 22635 1b32 434F4D4D 		.ascii	"COMM_DETECT_MOTOR_R_L\000"
 22635      5F444554 
 22635      4543545F 
 22635      4D4F544F 
 22635      525F525F 
 22636              	.LASF304:
 22637 1b48 4E52465F 		.ascii	"NRF_SPEED_2M\000"
 22637      53504545 
 22637      445F324D 
 22637      00
 22638              	.LASF543:
 22639 1b55 62756666 		.ascii	"buffer_get_uint16\000"
 22639      65725F67 
 22639      65745F75 
 22639      696E7431 
 22639      3600
 22640              	.LASF98:
 22641 1b67 77746F62 		.ascii	"wtobjp\000"
 22641      6A7000
 22642              	.LASF237:
 22643 1b6e 4150505F 		.ascii	"APP_UART\000"
 22643      55415254 
 22643      00
 22644              	.LASF362:
 22645 1b77 6170705F 		.ascii	"app_to_use\000"
 22645      746F5F75 
 22645      736500
 22646              	.LASF53:
 22647 1b82 705F7265 		.ascii	"p_realprio\000"
 22647      616C7072 
 22647      696F00
 22648              	.LASF239:
 22649 1b8d 4150505F 		.ascii	"APP_ADC_UART\000"
 22649      4144435F 
 22649      55415254 
 22649      00
 22650              	.LASF404:
 22651 1b9a 434F4D4D 		.ascii	"COMM_SET_CHUCK_DATA\000"
 22651      5F534554 
 22651      5F434855 
 22651      434B5F44 
 22651      41544100 
 22652              	.LASF101:
 22653 1bae 77746D74 		.ascii	"wtmtxp\000"
 22653      787000
 22654              	.LASF131:
 22655 1bb5 6D635F6D 		.ascii	"mc_motor_type\000"
 22655      6F746F72 
 22655      5F747970 
 22655      6500
 22656              	.LASF288:
ARM GAS  /tmp/cc0XcXNK.s 			page 421


 22657 1bc3 7265765F 		.ascii	"rev_button_inverted\000"
 22657      62757474 
 22657      6F6E5F69 
 22657      6E766572 
 22657      74656400 
 22658              	.LASF433:
 22659 1bd7 646F7562 		.ascii	"double\000"
 22659      6C6500
 22660              	.LASF341:
 22661 1bde 61646A75 		.ascii	"adjustable_throttle_enabled\000"
 22661      73746162 
 22661      6C655F74 
 22661      68726F74 
 22661      746C655F 
 22662              	.LASF439:
 22663 1bfa 63685654 		.ascii	"chVTGetSystemTimeX\000"
 22663      47657453 
 22663      79737465 
 22663      6D54696D 
 22663      655800
 22664              	.LASF386:
 22665 1c0d 434F4D4D 		.ascii	"COMM_GET_APPCONF\000"
 22665      5F474554 
 22665      5F415050 
 22665      434F4E46 
 22665      00
 22666              	.LASF547:
 22667 1c1e 6D635F69 		.ascii	"mc_interface_set_pid_pos\000"
 22667      6E746572 
 22667      66616365 
 22667      5F736574 
 22667      5F706964 
 22668              	.LASF174:
 22669 1c37 6C5F7465 		.ascii	"l_temp_motor_end\000"
 22669      6D705F6D 
 22669      6F746F72 
 22669      5F656E64 
 22669      00
 22670              	.LASF351:
 22671 1c48 79335F6E 		.ascii	"y3_neg_throttle\000"
 22671      65675F74 
 22671      68726F74 
 22671      746C6500 
 22672              	.LASF155:
 22673 1c58 73656E73 		.ascii	"sensor_mode\000"
 22673      6F725F6D 
 22673      6F646500 
 22674              	.LASF535:
 22675 1c64 656E636F 		.ascii	"encoder_is_configured\000"
 22675      6465725F 
 22675      69735F63 
 22675      6F6E6669 
 22675      67757265 
 22676              	.LASF120:
 22677 1c7a 53454E53 		.ascii	"SENSOR_MODE_SENSORLESS\000"
 22677      4F525F4D 
 22677      4F44455F 
ARM GAS  /tmp/cc0XcXNK.s 			page 422


 22677      53454E53 
 22677      4F524C45 
 22678              	.LASF332:
 22679 1c91 73706565 		.ascii	"speed\000"
 22679      6400
 22680              	.LASF62:
 22681 1c97 63685F72 		.ascii	"ch_ready_list\000"
 22681      65616479 
 22681      5F6C6973 
 22681      7400
 22682              	.LASF580:
 22683 1ca5 63685654 		.ascii	"chVTTimeElapsedSinceX\000"
 22683      54696D65 
 22683      456C6170 
 22683      73656453 
 22683      696E6365 
 22684              	.LASF9:
 22685 1cbb 5F5F696E 		.ascii	"__int32_t\000"
 22685      7433325F 
 22685      7400
 22686              	.LASF11:
 22687 1cc5 5F5F7569 		.ascii	"__uint32_t\000"
 22687      6E743332 
 22687      5F7400
 22688              	.LASF81:
 22689 1cd0 63685F73 		.ascii	"ch_system_debug\000"
 22689      79737465 
 22689      6D5F6465 
 22689      62756700 
 22690              	.LASF442:
 22691 1ce0 64617461 		.ascii	"data\000"
 22691      00
 22692              	.LASF540:
 22693 1ce5 62756666 		.ascii	"buffer_get_uint32\000"
 22693      65725F67 
 22693      65745F75 
 22693      696E7433 
 22693      3200
 22694              	.LASF552:
 22695 1cf7 6C6F6766 		.ascii	"logf\000"
 22695      00
 22696              	.LASF577:
 22697 1cfc 2F686F6D 		.ascii	"/home/nico/NEUES_BLDC_NEG_THROTTLE/bldc-firmware\000"
 22697      652F6E69 
 22697      636F2F4E 
 22697      45554553 
 22697      5F424C44 
 22698              	.LASF217:
 22699 1d2d 735F7069 		.ascii	"s_pid_breaking_enabled\000"
 22699      645F6272 
 22699      65616B69 
 22699      6E675F65 
 22699      6E61626C 
 22700              	.LASF487:
 22701 1d44 636F6D6D 		.ascii	"commands_send_app_data\000"
 22701      616E6473 
 22701      5F73656E 
ARM GAS  /tmp/cc0XcXNK.s 			page 423


 22701      645F6170 
 22701      705F6461 
 22702              	.LASF301:
 22703 1d5b 6368756B 		.ascii	"chuk_config\000"
 22703      5F636F6E 
 22703      66696700 
 22704              	.LASF273:
 22705 1d67 4144435F 		.ascii	"ADC_CTRL_TYPE_NONE\000"
 22705      4354524C 
 22705      5F545950 
 22705      455F4E4F 
 22705      4E4500
 22706              	.LASF452:
 22707 1d7a 6D63636F 		.ascii	"mcconf\000"
 22707      6E6600
 22708              	.LASF112:
 22709 1d81 6D757465 		.ascii	"mutex_t\000"
 22709      785F7400 
 22710              	.LASF51:
 22711 1d89 705F6570 		.ascii	"p_epending\000"
 22711      656E6469 
 22711      6E6700
 22712              	.LASF206:
 22713 1d94 666F635F 		.ascii	"foc_sl_openloop_hyst\000"
 22713      736C5F6F 
 22713      70656E6C 
 22713      6F6F705F 
 22713      68797374 
 22714              	.LASF262:
 22715 1da9 73616665 		.ascii	"safe_start\000"
 22715      5F737461 
 22715      727400
 22716              	.LASF401:
 22717 1db4 434F4D4D 		.ascii	"COMM_GET_DECODED_ADC\000"
 22717      5F474554 
 22717      5F444543 
 22717      4F444544 
 22717      5F414443 
 22718              	.LASF385:
 22719 1dc9 434F4D4D 		.ascii	"COMM_SET_APPCONF\000"
 22719      5F534554 
 22719      5F415050 
 22719      434F4E46 
 22719      00
 22720              	.LASF447:
 22721 1dda 636F6D6D 		.ascii	"commands_process_packet\000"
 22721      616E6473 
 22721      5F70726F 
 22721      63657373 
 22721      5F706163 
 22722              	.LASF249:
 22723 1df2 50504D5F 		.ascii	"PPM_CTRL_TYPE_DUTY_NOREV\000"
 22723      4354524C 
 22723      5F545950 
 22723      455F4455 
 22723      54595F4E 
 22724              	.LASF179:
ARM GAS  /tmp/cc0XcXNK.s 			page 424


 22725 1e0b 6C6F5F69 		.ascii	"lo_in_current_max\000"
 22725      6E5F6375 
 22725      7272656E 
 22725      745F6D61 
 22725      7800
 22726              	.LASF393:
 22727 1e1d 434F4D4D 		.ascii	"COMM_DETECT_MOTOR_PARAM\000"
 22727      5F444554 
 22727      4543545F 
 22727      4D4F544F 
 22727      525F5041 
 22728              	.LASF546:
 22729 1e35 636F6E66 		.ascii	"conf_general_store_app_configuration\000"
 22729      5F67656E 
 22729      6572616C 
 22729      5F73746F 
 22729      72655F61 
 22730              	.LASF453:
 22731 1e5a 6D63636F 		.ascii	"mcconf_old\000"
 22731      6E665F6F 
 22731      6C6400
 22732              	.LASF64:
 22733 1e65 725F7072 		.ascii	"r_prio\000"
 22733      696F00
 22734              	.LASF210:
 22735 1e6c 666F635F 		.ascii	"foc_sensor_mode\000"
 22735      73656E73 
 22735      6F725F6D 
 22735      6F646500 
 22736              	.LASF502:
 22737 1e7c 49544D5F 		.ascii	"ITM_RxBuffer\000"
 22737      52784275 
 22737      66666572 
 22737      00
 22738              	.LASF135:
 22739 1e89 4641554C 		.ascii	"FAULT_CODE_DRV8302\000"
 22739      545F434F 
 22739      44455F44 
 22739      52563833 
 22739      303200
 22740              	.LASF126:
 22741 1e9c 464F435F 		.ascii	"FOC_SENSOR_MODE_HALL\000"
 22741      53454E53 
 22741      4F525F4D 
 22741      4F44455F 
 22741      48414C4C 
 22742              	.LASF15:
 22743 1eb1 6C6F6E67 		.ascii	"long long unsigned int\000"
 22743      206C6F6E 
 22743      6720756E 
 22743      7369676E 
 22743      65642069 
 22744              	.LASF94:
 22745 1ec8 6F666673 		.ascii	"offset\000"
 22745      657400
 22746              	.LASF193:
 22747 1ecf 666F635F 		.ascii	"foc_dt_us\000"
ARM GAS  /tmp/cc0XcXNK.s 			page 425


 22747      64745F75 
 22747      7300
 22748              	.LASF578:
 22749 1ed9 63685265 		.ascii	"chRegSetThreadName\000"
 22749      67536574 
 22749      54687265 
 22749      61644E61 
 22749      6D6500
 22750              	.LASF88:
 22751 1eec 69646C65 		.ascii	"idle_thread_wa\000"
 22751      5F746872 
 22751      6561645F 
 22751      776100
 22752              	.LASF75:
 22753 1efb 76745F66 		.ascii	"vt_func\000"
 22753      756E6300 
 22754              	.LASF549:
 22755 1f03 6D635F69 		.ascii	"mc_interface_set_brake_current\000"
 22755      6E746572 
 22755      66616365 
 22755      5F736574 
 22755      5F627261 
 22756              	.LASF377:
 22757 1f22 434F4D4D 		.ascii	"COMM_SET_CURRENT_BRAKE\000"
 22757      5F534554 
 22757      5F435552 
 22757      52454E54 
 22757      5F425241 
 22758              	.LASF71:
 22759 1f39 63685F76 		.ascii	"ch_virtual_timer\000"
 22759      69727475 
 22759      616C5F74 
 22759      696D6572 
 22759      00
 22760              	.LASF44:
 22761 1f4a 705F666C 		.ascii	"p_flags\000"
 22761      61677300 
 22762              	.LASF102:
 22763 1f52 65776D61 		.ascii	"ewmask\000"
 22763      736B00
 22764              	.LASF529:
 22765 1f59 6D635F69 		.ascii	"mc_interface_get_configuration\000"
 22765      6E746572 
 22765      66616365 
 22765      5F676574 
 22765      5F636F6E 
 22766              	.LASF378:
 22767 1f78 434F4D4D 		.ascii	"COMM_SET_RPM\000"
 22767      5F534554 
 22767      5F52504D 
 22767      00
 22768              	.LASF326:
 22769 1f85 4E52465F 		.ascii	"NRF_RETR_DELAY_3000US\000"
 22769      52455452 
 22769      5F44454C 
 22769      41595F33 
 22769      30303055 
ARM GAS  /tmp/cc0XcXNK.s 			page 426


 22770              	.LASF52:
 22771 1f9b 705F6D74 		.ascii	"p_mtxlist\000"
 22771      786C6973 
 22771      7400
 22772              	.LASF186:
 22773 1fa5 736C5F63 		.ascii	"sl_cycle_int_rpm_br\000"
 22773      79636C65 
 22773      5F696E74 
 22773      5F72706D 
 22773      5F627200 
 22774              	.LASF27:
 22775 1fb9 74737461 		.ascii	"tstate_t\000"
 22775      74655F74 
 22775      00
 22776              	.LASF490:
 22777 1fc2 73656E64 		.ascii	"send_buffer\000"
 22777      5F627566 
 22777      66657200 
 22778              	.LASF248:
 22779 1fce 50504D5F 		.ascii	"PPM_CTRL_TYPE_DUTY\000"
 22779      4354524C 
 22779      5F545950 
 22779      455F4455 
 22779      545900
 22780              	.LASF119:
 22781 1fe1 6D635F63 		.ascii	"mc_comm_mode\000"
 22781      6F6D6D5F 
 22781      6D6F6465 
 22781      00
 22782              	.LASF42:
 22783 1fee 705F6E61 		.ascii	"p_name\000"
 22783      6D6500
 22784              	.LASF429:
 22785 1ff5 464C4153 		.ascii	"FLASH_ERROR_WRP\000"
 22785      485F4552 
 22785      524F525F 
 22785      57525000 
 22786              	.LASF322:
 22787 2005 4E52465F 		.ascii	"NRF_RETR_DELAY_2000US\000"
 22787      52455452 
 22787      5F44454C 
 22787      41595F32 
 22787      30303055 
 22788              	.LASF437:
 22789 201b 5F5F6170 		.ascii	"__ap\000"
 22789      00
 22790              	.LASF479:
 22791 2020 636F6D6D 		.ascii	"commands_send_samples\000"
 22791      616E6473 
 22791      5F73656E 
 22791      645F7361 
 22791      6D706C65 
 22792              	.LASF254:
 22793 2036 50504D5F 		.ascii	"PPM_CTRL_TYPE_CRUISE_CONTROL_SECONDARY_CHANNEL\000"
 22793      4354524C 
 22793      5F545950 
 22793      455F4352 
ARM GAS  /tmp/cc0XcXNK.s 			page 427


 22793      55495345 
 22794              	.LASF545:
 22795 2065 6170705F 		.ascii	"app_get_configuration\000"
 22795      6765745F 
 22795      636F6E66 
 22795      69677572 
 22795      6174696F 
 22796              	.LASF147:
 22797 207b 64697370 		.ascii	"disp_pos_mode\000"
 22797      5F706F73 
 22797      5F6D6F64 
 22797      6500
 22798              	.LASF77:
 22799 2089 76697274 		.ascii	"virtual_timers_list_t\000"
 22799      75616C5F 
 22799      74696D65 
 22799      72735F6C 
 22799      6973745F 
 22800              	.LASF530:
 22801 209f 6170705F 		.ascii	"app_nunchuk_get_decoded_chuk\000"
 22801      6E756E63 
 22801      68756B5F 
 22801      6765745F 
 22801      6465636F 
 22802              	.LASF113:
 22803 20bc 50574D5F 		.ascii	"PWM_MODE_NONSYNCHRONOUS_HISW\000"
 22803      4D4F4445 
 22803      5F4E4F4E 
 22803      53594E43 
 22803      48524F4E 
 22804              	.LASF511:
 22805 20d9 6D635F69 		.ascii	"mc_interface_set_configuration\000"
 22805      6E746572 
 22805      66616365 
 22805      5F736574 
 22805      5F636F6E 
 22806              	.LASF558:
 22807 20f8 6D635F69 		.ascii	"mc_interface_get_amp_hours\000"
 22807      6E746572 
 22807      66616365 
 22807      5F676574 
 22807      5F616D70 
 22808              	.LASF405:
 22809 2113 434F4D4D 		.ascii	"COMM_CUSTOM_APP_DATA\000"
 22809      5F435553 
 22809      544F4D5F 
 22809      4150505F 
 22809      44415441 
 22810              	.LASF318:
 22811 2128 4E52465F 		.ascii	"NRF_RETR_DELAY_1000US\000"
 22811      52455452 
 22811      5F44454C 
 22811      41595F31 
 22811      30303055 
 22812              	.LASF391:
 22813 213e 434F4D4D 		.ascii	"COMM_ROTOR_POSITION\000"
 22813      5F524F54 
ARM GAS  /tmp/cc0XcXNK.s 			page 428


 22813      4F525F50 
 22813      4F534954 
 22813      494F4E00 
 22814              	.LASF104:
 22815 2152 735F7175 		.ascii	"s_queue\000"
 22815      65756500 
 22816              	.LASF286:
 22817 215a 7573655F 		.ascii	"use_filter\000"
 22817      66696C74 
 22817      657200
 22818              	.LASF139:
 22819 2165 6D635F66 		.ascii	"mc_fault_code\000"
 22819      61756C74 
 22819      5F636F64 
 22819      6500
 22820              	.LASF227:
 22821 2173 6D5F6475 		.ascii	"m_duty_ramp_step\000"
 22821      74795F72 
 22821      616D705F 
 22821      73746570 
 22821      00
 22822              	.LASF233:
 22823 2184 6D635F63 		.ascii	"mc_configuration\000"
 22823      6F6E6669 
 22823      67757261 
 22823      74696F6E 
 22823      00
 22824              	.LASF347:
 22825 2195 78335F74 		.ascii	"x3_throttle\000"
 22825      68726F74 
 22825      746C6500 
 22826              	.LASF327:
 22827 21a1 4E52465F 		.ascii	"NRF_RETR_DELAY_3250US\000"
 22827      52455452 
 22827      5F44454C 
 22827      41595F33 
 22827      32353055 
 22828              	.LASF13:
 22829 21b7 6C6F6E67 		.ascii	"long long int\000"
 22829      206C6F6E 
 22829      6720696E 
 22829      7400
 22830              	.LASF568:
 22831 21c5 62756666 		.ascii	"buffer_get_float16\000"
 22831      65725F67 
 22831      65745F66 
 22831      6C6F6174 
 22831      313600
 22832              	.LASF389:
 22833 21d8 434F4D4D 		.ascii	"COMM_TERMINAL_CMD\000"
 22833      5F544552 
 22833      4D494E41 
 22833      4C5F434D 
 22833      4400
 22834              	.LASF274:
 22835 21ea 4144435F 		.ascii	"ADC_CTRL_TYPE_CURRENT\000"
 22835      4354524C 
ARM GAS  /tmp/cc0XcXNK.s 			page 429


 22835      5F545950 
 22835      455F4355 
 22835      5252454E 
 22836              	.LASF312:
 22837 2200 4E52465F 		.ascii	"NRF_CRC_1B\000"
 22837      4352435F 
 22837      314200
 22838              	.LASF164:
 22839 220b 6C5F6D61 		.ascii	"l_max_erpm_fbrake_cc\000"
 22839      785F6572 
 22839      706D5F66 
 22839      6272616B 
 22839      655F6363 
 22840              	.LASF323:
 22841 2220 4E52465F 		.ascii	"NRF_RETR_DELAY_2250US\000"
 22841      52455452 
 22841      5F44454C 
 22841      41595F32 
 22841      32353055 
 22842              	.LASF387:
 22843 2236 434F4D4D 		.ascii	"COMM_GET_APPCONF_DEFAULT\000"
 22843      5F474554 
 22843      5F415050 
 22843      434F4E46 
 22843      5F444546 
 22844              	.LASF257:
 22845 224f 7069645F 		.ascii	"pid_max_erpm\000"
 22845      6D61785F 
 22845      6572706D 
 22845      00
 22846              	.LASF346:
 22847 225c 78325F74 		.ascii	"x2_throttle\000"
 22847      68726F74 
 22847      746C6500 
 22848              	.LASF513:
 22849 2268 6D637077 		.ascii	"mcpwm_foc_encoder_detect\000"
 22849      6D5F666F 
 22849      635F656E 
 22849      636F6465 
 22849      725F6465 
 22850              	.LASF253:
 22851 2281 50504D5F 		.ascii	"PPM_CTRL_TYPE_PID_NOACCELERATION\000"
 22851      4354524C 
 22851      5F545950 
 22851      455F5049 
 22851      445F4E4F 
 22852              	.LASF517:
 22853 22a2 636F6D6D 		.ascii	"comm_can_get_status_msg_index\000"
 22853      5F63616E 
 22853      5F676574 
 22853      5F737461 
 22853      7475735F 
 22854              	.LASF469:
 22855 22c0 696E7665 		.ascii	"inverted\000"
 22855      72746564 
 22855      00
 22856              	.LASF335:
ARM GAS  /tmp/cc0XcXNK.s 			page 430


 22857 22c9 72657472 		.ascii	"retry_delay\000"
 22857      795F6465 
 22857      6C617900 
 22858              	.LASF551:
 22859 22d5 6D635F69 		.ascii	"mc_interface_set_duty\000"
 22859      6E746572 
 22859      66616365 
 22859      5F736574 
 22859      5F647574 
 22860              	.LASF313:
 22861 22eb 4E52465F 		.ascii	"NRF_CRC_2B\000"
 22861      4352435F 
 22861      324200
 22862              	.LASF522:
 22863 22f6 74696D65 		.ascii	"timeout_configure\000"
 22863      6F75745F 
 22863      636F6E66 
 22863      69677572 
 22863      6500
 22864              	.LASF319:
 22865 2308 4E52465F 		.ascii	"NRF_RETR_DELAY_1250US\000"
 22865      52455452 
 22865      5F44454C 
 22865      41595F31 
 22865      32353055 
 22866              	.LASF158:
 22867 231e 6C5F696E 		.ascii	"l_in_current_max\000"
 22867      5F637572 
 22867      72656E74 
 22867      5F6D6178 
 22867      00
 22868              	.LASF41:
 22869 232f 705F6F6C 		.ascii	"p_older\000"
 22869      64657200 
 22870              	.LASF361:
 22871 2337 73656E64 		.ascii	"send_can_status_rate_hz\000"
 22871      5F63616E 
 22871      5F737461 
 22871      7475735F 
 22871      72617465 
 22872              	.LASF510:
 22873 234f 62756666 		.ascii	"buffer_get_float32\000"
 22873      65725F67 
 22873      65745F66 
 22873      6C6F6174 
 22873      333200
 22874              	.LASF55:
 22875 2362 74687265 		.ascii	"thread_reference_t\000"
 22875      61645F72 
 22875      65666572 
 22875      656E6365 
 22875      5F7400
 22876              	.LASF221:
 22877 2375 705F7069 		.ascii	"p_pid_ang_div\000"
 22877      645F616E 
 22877      675F6469 
 22877      7600
ARM GAS  /tmp/cc0XcXNK.s 			page 431


 22878              	.LASF357:
 22879 2383 636F6E74 		.ascii	"controller_id\000"
 22879      726F6C6C 
 22879      65725F69 
 22879      6400
 22880              	.LASF207:
 22881 2391 666F635F 		.ascii	"foc_sl_openloop_time\000"
 22881      736C5F6F 
 22881      70656E6C 
 22881      6F6F705F 
 22881      74696D65 
 22882              	.LASF95:
 22883 23a6 746D5F63 		.ascii	"tm_calibration_t\000"
 22883      616C6962 
 22883      72617469 
 22883      6F6E5F74 
 22883      00
 22884              	.LASF2:
 22885 23b7 5F5F696E 		.ascii	"__int8_t\000"
 22885      74385F74 
 22885      00
 22886              	.LASF180:
 22887 23c0 6C6F5F69 		.ascii	"lo_in_current_min\000"
 22887      6E5F6375 
 22887      7272656E 
 22887      745F6D69 
 22887      6E00
 22888              	.LASF419:
 22889 23d2 72785F74 		.ascii	"rx_time\000"
 22889      696D6500 
 22890              	.LASF259:
 22891 23da 70756C73 		.ascii	"pulse_start\000"
 22891      655F7374 
 22891      61727400 
 22892              	.LASF561:
 22893 23e6 6D635F69 		.ascii	"mc_interface_get_watt_hours_charged\000"
 22893      6E746572 
 22893      66616365 
 22893      5F676574 
 22893      5F776174 
 22894              	.LASF575:
 22895 240a 474E5520 		.ascii	"GNU C 4.9.3 20150529 (release) [ARM/embedded-4_9-br"
 22895      4320342E 
 22895      392E3320 
 22895      32303135 
 22895      30353239 
 22896 243d 616E6368 		.ascii	"anch revision 227977] -mcpu=cortex-m4 -mfloat-abi=h"
 22896      20726576 
 22896      6973696F 
 22896      6E203232 
 22896      37393737 
 22897 2470 61726420 		.ascii	"ard -mfpu=fpv4-sp-d16 -mno-thumb-interwork -mthumb "
 22897      2D6D6670 
 22897      753D6670 
 22897      76342D73 
 22897      702D6431 
 22898 24a3 2D676764 		.ascii	"-ggdb -O2 -std=gnu99 -fomit-frame-pointer -falign-f"
ARM GAS  /tmp/cc0XcXNK.s 			page 432


 22898      62202D4F 
 22898      32202D73 
 22898      74643D67 
 22898      6E753939 
 22899 24d6 756E6374 		.ascii	"unctions=16 -ffunction-sections -fdata-sections -fn"
 22899      696F6E73 
 22899      3D313620 
 22899      2D666675 
 22899      6E637469 
 22900 2509 6F2D636F 		.ascii	"o-common -fsingle-precision-constant\000"
 22900      6D6D6F6E 
 22900      202D6673 
 22900      696E676C 
 22900      652D7072 
 22901              	.LASF175:
 22902 252e 6C5F6D69 		.ascii	"l_min_duty\000"
 22902      6E5F6475 
 22902      747900
 22903              	.LASF246:
 22904 2539 50504D5F 		.ascii	"PPM_CTRL_TYPE_CURRENT_NOREV\000"
 22904      4354524C 
 22904      5F545950 
 22904      455F4355 
 22904      5252454E 
 22905              	.LASF151:
 22906 2555 73656E73 		.ascii	"sensor_port_mode\000"
 22906      6F725F70 
 22906      6F72745F 
 22906      6D6F6465 
 22906      00
 22907              	.LASF532:
 22908 2566 6170705F 		.ascii	"app_adc_get_voltage\000"
 22908      6164635F 
 22908      6765745F 
 22908      766F6C74 
 22908      61676500 
 22909              	.LASF127:
 22910 257a 6D635F66 		.ascii	"mc_foc_sensor_mode\000"
 22910      6F635F73 
 22910      656E736F 
 22910      725F6D6F 
 22910      646500
 22911              	.LASF16:
 22912 258d 756E7369 		.ascii	"unsigned int\000"
 22912      676E6564 
 22912      20696E74 
 22912      00
 22913              	.LASF504:
 22914 259a 63684576 		.ascii	"chEvtWaitAny\000"
 22914      74576169 
 22914      74416E79 
 22914      00
 22915              	.LASF279:
 22916 25a7 4144435F 		.ascii	"ADC_CTRL_TYPE_CURRENT_NOREV_BRAKE_ADC\000"
 22916      4354524C 
 22916      5F545950 
 22916      455F4355 
ARM GAS  /tmp/cc0XcXNK.s 			page 433


 22916      5252454E 
 22917              	.LASF6:
 22918 25cd 73686F72 		.ascii	"short int\000"
 22918      7420696E 
 22918      7400
 22919              	.LASF450:
 22920 25d7 64656369 		.ascii	"decimation\000"
 22920      6D617469 
 22920      6F6E00
 22921              	.LASF506:
 22922 25e2 636F6D6D 		.ascii	"commands_send_packet\000"
 22922      616E6473 
 22922      5F73656E 
 22922      645F7061 
 22922      636B6574 
 22923              	.LASF128:
 22924 25f7 4D4F544F 		.ascii	"MOTOR_TYPE_BLDC\000"
 22924      525F5459 
 22924      50455F42 
 22924      4C444300 
 22925              	.LASF436:
 22926 2607 5F5F7661 		.ascii	"__va_list\000"
 22926      5F6C6973 
 22926      7400
 22927              	.LASF43:
 22928 2611 705F7374 		.ascii	"p_state\000"
 22928      61746500 
 22929              	.LASF58:
 22930 2619 63685F74 		.ascii	"ch_threads_list\000"
 22930      68726561 
 22930      64735F6C 
 22930      69737400 
 22931              	.LASF118:
 22932 2629 434F4D4D 		.ascii	"COMM_MODE_DELAY\000"
 22932      5F4D4F44 
 22932      455F4445 
 22932      4C415900 
 22933              	.LASF443:
 22934 2639 73746172 		.ascii	"start\000"
 22934      7400
 22935              	.LASF230:
 22936 263f 6D5F656E 		.ascii	"m_encoder_counts\000"
 22936      636F6465 
 22936      725F636F 
 22936      756E7473 
 22936      00
 22937              		.ident	"GCC: (GNU Tools for ARM Embedded Processors) 4.9.3 20150529 (release) [ARM/embedded-4_9-br
ARM GAS  /tmp/cc0XcXNK.s 			page 434


DEFINED SYMBOLS
                            *ABS*:00000000 commands.c
     /tmp/cc0XcXNK.s:21     .text.detect_thread:00000000 $t
     /tmp/cc0XcXNK.s:26     .text.detect_thread:00000000 detect_thread
     /tmp/cc0XcXNK.s:209    .text.detect_thread:000000c8 $d
     /tmp/cc0XcXNK.s:228    .text.commands_init:00000000 $t
     /tmp/cc0XcXNK.s:234    .text.commands_init:00000000 commands_init
     /tmp/cc0XcXNK.s:266    .text.commands_init:00000020 $d
     /tmp/cc0XcXNK.s:273    .text.commands_set_send_func:00000000 $t
     /tmp/cc0XcXNK.s:279    .text.commands_set_send_func:00000000 commands_set_send_func
     /tmp/cc0XcXNK.s:294    .text.commands_set_send_func:00000008 $d
     /tmp/cc0XcXNK.s:299    .text.commands_send_packet:00000000 $t
     /tmp/cc0XcXNK.s:305    .text.commands_send_packet:00000000 commands_send_packet
     /tmp/cc0XcXNK.s:325    .text.commands_send_packet:0000000c $d
     /tmp/cc0XcXNK.s:330    .text.commands_process_packet:00000000 $t
     /tmp/cc0XcXNK.s:336    .text.commands_process_packet:00000000 commands_process_packet
     /tmp/cc0XcXNK.s:386    .text.commands_process_packet:0000002a $d
     /tmp/cc0XcXNK.s:427    .text.commands_process_packet:0000007a $t
     /tmp/cc0XcXNK.s:878    .text.commands_process_packet:00000410 $d
     /tmp/cc0XcXNK.s:885    .text.commands_process_packet:00000428 $t
     /tmp/cc0XcXNK.s:1718   .text.commands_process_packet:00000958 $d
     /tmp/cc0XcXNK.s:1737   .text.commands_process_packet:00000988 $t
     /tmp/cc0XcXNK.s:1821   .text.commands_process_packet:00000a04 $d
     /tmp/cc0XcXNK.s:1831   .text.commands_process_packet:00000a1c $t
     /tmp/cc0XcXNK.s:2314   .text.commands_process_packet:00000dac $d
     /tmp/cc0XcXNK.s:2318   .text.commands_process_packet:00000db8 $t
     /tmp/cc0XcXNK.s:2544   .text.commands_process_packet:00000f80 $d
     /tmp/cc0XcXNK.s:2547   .text.commands_process_packet:00000f84 $t
     /tmp/cc0XcXNK.s:3054   .text.commands_process_packet:000012f0 $d
     /tmp/cc0XcXNK.s:3061   .text.commands_process_packet:00001304 $t
     /tmp/cc0XcXNK.s:3461   .text.commands_process_packet:0000158c $d
     /tmp/cc0XcXNK.s:3472   .text.commands_process_packet:000015ac $t
     /tmp/cc0XcXNK.s:4716   .text.commands_process_packet:00001ed0 $d
     /tmp/cc0XcXNK.s:4735   .text.commands_process_packet:00001f08 $t
     /tmp/cc0XcXNK.s:5103   .text.commands_process_packet:000020f0 $d
     /tmp/cc0XcXNK.s:5116   .text.commands_process_packet:0000210c $t
     /tmp/cc0XcXNK.s:5773   .text.commands_process_packet:000024f0 $d
     /tmp/cc0XcXNK.s:5793   .text.commands_printf:00000000 $t
     /tmp/cc0XcXNK.s:5799   .text.commands_printf:00000000 commands_printf
     /tmp/cc0XcXNK.s:5878   .text.commands_printf:0000003c $d
     /tmp/cc0XcXNK.s:5884   .text.commands_send_samples:00000000 $t
     /tmp/cc0XcXNK.s:5890   .text.commands_send_samples:00000000 commands_send_samples
     /tmp/cc0XcXNK.s:5974   .text.commands_send_samples:00000048 $d
     /tmp/cc0XcXNK.s:5980   .text.commands_send_rotor_pos:00000000 $t
     /tmp/cc0XcXNK.s:5986   .text.commands_send_rotor_pos:00000000 commands_send_rotor_pos
     /tmp/cc0XcXNK.s:6053   .text.commands_send_rotor_pos:00000038 $d
     /tmp/cc0XcXNK.s:6059   .text.commands_send_experiment_samples:00000000 $t
     /tmp/cc0XcXNK.s:6065   .text.commands_send_experiment_samples:00000000 commands_send_experiment_samples
     /tmp/cc0XcXNK.s:6191   .text.commands_send_experiment_samples:00000074 $d
     /tmp/cc0XcXNK.s:6197   .text.commands_get_disp_pos_mode:00000000 $t
     /tmp/cc0XcXNK.s:6203   .text.commands_get_disp_pos_mode:00000000 commands_get_disp_pos_mode
     /tmp/cc0XcXNK.s:6218   .text.commands_get_disp_pos_mode:00000008 $d
     /tmp/cc0XcXNK.s:6223   .text.commands_set_app_data_handler:00000000 $t
     /tmp/cc0XcXNK.s:6229   .text.commands_set_app_data_handler:00000000 commands_set_app_data_handler
     /tmp/cc0XcXNK.s:6244   .text.commands_set_app_data_handler:00000008 $d
     /tmp/cc0XcXNK.s:6249   .text.commands_send_app_data:00000000 $t
     /tmp/cc0XcXNK.s:6255   .text.commands_send_app_data:00000000 commands_send_app_data
ARM GAS  /tmp/cc0XcXNK.s 			page 435


     /tmp/cc0XcXNK.s:6328   .text.commands_send_app_data:0000002c $d
     /tmp/cc0XcXNK.s:6336   .bss.send_func:00000000 $d
     /tmp/cc0XcXNK.s:6340   .bss.send_func:00000000 send_func
     /tmp/cc0XcXNK.s:6343   .bss.detect_min_rpm:00000000 $d
     /tmp/cc0XcXNK.s:6347   .bss.detect_min_rpm:00000000 detect_min_rpm
     /tmp/cc0XcXNK.s:6350   .bss.appdata_func:00000000 $d
     /tmp/cc0XcXNK.s:6354   .bss.appdata_func:00000000 appdata_func
     /tmp/cc0XcXNK.s:6357   .bss.detect_hall_table:00000000 $d
     /tmp/cc0XcXNK.s:6361   .bss.detect_hall_table:00000000 detect_hall_table
     /tmp/cc0XcXNK.s:6367   .bss.remote_Mode:00000000 remote_Mode
     /tmp/cc0XcXNK.s:6368   .bss.remote_Mode:00000000 $d
     /tmp/cc0XcXNK.s:6370   .bss.mcconf.11352:00000000 $d
     /tmp/cc0XcXNK.s:6374   .bss.mcconf.11352:00000000 mcconf.11352
     /tmp/cc0XcXNK.s:6377   .bss.mcconf_old.11353:00000000 $d
     /tmp/cc0XcXNK.s:6381   .bss.mcconf_old.11353:00000000 mcconf_old.11353
     /tmp/cc0XcXNK.s:6384   .bss.detect_hall_res:00000000 $d
     /tmp/cc0XcXNK.s:6388   .bss.detect_hall_res:00000000 detect_hall_res
     /tmp/cc0XcXNK.s:6391   .bss.detect_thread_wa:00000000 $d
     /tmp/cc0XcXNK.s:6395   .bss.detect_thread_wa:00000000 detect_thread_wa
     /tmp/cc0XcXNK.s:6398   .bss.send_buffer:00000000 $d
     /tmp/cc0XcXNK.s:6402   .bss.send_buffer:00000000 send_buffer
     /tmp/cc0XcXNK.s:6405   .rodata.str1.4:00000000 $d
     /tmp/cc0XcXNK.s:6409   .bss.detect_tp:00000000 $d
     /tmp/cc0XcXNK.s:6413   .bss.detect_tp:00000000 detect_tp
     /tmp/cc0XcXNK.s:6416   .bss.detect_low_duty:00000000 $d
     /tmp/cc0XcXNK.s:6420   .bss.detect_low_duty:00000000 detect_low_duty
     /tmp/cc0XcXNK.s:6423   .bss.print_buffer.11457:00000000 $d
     /tmp/cc0XcXNK.s:6427   .bss.print_buffer.11457:00000000 print_buffer.11457
     /tmp/cc0XcXNK.s:6430   .bss.detect_current:00000000 $d
     /tmp/cc0XcXNK.s:6434   .bss.detect_current:00000000 detect_current
     /tmp/cc0XcXNK.s:6437   .bss.detect_coupling_k:00000000 $d
     /tmp/cc0XcXNK.s:6441   .bss.detect_coupling_k:00000000 detect_coupling_k
     /tmp/cc0XcXNK.s:6444   .bss.detect_cycle_int_limit:00000000 $d
     /tmp/cc0XcXNK.s:6448   .bss.detect_cycle_int_limit:00000000 detect_cycle_int_limit
     /tmp/cc0XcXNK.s:6454   .bss.display_position_mode:00000000 display_position_mode
     /tmp/cc0XcXNK.s:6455   .bss.display_position_mode:00000000 $d
                     .debug_frame:00000010 $d

UNDEFINED SYMBOLS
chEvtWaitAny
conf_general_detect_motor_param
buffer_append_int32
ch
chThdCreateStatic
conf_general_get_default_mc_configuration
buffer_append_float32
buffer_append_uint32
mc_interface_get_configuration
memcpy
mcpwm_set_detect
timeout_reset
servodec_get_servo
servodec_get_last_pulse_len
app_nunchuk_get_decoded_chuk
app_adc_get_decoded_level
app_adc_get_voltage
app_adc_get_decoded_level2
ARM GAS  /tmp/cc0XcXNK.s 			page 436


app_adc_get_voltage2
buffer_get_float32
mc_interface_set_configuration
mcpwm_foc_hall_detect
encoder_is_configured
mcpwm_foc_encoder_detect
conf_general_measure_flux_linkage
mcpwm_foc_measure_res_ind
conf_general_get_default_app_configuration
buffer_append_uint16
terminal_process_string
buffer_get_int32
buffer_get_uint32
conf_general_store_mc_configuration
chEvtSignal
buffer_get_uint16
mc_interface_sample_print_data
app_get_configuration
conf_general_store_app_configuration
app_set_configuration
timeout_configure
mc_interface_set_pid_pos
mc_interface_set_pid_speed
mc_interface_set_brake_current
mc_interface_set_current
mc_interface_set_duty
logf
buffer_append_float16
mc_interface_read_reset_avg_motor_current
mc_interface_read_reset_avg_input_current
mc_interface_get_duty_cycle_now
mc_interface_get_rpm
mc_interface_get_amp_hours
mc_interface_get_amp_hours_charged
mc_interface_get_watt_hours
mc_interface_get_watt_hours_charged
mc_interface_get_tachometer_value
mc_interface_get_tachometer_abs_value
mc_interface_get_fault
ADC_Value
flash_helper_write_new_app_data
flash_helper_erase_new_app
flash_helper_jump_to_bootloader
buffer_append_int16
comm_can_get_status_msg_index
comm_can_send_buffer
buffer_get_float16
conf_general_read_app_configuration
conf_general_read_mc_configuration
buffer_get_int16
app_nunchuk_update_output
memset
mc_interface_release_motor
vsnprintf
