ARM GAS  /tmp/ccSQtpaj.s 			page 1


   1              		.syntax unified
   2              		.cpu cortex-m4
   3              		.eabi_attribute 27, 1
   4              		.eabi_attribute 28, 1
   5              		.fpu fpv4-sp-d16
   6              		.eabi_attribute 20, 1
   7              		.eabi_attribute 21, 1
   8              		.eabi_attribute 23, 3
   9              		.eabi_attribute 24, 1
  10              		.eabi_attribute 25, 1
  11              		.eabi_attribute 26, 1
  12              		.eabi_attribute 30, 2
  13              		.eabi_attribute 34, 1
  14              		.eabi_attribute 18, 4
  15              		.thumb
  16              		.file	"mcpwm.c"
  17              		.text
  18              	.Ltext0:
  19              		.cfi_sections	.debug_frame
  20              		.section	.text.update_adc_sample_pos,"ax",%progbits
  21              		.align	2
  22              		.p2align 4,,15
  23              		.thumb
  24              		.thumb_func
  25              		.type	update_adc_sample_pos, %function
  26              	update_adc_sample_pos:
  27              	.LFB311:
  28              		.file 1 "mcpwm.c"
  29              		.loc 1 2149 0
  30              		.cfi_startproc
  31              		@ args = 0, pretend = 0, frame = 24
  32              		@ frame_needed = 0, uses_anonymous_args = 0
  33              	.LVL0:
  34 0000 F0B5     		push	{r4, r5, r6, r7, lr}
  35              		.cfi_def_cfa_offset 20
  36              		.cfi_offset 4, -20
  37              		.cfi_offset 5, -16
  38              		.cfi_offset 6, -12
  39              		.cfi_offset 7, -8
  40              		.cfi_offset 14, -4
  41 0002 87B0     		sub	sp, sp, #28
  42              		.cfi_def_cfa_offset 48
  43              		.loc 1 2150 0
  44 0004 8268     		ldr	r2, [r0, #8]
  45 0006 0192     		str	r2, [sp, #4]
  46              		.loc 1 2151 0
  47 0008 4268     		ldr	r2, [r0, #4]
  48 000a 0292     		str	r2, [sp, #8]
  49              		.loc 1 2152 0
  50 000c C268     		ldr	r2, [r0, #12]
  51 000e 0392     		str	r2, [sp, #12]
  52              		.loc 1 2153 0
  53 0010 0269     		ldr	r2, [r0, #16]
  54 0012 0492     		str	r2, [sp, #16]
  55              		.loc 1 2154 0
  56 0014 4269     		ldr	r2, [r0, #20]
  57              		.loc 1 2156 0
ARM GAS  /tmp/ccSQtpaj.s 			page 2


  58 0016 754B     		ldr	r3, .L45
  59              		.loc 1 2154 0
  60 0018 0592     		str	r2, [sp, #20]
  61              		.loc 1 2156 0
  62 001a DDED027A 		flds	s15, [sp, #8]	@ int
  63 001e 1A68     		ldr	r2, [r3]
  64 0020 F8EE677A 		fuitos	s15, s15
  65 0024 92ED147A 		flds	s14, [r2, #80]
  66 0028 019B     		ldr	r3, [sp, #4]
  67 002a 67EE877A 		fmuls	s15, s15, s14
  68 002e FCEEE77A 		ftouizs	s15, s15
  69 0032 17EE901A 		fmrs	r1, s15	@ int
  70 0036 9942     		cmp	r1, r3
  71 0038 0BD2     		bcs	.L2
  72              		.loc 1 2157 0
  73 003a DDED027A 		flds	s15, [sp, #8]	@ int
  74 003e 92ED147A 		flds	s14, [r2, #80]
  75 0042 F8EE677A 		fuitos	s15, s15
  76 0046 67EE877A 		fmuls	s15, s15, s14
  77 004a FCEEE77A 		ftouizs	s15, s15
  78 004e CDED017A 		fsts	s15, [sp, #4]	@ int
  79              	.L2:
  80              		.loc 1 2160 0
  81 0052 6749     		ldr	r1, .L45+4
  82 0054 0023     		movs	r3, #0
  83 0056 0B60     		str	r3, [r1]
  84              		.loc 1 2162 0
  85 0058 9378     		ldrb	r3, [r2, #2]	@ zero_extendqisi2
  86 005a DBB2     		uxtb	r3, r3
  87 005c 012B     		cmp	r3, #1
  88 005e 3DD0     		beq	.L42
  89              		.loc 1 2180 0
  90 0060 644B     		ldr	r3, .L45+8
  91 0062 1B78     		ldrb	r3, [r3]	@ zero_extendqisi2
  92 0064 012B     		cmp	r3, #1
  93 0066 00F08480 		beq	.L43
  94              		.loc 1 2188 0
  95 006a 1378     		ldrb	r3, [r2]	@ zero_extendqisi2
  96 006c 022B     		cmp	r3, #2
  97 006e 43D0     		beq	.L44
  98              		.loc 1 2268 0
  99 0070 019B     		ldr	r3, [sp, #4]
 100 0072 5B08     		lsrs	r3, r3, #1
 101 0074 0393     		str	r3, [sp, #12]
 102              		.loc 1 2271 0
 103 0076 029B     		ldr	r3, [sp, #8]
 104 0078 019C     		ldr	r4, [sp, #4]
 105 007a 019A     		ldr	r2, [sp, #4]
 106 007c 1B1B     		subs	r3, r3, r4
 107 007e 02EB5303 		add	r3, r2, r3, lsr #1
 108 0082 0493     		str	r3, [sp, #16]
 109              		.loc 1 2272 0
 110 0084 029B     		ldr	r3, [sp, #8]
 111 0086 049A     		ldr	r2, [sp, #16]
 112 0088 463B     		subs	r3, r3, #70
 113 008a 9342     		cmp	r3, r2
 114 008c 02D2     		bcs	.L21
ARM GAS  /tmp/ccSQtpaj.s 			page 3


 115              		.loc 1 2273 0
 116 008e 029B     		ldr	r3, [sp, #8]
 117 0090 463B     		subs	r3, r3, #70
 118 0092 0493     		str	r3, [sp, #16]
 119              	.L21:
 120              		.loc 1 2276 0
 121 0094 049B     		ldr	r3, [sp, #16]
 122 0096 0593     		str	r3, [sp, #20]
 123              		.loc 1 2280 0
 124 0098 029A     		ldr	r2, [sp, #8]
 125 009a 019B     		ldr	r3, [sp, #4]
 126 009c B3EB520F 		cmp	r3, r2, lsr #1
 127 00a0 14D9     		bls	.L5
 128              		.loc 1 2302 0
 129 00a2 554B     		ldr	r3, .L45+12
 130 00a4 1B68     		ldr	r3, [r3]
 131 00a6 002B     		cmp	r3, #0
 132 00a8 50D0     		beq	.L22
 133              		.loc 1 2303 0
 134 00aa 544B     		ldr	r3, .L45+16
 135 00ac 1B68     		ldr	r3, [r3]
 136 00ae 013B     		subs	r3, r3, #1
 137 00b0 052B     		cmp	r3, #5
 138 00b2 0BD8     		bhi	.L5
 139 00b4 DFE803F0 		tbb	[pc, r3]
 140              	.L24:
 141 00b8 57       		.byte	(.L35-.L24)/2
 142 00b9 54       		.byte	(.L33-.L24)/2
 143 00ba 54       		.byte	(.L33-.L24)/2
 144 00bb 5A       		.byte	(.L36-.L24)/2
 145 00bc 5A       		.byte	(.L36-.L24)/2
 146 00bd 57       		.byte	(.L35-.L24)/2
 147              	.LVL1:
 148              		.p2align 1
 149              	.L12:
 150              	.LBB74:
 151              		.loc 1 2232 0
 152 00be 4E4B     		ldr	r3, .L45+12
 153 00c0 1B68     		ldr	r3, [r3]
 154 00c2 002B     		cmp	r3, #0
 155 00c4 00F08C80 		beq	.L18
 156              	.L39:
 157              		.loc 1 2233 0
 158 00c8 0497     		str	r7, [sp, #16]
 159              		.loc 1 2234 0
 160 00ca 0592     		str	r2, [sp, #20]
 161              	.LVL2:
 162              	.L5:
 163              	.LBE74:
 164              		.loc 1 2328 0
 165 00cc 039B     		ldr	r3, [sp, #12]
 166 00ce C360     		str	r3, [r0, #12]
 167              		.loc 1 2329 0
 168 00d0 049B     		ldr	r3, [sp, #16]
 169 00d2 0361     		str	r3, [r0, #16]
 170              		.loc 1 2330 0
 171 00d4 059B     		ldr	r3, [sp, #20]
ARM GAS  /tmp/ccSQtpaj.s 			page 4


 172 00d6 4361     		str	r3, [r0, #20]
 173              		.loc 1 2331 0
 174 00d8 07B0     		add	sp, sp, #28
 175              		.cfi_remember_state
 176              		.cfi_def_cfa_offset 20
 177              		@ sp needed
 178 00da F0BD     		pop	{r4, r5, r6, r7, pc}
 179              	.L42:
 180              		.cfi_restore_state
 181              		.loc 1 2163 0
 182 00dc 029A     		ldr	r2, [sp, #8]
 183 00de 0A3A     		subs	r2, r2, #10
 184 00e0 0492     		str	r2, [sp, #16]
 185              		.loc 1 2164 0
 186 00e2 029A     		ldr	r2, [sp, #8]
 187 00e4 0A3A     		subs	r2, r2, #10
 188 00e6 0592     		str	r2, [sp, #20]
 189              		.loc 1 2166 0
 190 00e8 019A     		ldr	r2, [sp, #4]
 191 00ea B2F57A7F 		cmp	r2, #1000
 192 00ee 27D9     		bls	.L4
 193              		.loc 1 2167 0
 194 00f0 019B     		ldr	r3, [sp, #4]
 195 00f2 5B08     		lsrs	r3, r3, #1
 196 00f4 0393     		str	r3, [sp, #12]
 197 00f6 E9E7     		b	.L5
 198              	.L44:
 199              	.LBB75:
 200              		.loc 1 2189 0
 201 00f8 029E     		ldr	r6, [sp, #8]
 202              		.loc 1 2190 0
 203 00fa 029C     		ldr	r4, [sp, #8]
 204 00fc 019A     		ldr	r2, [sp, #4]
 205 00fe 019D     		ldr	r5, [sp, #4]
 206              		.loc 1 2191 0
 207 0100 029F     		ldr	r7, [sp, #8]
 208              		.loc 1 2194 0
 209 0102 029B     		ldr	r3, [sp, #8]
 210              		.loc 1 2197 0
 211 0104 DFF8F4E0 		ldr	lr, .L45+16
 212              		.loc 1 2194 0
 213 0108 9B08     		lsrs	r3, r3, #2
 214 010a 0393     		str	r3, [sp, #12]
 215              		.loc 1 2197 0
 216 010c DEF80030 		ldr	r3, [lr]
 217              		.loc 1 2190 0
 218 0110 A21A     		subs	r2, r4, r2
 219              		.loc 1 2197 0
 220 0112 013B     		subs	r3, r3, #1
 221              		.loc 1 2189 0
 222 0114 023E     		subs	r6, r6, #2
 223              	.LVL3:
 224              		.loc 1 2190 0
 225 0116 05EB5202 		add	r2, r5, r2, lsr #1
 226              	.LVL4:
 227              		.loc 1 2191 0
 228 011a 023F     		subs	r7, r7, #2
ARM GAS  /tmp/ccSQtpaj.s 			page 5


 229              	.LVL5:
 230              		.loc 1 2197 0
 231 011c 052B     		cmp	r3, #5
 232 011e D5D8     		bhi	.L5
 233 0120 01A4     		adr	r4, .L9
 234 0122 54F823F0 		ldr	pc, [r4, r3, lsl #2]
 235 0126 00BF     		.p2align 2
 236              	.L9:
 237 0128 D7010000 		.word	.L8+1
 238 012c C5010000 		.word	.L10+1
 239 0130 B9010000 		.word	.L11+1
 240 0134 BF000000 		.word	.L12+1
 241 0138 A7010000 		.word	.L13+1
 242 013c 97010000 		.word	.L14+1
 243              	.LVL6:
 244              		.p2align 1
 245              	.L4:
 246              	.LBE75:
 247              		.loc 1 2169 0
 248 0140 019A     		ldr	r2, [sp, #4]
 249 0142 02F54872 		add	r2, r2, #800
 250 0146 0392     		str	r2, [sp, #12]
 251              		.loc 1 2170 0
 252 0148 0B60     		str	r3, [r1]
 253 014a BFE7     		b	.L5
 254              	.L22:
 255              		.loc 1 2313 0
 256 014c 2B4B     		ldr	r3, .L45+16
 257 014e 1B68     		ldr	r3, [r3]
 258 0150 013B     		subs	r3, r3, #1
 259 0152 052B     		cmp	r3, #5
 260 0154 BAD8     		bhi	.L5
 261 0156 DFE803F0 		tbb	[pc, r3]
 262              	.L31:
 263 015a 09       		.byte	(.L36-.L31)/2
 264 015b 03       		.byte	(.L33-.L31)/2
 265 015c 03       		.byte	(.L33-.L31)/2
 266 015d 06       		.byte	(.L35-.L31)/2
 267 015e 06       		.byte	(.L35-.L31)/2
 268 015f 09       		.byte	(.L36-.L31)/2
 269              		.p2align 1
 270              	.L33:
 271              		.loc 1 2316 0
 272 0160 0223     		movs	r3, #2
 273 0162 0B60     		str	r3, [r1]
 274 0164 B2E7     		b	.L5
 275              	.L35:
 276              		.loc 1 2318 0
 277 0166 0323     		movs	r3, #3
 278 0168 0B60     		str	r3, [r1]
 279 016a AFE7     		b	.L5
 280              	.L36:
 281              		.loc 1 2319 0
 282 016c 0123     		movs	r3, #1
 283 016e 0B60     		str	r3, [r1]
 284 0170 ACE7     		b	.L5
 285              	.L43:
ARM GAS  /tmp/ccSQtpaj.s 			page 6


 286              		.loc 1 2182 0
 287 0172 019B     		ldr	r3, [sp, #4]
 288 0174 5B08     		lsrs	r3, r3, #1
 289 0176 0393     		str	r3, [sp, #12]
 290              		.loc 1 2185 0
 291 0178 029B     		ldr	r3, [sp, #8]
 292 017a 0199     		ldr	r1, [sp, #4]
 293 017c 019A     		ldr	r2, [sp, #4]
 294 017e 5B1A     		subs	r3, r3, r1
 295 0180 02EB5303 		add	r3, r2, r3, lsr #1
 296 0184 0493     		str	r3, [sp, #16]
 297              		.loc 1 2186 0
 298 0186 029B     		ldr	r3, [sp, #8]
 299 0188 0199     		ldr	r1, [sp, #4]
 300 018a 019A     		ldr	r2, [sp, #4]
 301 018c 5B1A     		subs	r3, r3, r1
 302 018e 02EB5303 		add	r3, r2, r3, lsr #1
 303 0192 0593     		str	r3, [sp, #20]
 304 0194 9AE7     		b	.L5
 305              	.LVL7:
 306              	.L14:
 307              	.LBB76:
 308              		.loc 1 2255 0
 309 0196 184B     		ldr	r3, .L45+12
 310 0198 1B68     		ldr	r3, [r3]
 311 019a 43B1     		cbz	r3, .L20
 312              	.L38:
 313              		.loc 1 2258 0
 314 019c 0123     		movs	r3, #1
 315              		.loc 1 2256 0
 316 019e 0496     		str	r6, [sp, #16]
 317              		.loc 1 2257 0
 318 01a0 0597     		str	r7, [sp, #20]
 319              		.loc 1 2258 0
 320 01a2 0B60     		str	r3, [r1]
 321 01a4 92E7     		b	.L5
 322              	.L13:
 323              		.loc 1 2243 0
 324 01a6 144B     		ldr	r3, .L45+12
 325 01a8 1B68     		ldr	r3, [r3]
 326 01aa 002B     		cmp	r3, #0
 327 01ac F6D0     		beq	.L38
 328              	.L20:
 329              		.loc 1 2262 0
 330 01ae 0123     		movs	r3, #1
 331              		.loc 1 2260 0
 332 01b0 0496     		str	r6, [sp, #16]
 333              		.loc 1 2261 0
 334 01b2 0592     		str	r2, [sp, #20]
 335              		.loc 1 2262 0
 336 01b4 0B60     		str	r3, [r1]
 337 01b6 89E7     		b	.L5
 338              	.L11:
 339              		.loc 1 2221 0
 340 01b8 0F4B     		ldr	r3, .L45+12
 341 01ba 1B68     		ldr	r3, [r3]
 342 01bc 33B1     		cbz	r3, .L17
ARM GAS  /tmp/ccSQtpaj.s 			page 7


 343              	.L40:
 344              		.loc 1 2222 0
 345 01be 0492     		str	r2, [sp, #16]
 346              		.loc 1 2223 0
 347 01c0 0597     		str	r7, [sp, #20]
 348 01c2 83E7     		b	.L5
 349              	.L10:
 350              		.loc 1 2210 0
 351 01c4 0C4B     		ldr	r3, .L45+12
 352 01c6 1B68     		ldr	r3, [r3]
 353 01c8 002B     		cmp	r3, #0
 354 01ca F8D0     		beq	.L40
 355              	.L17:
 356              		.loc 1 2227 0
 357 01cc 0223     		movs	r3, #2
 358              		.loc 1 2225 0
 359 01ce 0492     		str	r2, [sp, #16]
 360              		.loc 1 2226 0
 361 01d0 0596     		str	r6, [sp, #20]
 362              		.loc 1 2227 0
 363 01d2 0B60     		str	r3, [r1]
 364 01d4 7AE7     		b	.L5
 365              	.L8:
 366              		.loc 1 2199 0
 367 01d6 084B     		ldr	r3, .L45+12
 368 01d8 1B68     		ldr	r3, [r3]
 369 01da 002B     		cmp	r3, #0
 370 01dc 3FF474AF 		beq	.L39
 371              	.L18:
 372              		.loc 1 2238 0
 373 01e0 0223     		movs	r3, #2
 374              		.loc 1 2236 0
 375 01e2 0497     		str	r7, [sp, #16]
 376              		.loc 1 2237 0
 377 01e4 0596     		str	r6, [sp, #20]
 378              		.loc 1 2238 0
 379 01e6 0B60     		str	r3, [r1]
 380 01e8 70E7     		b	.L5
 381              	.L46:
 382 01ea 00BF     		.align	2
 383              	.L45:
 384 01ec 00000000 		.word	.LANCHOR0
 385 01f0 00000000 		.word	.LANCHOR1
 386 01f4 00000000 		.word	.LANCHOR2
 387 01f8 00000000 		.word	.LANCHOR4
 388 01fc 00000000 		.word	.LANCHOR3
 389              	.LBE76:
 390              		.cfi_endproc
 391              	.LFE311:
 392              		.size	update_adc_sample_pos, .-update_adc_sample_pos
 393              		.section	.text.update_rpm_tacho,"ax",%progbits
 394              		.align	2
 395              		.p2align 4,,15
 396              		.thumb
 397              		.thumb_func
 398              		.type	update_rpm_tacho, %function
 399              	update_rpm_tacho:
ARM GAS  /tmp/ccSQtpaj.s 			page 8


 400              	.LFB312:
 401              		.loc 1 2333 0
 402              		.cfi_startproc
 403              		@ args = 0, pretend = 0, frame = 0
 404              		@ frame_needed = 0, uses_anonymous_args = 0
 405              		@ link register save eliminated.
 406              		.loc 1 2334 0
 407 0000 1E4B     		ldr	r3, .L60
 408              		.loc 1 2336 0
 409 0002 1F48     		ldr	r0, .L60+4
 410              		.loc 1 2334 0
 411 0004 1968     		ldr	r1, [r3]
 412              		.loc 1 2336 0
 413 0006 0268     		ldr	r2, [r0]
 414 0008 1E4B     		ldr	r3, .L60+8
 415              		.loc 1 2334 0
 416 000a 0139     		subs	r1, r1, #1
 417              	.LVL8:
 418              		.loc 1 2336 0
 419 000c 8A1A     		subs	r2, r1, r2
 420              		.loc 1 2333 0
 421 000e 30B4     		push	{r4, r5}
 422              		.cfi_def_cfa_offset 8
 423              		.cfi_offset 4, -8
 424              		.cfi_offset 5, -4
 425              		.loc 1 2336 0
 426 0010 83FB0243 		smull	r4, r3, r3, r2
 427 0014 A3EBE273 		sub	r3, r3, r2, asr #31
 428 0018 03EB4303 		add	r3, r3, r3, lsl #1
 429 001c A2EB4303 		sub	r3, r2, r3, lsl #1
 430              	.LVL9:
 431              		.loc 1 2339 0
 432 0020 032B     		cmp	r3, #3
 433              		.loc 1 2337 0
 434 0022 0160     		str	r1, [r0]
 435              		.loc 1 2339 0
 436 0024 1DDD     		ble	.L48
 437              		.loc 1 2340 0
 438 0026 063B     		subs	r3, r3, #6
 439              	.LVL10:
 440              	.L54:
 441              		.loc 1 2346 0
 442 0028 174A     		ldr	r2, .L60+12
 443 002a 5169     		ldr	r1, [r2, #20]
 444              	.LVL11:
 445              		.loc 1 2347 0
 446 002c 4FF08040 		mov	r0, #1073741824
 447              		.loc 1 2346 0
 448 0030 1944     		add	r1, r1, r3
 449 0032 5161     		str	r1, [r2, #20]
 450              		.loc 1 2347 0
 451 0034 416A     		ldr	r1, [r0, #36]
 452 0036 9569     		ldr	r5, [r2, #24]
 453              		.loc 1 2348 0
 454 0038 0024     		movs	r4, #0
 455              		.loc 1 2347 0
 456 003a 2944     		add	r1, r1, r5
ARM GAS  /tmp/ccSQtpaj.s 			page 9


 457 003c 9161     		str	r1, [r2, #24]
 458              		.loc 1 2348 0
 459 003e 4462     		str	r4, [r0, #36]
 460              	.LVL12:
 461              	.L51:
 462              		.loc 1 2352 0
 463 0040 1248     		ldr	r0, .L60+16
 464              		.loc 1 2353 0
 465 0042 1349     		ldr	r1, .L60+20
 466              		.loc 1 2352 0
 467 0044 0268     		ldr	r2, [r0]
 468              		.loc 1 2355 0
 469 0046 134C     		ldr	r4, .L60+24
 470              		.loc 1 2352 0
 471 0048 1A44     		add	r2, r2, r3
 472 004a 0260     		str	r2, [r0]
 473              		.loc 1 2353 0
 474 004c 0A68     		ldr	r2, [r1]
 475 004e 1A44     		add	r2, r2, r3
 476 0050 0A60     		str	r2, [r1]
 477              		.loc 1 2355 0
 478 0052 2268     		ldr	r2, [r4]
 479              		.loc 1 2356 0
 480 0054 1049     		ldr	r1, .L60+28
 481              		.loc 1 2355 0
 482 0056 5AB9     		cbnz	r2, .L59
 483              		.loc 1 2358 0
 484 0058 0A68     		ldr	r2, [r1]
 485 005a D31A     		subs	r3, r2, r3
 486              	.LVL13:
 487 005c 0B60     		str	r3, [r1]
 488              		.loc 1 2360 0
 489 005e 30BC     		pop	{r4, r5}
 490              		.cfi_remember_state
 491              		.cfi_restore 5
 492              		.cfi_restore 4
 493              		.cfi_def_cfa_offset 0
 494 0060 7047     		bx	lr
 495              	.LVL14:
 496              	.L48:
 497              		.cfi_restore_state
 498              		.loc 1 2341 0
 499 0062 9A1C     		adds	r2, r3, #2
 500 0064 01DA     		bge	.L50
 501              		.loc 1 2342 0
 502 0066 0633     		adds	r3, r3, #6
 503              	.LVL15:
 504 0068 DEE7     		b	.L54
 505              	.L50:
 506              		.loc 1 2345 0
 507 006a 002B     		cmp	r3, #0
 508 006c E8D0     		beq	.L51
 509 006e DBE7     		b	.L54
 510              	.LVL16:
 511              	.L59:
 512              		.loc 1 2356 0
 513 0070 0A68     		ldr	r2, [r1]
ARM GAS  /tmp/ccSQtpaj.s 			page 10


 514 0072 1344     		add	r3, r3, r2
 515              	.LVL17:
 516 0074 0B60     		str	r3, [r1]
 517              		.loc 1 2360 0
 518 0076 30BC     		pop	{r4, r5}
 519              		.cfi_restore 4
 520              		.cfi_restore 5
 521              		.cfi_def_cfa_offset 0
 522 0078 7047     		bx	lr
 523              	.L61:
 524 007a 00BF     		.align	2
 525              	.L60:
 526 007c 00000000 		.word	.LANCHOR3
 527 0080 00000000 		.word	.LANCHOR5
 528 0084 ABAAAA2A 		.word	715827883
 529 0088 00000000 		.word	.LANCHOR6
 530 008c 00000000 		.word	.LANCHOR7
 531 0090 00000000 		.word	.LANCHOR8
 532 0094 00000000 		.word	.LANCHOR4
 533 0098 00000000 		.word	.LANCHOR9
 534              		.cfi_endproc
 535              	.LFE312:
 536              		.size	update_rpm_tacho, .-update_rpm_tacho
 537              		.section	.text.update_sensor_mode,"ax",%progbits
 538              		.align	2
 539              		.p2align 4,,15
 540              		.thumb
 541              		.thumb_func
 542              		.type	update_sensor_mode, %function
 543              	update_sensor_mode:
 544              	.LFB313:
 545              		.loc 1 2362 0
 546              		.cfi_startproc
 547              		@ args = 0, pretend = 0, frame = 0
 548              		@ frame_needed = 0, uses_anonymous_args = 0
 549              		@ link register save eliminated.
 550              		.loc 1 2363 0
 551 0000 114B     		ldr	r3, .L73
 552 0002 1B68     		ldr	r3, [r3]
 553 0004 DA78     		ldrb	r2, [r3, #3]	@ zero_extendqisi2
 554 0006 BAB1     		cbz	r2, .L63
 555              		.loc 1 2364 0 discriminator 1
 556 0008 DA78     		ldrb	r2, [r3, #3]	@ zero_extendqisi2
 557              		.loc 1 2363 0 discriminator 1
 558 000a 022A     		cmp	r2, #2
 559 000c 03D0     		beq	.L72
 560              	.L64:
 561              		.loc 1 2368 0
 562 000e 0F4B     		ldr	r3, .L73+4
 563 0010 0022     		movs	r2, #0
 564 0012 1A70     		strb	r2, [r3]
 565 0014 7047     		bx	lr
 566              	.L72:
 567              	.LBB77:
 568              	.LBB78:
 569              		.loc 1 712 0
 570 0016 0E4A     		ldr	r2, .L73+8
ARM GAS  /tmp/ccSQtpaj.s 			page 11


 571 0018 1268     		ldr	r2, [r2]
 572 001a 8AB9     		cbnz	r2, .L65
 573 001c 0D4A     		ldr	r2, .L73+12
 574 001e D2ED007A 		flds	s15, [r2]
 575 0022 F1EE677A 		fnegs	s15, s15
 576              	.L66:
 577              	.LBE78:
 578              	.LBE77:
 579              		.loc 1 2365 0
 580 0026 93ED227A 		flds	s14, [r3, #136]
 581 002a F0EEE77A 		fabss	s15, s15
 582              		.loc 1 2364 0
 583 002e F4EEC77A 		fcmpes	s15, s14
 584 0032 F1EE10FA 		fmstat
 585 0036 EADD     		ble	.L64
 586              	.L63:
 587              		.loc 1 2366 0
 588 0038 044B     		ldr	r3, .L73+4
 589 003a 0122     		movs	r2, #1
 590 003c 1A70     		strb	r2, [r3]
 591 003e 7047     		bx	lr
 592              	.L65:
 593              	.LBB80:
 594              	.LBB79:
 595              		.loc 1 712 0
 596 0040 044A     		ldr	r2, .L73+12
 597 0042 D2ED007A 		flds	s15, [r2]
 598 0046 EEE7     		b	.L66
 599              	.L74:
 600              		.align	2
 601              	.L73:
 602 0048 00000000 		.word	.LANCHOR0
 603 004c 00000000 		.word	.LANCHOR11
 604 0050 00000000 		.word	.LANCHOR4
 605 0054 00000000 		.word	.LANCHOR10
 606              	.LBE79:
 607              	.LBE80:
 608              		.cfi_endproc
 609              	.LFE313:
 610              		.size	update_sensor_mode, .-update_sensor_mode
 611              		.section	.text.update_timer_attempt,"ax",%progbits
 612              		.align	2
 613              		.p2align 4,,15
 614              		.thumb
 615              		.thumb_func
 616              		.type	update_timer_attempt, %function
 617              	update_timer_attempt:
 618              	.LFB316:
 619              		.loc 1 2424 0
 620              		.cfi_startproc
 621              		@ args = 0, pretend = 0, frame = 0
 622              		@ frame_needed = 0, uses_anonymous_args = 0
 623 0000 08B5     		push	{r3, lr}
 624              		.cfi_def_cfa_offset 8
 625              		.cfi_offset 3, -8
 626              		.cfi_offset 14, -4
 627              		.loc 1 2425 0
ARM GAS  /tmp/ccSQtpaj.s 			page 12


 628 0002 FFF7FEFF 		bl	utils_sys_lock_cnt
 629              	.LVL18:
 630              		.loc 1 2428 0
 631 0006 194A     		ldr	r2, .L78
 632 0008 1378     		ldrb	r3, [r2]	@ zero_extendqisi2
 633 000a 002B     		cmp	r3, #0
 634 000c 2AD1     		bne	.L76
 635              		.loc 1 2428 0 is_stmt 0 discriminator 1
 636 000e 184B     		ldr	r3, .L78+4
 637 0010 596A     		ldr	r1, [r3, #36]
 638 0012 0A29     		cmp	r1, #10
 639 0014 26D9     		bls	.L76
 640              		.loc 1 2428 0 discriminator 2
 641 0016 586A     		ldr	r0, [r3, #36]
 642 0018 D96A     		ldr	r1, [r3, #44]
 643 001a A1F5FA71 		sub	r1, r1, #500
 644 001e 8842     		cmp	r0, r1
 645 0020 20D2     		bcs	.L76
 646              		.loc 1 2430 0 is_stmt 1
 647 0022 1868     		ldr	r0, [r3]
 648              		.loc 1 2431 0
 649 0024 1349     		ldr	r1, .L78+8
 650              		.loc 1 2430 0
 651 0026 40F00200 		orr	r0, r0, #2
 652 002a 1860     		str	r0, [r3]
 653              		.loc 1 2431 0
 654 002c 0868     		ldr	r0, [r1]
 655 002e 40F00200 		orr	r0, r0, #2
 656 0032 0860     		str	r0, [r1]
 657              		.loc 1 2434 0
 658 0034 5068     		ldr	r0, [r2, #4]
 659 0036 D862     		str	r0, [r3, #44]
 660              		.loc 1 2435 0
 661 0038 9068     		ldr	r0, [r2, #8]
 662 003a 5863     		str	r0, [r3, #52]
 663              		.loc 1 2436 0
 664 003c 9068     		ldr	r0, [r2, #8]
 665 003e 9863     		str	r0, [r3, #56]
 666              		.loc 1 2437 0
 667 0040 9068     		ldr	r0, [r2, #8]
 668 0042 D863     		str	r0, [r3, #60]
 669              		.loc 1 2438 0
 670 0044 D068     		ldr	r0, [r2, #12]
 671 0046 4863     		str	r0, [r1, #52]
 672              		.loc 1 2439 0
 673 0048 1069     		ldr	r0, [r2, #16]
 674 004a 1864     		str	r0, [r3, #64]
 675              		.loc 1 2440 0
 676 004c 5069     		ldr	r0, [r2, #20]
 677 004e 8863     		str	r0, [r1, #56]
 678              		.loc 1 2443 0
 679 0050 1868     		ldr	r0, [r3]
 680 0052 20F00200 		bic	r0, r0, #2
 681 0056 1860     		str	r0, [r3]
 682              		.loc 1 2444 0
 683 0058 0B68     		ldr	r3, [r1]
 684              		.loc 1 2445 0
ARM GAS  /tmp/ccSQtpaj.s 			page 13


 685 005a 0120     		movs	r0, #1
 686              		.loc 1 2444 0
 687 005c 23F00203 		bic	r3, r3, #2
 688 0060 0B60     		str	r3, [r1]
 689              		.loc 1 2445 0
 690 0062 1070     		strb	r0, [r2]
 691              	.L76:
 692              		.loc 1 2449 0
 693 0064 BDE80840 		pop	{r3, lr}
 694              		.cfi_restore 14
 695              		.cfi_restore 3
 696              		.cfi_def_cfa_offset 0
 697              		.loc 1 2448 0
 698 0068 FFF7FEBF 		b	utils_sys_unlock_cnt
 699              	.LVL19:
 700              	.L79:
 701              		.align	2
 702              	.L78:
 703 006c 00000000 		.word	.LANCHOR12
 704 0070 00000140 		.word	1073807360
 705 0074 00040140 		.word	1073808384
 706              		.cfi_endproc
 707              	.LFE316:
 708              		.size	update_timer_attempt, .-update_timer_attempt
 709              		.section	.text.set_next_timer_settings,"ax",%progbits
 710              		.align	2
 711              		.p2align 4,,15
 712              		.thumb
 713              		.thumb_func
 714              		.type	set_next_timer_settings, %function
 715              	set_next_timer_settings:
 716              	.LFB315:
 717              		.loc 1 2411 0
 718              		.cfi_startproc
 719              		@ args = 0, pretend = 0, frame = 0
 720              		@ frame_needed = 0, uses_anonymous_args = 0
 721              	.LVL20:
 722 0000 70B5     		push	{r4, r5, r6, lr}
 723              		.cfi_def_cfa_offset 16
 724              		.cfi_offset 4, -16
 725              		.cfi_offset 5, -12
 726              		.cfi_offset 6, -8
 727              		.cfi_offset 14, -4
 728              		.loc 1 2411 0
 729 0002 0446     		mov	r4, r0
 730              		.loc 1 2412 0
 731 0004 FFF7FEFF 		bl	utils_sys_lock_cnt
 732              	.LVL21:
 733              		.loc 1 2413 0
 734 0008 0FCC     		ldmia	r4!, {r0, r1, r2, r3}
 735              	.LVL22:
 736 000a 074E     		ldr	r6, .L82
 737 000c 3546     		mov	r5, r6
 738 000e 0FC5     		stmia	r5!, {r0, r1, r2, r3}
 739 0010 94E80300 		ldmia	r4, {r0, r1}
 740              		.loc 1 2414 0
 741 0014 0023     		movs	r3, #0
ARM GAS  /tmp/ccSQtpaj.s 			page 14


 742              		.loc 1 2413 0
 743 0016 85E80300 		stmia	r5, {r0, r1}
 744              		.loc 1 2414 0
 745 001a 3370     		strb	r3, [r6]
 746              		.loc 1 2415 0
 747 001c FFF7FEFF 		bl	utils_sys_unlock_cnt
 748              	.LVL23:
 749              		.loc 1 2418 0
 750 0020 BDE87040 		pop	{r4, r5, r6, lr}
 751              		.cfi_restore 14
 752              		.cfi_restore 6
 753              		.cfi_restore 5
 754              		.cfi_restore 4
 755              		.cfi_def_cfa_offset 0
 756              	.LVL24:
 757              		.loc 1 2417 0
 758 0024 FFF7FEBF 		b	update_timer_attempt
 759              	.LVL25:
 760              	.L83:
 761              		.align	2
 762              	.L82:
 763 0028 00000000 		.word	.LANCHOR12
 764              		.cfi_endproc
 765              	.LFE315:
 766              		.size	set_next_timer_settings, .-set_next_timer_settings
 767              		.section	.text.set_duty_cycle_hw,"ax",%progbits
 768              		.align	2
 769              		.p2align 4,,15
 770              		.thumb
 771              		.thumb_func
 772              		.type	set_duty_cycle_hw, %function
 773              	set_duty_cycle_hw:
 774              	.LFB291:
 775              		.loc 1 1052 0
 776              		.cfi_startproc
 777              		@ args = 0, pretend = 0, frame = 32
 778              		@ frame_needed = 0, uses_anonymous_args = 0
 779              	.LVL26:
 780 0000 70B5     		push	{r4, r5, r6, lr}
 781              		.cfi_def_cfa_offset 16
 782              		.cfi_offset 4, -16
 783              		.cfi_offset 5, -12
 784              		.cfi_offset 6, -8
 785              		.cfi_offset 14, -4
 786              		.loc 1 1056 0
 787 0002 414D     		ldr	r5, .L100
 788              		.loc 1 1059 0
 789 0004 414E     		ldr	r6, .L100+4
 790              		.loc 1 1052 0
 791 0006 88B0     		sub	sp, sp, #32
 792              		.cfi_def_cfa_offset 48
 793              		.loc 1 1052 0
 794 0008 8DED010A 		fsts	s0, [sp, #4]
 795              		.loc 1 1055 0
 796 000c FFF7FEFF 		bl	utils_sys_lock_cnt
 797              	.LVL27:
 798              		.loc 1 1056 0
ARM GAS  /tmp/ccSQtpaj.s 			page 15


 799 0010 0FCD     		ldmia	r5!, {r0, r1, r2, r3}
 800 0012 02AC     		add	r4, sp, #8
 801 0014 0FC4     		stmia	r4!, {r0, r1, r2, r3}
 802 0016 95E80300 		ldmia	r5, {r0, r1}
 803 001a 84E80300 		stmia	r4, {r0, r1}
 804              		.loc 1 1057 0
 805 001e FFF7FEFF 		bl	utils_sys_unlock_cnt
 806              	.LVL28:
 807              		.loc 1 1059 0
 808 0022 3368     		ldr	r3, [r6]
 809 0024 01A8     		add	r0, sp, #4
 810              	.LVL29:
 811 0026 93ED130A 		flds	s0, [r3, #76]
 812 002a D3ED140A 		flds	s1, [r3, #80]
 813 002e FFF7FEFF 		bl	utils_truncate_number
 814              	.LVL30:
 815              		.loc 1 1061 0
 816 0032 3268     		ldr	r2, [r6]
 817 0034 9378     		ldrb	r3, [r2, #2]	@ zero_extendqisi2
 818 0036 13B9     		cbnz	r3, .L85
 819              		.loc 1 1061 0 is_stmt 0 discriminator 1
 820 0038 1378     		ldrb	r3, [r2]	@ zero_extendqisi2
 821 003a 022B     		cmp	r3, #2
 822 003c 3FD0     		beq	.L98
 823              	.L85:
 824              		.loc 1 1065 0 is_stmt 1
 825 003e DDED037A 		flds	s15, [sp, #12]	@ int
 826 0042 9DED017A 		flds	s14, [sp, #4]
 827 0046 F8EE677A 		fuitos	s15, s15
 828 004a 67EE877A 		fmuls	s15, s15, s14
 829 004e FCEEE77A 		ftouizs	s15, s15
 830 0052 CDED007A 		fsts	s15, [sp]	@ int
 831 0056 BDF80030 		ldrh	r3, [sp]
 832 005a 0493     		str	r3, [sp, #16]
 833              		.loc 1 1068 0
 834 005c 9378     		ldrb	r3, [r2, #2]	@ zero_extendqisi2
 835 005e 012B     		cmp	r3, #1
 836 0060 4DD0     		beq	.L99
 837              	.L87:
 838              		.loc 1 1071 0
 839 0062 2B4B     		ldr	r3, .L100+8
 840 0064 1B78     		ldrb	r3, [r3]	@ zero_extendqisi2
 841 0066 012B     		cmp	r3, #1
 842 0068 25D0     		beq	.L89
 843              		.loc 1 1071 0 is_stmt 0 discriminator 1
 844 006a 1378     		ldrb	r3, [r2]	@ zero_extendqisi2
 845 006c 022B     		cmp	r3, #2
 846 006e 22D0     		beq	.L89
 847              		.loc 1 1075 0 is_stmt 1
 848 0070 9FED286A 		flds	s12, .L100+12
 849              		.loc 1 1074 0
 850 0074 DFED286A 		flds	s13, .L100+16
 851 0078 284B     		ldr	r3, .L100+20
 852 007a B0EEC77A 		fabss	s14, s14
 853 007e F7EE007A 		fconsts	s15, #112
 854 0082 77EEC77A 		fsubs	s15, s15, s14
 855              		.loc 1 1075 0
ARM GAS  /tmp/ccSQtpaj.s 			page 16


 856 0086 27EE067A 		fmuls	s14, s14, s12
 857              		.loc 1 1074 0
 858 008a A7EEA67A 		vfma.f32	s14, s15, s13
 859 008e 83ED007A 		fsts	s14, [r3]
 860              	.L88:
 861              		.loc 1 1079 0
 862 0092 D3ED007A 		flds	s15, [r3]
 863 0096 224A     		ldr	r2, .L100+24
 864 0098 FDEEE77A 		ftosizs	s15, s15
 865              		.loc 1 1080 0
 866 009c 02A8     		add	r0, sp, #8
 867              		.loc 1 1079 0
 868 009e 17EE903A 		fmrs	r3, s15	@ int
 869 00a2 92FBF3F3 		sdiv	r3, r2, r3
 870 00a6 0393     		str	r3, [sp, #12]
 871              		.loc 1 1080 0
 872 00a8 FFF7FEFF 		bl	update_adc_sample_pos
 873              	.LVL31:
 874              		.loc 1 1081 0
 875 00ac 02A8     		add	r0, sp, #8
 876 00ae FFF7FEFF 		bl	set_next_timer_settings
 877              	.LVL32:
 878              		.loc 1 1082 0
 879 00b2 08B0     		add	sp, sp, #32
 880              		.cfi_remember_state
 881              		.cfi_def_cfa_offset 16
 882              		@ sp needed
 883 00b4 70BD     		pop	{r4, r5, r6, pc}
 884              	.LVL33:
 885              	.L89:
 886              		.cfi_restore_state
 887              		.loc 1 1072 0
 888 00b6 194B     		ldr	r3, .L100+20
 889 00b8 1A4A     		ldr	r2, .L100+28
 890 00ba 1A60     		str	r2, [r3]	@ float
 891 00bc E9E7     		b	.L88
 892              	.L98:
 893              		.loc 1 1061 0 discriminator 2
 894 00be 144B     		ldr	r3, .L100+8
 895 00c0 1B78     		ldrb	r3, [r3]	@ zero_extendqisi2
 896 00c2 012B     		cmp	r3, #1
 897 00c4 BBD0     		beq	.L85
 898              		.loc 1 1062 0
 899 00c6 DDED036A 		flds	s13, [sp, #12]	@ int
 900              		.loc 1 1063 0
 901 00ca DDED037A 		flds	s15, [sp, #12]	@ int
 902 00ce 9DED017A 		flds	s14, [sp, #4]
 903              		.loc 1 1062 0
 904 00d2 F8EE666A 		fuitos	s13, s13
 905              		.loc 1 1063 0
 906 00d6 F8EE677A 		fuitos	s15, s15
 907              		.loc 1 1062 0
 908 00da B6EE006A 		fconsts	s12, #96
 909 00de 66EE866A 		fmuls	s13, s13, s12
 910              		.loc 1 1063 0
 911 00e2 67EE867A 		fmuls	s15, s15, s12
 912 00e6 E6EE877A 		vfma.f32	s15, s13, s14
ARM GAS  /tmp/ccSQtpaj.s 			page 17


 913              		.loc 1 1062 0
 914 00ea FCEEE77A 		ftouizs	s15, s15
 915 00ee CDED007A 		fsts	s15, [sp]	@ int
 916 00f2 BDF80030 		ldrh	r3, [sp]
 917 00f6 0493     		str	r3, [sp, #16]
 918              		.loc 1 1068 0
 919 00f8 9378     		ldrb	r3, [r2, #2]	@ zero_extendqisi2
 920 00fa 012B     		cmp	r3, #1
 921 00fc B1D1     		bne	.L87
 922              	.L99:
 923              		.loc 1 1069 0
 924 00fe 074B     		ldr	r3, .L100+20
 925 0100 094A     		ldr	r2, .L100+32
 926 0102 1A60     		str	r2, [r3]	@ float
 927 0104 C5E7     		b	.L88
 928              	.L101:
 929 0106 00BF     		.align	2
 930              	.L100:
 931 0108 00000000 		.word	.LANCHOR12
 932 010c 00000000 		.word	.LANCHOR0
 933 0110 00000000 		.word	.LANCHOR2
 934 0114 00401C47 		.word	1193033728
 935 0118 00803B45 		.word	1161527296
 936 011c 00000000 		.word	.LANCHOR13
 937 0120 007A030A 		.word	168000000
 938 0124 00401C47 		.word	1193033728
 939 0128 0050C346 		.word	1187205120
 940              		.cfi_endproc
 941              	.LFE291:
 942              		.size	set_duty_cycle_hw, .-set_duty_cycle_hw
 943              		.section	.text.rpm_thread,"ax",%progbits
 944              		.align	2
 945              		.p2align 4,,15
 946              		.thumb
 947              		.thumb_func
 948              		.type	rpm_thread, %function
 949              	rpm_thread:
 950              	.LFB294:
 951              		.loc 1 1181 0
 952              		.cfi_startproc
 953              		@ args = 0, pretend = 0, frame = 8
 954              		@ frame_needed = 0, uses_anonymous_args = 0
 955              	.LVL34:
 956              	.LBB91:
 957              	.LBB92:
 958              		.file 2 "ChibiOS_3.0.2/os/rt/include/chregistry.h"
 959              		.loc 2 135 0
 960 0000 DA4B     		ldr	r3, .L140
 961 0002 DB49     		ldr	r1, .L140+4
 962 0004 9A69     		ldr	r2, [r3, #24]
 963              	.LBE92:
 964              	.LBE91:
 965              	.LBB94:
 966              		.loc 1 1187 0
 967 0006 DB4B     		ldr	r3, .L140+8
 968              	.LBE94:
 969              	.LBB117:
ARM GAS  /tmp/ccSQtpaj.s 			page 18


 970              	.LBB93:
 971              		.loc 2 135 0
 972 0008 9161     		str	r1, [r2, #24]
 973              	.LBE93:
 974              	.LBE117:
 975              	.LBB118:
 976              		.loc 1 1187 0
 977 000a 1B78     		ldrb	r3, [r3]	@ zero_extendqisi2
 978 000c 002B     		cmp	r3, #0
 979 000e 40F0FB81 		bne	.L136
 980              	.LBE118:
 981              		.loc 1 1181 0
 982 0012 2DE9F04F 		push	{r4, r5, r6, r7, r8, r9, r10, fp, lr}
 983              		.cfi_def_cfa_offset 36
 984              		.cfi_offset 4, -36
 985              		.cfi_offset 5, -32
 986              		.cfi_offset 6, -28
 987              		.cfi_offset 7, -24
 988              		.cfi_offset 8, -20
 989              		.cfi_offset 9, -16
 990              		.cfi_offset 10, -12
 991              		.cfi_offset 11, -8
 992              		.cfi_offset 14, -4
 993 0016 2DED0A8B 		fstmfdd	sp!, {d8, d9, d10, d11, d12}
 994              		.cfi_def_cfa_offset 76
 995              		.cfi_offset 80, -76
 996              		.cfi_offset 81, -72
 997              		.cfi_offset 82, -68
 998              		.cfi_offset 83, -64
 999              		.cfi_offset 84, -60
 1000              		.cfi_offset 85, -56
 1001              		.cfi_offset 86, -52
 1002              		.cfi_offset 87, -48
 1003              		.cfi_offset 88, -44
 1004              		.cfi_offset 89, -40
 1005 001a DFF88C83 		ldr	r8, .L140+60
 1006 001e DFF880B3 		ldr	fp, .L140+52
 1007 0022 D54E     		ldr	r6, .L140+12
 1008 0024 D54C     		ldr	r4, .L140+16
 1009 0026 D64D     		ldr	r5, .L140+20
 1010 0028 D64F     		ldr	r7, .L140+24
 1011 002a DFF898A3 		ldr	r10, .L140+88
 1012              	.LBB119:
 1013              	.LBB95:
 1014              		.loc 1 1203 0
 1015 002e 9FEDD6AA 		flds	s20, .L140+28
 1016              	.LBE95:
 1017              	.LBB96:
 1018              		.loc 1 1200 0
 1019 0032 DFEDD6AA 		flds	s21, .L140+32
 1020 0036 DFEDD68A 		flds	s17, .L140+36
 1021              	.LBE96:
 1022              		.loc 1 1220 0
 1023 003a DFEDD69A 		flds	s19, .L140+40
 1024              		.loc 1 1234 0
 1025 003e 9FEDD69A 		flds	s18, .L140+44
 1026              	.LBB97:
ARM GAS  /tmp/ccSQtpaj.s 			page 19


 1027              	.LBB98:
 1028              		.loc 1 1105 0
 1029 0042 9FEDD6BA 		flds	s22, .L140+48
 1030              	.LBE98:
 1031              	.LBE97:
 1032              	.LBE119:
 1033              		.loc 1 1181 0
 1034 0046 83B0     		sub	sp, sp, #12
 1035              		.cfi_def_cfa_offset 88
 1036 0048 B4E0     		b	.L103
 1037              	.LVL35:
 1038              	.L104:
 1039              	.LBB120:
 1040              	.LBB111:
 1041              		.loc 1 1203 0
 1042 004a 4FF08042 		mov	r2, #1073741824
 1043 004e D2ED097A 		flds	s15, [r2, #36]	@ int
 1044              		.loc 1 1205 0
 1045 0052 9BED007A 		flds	s14, [fp]
 1046 0056 D24A     		ldr	r2, .L140+52
 1047              		.loc 1 1203 0
 1048 0058 F8EE677A 		fuitos	s15, s15
 1049 005c F1EE086A 		fconsts	s13, #24
 1050 0060 67EEA67A 		fmuls	s15, s15, s13
 1051              		.loc 1 1205 0
 1052 0064 B0EEC77A 		fabss	s14, s14
 1053              		.loc 1 1203 0
 1054 0068 CAEE277A 		fdivs	s15, s20, s15
 1055              	.LVL36:
 1056              		.loc 1 1205 0
 1057 006c F0EEE76A 		fabss	s13, s15
 1058 0070 F4EEC76A 		fcmpes	s13, s14
 1059 0074 F1EE10FA 		fmstat
 1060              		.loc 1 1206 0
 1061 0078 48BF     		it	mi
 1062 007a C2ED007A 		fstsmi	s15, [r2]
 1063              	.LVL37:
 1064              	.L105:
 1065              	.LBE111:
 1066              		.loc 1 1212 0
 1067 007e DBED007A 		flds	s15, [fp]
 1068 0082 96ED007A 		flds	s14, [r6]
 1069              		.loc 1 1217 0
 1070 0086 2068     		ldr	r0, [r4]
 1071              		.loc 1 1220 0
 1072 0088 DFEDC20A 		flds	s1, .L140+40
 1073              		.loc 1 1218 0
 1074 008c DFF81893 		ldr	r9, .L140+60
 1075              		.loc 1 1212 0
 1076 0090 77EE877A 		fadds	s15, s15, s14
 1077 0094 B6EE007A 		fconsts	s14, #96
 1078 0098 67EE877A 		fmuls	s15, s15, s14
 1079 009c CBED007A 		fsts	s15, [fp]
 1080              		.loc 1 1213 0
 1081 00a0 DBF800E0 		ldr	lr, [fp]	@ float
 1082              		.loc 1 1214 0
 1083 00a4 9BED008A 		flds	s16, [fp]
ARM GAS  /tmp/ccSQtpaj.s 			page 20


 1084              		.loc 1 1217 0
 1085 00a8 026F     		ldr	r2, [r0, #112]	@ float
 1086 00aa C8F80020 		str	r2, [r8]	@ float
 1087              		.loc 1 1218 0
 1088 00ae D8ED006A 		flds	s13, [r8]
 1089 00b2 2A8A     		ldrh	r2, [r5, #16]
 1090              		.loc 1 1219 0
 1091 00b4 D0ED1F7A 		flds	s15, [r0, #124]
 1092 00b8 90ED196A 		flds	s12, [r0, #100]
 1093              		.loc 1 1213 0
 1094 00bc C6F800E0 		str	lr, [r6]	@ float
 1095              		.loc 1 1218 0
 1096 00c0 92B2     		uxth	r2, r2
 1097 00c2 07EE102A 		fmsr	s14, r2	@ int
 1098              		.loc 1 1214 0
 1099 00c6 B0EEC88A 		fabss	s16, s16
 1100              	.LVL38:
 1101              		.loc 1 1219 0
 1102 00ca B4EEC68A 		fcmpes	s16, s12
 1103              		.loc 1 1218 0
 1104 00ce B8EE477A 		fuitos	s14, s14
 1105              		.loc 1 1219 0
 1106 00d2 F1EE10FA 		fmstat
 1107              		.loc 1 1218 0
 1108 00d6 27EE277A 		fmuls	s14, s14, s15
 1109              		.loc 1 1219 0
 1110 00da D4BF     		ite	le
 1111 00dc D0ED197A 		fldsle	s15, [r0, #100]
 1112 00e0 F0EE487A 		fcpysgt	s15, s16
 1113 00e4 C7EE277A 		fdivs	s15, s14, s15
 1114              		.loc 1 1220 0
 1115 00e8 B0EE480A 		fcpys	s0, s16
 1116              		.loc 1 1218 0
 1117 00ec 76EEA77A 		fadds	s15, s13, s15
 1118 00f0 C8ED017A 		fsts	s15, [r8, #4]
 1119              		.loc 1 1220 0
 1120 00f4 90ED1E1A 		flds	s2, [r0, #120]
 1121 00f8 D8ED011A 		flds	s3, [r8, #4]
 1122              		.loc 1 1222 0
 1123 00fc 98ED012A 		flds	s4, [r8, #4]
 1124 0100 D0ED1D7A 		flds	s15, [r0, #116]
 1125              		.loc 1 1220 0
 1126 0104 22EE272A 		fmuls	s4, s4, s15
 1127 0108 FFF7FEFF 		bl	utils_map
 1128              	.LVL39:
 1129 010c 88ED010A 		fsts	s0, [r8, #4]
 1130              		.loc 1 1223 0
 1131 0110 D8ED006A 		flds	s13, [r8]
 1132 0114 2A8A     		ldrh	r2, [r5, #16]
 1133              		.loc 1 1224 0
 1134 0116 2068     		ldr	r0, [r4]
 1135              	.LBB112:
 1136              	.LBB107:
 1137              		.loc 1 1091 0
 1138 0118 A24B     		ldr	r3, .L140+56
 1139              	.LBE107:
 1140              	.LBE112:
ARM GAS  /tmp/ccSQtpaj.s 			page 21


 1141              		.loc 1 1223 0
 1142 011a 92B2     		uxth	r2, r2
 1143 011c 07EE902A 		fmsr	s15, r2	@ int
 1144 0120 B8EE677A 		fuitos	s14, s15
 1145              		.loc 1 1224 0
 1146 0124 D0ED1F7A 		flds	s15, [r0, #124]
 1147 0128 D0ED1A5A 		flds	s11, [r0, #104]
 1148              		.loc 1 1230 0
 1149 012c 9E4A     		ldr	r2, .L140+60
 1150              		.loc 1 1223 0
 1151 012e 27EE277A 		fmuls	s14, s14, s15
 1152              		.loc 1 1234 0
 1153 0132 88EE288A 		fdivs	s16, s16, s17
 1154              	.LVL40:
 1155              		.loc 1 1224 0
 1156 0136 C7EE257A 		fdivs	s15, s14, s11
 1157              		.loc 1 1226 0
 1158 013a B7EE006A 		fconsts	s12, #112
 1159              		.loc 1 1223 0
 1160 013e 76EEA77A 		fadds	s15, s13, s15
 1161 0142 C8ED027A 		fsts	s15, [r8, #8]
 1162              		.loc 1 1226 0
 1163 0146 D8ED017A 		flds	s15, [r8, #4]
 1164 014a F4EEC67A 		fcmpes	s15, s12
 1165 014e F1EE10FA 		fmstat
 1166              		.loc 1 1227 0
 1167 0152 48BF     		it	mi
 1168 0154 89ED016A 		fstsmi	s12, [r9, #4]
 1169              		.loc 1 1230 0
 1170 0158 98ED017A 		flds	s14, [r8, #4]
 1171 015c D8ED027A 		flds	s15, [r8, #8]
 1172 0160 B4EEE77A 		fcmpes	s14, s15
 1173              		.loc 1 1234 0
 1174 0164 B1EE087A 		fconsts	s14, #24
 1175 0168 28EE078A 		fmuls	s16, s16, s14
 1176              		.loc 1 1230 0
 1177 016c F1EE10FA 		fmstat
 1178              		.loc 1 1234 0
 1179 0170 89EE088A 		fdivs	s16, s18, s16
 1180              		.loc 1 1231 0
 1181 0174 C4BF     		itt	gt
 1182 0176 D2F808E0 		ldrgt	lr, [r2, #8]	@ float
 1183 017a C2F804E0 		strgt	lr, [r2, #4]	@ float
 1184              		.loc 1 1234 0
 1185 017e 88ED038A 		fsts	s16, [r8, #12]
 1186              		.loc 1 1235 0
 1187 0182 D0ED197A 		flds	s15, [r0, #100]
 1188 0186 C7EEA87A 		fdivs	s15, s15, s17
 1189 018a 67EE877A 		fmuls	s15, s15, s14
 1190 018e C9EE277A 		fdivs	s15, s18, s15
 1191 0192 C8ED047A 		fsts	s15, [r8, #16]
 1192              	.LBB113:
 1193              	.LBB108:
 1194              		.loc 1 1091 0
 1195 0196 1A78     		ldrb	r2, [r3]	@ zero_extendqisi2
 1196 0198 012A     		cmp	r2, #1
 1197 019a 30D0     		beq	.L112
ARM GAS  /tmp/ccSQtpaj.s 			page 22


 1198              	.L114:
 1199              		.loc 1 1092 0
 1200 019c C7ED009A 		fsts	s19, [r7]
 1201              		.loc 1 1093 0
 1202 01a0 CAED009A 		fsts	s19, [r10]
 1203              	.L113:
 1204              	.LBE108:
 1205              	.LBE113:
 1206              		.loc 1 1239 0
 1207 01a4 0A20     		movs	r0, #10
 1208 01a6 FFF7FEFF 		bl	chThdSleep
 1209              	.LVL41:
 1210              		.loc 1 1187 0
 1211 01aa 724B     		ldr	r3, .L140+8
 1212 01ac 1A78     		ldrb	r2, [r3]	@ zero_extendqisi2
 1213 01ae 002A     		cmp	r2, #0
 1214 01b0 40F0C180 		bne	.L138
 1215              	.L103:
 1216              		.loc 1 1192 0
 1217 01b4 D8F81420 		ldr	r2, [r8, #20]
 1218 01b8 DFF8EC91 		ldr	r9, .L140+60
 1219 01bc 002A     		cmp	r2, #0
 1220 01be 3FF444AF 		beq	.L104
 1221              	.LBB114:
 1222              		.loc 1 1193 0
 1223 01c2 FFF7FEFF 		bl	utils_sys_lock_cnt
 1224              	.LVL42:
 1225              		.loc 1 1194 0
 1226 01c6 99ED058A 		flds	s16, [r9, #20]	@ int
 1227              	.LVL43:
 1228              		.loc 1 1195 0
 1229 01ca D9ED06BA 		flds	s23, [r9, #24]	@ int
 1230              	.LVL44:
 1231              		.loc 1 1196 0
 1232 01ce 0022     		movs	r2, #0
 1233 01d0 C9F81420 		str	r2, [r9, #20]
 1234              		.loc 1 1197 0
 1235 01d4 C9F81820 		str	r2, [r9, #24]
 1236              		.loc 1 1198 0
 1237 01d8 FFF7FEFF 		bl	utils_sys_unlock_cnt
 1238              	.LVL45:
 1239              		.loc 1 1194 0
 1240 01dc B8EEC88A 		fsitos	s16, s16
 1241              	.LVL46:
 1242              		.loc 1 1195 0
 1243 01e0 F8EE6BBA 		fuitos	s23, s23
 1244              	.LVL47:
 1245              		.loc 1 1200 0
 1246 01e4 28EE2A8A 		fmuls	s16, s16, s21
 1247              	.LVL48:
 1248 01e8 B1EE087A 		fconsts	s14, #24
 1249 01ec 68EE287A 		fmuls	s15, s16, s17
 1250 01f0 2BEE878A 		fmuls	s16, s23, s14
 1251 01f4 87EE888A 		fdivs	s16, s15, s16
 1252 01f8 8BED008A 		fsts	s16, [fp]
 1253              	.LBE114:
 1254 01fc 3FE7     		b	.L105
ARM GAS  /tmp/ccSQtpaj.s 			page 23


 1255              	.LVL49:
 1256              	.L112:
 1257              	.LBB115:
 1258              	.LBB109:
 1259              		.loc 1 1098 0
 1260 01fe 6B4B     		ldr	r3, .L140+64
 1261 0200 D3ED007A 		flds	s15, [r3]
 1262 0204 90ED3E7A 		flds	s14, [r0, #248]
 1263 0208 F0EEE77A 		fabss	s15, s15
 1264 020c F4EEC77A 		fcmpes	s15, s14
 1265 0210 F1EE10FA 		fmstat
 1266 0214 C2D4     		bmi	.L114
 1267              		.loc 1 1105 0
 1268 0216 2A8A     		ldrh	r2, [r5, #16]
 1269 0218 DFED6B7A 		flds	s15, .L140+92
 1270              		.loc 1 1108 0
 1271 021c 93ED008A 		flds	s16, [r3]
 1272              	.LBB99:
 1273              	.LBB100:
 1274              		.loc 1 712 0
 1275 0220 634B     		ldr	r3, .L140+68
 1276              	.LBE100:
 1277              	.LBE99:
 1278              		.loc 1 1105 0
 1279 0222 92B2     		uxth	r2, r2
 1280 0224 07EE102A 		fmsr	s14, r2	@ int
 1281 0228 B8EE477A 		fuitos	s14, s14
 1282              	.LBB103:
 1283              	.LBB101:
 1284              		.loc 1 712 0
 1285 022c 1A68     		ldr	r2, [r3]
 1286 022e DBED005A 		flds	s11, [fp]
 1287              	.LBE101:
 1288              	.LBE103:
 1289              		.loc 1 1105 0
 1290 0232 27EE0B7A 		fmuls	s14, s14, s22
 1291 0236 B7EE00CA 		fconsts	s24, #112
 1292 023a 67EE277A 		fmuls	s15, s14, s15
 1293 023e 8CEE27CA 		fdivs	s24, s24, s15
 1294              	.LVL50:
 1295              	.LBB104:
 1296              	.LBB102:
 1297              		.loc 1 712 0
 1298 0242 0AB9     		cbnz	r2, .L116
 1299 0244 F1EE655A 		fnegs	s11, s11
 1300              	.L116:
 1301              	.LBE102:
 1302              	.LBE104:
 1303              		.loc 1 1111 0
 1304 0248 D0ED3BCA 		flds	s25, [r0, #236]
 1305              		.loc 1 1112 0
 1306 024c 9FED596A 		flds	s12, .L140+72
 1307 0250 90ED3C7A 		flds	s14, [r0, #240]
 1308              		.loc 1 1113 0
 1309 0254 D0ED3DBA 		flds	s23, [r0, #244]
 1310              		.loc 1 1112 0
 1311 0258 D7ED006A 		flds	s13, [r7]
ARM GAS  /tmp/ccSQtpaj.s 			page 24


 1312              		.loc 1 1113 0
 1313 025c DAED007A 		flds	s15, [r10]
 1314              		.loc 1 1116 0
 1315 0260 4848     		ldr	r0, .L140+24
 1316              		.loc 1 1113 0
 1317 0262 CBEE86BA 		fdivs	s23, s23, s12
 1318              		.loc 1 1108 0
 1319 0266 38EE658A 		fsubs	s16, s16, s11
 1320              	.LVL51:
 1321              		.loc 1 1112 0
 1322 026a 27EE067A 		fmuls	s14, s14, s12
 1323              		.loc 1 1113 0
 1324 026e 78EE677A 		fsubs	s15, s16, s15
 1325              		.loc 1 1112 0
 1326 0272 28EE077A 		fmuls	s14, s16, s14
 1327              		.loc 1 1116 0
 1328 0276 BFEE000A 		fconsts	s0, #240
 1329              		.loc 1 1112 0
 1330 027a ECEE076A 		vfma.f32	s13, s24, s14
 1331              		.loc 1 1116 0
 1332 027e F7EE000A 		fconsts	s1, #112
 1333              		.loc 1 1113 0
 1334 0282 67EEABBA 		fmuls	s23, s15, s23
 1335              		.loc 1 1111 0
 1336 0286 68EE2CCA 		fmuls	s25, s16, s25
 1337              	.LVL52:
 1338              		.loc 1 1112 0
 1339 028a C7ED006A 		fsts	s13, [r7]
 1340              		.loc 1 1116 0
 1341 028e FFF7FEFF 		bl	utils_truncate_number
 1342              	.LVL53:
 1343              		.loc 1 1122 0
 1344 0292 D7ED007A 		flds	s15, [r7]
 1345              		.loc 1 1124 0
 1346 0296 2268     		ldr	r2, [r4]
 1347              		.loc 1 1119 0
 1348 0298 8AED008A 		fsts	s16, [r10]
 1349              		.loc 1 1122 0
 1350 029c ECEE2C7A 		vfma.f32	s15, s24, s25
 1351              		.loc 1 1124 0
 1352 02a0 92F8FC20 		ldrb	r2, [r2, #252]	@ zero_extendqisi2
 1353              		.loc 1 1125 0
 1354 02a4 01A8     		add	r0, sp, #4
 1355              		.loc 1 1122 0
 1356 02a6 ECEE2B7A 		vfma.f32	s15, s24, s23
 1357 02aa CDED017A 		fsts	s15, [sp, #4]
 1358              		.loc 1 1124 0
 1359 02ae 002A     		cmp	r2, #0
 1360 02b0 54D0     		beq	.L117
 1361              		.loc 1 1125 0
 1362 02b2 BFEE000A 		fconsts	s0, #240
 1363 02b6 F7EE000A 		fconsts	s1, #112
 1364 02ba FFF7FEFF 		bl	utils_truncate_number
 1365              	.LVL54:
 1366              	.L118:
 1367              		.loc 1 1130 0
 1368 02be 3E4A     		ldr	r2, .L140+76
ARM GAS  /tmp/ccSQtpaj.s 			page 25


 1369 02c0 D2ED007A 		flds	s15, [r2]
 1370 02c4 F5EE407A 		fcmpzs	s15
 1371 02c8 F1EE10FA 		fmstat
 1372 02cc 3BD0     		beq	.L119
 1373              	.LBB105:
 1374              		.loc 1 1131 0
 1375 02ce 3B4B     		ldr	r3, .L140+80
 1376              		.loc 1 1133 0
 1377 02d0 2068     		ldr	r0, [r4]
 1378              		.loc 1 1131 0
 1379 02d2 D3ED006A 		flds	s13, [r3]
 1380              	.LVL55:
 1381              		.loc 1 1133 0
 1382 02d6 D0ED137A 		flds	s15, [r0, #76]
 1383 02da F4EEE76A 		fcmpes	s13, s15
 1384 02de F1EE10FA 		fmstat
 1385 02e2 73D4     		bmi	.L139
 1386              		.loc 1 1136 0
 1387 02e4 92ED006A 		flds	s12, [r2]
 1388 02e8 2A8A     		ldrh	r2, [r5, #16]
 1389 02ea DFED377A 		flds	s15, .L140+92
 1390 02ee DDED015A 		flds	s11, [sp, #4]
 1391 02f2 334B     		ldr	r3, .L140+84
 1392 02f4 92B2     		uxth	r2, r2
 1393 02f6 07EE102A 		fmsr	s14, r2	@ int
 1394 02fa B8EE477A 		fuitos	s14, s14
 1395 02fe 27EE0B7A 		fmuls	s14, s14, s22
 1396 0302 67EE277A 		fmuls	s15, s14, s15
 1397 0306 66EEA77A 		fmuls	s15, s13, s15
 1398 030a F0EEE77A 		fabss	s15, s15
 1399 030e C6EE277A 		fdivs	s15, s12, s15
 1400 0312 67EEA57A 		fmuls	s15, s15, s11
 1401 0316 C3ED007A 		fsts	s15, [r3]
 1402              	.LVL56:
 1403              	.L122:
 1404              		.loc 1 1139 0
 1405 031a 90ED157A 		flds	s14, [r0, #84]
 1406 031e D3ED007A 		flds	s15, [r3]
 1407 0322 274A     		ldr	r2, .L140+84
 1408 0324 B4EEE77A 		fcmpes	s14, s15
 1409 0328 F1EE10FA 		fmstat
 1410 032c 7FF53AAF 		bpl	.L113
 1411              		.loc 1 1140 0
 1412 0330 406D     		ldr	r0, [r0, #84]	@ float
 1413 0332 1060     		str	r0, [r2]	@ float
 1414 0334 36E7     		b	.L113
 1415              	.LVL57:
 1416              	.L138:
 1417              	.LBE105:
 1418              	.LBE109:
 1419              	.LBE115:
 1420              		.loc 1 1188 0
 1421 0336 0F4A     		ldr	r2, .L140+8
 1422 0338 0023     		movs	r3, #0
 1423 033a 1370     		strb	r3, [r2]
 1424              	.LBE120:
 1425              		.loc 1 1241 0
ARM GAS  /tmp/ccSQtpaj.s 			page 26


 1426 033c 03B0     		add	sp, sp, #12
 1427              		.cfi_remember_state
 1428              		.cfi_def_cfa_offset 76
 1429              		@ sp needed
 1430 033e BDEC0A8B 		fldmfdd	sp!, {d8-d12}
 1431              		.cfi_restore 88
 1432              		.cfi_restore 89
 1433              		.cfi_restore 86
 1434              		.cfi_restore 87
 1435              		.cfi_restore 84
 1436              		.cfi_restore 85
 1437              		.cfi_restore 82
 1438              		.cfi_restore 83
 1439              		.cfi_restore 80
 1440              		.cfi_restore 81
 1441              		.cfi_def_cfa_offset 36
 1442 0342 BDE8F08F 		pop	{r4, r5, r6, r7, r8, r9, r10, fp, pc}
 1443              	.LVL58:
 1444              	.L119:
 1445              		.cfi_restore_state
 1446              	.LBB121:
 1447              	.LBB116:
 1448              	.LBB110:
 1449              		.loc 1 1143 0
 1450 0346 2268     		ldr	r2, [r4]
 1451 0348 9DED017A 		flds	s14, [sp, #4]
 1452 034c D2ED157A 		flds	s15, [r2, #84]
 1453 0350 1B4A     		ldr	r2, .L140+84
 1454 0352 67EE877A 		fmuls	s15, s15, s14
 1455 0356 C2ED007A 		fsts	s15, [r2]
 1456 035a 23E7     		b	.L113
 1457              	.L117:
 1458              		.loc 1 1127 0
 1459 035c 9FED0D0A 		flds	s0, .L140+40
 1460 0360 F7EE000A 		fconsts	s1, #112
 1461 0364 FFF7FEFF 		bl	utils_truncate_number
 1462              	.LVL59:
 1463 0368 A9E7     		b	.L118
 1464              	.L141:
 1465 036a 00BF     		.align	2
 1466              	.L140:
 1467 036c 00000000 		.word	ch
 1468 0370 00000000 		.word	.LC1
 1469 0374 00000000 		.word	.LANCHOR14
 1470 0378 00000000 		.word	.LANCHOR15
 1471 037c 00000000 		.word	.LANCHOR0
 1472 0380 00000000 		.word	ADC_Value
 1473 0384 00000000 		.word	.LANCHOR17
 1474 0388 C0E1644C 		.word	1281679808
 1475 038c 00247449 		.word	1232348160
 1476 0390 00007042 		.word	1114636288
 1477 0394 00000000 		.word	0
 1478 0398 00401C47 		.word	1193033728
 1479 039c 6740533A 		.word	978534503
 1480 03a0 00000000 		.word	.LANCHOR10
 1481 03a4 00000000 		.word	.LANCHOR16
 1482 03a8 00000000 		.word	.LANCHOR6
ARM GAS  /tmp/ccSQtpaj.s 			page 27


 1483 03ac 00000000 		.word	.LANCHOR19
 1484 03b0 00000000 		.word	.LANCHOR4
 1485 03b4 6F12833A 		.word	981668463
 1486 03b8 00000000 		.word	.LANCHOR20
 1487 03bc 00000000 		.word	.LANCHOR21
 1488 03c0 00000000 		.word	.LANCHOR22
 1489 03c4 00000000 		.word	.LANCHOR18
 1490 03c8 74D19541 		.word	1100337524
 1491              	.LVL60:
 1492              	.L139:
 1493              	.LBB106:
 1494              		.loc 1 1134 0
 1495 03cc D2ED006A 		flds	s13, [r2]
 1496              	.LVL61:
 1497 03d0 2A8A     		ldrh	r2, [r5, #16]
 1498 03d2 5FED035A 		flds	s11, .L140+92
 1499 03d6 D0ED137A 		flds	s15, [r0, #76]
 1500 03da 9DED016A 		flds	s12, [sp, #4]
 1501 03de 0C4B     		ldr	r3, .L142
 1502 03e0 92B2     		uxth	r2, r2
 1503 03e2 07EE102A 		fmsr	s14, r2	@ int
 1504 03e6 B8EE477A 		fuitos	s14, s14
 1505 03ea 27EE0B7A 		fmuls	s14, s14, s22
 1506 03ee 27EE257A 		fmuls	s14, s14, s11
 1507 03f2 67EE277A 		fmuls	s15, s14, s15
 1508 03f6 F0EEE77A 		fabss	s15, s15
 1509 03fa C6EEA77A 		fdivs	s15, s13, s15
 1510 03fe 67EE867A 		fmuls	s15, s15, s12
 1511 0402 C3ED007A 		fsts	s15, [r3]
 1512 0406 88E7     		b	.L122
 1513              	.LVL62:
 1514              	.L136:
 1515              		.cfi_def_cfa_offset 0
 1516              		.cfi_restore 4
 1517              		.cfi_restore 5
 1518              		.cfi_restore 6
 1519              		.cfi_restore 7
 1520              		.cfi_restore 8
 1521              		.cfi_restore 9
 1522              		.cfi_restore 10
 1523              		.cfi_restore 11
 1524              		.cfi_restore 14
 1525              		.cfi_restore 80
 1526              		.cfi_restore 81
 1527              		.cfi_restore 82
 1528              		.cfi_restore 83
 1529              		.cfi_restore 84
 1530              		.cfi_restore 85
 1531              		.cfi_restore 86
 1532              		.cfi_restore 87
 1533              		.cfi_restore 88
 1534              		.cfi_restore 89
 1535              	.LBE106:
 1536              	.LBE110:
 1537              	.LBE116:
 1538              		.loc 1 1188 0
 1539 0408 024A     		ldr	r2, .L142+4
ARM GAS  /tmp/ccSQtpaj.s 			page 28


 1540 040a 0023     		movs	r3, #0
 1541 040c 1370     		strb	r3, [r2]
 1542 040e 7047     		bx	lr
 1543              	.L143:
 1544              		.align	2
 1545              	.L142:
 1546 0410 00000000 		.word	.LANCHOR22
 1547 0414 00000000 		.word	.LANCHOR14
 1548              	.LBE121:
 1549              		.cfi_endproc
 1550              	.LFE294:
 1551              		.size	rpm_thread, .-rpm_thread
 1552              		.section	.text.timer_thread,"ax",%progbits
 1553              		.align	2
 1554              		.p2align 4,,15
 1555              		.thumb
 1556              		.thumb_func
 1557              		.type	timer_thread, %function
 1558              	timer_thread:
 1559              	.LFB295:
 1560              		.loc 1 1243 0
 1561              		.cfi_startproc
 1562              		@ args = 0, pretend = 0, frame = 0
 1563              		@ frame_needed = 0, uses_anonymous_args = 0
 1564              	.LVL63:
 1565 0000 2DE9F843 		push	{r3, r4, r5, r6, r7, r8, r9, lr}
 1566              		.cfi_def_cfa_offset 32
 1567              		.cfi_offset 3, -32
 1568              		.cfi_offset 4, -28
 1569              		.cfi_offset 5, -24
 1570              		.cfi_offset 6, -20
 1571              		.cfi_offset 7, -16
 1572              		.cfi_offset 8, -12
 1573              		.cfi_offset 9, -8
 1574              		.cfi_offset 14, -4
 1575              	.LBB122:
 1576              	.LBB123:
 1577              		.loc 2 135 0
 1578 0004 7B4B     		ldr	r3, .L195
 1579              	.LBE123:
 1580              	.LBE122:
 1581              	.LBB127:
 1582              		.loc 1 1253 0
 1583 0006 7C4D     		ldr	r5, .L195+4
 1584              	.LBE127:
 1585              	.LBB139:
 1586              	.LBB124:
 1587              		.loc 2 135 0
 1588 0008 9A69     		ldr	r2, [r3, #24]
 1589              	.LBE124:
 1590              	.LBE139:
 1591              	.LBB140:
 1592              		.loc 1 1253 0
 1593 000a 2B78     		ldrb	r3, [r5]	@ zero_extendqisi2
 1594              	.LBE140:
 1595              	.LBB141:
 1596              	.LBB125:
ARM GAS  /tmp/ccSQtpaj.s 			page 29


 1597              		.loc 2 135 0
 1598 000c 7B49     		ldr	r1, .L195+8
 1599              	.LBE125:
 1600              	.LBE141:
 1601              		.loc 1 1243 0
 1602 000e 2DED028B 		fstmfdd	sp!, {d8}
 1603              		.cfi_def_cfa_offset 40
 1604              		.cfi_offset 80, -40
 1605              		.cfi_offset 81, -36
 1606              	.LBB142:
 1607              	.LBB126:
 1608              		.loc 2 135 0
 1609 0012 9161     		str	r1, [r2, #24]
 1610              	.LBE126:
 1611              	.LBE142:
 1612              	.LBB143:
 1613              		.loc 1 1253 0
 1614 0014 002B     		cmp	r3, #0
 1615 0016 54D1     		bne	.L172
 1616              		.loc 1 1330 0
 1617 0018 794E     		ldr	r6, .L195+12
 1618 001a 7A4C     		ldr	r4, .L195+16
 1619 001c 7A4F     		ldr	r7, .L195+20
 1620              		.loc 1 1295 0
 1621 001e DFED7B8A 		flds	s17, .L195+24
 1622              	.LBB128:
 1623              	.LBB129:
 1624              		.loc 1 728 0
 1625 0022 9FED7B8A 		flds	s16, .L195+28
 1626              	.LBE129:
 1627              	.LBE128:
 1628              		.loc 1 1310 0
 1629 0026 B046     		mov	r8, r6
 1630 0028 06E0     		b	.L145
 1631              	.LVL64:
 1632              	.L191:
 1633              		.loc 1 1335 0
 1634 002a 1360     		str	r3, [r2]
 1635              	.L168:
 1636              		.loc 1 1349 0
 1637 002c 0A20     		movs	r0, #10
 1638 002e FFF7FEFF 		bl	chThdSleep
 1639              	.LVL65:
 1640              		.loc 1 1253 0
 1641 0032 2B78     		ldrb	r3, [r5]	@ zero_extendqisi2
 1642 0034 002B     		cmp	r3, #0
 1643 0036 44D1     		bne	.L172
 1644              	.L145:
 1645              		.loc 1 1258 0
 1646 0038 2378     		ldrb	r3, [r4]	@ zero_extendqisi2
 1647 003a 03F0FF09 		and	r9, r3, #255
 1648 003e 002B     		cmp	r3, #0
 1649 0040 45D0     		beq	.L190
 1650              		.loc 1 1330 0
 1651 0042 0023     		movs	r3, #0
 1652 0044 3360     		str	r3, [r6]
 1653              	.L166:
ARM GAS  /tmp/ccSQtpaj.s 			page 30


 1654              		.loc 1 1335 0
 1655 0046 3B68     		ldr	r3, [r7]
 1656 0048 6F4A     		ldr	r2, .L195+20
 1657 004a 0133     		adds	r3, r3, #1
 1658              		.loc 1 1336 0
 1659 004c 092B     		cmp	r3, #9
 1660 004e ECDD     		ble	.L191
 1661              		.loc 1 1338 0
 1662 0050 2378     		ldrb	r3, [r4]	@ zero_extendqisi2
 1663 0052 6C48     		ldr	r0, .L195+16
 1664              		.loc 1 1337 0
 1665 0054 0021     		movs	r1, #0
 1666              		.loc 1 1338 0
 1667 0056 022B     		cmp	r3, #2
 1668              		.loc 1 1337 0
 1669 0058 1160     		str	r1, [r2]
 1670              		.loc 1 1338 0
 1671 005a 00F0B580 		beq	.L192
 1672              		.loc 1 1341 0
 1673 005e 0378     		ldrb	r3, [r0]	@ zero_extendqisi2
 1674 0060 002B     		cmp	r3, #0
 1675 0062 E3D1     		bne	.L168
 1676              		.loc 1 1342 0
 1677 0064 6B4B     		ldr	r3, .L195+32
 1678 0066 6C4A     		ldr	r2, .L195+36
 1679 0068 1B68     		ldr	r3, [r3]
 1680 006a 93ED137A 		flds	s14, [r3, #76]
 1681 006e D2ED007A 		flds	s15, [r2]
 1682 0072 B4EEE77A 		fcmpes	s14, s15
 1683 0076 F1EE10FA 		fmstat
 1684 007a D7D8     		bhi	.L168
 1685              	.LBB133:
 1686              	.LBB130:
 1687              		.loc 1 728 0
 1688 007c 6749     		ldr	r1, .L195+40
 1689 007e 684B     		ldr	r3, .L195+44
 1690 0080 91ED000A 		flds	s0, [r1]
 1691 0084 1B8A     		ldrh	r3, [r3, #16]
 1692              	.L189:
 1693 0086 DFED677A 		flds	s15, .L195+48
 1694 008a D2ED006A 		flds	s13, [r2]
 1695              	.LBE130:
 1696              	.LBE133:
 1697              		.loc 1 1343 0
 1698 008e 6648     		ldr	r0, .L195+52
 1699 0090 664A     		ldr	r2, .L195+56
 1700              	.LBB134:
 1701              	.LBB131:
 1702              		.loc 1 728 0
 1703 0092 9BB2     		uxth	r3, r3
 1704 0094 07EE103A 		fmsr	s14, r3	@ int
 1705 0098 B8EE477A 		fuitos	s14, s14
 1706 009c F0EEE66A 		fabss	s13, s13
 1707 00a0 27EE087A 		fmuls	s14, s14, s16
 1708              	.LBE131:
 1709              	.LBE134:
 1710              		.loc 1 1343 0
ARM GAS  /tmp/ccSQtpaj.s 			page 31


 1711 00a4 0721     		movs	r1, #7
 1712              	.LBB135:
 1713              	.LBB132:
 1714              		.loc 1 728 0
 1715 00a6 67EE277A 		fmuls	s15, s14, s15
 1716 00aa 67EEA67A 		fmuls	s15, s15, s13
 1717              	.LBE132:
 1718              	.LBE135:
 1719              		.loc 1 1343 0
 1720 00ae 80EE270A 		fdivs	s0, s0, s15
 1721 00b2 FFF7FEFF 		bl	filter_add_sample
 1722              	.LVL66:
 1723              		.loc 1 1349 0
 1724 00b6 0A20     		movs	r0, #10
 1725 00b8 FFF7FEFF 		bl	chThdSleep
 1726              	.LVL67:
 1727              		.loc 1 1253 0
 1728 00bc 2B78     		ldrb	r3, [r5]	@ zero_extendqisi2
 1729 00be 002B     		cmp	r3, #0
 1730 00c0 BAD0     		beq	.L145
 1731              	.L172:
 1732              	.LBE143:
 1733              		.loc 1 1351 0
 1734 00c2 BDEC028B 		fldmfdd	sp!, {d8}
 1735              		.cfi_remember_state
 1736              		.cfi_restore 80
 1737              		.cfi_restore 81
 1738              		.cfi_def_cfa_offset 32
 1739              	.LBB144:
 1740              		.loc 1 1254 0
 1741 00c6 0023     		movs	r3, #0
 1742 00c8 2B70     		strb	r3, [r5]
 1743              	.LBE144:
 1744              		.loc 1 1351 0
 1745 00ca BDE8F883 		pop	{r3, r4, r5, r6, r7, r8, r9, pc}
 1746              	.L190:
 1747              		.cfi_restore_state
 1748              	.LBB145:
 1749              		.loc 1 1261 0
 1750 00ce 584B     		ldr	r3, .L195+60
 1751 00d0 5848     		ldr	r0, .L195+64
 1752 00d2 1B68     		ldr	r3, [r3]
 1753 00d4 5849     		ldr	r1, .L195+68
 1754 00d6 0722     		movs	r2, #7
 1755 00d8 FFF7FEFF 		bl	filter_run_fir_iteration
 1756              	.LVL68:
 1757              		.loc 1 1265 0
 1758 00dc 4D4B     		ldr	r3, .L195+32
 1759 00de D3F800E0 		ldr	lr, [r3]
 1760 00e2 9EF80230 		ldrb	r3, [lr, #2]	@ zero_extendqisi2
 1761 00e6 DBB2     		uxtb	r3, r3
 1762 00e8 012B     		cmp	r3, #1
 1763 00ea 61D0     		beq	.L193
 1764              		.loc 1 1273 0
 1765 00ec 534B     		ldr	r3, .L195+72
 1766 00ee 1B78     		ldrb	r3, [r3]	@ zero_extendqisi2
 1767 00f0 03F0FF01 		and	r1, r3, #255
ARM GAS  /tmp/ccSQtpaj.s 			page 32


 1768 00f4 002B     		cmp	r3, #0
 1769 00f6 52D0     		beq	.L151
 1770 00f8 DFED517A 		flds	s15, .L195+76
 1771 00fc 9FED517A 		flds	s14, .L195+80
 1772 0100 5148     		ldr	r0, .L195+84
 1773 0102 4B46     		mov	r3, r9
 1774              	.L156:
 1775              	.LVL69:
 1776              	.LBB136:
 1777              		.loc 1 1278 0
 1778 0104 9A00     		lsls	r2, r3, #2
 1779 0106 8118     		adds	r1, r0, r2
 1780 0108 D1ED006A 		flds	s13, [r1]
 1781 010c F4EEC76A 		fcmpes	s13, s14
 1782 0110 F1EE10FA 		fmstat
 1783              		.loc 1 1279 0
 1784 0114 48BF     		it	mi
 1785 0116 91ED007A 		fldsmi	s14, [r1]
 1786              	.LVL70:
 1787              		.loc 1 1282 0
 1788 011a D1ED006A 		flds	s13, [r1]
 1789 011e F4EEE76A 		fcmpes	s13, s15
 1790 0122 F1EE10FA 		fmstat
 1791              		.loc 1 1277 0
 1792 0126 03F10103 		add	r3, r3, #1
 1793              	.LVL71:
 1794              		.loc 1 1283 0
 1795 012a C8BF     		it	gt
 1796 012c D1ED007A 		fldsgt	s15, [r1]
 1797              	.LVL72:
 1798              		.loc 1 1277 0
 1799 0130 062B     		cmp	r3, #6
 1800 0132 E7D1     		bne	.L156
 1801              	.LBE136:
 1802              		.loc 1 1295 0
 1803 0134 77EE876A 		fadds	s13, s15, s14
 1804 0138 B6EE006A 		fconsts	s12, #96
 1805 013c 77EEC77A 		fsubs	s15, s15, s14
 1806              	.LVL73:
 1807 0140 26EE867A 		fmuls	s14, s13, s12
 1808              	.LVL74:
 1809 0144 C7EE877A 		fdivs	s15, s15, s14
 1810 0148 F4EEE87A 		fcmpes	s15, s17
 1811 014c F1EE10FA 		fmstat
 1812 0150 41DD     		ble	.L184
 1813              		.loc 1 1296 0
 1814 0152 3368     		ldr	r3, [r6]
 1815              	.LVL75:
 1816              		.loc 1 1297 0
 1817 0154 3D4A     		ldr	r2, .L195+88
 1818              		.loc 1 1296 0
 1819 0156 0C2B     		cmp	r3, #12
 1820 0158 06DD     		ble	.L150
 1821              		.loc 1 1297 0
 1822 015a 1368     		ldr	r3, [r2]
 1823 015c 012B     		cmp	r3, #1
 1824 015e 46D0     		beq	.L194
ARM GAS  /tmp/ccSQtpaj.s 			page 33


 1825              	.L162:
 1826              		.loc 1 1314 0
 1827 0160 0123     		movs	r3, #1
 1828 0162 1360     		str	r3, [r2]
 1829              	.L163:
 1830              		.loc 1 1316 0
 1831 0164 0023     		movs	r3, #0
 1832 0166 3360     		str	r3, [r6]
 1833              	.L150:
 1834              		.loc 1 1323 0
 1835 0168 1368     		ldr	r3, [r2]
 1836              		.loc 1 1324 0
 1837 016a 2B4A     		ldr	r2, .L195+36
 1838              		.loc 1 1328 0
 1839 016c 2A48     		ldr	r0, .L195+36
 1840              		.loc 1 1323 0
 1841 016e 012B     		cmp	r3, #1
 1842              		.loc 1 1324 0
 1843 0170 2B4B     		ldr	r3, .L195+44
 1844 0172 1B8A     		ldrh	r3, [r3, #16]
 1845 0174 9BB2     		uxth	r3, r3
 1846 0176 07EE903A 		fmsr	s15, r3	@ int
 1847 017a F8EE677A 		fuitos	s15, s15
 1848              		.loc 1 1326 0
 1849 017e 18BF     		it	ne
 1850 0180 B1EE400A 		fnegsne	s0, s0
 1851              	.LVL76:
 1852 0184 80EE270A 		fdivs	s0, s0, s15
 1853 0188 82ED000A 		fsts	s0, [r2]
 1854              		.loc 1 1328 0
 1855 018c 9EED140A 		flds	s0, [lr, #80]
 1856 0190 DEED140A 		flds	s1, [lr, #80]
 1857 0194 B1EE400A 		fnegs	s0, s0
 1858 0198 FFF7FEFF 		bl	utils_truncate_number
 1859              	.LVL77:
 1860 019c 53E7     		b	.L166
 1861              	.LVL78:
 1862              	.L151:
 1863              		.loc 1 1310 0
 1864 019e 3368     		ldr	r3, [r6]
 1865 01a0 0333     		adds	r3, r3, #3
 1866 01a2 1CDA     		bge	.L161
 1867              		.loc 1 1311 0
 1868 01a4 294A     		ldr	r2, .L195+88
 1869 01a6 1368     		ldr	r3, [r2]
 1870 01a8 012B     		cmp	r3, #1
 1871 01aa D9D1     		bne	.L162
 1872              		.loc 1 1312 0
 1873 01ac 1160     		str	r1, [r2]
 1874 01ae D9E7     		b	.L163
 1875              	.L193:
 1876              		.loc 1 1266 0
 1877 01b0 B5EEC00A 		fcmpezs	s0
 1878              		.loc 1 1267 0
 1879 01b4 254A     		ldr	r2, .L195+88
 1880              		.loc 1 1266 0
 1881 01b6 F1EE10FA 		fmstat
ARM GAS  /tmp/ccSQtpaj.s 			page 34


 1882              		.loc 1 1267 0
 1883 01ba CEBF     		itee	gt
 1884 01bc C2F80090 		strgt	r9, [r2]
 1885              		.loc 1 1270 0
 1886 01c0 B1EE400A 		fnegsle	s0, s0
 1887              	.LVL79:
 1888              		.loc 1 1269 0
 1889 01c4 1360     		strle	r3, [r2]
 1890 01c6 CFE7     		b	.L150
 1891              	.LVL80:
 1892              	.L192:
 1893              	.LBB137:
 1894              	.LBB138:
 1895              		.loc 1 728 0
 1896 01c8 144A     		ldr	r2, .L195+40
 1897 01ca 154B     		ldr	r3, .L195+44
 1898 01cc 92ED000A 		flds	s0, [r2]
 1899 01d0 1B8A     		ldrh	r3, [r3, #16]
 1900 01d2 114A     		ldr	r2, .L195+36
 1901 01d4 57E7     		b	.L189
 1902              	.LVL81:
 1903              	.L184:
 1904              	.LBE138:
 1905              	.LBE137:
 1906              		.loc 1 1305 0
 1907 01d6 0023     		movs	r3, #0
 1908              	.LVL82:
 1909 01d8 3360     		str	r3, [r6]
 1910 01da 1C4A     		ldr	r2, .L195+88
 1911 01dc C4E7     		b	.L150
 1912              	.L161:
 1913              		.loc 1 1317 0
 1914 01de D8F80030 		ldr	r3, [r8]
 1915 01e2 1A4A     		ldr	r2, .L195+88
 1916 01e4 002B     		cmp	r3, #0
 1917              		.loc 1 1318 0
 1918 01e6 C8BF     		it	gt
 1919 01e8 C8F80010 		strgt	r1, [r8]
 1920 01ec BCE7     		b	.L150
 1921              	.L194:
 1922              		.loc 1 1298 0
 1923 01ee 0023     		movs	r3, #0
 1924 01f0 1360     		str	r3, [r2]
 1925 01f2 B7E7     		b	.L163
 1926              	.L196:
 1927              		.align	2
 1928              	.L195:
 1929 01f4 00000000 		.word	ch
 1930 01f8 00000000 		.word	.LANCHOR23
 1931 01fc 0C000000 		.word	.LC2
 1932 0200 00000000 		.word	.LANCHOR7
 1933 0204 00000000 		.word	.LANCHOR2
 1934 0208 00000000 		.word	.LANCHOR28
 1935 020c 9A99993F 		.word	1067030938
 1936 0210 6740533A 		.word	978534503
 1937 0214 00000000 		.word	.LANCHOR0
 1938 0218 00000000 		.word	.LANCHOR21
ARM GAS  /tmp/ccSQtpaj.s 			page 35


 1939 021c 00000000 		.word	.LANCHOR10
 1940 0220 00000000 		.word	ADC_Value
 1941 0224 74D19541 		.word	1100337524
 1942 0228 00000000 		.word	.LANCHOR29
 1943 022c 00000000 		.word	.LANCHOR30
 1944 0230 00000000 		.word	.LANCHOR24
 1945 0234 00000000 		.word	.LANCHOR25
 1946 0238 00000000 		.word	.LANCHOR26
 1947 023c 00000000 		.word	.LANCHOR11
 1948 0240 00000000 		.word	0
 1949 0244 E7841155 		.word	1427211495
 1950 0248 00000000 		.word	.LANCHOR27
 1951 024c 00000000 		.word	.LANCHOR4
 1952              	.LBE145:
 1953              		.cfi_endproc
 1954              	.LFE295:
 1955              		.size	timer_thread, .-timer_thread
 1956              		.section	.text.set_next_comm_step,"ax",%progbits
 1957              		.align	2
 1958              		.p2align 4,,15
 1959              		.thumb
 1960              		.thumb_func
 1961              		.type	set_next_comm_step, %function
 1962              	set_next_comm_step:
 1963              	.LFB318:
 1964              		.loc 1 2464 0
 1965              		.cfi_startproc
 1966              		@ args = 0, pretend = 0, frame = 0
 1967              		@ frame_needed = 0, uses_anonymous_args = 0
 1968              	.LVL83:
 1969 0000 F8B5     		push	{r3, r4, r5, r6, r7, lr}
 1970              		.cfi_def_cfa_offset 24
 1971              		.cfi_offset 3, -24
 1972              		.cfi_offset 4, -20
 1973              		.cfi_offset 5, -16
 1974              		.cfi_offset 6, -12
 1975              		.cfi_offset 7, -8
 1976              		.cfi_offset 14, -4
 1977              		.loc 1 2465 0
 1978 0002 B24B     		ldr	r3, .L233
 1979 0004 1B68     		ldr	r3, [r3]
 1980 0006 9D78     		ldrb	r5, [r3, #2]	@ zero_extendqisi2
 1981 0008 EDB2     		uxtb	r5, r5
 1982 000a 012D     		cmp	r5, #1
 1983 000c 00F00881 		beq	.L227
 1984              	.LVL84:
 1985              		.loc 1 2505 0
 1986 0010 AF4A     		ldr	r2, .L233+4
 1987 0012 1278     		ldrb	r2, [r2]	@ zero_extendqisi2
 1988 0014 012A     		cmp	r2, #1
 1989 0016 0446     		mov	r4, r0
 1990 0018 4FD0     		beq	.L215
 1991              		.loc 1 2506 0
 1992 001a 1B78     		ldrb	r3, [r3]	@ zero_extendqisi2
 1993 001c 03F0FF05 		and	r5, r3, #255
 1994 0020 002B     		cmp	r3, #0
 1995 0022 4BD0     		beq	.L218
ARM GAS  /tmp/ccSQtpaj.s 			page 36


 1996              		.loc 1 2500 0
 1997 0024 022D     		cmp	r5, #2
 1998 0026 0CBF     		ite	eq
 1999 0028 7026     		moveq	r6, #112
 2000 002a 2026     		movne	r6, #32
 2001              		.loc 1 2520 0
 2002 002c 012C     		cmp	r4, #1
 2003              		.loc 1 2500 0
 2004 002e 4FF00405 		mov	r5, #4
 2005              	.LVL85:
 2006              		.loc 1 2520 0
 2007 0032 47D0     		beq	.L228
 2008              	.L203:
 2009              		.loc 1 2552 0
 2010 0034 022C     		cmp	r4, #2
 2011 0036 00F0C780 		beq	.L229
 2012              		.loc 1 2584 0
 2013 003a 032C     		cmp	r4, #3
 2014 003c 00F01A81 		beq	.L230
 2015              		.loc 1 2616 0
 2016 0040 042C     		cmp	r4, #4
 2017 0042 00F04B81 		beq	.L231
 2018              		.loc 1 2648 0
 2019 0046 052C     		cmp	r4, #5
 2020 0048 00F09C80 		beq	.L232
 2021              		.loc 1 2680 0
 2022 004c 062C     		cmp	r4, #6
 2023 004e 40F09581 		bne	.L213
 2024              		.loc 1 2681 0
 2025 0052 A04B     		ldr	r3, .L233+8
 2026              		.loc 1 2683 0
 2027 0054 A048     		ldr	r0, .L233+12
 2028              	.LVL86:
 2029              		.loc 1 2681 0
 2030 0056 1C68     		ldr	r4, [r3]
 2031              	.LVL87:
 2032 0058 002C     		cmp	r4, #0
 2033 005a 00F02782 		beq	.L214
 2034              		.loc 1 2683 0
 2035 005e 0821     		movs	r1, #8
 2036 0060 2022     		movs	r2, #32
 2037 0062 FFF7FEFF 		bl	TIM_SelectOCxM
 2038              	.LVL88:
 2039              		.loc 1 2684 0
 2040 0066 9C48     		ldr	r0, .L233+12
 2041 0068 0821     		movs	r1, #8
 2042 006a 0122     		movs	r2, #1
 2043 006c FFF7FEFF 		bl	TIM_CCxCmd
 2044              	.LVL89:
 2045              		.loc 1 2685 0
 2046 0070 9948     		ldr	r0, .L233+12
 2047 0072 0821     		movs	r1, #8
 2048 0074 0022     		movs	r2, #0
 2049 0076 FFF7FEFF 		bl	TIM_CCxNCmd
 2050              	.LVL90:
 2051              		.loc 1 2688 0
 2052 007a 9748     		ldr	r0, .L233+12
ARM GAS  /tmp/ccSQtpaj.s 			page 37


 2053 007c 0421     		movs	r1, #4
 2054 007e 6022     		movs	r2, #96
 2055 0080 FFF7FEFF 		bl	TIM_SelectOCxM
 2056              	.LVL91:
 2057              		.loc 1 2689 0
 2058 0084 9448     		ldr	r0, .L233+12
 2059 0086 0421     		movs	r1, #4
 2060 0088 0122     		movs	r2, #1
 2061 008a FFF7FEFF 		bl	TIM_CCxCmd
 2062              	.LVL92:
 2063              		.loc 1 2690 0
 2064 008e 9248     		ldr	r0, .L233+12
 2065 0090 2A46     		mov	r2, r5
 2066 0092 0421     		movs	r1, #4
 2067              	.L223:
 2068 0094 FFF7FEFF 		bl	TIM_CCxNCmd
 2069              	.LVL93:
 2070              		.loc 1 2693 0
 2071 0098 3246     		mov	r2, r6
 2072 009a 8F48     		ldr	r0, .L233+12
 2073 009c 0021     		movs	r1, #0
 2074 009e FFF7FEFF 		bl	TIM_SelectOCxM
 2075              	.LVL94:
 2076              		.loc 1 2694 0
 2077 00a2 8D48     		ldr	r0, .L233+12
 2078 00a4 0021     		movs	r1, #0
 2079 00a6 0122     		movs	r2, #1
 2080 00a8 FFF7FEFF 		bl	TIM_CCxCmd
 2081              	.LVL95:
 2082              		.loc 1 2695 0
 2083 00ac 8A48     		ldr	r0, .L233+12
 2084 00ae 0021     		movs	r1, #0
 2085 00b0 0422     		movs	r2, #4
 2086              		.loc 1 2726 0
 2087 00b2 BDE8F840 		pop	{r3, r4, r5, r6, r7, lr}
 2088              		.cfi_remember_state
 2089              		.cfi_restore 14
 2090              		.cfi_restore 7
 2091              		.cfi_restore 6
 2092              		.cfi_restore 5
 2093              		.cfi_restore 4
 2094              		.cfi_restore 3
 2095              		.cfi_def_cfa_offset 0
 2096              	.LVL96:
 2097              		.loc 1 2695 0
 2098 00b6 FFF7FEBF 		b	TIM_CCxNCmd
 2099              	.LVL97:
 2100              	.L215:
 2101              		.cfi_restore_state
 2102              		.loc 1 2500 0
 2103 00ba 0425     		movs	r5, #4
 2104              	.L218:
 2105              		.loc 1 2520 0
 2106 00bc 012C     		cmp	r4, #1
 2107              		.loc 1 2497 0
 2108 00be 4FF02006 		mov	r6, #32
 2109              	.LVL98:
ARM GAS  /tmp/ccSQtpaj.s 			page 38


 2110              		.loc 1 2520 0
 2111 00c2 B7D1     		bne	.L203
 2112              	.L228:
 2113              		.loc 1 2521 0
 2114 00c4 834B     		ldr	r3, .L233+8
 2115              		.loc 1 2523 0
 2116 00c6 8448     		ldr	r0, .L233+12
 2117              	.LVL99:
 2118              		.loc 1 2521 0
 2119 00c8 1F68     		ldr	r7, [r3]
 2120 00ca 6FB3     		cbz	r7, .L204
 2121              		.loc 1 2523 0
 2122 00cc 0021     		movs	r1, #0
 2123 00ce 2022     		movs	r2, #32
 2124 00d0 FFF7FEFF 		bl	TIM_SelectOCxM
 2125              	.LVL100:
 2126              		.loc 1 2524 0
 2127 00d4 8048     		ldr	r0, .L233+12
 2128 00d6 0021     		movs	r1, #0
 2129 00d8 2246     		mov	r2, r4
 2130 00da FFF7FEFF 		bl	TIM_CCxCmd
 2131              	.LVL101:
 2132              		.loc 1 2525 0
 2133 00de 0021     		movs	r1, #0
 2134 00e0 0A46     		mov	r2, r1
 2135 00e2 7D48     		ldr	r0, .L233+12
 2136 00e4 FFF7FEFF 		bl	TIM_CCxNCmd
 2137              	.LVL102:
 2138              		.loc 1 2528 0
 2139 00e8 7B48     		ldr	r0, .L233+12
 2140 00ea 0421     		movs	r1, #4
 2141 00ec 6022     		movs	r2, #96
 2142 00ee FFF7FEFF 		bl	TIM_SelectOCxM
 2143              	.LVL103:
 2144              		.loc 1 2529 0
 2145 00f2 7948     		ldr	r0, .L233+12
 2146 00f4 0421     		movs	r1, #4
 2147 00f6 2246     		mov	r2, r4
 2148 00f8 FFF7FEFF 		bl	TIM_CCxCmd
 2149              	.LVL104:
 2150              		.loc 1 2530 0
 2151 00fc 2A46     		mov	r2, r5
 2152 00fe 7648     		ldr	r0, .L233+12
 2153 0100 0421     		movs	r1, #4
 2154 0102 FFF7FEFF 		bl	TIM_CCxNCmd
 2155              	.LVL105:
 2156              		.loc 1 2533 0
 2157 0106 3246     		mov	r2, r6
 2158 0108 7348     		ldr	r0, .L233+12
 2159 010a 0821     		movs	r1, #8
 2160 010c FFF7FEFF 		bl	TIM_SelectOCxM
 2161              	.LVL106:
 2162              		.loc 1 2534 0
 2163 0110 2246     		mov	r2, r4
 2164              	.LVL107:
 2165              	.L219:
 2166 0112 7148     		ldr	r0, .L233+12
ARM GAS  /tmp/ccSQtpaj.s 			page 39


 2167 0114 0821     		movs	r1, #8
 2168              	.L224:
 2169 0116 FFF7FEFF 		bl	TIM_CCxCmd
 2170              	.LVL108:
 2171              		.loc 1 2535 0
 2172 011a 6F48     		ldr	r0, .L233+12
 2173 011c 0821     		movs	r1, #8
 2174 011e 0422     		movs	r2, #4
 2175              		.loc 1 2726 0
 2176 0120 BDE8F840 		pop	{r3, r4, r5, r6, r7, lr}
 2177              		.cfi_remember_state
 2178              		.cfi_restore 14
 2179              		.cfi_restore 7
 2180              		.cfi_restore 6
 2181              		.cfi_restore 5
 2182              		.cfi_restore 4
 2183              		.cfi_restore 3
 2184              		.cfi_def_cfa_offset 0
 2185              		.loc 1 2535 0
 2186 0124 FFF7FEBF 		b	TIM_CCxNCmd
 2187              	.LVL109:
 2188              	.L204:
 2189              		.cfi_restore_state
 2190              		.loc 1 2538 0
 2191 0128 3946     		mov	r1, r7
 2192 012a 2022     		movs	r2, #32
 2193 012c FFF7FEFF 		bl	TIM_SelectOCxM
 2194              	.LVL110:
 2195              		.loc 1 2539 0
 2196 0130 6948     		ldr	r0, .L233+12
 2197 0132 3946     		mov	r1, r7
 2198 0134 2246     		mov	r2, r4
 2199 0136 FFF7FEFF 		bl	TIM_CCxCmd
 2200              	.LVL111:
 2201              		.loc 1 2540 0
 2202 013a 6748     		ldr	r0, .L233+12
 2203 013c 3946     		mov	r1, r7
 2204 013e 3A46     		mov	r2, r7
 2205 0140 FFF7FEFF 		bl	TIM_CCxNCmd
 2206              	.LVL112:
 2207              		.loc 1 2543 0
 2208 0144 6448     		ldr	r0, .L233+12
 2209 0146 0821     		movs	r1, #8
 2210 0148 6022     		movs	r2, #96
 2211 014a FFF7FEFF 		bl	TIM_SelectOCxM
 2212              	.LVL113:
 2213              		.loc 1 2544 0
 2214 014e 6248     		ldr	r0, .L233+12
 2215 0150 0821     		movs	r1, #8
 2216 0152 2246     		mov	r2, r4
 2217 0154 FFF7FEFF 		bl	TIM_CCxCmd
 2218              	.LVL114:
 2219              		.loc 1 2545 0
 2220 0158 2A46     		mov	r2, r5
 2221 015a 5F48     		ldr	r0, .L233+12
 2222 015c 0821     		movs	r1, #8
 2223 015e FFF7FEFF 		bl	TIM_CCxNCmd
ARM GAS  /tmp/ccSQtpaj.s 			page 40


 2224              	.LVL115:
 2225              		.loc 1 2548 0
 2226 0162 3246     		mov	r2, r6
 2227 0164 5C48     		ldr	r0, .L233+12
 2228 0166 0421     		movs	r1, #4
 2229 0168 FFF7FEFF 		bl	TIM_SelectOCxM
 2230              	.LVL116:
 2231              		.loc 1 2549 0
 2232 016c 5A48     		ldr	r0, .L233+12
 2233 016e 2246     		mov	r2, r4
 2234 0170 0421     		movs	r1, #4
 2235              	.LVL117:
 2236              	.L221:
 2237              		.loc 1 2581 0
 2238 0172 FFF7FEFF 		bl	TIM_CCxCmd
 2239              	.LVL118:
 2240              		.loc 1 2582 0
 2241 0176 0421     		movs	r1, #4
 2242 0178 0A46     		mov	r2, r1
 2243 017a 5748     		ldr	r0, .L233+12
 2244              		.loc 1 2726 0
 2245 017c BDE8F840 		pop	{r3, r4, r5, r6, r7, lr}
 2246              		.cfi_remember_state
 2247              		.cfi_restore 14
 2248              		.cfi_restore 7
 2249              		.cfi_restore 6
 2250              		.cfi_restore 5
 2251              		.cfi_restore 4
 2252              		.cfi_restore 3
 2253              		.cfi_def_cfa_offset 0
 2254              	.LVL119:
 2255              		.loc 1 2582 0
 2256 0180 FFF7FEBF 		b	TIM_CCxNCmd
 2257              	.LVL120:
 2258              	.L232:
 2259              		.cfi_restore_state
 2260              		.loc 1 2649 0
 2261 0184 534B     		ldr	r3, .L233+8
 2262              		.loc 1 2651 0
 2263 0186 5448     		ldr	r0, .L233+12
 2264              	.LVL121:
 2265              		.loc 1 2649 0
 2266 0188 1C68     		ldr	r4, [r3]
 2267              	.LVL122:
 2268 018a 002C     		cmp	r4, #0
 2269 018c 00F0B481 		beq	.L212
 2270              		.loc 1 2651 0
 2271 0190 0421     		movs	r1, #4
 2272 0192 2022     		movs	r2, #32
 2273 0194 FFF7FEFF 		bl	TIM_SelectOCxM
 2274              	.LVL123:
 2275              		.loc 1 2652 0
 2276 0198 4F48     		ldr	r0, .L233+12
 2277 019a 0421     		movs	r1, #4
 2278 019c 0122     		movs	r2, #1
 2279 019e FFF7FEFF 		bl	TIM_CCxCmd
 2280              	.LVL124:
ARM GAS  /tmp/ccSQtpaj.s 			page 41


 2281              		.loc 1 2653 0
 2282 01a2 4D48     		ldr	r0, .L233+12
 2283 01a4 0421     		movs	r1, #4
 2284 01a6 0022     		movs	r2, #0
 2285 01a8 FFF7FEFF 		bl	TIM_CCxNCmd
 2286              	.LVL125:
 2287              		.loc 1 2656 0
 2288 01ac 4A48     		ldr	r0, .L233+12
 2289 01ae 0821     		movs	r1, #8
 2290 01b0 6022     		movs	r2, #96
 2291 01b2 FFF7FEFF 		bl	TIM_SelectOCxM
 2292              	.LVL126:
 2293              		.loc 1 2657 0
 2294 01b6 4848     		ldr	r0, .L233+12
 2295 01b8 0821     		movs	r1, #8
 2296 01ba 0122     		movs	r2, #1
 2297 01bc FFF7FEFF 		bl	TIM_CCxCmd
 2298              	.LVL127:
 2299              		.loc 1 2658 0
 2300 01c0 2A46     		mov	r2, r5
 2301 01c2 4548     		ldr	r0, .L233+12
 2302 01c4 0821     		movs	r1, #8
 2303 01c6 65E7     		b	.L223
 2304              	.LVL128:
 2305              	.L229:
 2306              		.loc 1 2553 0
 2307 01c8 424B     		ldr	r3, .L233+8
 2308              		.loc 1 2555 0
 2309 01ca 4348     		ldr	r0, .L233+12
 2310              	.LVL129:
 2311              		.loc 1 2553 0
 2312 01cc 1C68     		ldr	r4, [r3]
 2313              	.LVL130:
 2314 01ce 002C     		cmp	r4, #0
 2315 01d0 00F0B880 		beq	.L206
 2316              		.loc 1 2555 0
 2317 01d4 0421     		movs	r1, #4
 2318 01d6 2022     		movs	r2, #32
 2319 01d8 FFF7FEFF 		bl	TIM_SelectOCxM
 2320              	.LVL131:
 2321              		.loc 1 2556 0
 2322 01dc 3E48     		ldr	r0, .L233+12
 2323 01de 0421     		movs	r1, #4
 2324 01e0 0122     		movs	r2, #1
 2325 01e2 FFF7FEFF 		bl	TIM_CCxCmd
 2326              	.LVL132:
 2327              		.loc 1 2557 0
 2328 01e6 3C48     		ldr	r0, .L233+12
 2329 01e8 0421     		movs	r1, #4
 2330 01ea 0022     		movs	r2, #0
 2331 01ec FFF7FEFF 		bl	TIM_CCxNCmd
 2332              	.LVL133:
 2333              		.loc 1 2560 0
 2334 01f0 3948     		ldr	r0, .L233+12
 2335 01f2 0021     		movs	r1, #0
 2336 01f4 6022     		movs	r2, #96
 2337 01f6 FFF7FEFF 		bl	TIM_SelectOCxM
ARM GAS  /tmp/ccSQtpaj.s 			page 42


 2338              	.LVL134:
 2339              		.loc 1 2561 0
 2340 01fa 3748     		ldr	r0, .L233+12
 2341 01fc 0021     		movs	r1, #0
 2342 01fe 0122     		movs	r2, #1
 2343 0200 FFF7FEFF 		bl	TIM_CCxCmd
 2344              	.LVL135:
 2345              		.loc 1 2562 0
 2346 0204 3448     		ldr	r0, .L233+12
 2347 0206 2A46     		mov	r2, r5
 2348 0208 0021     		movs	r1, #0
 2349              	.L226:
 2350              		.loc 1 2609 0
 2351 020a FFF7FEFF 		bl	TIM_CCxNCmd
 2352              	.LVL136:
 2353              		.loc 1 2612 0
 2354 020e 3246     		mov	r2, r6
 2355 0210 3148     		ldr	r0, .L233+12
 2356 0212 0821     		movs	r1, #8
 2357 0214 FFF7FEFF 		bl	TIM_SelectOCxM
 2358              	.LVL137:
 2359              		.loc 1 2613 0
 2360 0218 2F48     		ldr	r0, .L233+12
 2361 021a 0821     		movs	r1, #8
 2362 021c 0122     		movs	r2, #1
 2363 021e 7AE7     		b	.L224
 2364              	.LVL138:
 2365              	.L227:
 2366              		.loc 1 2467 0
 2367 0220 2D48     		ldr	r0, .L233+12
 2368              	.LVL139:
 2369 0222 0421     		movs	r1, #4
 2370 0224 2022     		movs	r2, #32
 2371 0226 FFF7FEFF 		bl	TIM_SelectOCxM
 2372              	.LVL140:
 2373              		.loc 1 2468 0
 2374 022a 2B48     		ldr	r0, .L233+12
 2375 022c 0421     		movs	r1, #4
 2376 022e 2A46     		mov	r2, r5
 2377 0230 FFF7FEFF 		bl	TIM_CCxCmd
 2378              	.LVL141:
 2379              		.loc 1 2469 0
 2380 0234 2848     		ldr	r0, .L233+12
 2381 0236 0421     		movs	r1, #4
 2382 0238 0022     		movs	r2, #0
 2383 023a FFF7FEFF 		bl	TIM_CCxNCmd
 2384              	.LVL142:
 2385              		.loc 1 2471 0
 2386 023e 254B     		ldr	r3, .L233+8
 2387              		.loc 1 2473 0
 2388 0240 2548     		ldr	r0, .L233+12
 2389              		.loc 1 2471 0
 2390 0242 1C68     		ldr	r4, [r3]
 2391 0244 002C     		cmp	r4, #0
 2392 0246 00F0C880 		beq	.L199
 2393              		.loc 1 2473 0
 2394 024a 0021     		movs	r1, #0
ARM GAS  /tmp/ccSQtpaj.s 			page 43


 2395 024c 6022     		movs	r2, #96
 2396 024e FFF7FEFF 		bl	TIM_SelectOCxM
 2397              	.LVL143:
 2398              		.loc 1 2474 0
 2399 0252 2148     		ldr	r0, .L233+12
 2400 0254 0021     		movs	r1, #0
 2401 0256 2A46     		mov	r2, r5
 2402 0258 FFF7FEFF 		bl	TIM_CCxCmd
 2403              	.LVL144:
 2404              		.loc 1 2475 0
 2405 025c 1E48     		ldr	r0, .L233+12
 2406 025e 0021     		movs	r1, #0
 2407 0260 0422     		movs	r2, #4
 2408 0262 FFF7FEFF 		bl	TIM_CCxNCmd
 2409              	.LVL145:
 2410              		.loc 1 2478 0
 2411 0266 2022     		movs	r2, #32
 2412 0268 1B48     		ldr	r0, .L233+12
 2413 026a 0821     		movs	r1, #8
 2414 026c FFF7FEFF 		bl	TIM_SelectOCxM
 2415              	.LVL146:
 2416              		.loc 1 2479 0
 2417 0270 2A46     		mov	r2, r5
 2418 0272 4EE7     		b	.L219
 2419              	.LVL147:
 2420              	.L230:
 2421              		.loc 1 2585 0
 2422 0274 174B     		ldr	r3, .L233+8
 2423              		.loc 1 2587 0
 2424 0276 1848     		ldr	r0, .L233+12
 2425              	.LVL148:
 2426              		.loc 1 2585 0
 2427 0278 1C68     		ldr	r4, [r3]
 2428              	.LVL149:
 2429 027a 002C     		cmp	r4, #0
 2430 027c 00F0CC80 		beq	.L208
 2431              		.loc 1 2587 0
 2432 0280 0821     		movs	r1, #8
 2433 0282 2022     		movs	r2, #32
 2434 0284 FFF7FEFF 		bl	TIM_SelectOCxM
 2435              	.LVL150:
 2436              		.loc 1 2588 0
 2437 0288 1348     		ldr	r0, .L233+12
 2438 028a 0821     		movs	r1, #8
 2439 028c 0122     		movs	r2, #1
 2440 028e FFF7FEFF 		bl	TIM_CCxCmd
 2441              	.LVL151:
 2442              		.loc 1 2589 0
 2443 0292 1148     		ldr	r0, .L233+12
 2444 0294 0821     		movs	r1, #8
 2445 0296 0022     		movs	r2, #0
 2446 0298 FFF7FEFF 		bl	TIM_CCxNCmd
 2447              	.LVL152:
 2448              		.loc 1 2592 0
 2449 029c 0E48     		ldr	r0, .L233+12
 2450 029e 0021     		movs	r1, #0
 2451 02a0 6022     		movs	r2, #96
ARM GAS  /tmp/ccSQtpaj.s 			page 44


 2452 02a2 FFF7FEFF 		bl	TIM_SelectOCxM
 2453              	.LVL153:
 2454              		.loc 1 2593 0
 2455 02a6 0C48     		ldr	r0, .L233+12
 2456 02a8 0021     		movs	r1, #0
 2457 02aa 0122     		movs	r2, #1
 2458 02ac FFF7FEFF 		bl	TIM_CCxCmd
 2459              	.LVL154:
 2460              		.loc 1 2594 0
 2461 02b0 0948     		ldr	r0, .L233+12
 2462 02b2 2A46     		mov	r2, r5
 2463 02b4 0021     		movs	r1, #0
 2464              	.L225:
 2465              		.loc 1 2577 0
 2466 02b6 FFF7FEFF 		bl	TIM_CCxNCmd
 2467              	.LVL155:
 2468              		.loc 1 2580 0
 2469 02ba 3246     		mov	r2, r6
 2470 02bc 0648     		ldr	r0, .L233+12
 2471 02be 0421     		movs	r1, #4
 2472 02c0 FFF7FEFF 		bl	TIM_SelectOCxM
 2473              	.LVL156:
 2474              		.loc 1 2581 0
 2475 02c4 0448     		ldr	r0, .L233+12
 2476 02c6 0421     		movs	r1, #4
 2477 02c8 0122     		movs	r2, #1
 2478 02ca 52E7     		b	.L221
 2479              	.L234:
 2480              		.align	2
 2481              	.L233:
 2482 02cc 00000000 		.word	.LANCHOR0
 2483 02d0 00000000 		.word	.LANCHOR2
 2484 02d4 00000000 		.word	.LANCHOR4
 2485 02d8 00000140 		.word	1073807360
 2486              	.LVL157:
 2487              	.L231:
 2488              		.loc 1 2617 0
 2489 02dc 944B     		ldr	r3, .L235
 2490              		.loc 1 2619 0
 2491 02de 9548     		ldr	r0, .L235+4
 2492              	.LVL158:
 2493              		.loc 1 2617 0
 2494 02e0 1F68     		ldr	r7, [r3]
 2495 02e2 002F     		cmp	r7, #0
 2496 02e4 00F0B480 		beq	.L210
 2497              		.loc 1 2619 0
 2498 02e8 0021     		movs	r1, #0
 2499 02ea 2022     		movs	r2, #32
 2500 02ec FFF7FEFF 		bl	TIM_SelectOCxM
 2501              	.LVL159:
 2502              		.loc 1 2620 0
 2503 02f0 9048     		ldr	r0, .L235+4
 2504 02f2 0021     		movs	r1, #0
 2505 02f4 0122     		movs	r2, #1
 2506 02f6 FFF7FEFF 		bl	TIM_CCxCmd
 2507              	.LVL160:
 2508              		.loc 1 2621 0
ARM GAS  /tmp/ccSQtpaj.s 			page 45


 2509 02fa 0021     		movs	r1, #0
 2510 02fc 0A46     		mov	r2, r1
 2511 02fe 8D48     		ldr	r0, .L235+4
 2512 0300 FFF7FEFF 		bl	TIM_CCxNCmd
 2513              	.LVL161:
 2514              		.loc 1 2624 0
 2515 0304 8B48     		ldr	r0, .L235+4
 2516 0306 0821     		movs	r1, #8
 2517 0308 6022     		movs	r2, #96
 2518 030a FFF7FEFF 		bl	TIM_SelectOCxM
 2519              	.LVL162:
 2520              		.loc 1 2625 0
 2521 030e 8948     		ldr	r0, .L235+4
 2522 0310 0821     		movs	r1, #8
 2523 0312 0122     		movs	r2, #1
 2524 0314 FFF7FEFF 		bl	TIM_CCxCmd
 2525              	.LVL163:
 2526              		.loc 1 2626 0
 2527 0318 2A46     		mov	r2, r5
 2528 031a 8648     		ldr	r0, .L235+4
 2529 031c 0821     		movs	r1, #8
 2530 031e FFF7FEFF 		bl	TIM_CCxNCmd
 2531              	.LVL164:
 2532              		.loc 1 2629 0
 2533 0322 3246     		mov	r2, r6
 2534 0324 2146     		mov	r1, r4
 2535 0326 8348     		ldr	r0, .L235+4
 2536 0328 FFF7FEFF 		bl	TIM_SelectOCxM
 2537              	.LVL165:
 2538              		.loc 1 2630 0
 2539 032c 2146     		mov	r1, r4
 2540 032e 8148     		ldr	r0, .L235+4
 2541 0330 0122     		movs	r2, #1
 2542 0332 FFF7FEFF 		bl	TIM_CCxCmd
 2543              	.LVL166:
 2544              		.loc 1 2631 0
 2545 0336 2146     		mov	r1, r4
 2546 0338 2246     		mov	r2, r4
 2547 033a 7E48     		ldr	r0, .L235+4
 2548              		.loc 1 2726 0
 2549 033c BDE8F840 		pop	{r3, r4, r5, r6, r7, lr}
 2550              		.cfi_remember_state
 2551              		.cfi_restore 14
 2552              		.cfi_restore 7
 2553              		.cfi_restore 6
 2554              		.cfi_restore 5
 2555              		.cfi_restore 4
 2556              		.cfi_restore 3
 2557              		.cfi_def_cfa_offset 0
 2558              	.LVL167:
 2559              		.loc 1 2631 0
 2560 0340 FFF7FEBF 		b	TIM_CCxNCmd
 2561              	.LVL168:
 2562              	.L206:
 2563              		.cfi_restore_state
 2564              		.loc 1 2570 0
 2565 0344 0821     		movs	r1, #8
ARM GAS  /tmp/ccSQtpaj.s 			page 46


 2566 0346 2022     		movs	r2, #32
 2567 0348 FFF7FEFF 		bl	TIM_SelectOCxM
 2568              	.LVL169:
 2569              		.loc 1 2571 0
 2570 034c 7948     		ldr	r0, .L235+4
 2571 034e 0821     		movs	r1, #8
 2572 0350 0122     		movs	r2, #1
 2573 0352 FFF7FEFF 		bl	TIM_CCxCmd
 2574              	.LVL170:
 2575              		.loc 1 2572 0
 2576 0356 7748     		ldr	r0, .L235+4
 2577 0358 0821     		movs	r1, #8
 2578 035a 2246     		mov	r2, r4
 2579 035c FFF7FEFF 		bl	TIM_CCxNCmd
 2580              	.LVL171:
 2581              		.loc 1 2575 0
 2582 0360 7448     		ldr	r0, .L235+4
 2583 0362 2146     		mov	r1, r4
 2584 0364 6022     		movs	r2, #96
 2585 0366 FFF7FEFF 		bl	TIM_SelectOCxM
 2586              	.LVL172:
 2587              		.loc 1 2576 0
 2588 036a 7248     		ldr	r0, .L235+4
 2589 036c 2146     		mov	r1, r4
 2590 036e 0122     		movs	r2, #1
 2591 0370 FFF7FEFF 		bl	TIM_CCxCmd
 2592              	.LVL173:
 2593              		.loc 1 2577 0
 2594 0374 2146     		mov	r1, r4
 2595 0376 2A46     		mov	r2, r5
 2596 0378 6E48     		ldr	r0, .L235+4
 2597 037a 9CE7     		b	.L225
 2598              	.LVL174:
 2599              	.L213:
 2600              		.loc 1 2714 0
 2601 037c 6D48     		ldr	r0, .L235+4
 2602              	.LVL175:
 2603 037e 0021     		movs	r1, #0
 2604 0380 4022     		movs	r2, #64
 2605 0382 FFF7FEFF 		bl	TIM_SelectOCxM
 2606              	.LVL176:
 2607              		.loc 1 2715 0
 2608 0386 6B48     		ldr	r0, .L235+4
 2609 0388 0021     		movs	r1, #0
 2610 038a 0122     		movs	r2, #1
 2611 038c FFF7FEFF 		bl	TIM_CCxCmd
 2612              	.LVL177:
 2613              		.loc 1 2716 0
 2614 0390 0021     		movs	r1, #0
 2615 0392 0A46     		mov	r2, r1
 2616 0394 6748     		ldr	r0, .L235+4
 2617 0396 FFF7FEFF 		bl	TIM_CCxNCmd
 2618              	.LVL178:
 2619              		.loc 1 2718 0
 2620 039a 6648     		ldr	r0, .L235+4
 2621 039c 0421     		movs	r1, #4
 2622 039e 4022     		movs	r2, #64
ARM GAS  /tmp/ccSQtpaj.s 			page 47


 2623 03a0 FFF7FEFF 		bl	TIM_SelectOCxM
 2624              	.LVL179:
 2625              		.loc 1 2719 0
 2626 03a4 6348     		ldr	r0, .L235+4
 2627 03a6 0421     		movs	r1, #4
 2628 03a8 0122     		movs	r2, #1
 2629 03aa FFF7FEFF 		bl	TIM_CCxCmd
 2630              	.LVL180:
 2631              		.loc 1 2720 0
 2632 03ae 6148     		ldr	r0, .L235+4
 2633 03b0 0421     		movs	r1, #4
 2634 03b2 0022     		movs	r2, #0
 2635 03b4 FFF7FEFF 		bl	TIM_CCxNCmd
 2636              	.LVL181:
 2637              		.loc 1 2722 0
 2638 03b8 5E48     		ldr	r0, .L235+4
 2639 03ba 0821     		movs	r1, #8
 2640 03bc 4022     		movs	r2, #64
 2641 03be FFF7FEFF 		bl	TIM_SelectOCxM
 2642              	.LVL182:
 2643              		.loc 1 2723 0
 2644 03c2 5C48     		ldr	r0, .L235+4
 2645 03c4 0821     		movs	r1, #8
 2646 03c6 0122     		movs	r2, #1
 2647 03c8 FFF7FEFF 		bl	TIM_CCxCmd
 2648              	.LVL183:
 2649              		.loc 1 2724 0
 2650 03cc 5948     		ldr	r0, .L235+4
 2651 03ce 0821     		movs	r1, #8
 2652 03d0 0022     		movs	r2, #0
 2653              		.loc 1 2726 0
 2654 03d2 BDE8F840 		pop	{r3, r4, r5, r6, r7, lr}
 2655              		.cfi_remember_state
 2656              		.cfi_restore 14
 2657              		.cfi_restore 7
 2658              		.cfi_restore 6
 2659              		.cfi_restore 5
 2660              		.cfi_restore 4
 2661              		.cfi_restore 3
 2662              		.cfi_def_cfa_offset 0
 2663              	.LVL184:
 2664              		.loc 1 2724 0
 2665 03d6 FFF7FEBF 		b	TIM_CCxNCmd
 2666              	.LVL185:
 2667              	.L199:
 2668              		.cfi_restore_state
 2669              		.loc 1 2483 0
 2670 03da 0821     		movs	r1, #8
 2671 03dc 6022     		movs	r2, #96
 2672 03de FFF7FEFF 		bl	TIM_SelectOCxM
 2673              	.LVL186:
 2674              		.loc 1 2484 0
 2675 03e2 5448     		ldr	r0, .L235+4
 2676 03e4 0821     		movs	r1, #8
 2677 03e6 2A46     		mov	r2, r5
 2678 03e8 FFF7FEFF 		bl	TIM_CCxCmd
 2679              	.LVL187:
ARM GAS  /tmp/ccSQtpaj.s 			page 48


 2680              		.loc 1 2485 0
 2681 03ec 5148     		ldr	r0, .L235+4
 2682 03ee 0821     		movs	r1, #8
 2683 03f0 0422     		movs	r2, #4
 2684 03f2 FFF7FEFF 		bl	TIM_CCxNCmd
 2685              	.LVL188:
 2686              		.loc 1 2488 0
 2687 03f6 4F48     		ldr	r0, .L235+4
 2688 03f8 2146     		mov	r1, r4
 2689 03fa 2022     		movs	r2, #32
 2690 03fc FFF7FEFF 		bl	TIM_SelectOCxM
 2691              	.LVL189:
 2692              		.loc 1 2489 0
 2693 0400 4C48     		ldr	r0, .L235+4
 2694 0402 2A46     		mov	r2, r5
 2695 0404 2146     		mov	r1, r4
 2696              	.L220:
 2697              		.loc 1 2709 0
 2698 0406 FFF7FEFF 		bl	TIM_CCxCmd
 2699              	.LVL190:
 2700              		.loc 1 2710 0
 2701 040a 2146     		mov	r1, r4
 2702 040c 4948     		ldr	r0, .L235+4
 2703 040e 0422     		movs	r2, #4
 2704              		.loc 1 2726 0
 2705 0410 BDE8F840 		pop	{r3, r4, r5, r6, r7, lr}
 2706              		.cfi_remember_state
 2707              		.cfi_restore 14
 2708              		.cfi_restore 7
 2709              		.cfi_restore 6
 2710              		.cfi_restore 5
 2711              		.cfi_restore 4
 2712              		.cfi_restore 3
 2713              		.cfi_def_cfa_offset 0
 2714              		.loc 1 2710 0
 2715 0414 FFF7FEBF 		b	TIM_CCxNCmd
 2716              	.LVL191:
 2717              	.L208:
 2718              		.cfi_restore_state
 2719              		.loc 1 2602 0
 2720 0418 0421     		movs	r1, #4
 2721 041a 2022     		movs	r2, #32
 2722 041c FFF7FEFF 		bl	TIM_SelectOCxM
 2723              	.LVL192:
 2724              		.loc 1 2603 0
 2725 0420 4448     		ldr	r0, .L235+4
 2726 0422 0421     		movs	r1, #4
 2727 0424 0122     		movs	r2, #1
 2728 0426 FFF7FEFF 		bl	TIM_CCxCmd
 2729              	.LVL193:
 2730              		.loc 1 2604 0
 2731 042a 4248     		ldr	r0, .L235+4
 2732 042c 0421     		movs	r1, #4
 2733 042e 2246     		mov	r2, r4
 2734 0430 FFF7FEFF 		bl	TIM_CCxNCmd
 2735              	.LVL194:
 2736              		.loc 1 2607 0
ARM GAS  /tmp/ccSQtpaj.s 			page 49


 2737 0434 3F48     		ldr	r0, .L235+4
 2738 0436 2146     		mov	r1, r4
 2739 0438 6022     		movs	r2, #96
 2740 043a FFF7FEFF 		bl	TIM_SelectOCxM
 2741              	.LVL195:
 2742              		.loc 1 2608 0
 2743 043e 3D48     		ldr	r0, .L235+4
 2744 0440 2146     		mov	r1, r4
 2745 0442 0122     		movs	r2, #1
 2746 0444 FFF7FEFF 		bl	TIM_CCxCmd
 2747              	.LVL196:
 2748              		.loc 1 2609 0
 2749 0448 2146     		mov	r1, r4
 2750 044a 2A46     		mov	r2, r5
 2751 044c 3948     		ldr	r0, .L235+4
 2752 044e DCE6     		b	.L226
 2753              	.LVL197:
 2754              	.L210:
 2755              		.loc 1 2634 0
 2756 0450 3946     		mov	r1, r7
 2757 0452 2022     		movs	r2, #32
 2758 0454 FFF7FEFF 		bl	TIM_SelectOCxM
 2759              	.LVL198:
 2760              		.loc 1 2635 0
 2761 0458 3946     		mov	r1, r7
 2762 045a 3648     		ldr	r0, .L235+4
 2763 045c 0122     		movs	r2, #1
 2764 045e FFF7FEFF 		bl	TIM_CCxCmd
 2765              	.LVL199:
 2766              		.loc 1 2636 0
 2767 0462 3946     		mov	r1, r7
 2768 0464 3A46     		mov	r2, r7
 2769 0466 3348     		ldr	r0, .L235+4
 2770 0468 FFF7FEFF 		bl	TIM_CCxNCmd
 2771              	.LVL200:
 2772              		.loc 1 2639 0
 2773 046c 2146     		mov	r1, r4
 2774 046e 3148     		ldr	r0, .L235+4
 2775 0470 6022     		movs	r2, #96
 2776 0472 FFF7FEFF 		bl	TIM_SelectOCxM
 2777              	.LVL201:
 2778              		.loc 1 2640 0
 2779 0476 2146     		mov	r1, r4
 2780 0478 2E48     		ldr	r0, .L235+4
 2781 047a 0122     		movs	r2, #1
 2782 047c FFF7FEFF 		bl	TIM_CCxCmd
 2783              	.LVL202:
 2784              		.loc 1 2641 0
 2785 0480 2A46     		mov	r2, r5
 2786 0482 2146     		mov	r1, r4
 2787 0484 2B48     		ldr	r0, .L235+4
 2788 0486 FFF7FEFF 		bl	TIM_CCxNCmd
 2789              	.LVL203:
 2790              		.loc 1 2644 0
 2791 048a 3246     		mov	r2, r6
 2792 048c 2948     		ldr	r0, .L235+4
 2793 048e 0821     		movs	r1, #8
ARM GAS  /tmp/ccSQtpaj.s 			page 50


 2794 0490 FFF7FEFF 		bl	TIM_SelectOCxM
 2795              	.LVL204:
 2796              		.loc 1 2645 0
 2797 0494 2748     		ldr	r0, .L235+4
 2798 0496 0821     		movs	r1, #8
 2799 0498 0122     		movs	r2, #1
 2800 049a FFF7FEFF 		bl	TIM_CCxCmd
 2801              	.LVL205:
 2802              		.loc 1 2646 0
 2803 049e 2246     		mov	r2, r4
 2804 04a0 2448     		ldr	r0, .L235+4
 2805 04a2 0821     		movs	r1, #8
 2806              		.loc 1 2726 0
 2807 04a4 BDE8F840 		pop	{r3, r4, r5, r6, r7, lr}
 2808              		.cfi_remember_state
 2809              		.cfi_restore 14
 2810              		.cfi_restore 7
 2811              		.cfi_restore 6
 2812              		.cfi_restore 5
 2813              		.cfi_restore 4
 2814              		.cfi_restore 3
 2815              		.cfi_def_cfa_offset 0
 2816              	.LVL206:
 2817              		.loc 1 2646 0
 2818 04a8 FFF7FEBF 		b	TIM_CCxNCmd
 2819              	.LVL207:
 2820              	.L214:
 2821              		.cfi_restore_state
 2822              		.loc 1 2698 0
 2823 04ac 0421     		movs	r1, #4
 2824 04ae 2022     		movs	r2, #32
 2825 04b0 FFF7FEFF 		bl	TIM_SelectOCxM
 2826              	.LVL208:
 2827              		.loc 1 2699 0
 2828 04b4 1F48     		ldr	r0, .L235+4
 2829 04b6 0421     		movs	r1, #4
 2830 04b8 0122     		movs	r2, #1
 2831 04ba FFF7FEFF 		bl	TIM_CCxCmd
 2832              	.LVL209:
 2833              		.loc 1 2700 0
 2834 04be 1D48     		ldr	r0, .L235+4
 2835 04c0 0421     		movs	r1, #4
 2836 04c2 2246     		mov	r2, r4
 2837 04c4 FFF7FEFF 		bl	TIM_CCxNCmd
 2838              	.LVL210:
 2839              		.loc 1 2703 0
 2840 04c8 1A48     		ldr	r0, .L235+4
 2841 04ca 0821     		movs	r1, #8
 2842 04cc 6022     		movs	r2, #96
 2843 04ce FFF7FEFF 		bl	TIM_SelectOCxM
 2844              	.LVL211:
 2845              		.loc 1 2704 0
 2846 04d2 1848     		ldr	r0, .L235+4
 2847 04d4 0821     		movs	r1, #8
 2848 04d6 0122     		movs	r2, #1
 2849 04d8 FFF7FEFF 		bl	TIM_CCxCmd
 2850              	.LVL212:
ARM GAS  /tmp/ccSQtpaj.s 			page 51


 2851              		.loc 1 2705 0
 2852 04dc 1548     		ldr	r0, .L235+4
 2853 04de 2A46     		mov	r2, r5
 2854 04e0 0821     		movs	r1, #8
 2855              	.L222:
 2856 04e2 FFF7FEFF 		bl	TIM_CCxNCmd
 2857              	.LVL213:
 2858              		.loc 1 2708 0
 2859 04e6 3246     		mov	r2, r6
 2860 04e8 1248     		ldr	r0, .L235+4
 2861 04ea 2146     		mov	r1, r4
 2862 04ec FFF7FEFF 		bl	TIM_SelectOCxM
 2863              	.LVL214:
 2864              		.loc 1 2709 0
 2865 04f0 1048     		ldr	r0, .L235+4
 2866 04f2 2146     		mov	r1, r4
 2867 04f4 0122     		movs	r2, #1
 2868 04f6 86E7     		b	.L220
 2869              	.L212:
 2870              		.loc 1 2666 0
 2871 04f8 0821     		movs	r1, #8
 2872 04fa 2022     		movs	r2, #32
 2873 04fc FFF7FEFF 		bl	TIM_SelectOCxM
 2874              	.LVL215:
 2875              		.loc 1 2667 0
 2876 0500 0C48     		ldr	r0, .L235+4
 2877 0502 0821     		movs	r1, #8
 2878 0504 0122     		movs	r2, #1
 2879 0506 FFF7FEFF 		bl	TIM_CCxCmd
 2880              	.LVL216:
 2881              		.loc 1 2668 0
 2882 050a 0A48     		ldr	r0, .L235+4
 2883 050c 0821     		movs	r1, #8
 2884 050e 2246     		mov	r2, r4
 2885 0510 FFF7FEFF 		bl	TIM_CCxNCmd
 2886              	.LVL217:
 2887              		.loc 1 2671 0
 2888 0514 0748     		ldr	r0, .L235+4
 2889 0516 0421     		movs	r1, #4
 2890 0518 6022     		movs	r2, #96
 2891 051a FFF7FEFF 		bl	TIM_SelectOCxM
 2892              	.LVL218:
 2893              		.loc 1 2672 0
 2894 051e 0548     		ldr	r0, .L235+4
 2895 0520 0421     		movs	r1, #4
 2896 0522 0122     		movs	r2, #1
 2897 0524 FFF7FEFF 		bl	TIM_CCxCmd
 2898              	.LVL219:
 2899              		.loc 1 2673 0
 2900 0528 2A46     		mov	r2, r5
 2901 052a 0248     		ldr	r0, .L235+4
 2902 052c 0421     		movs	r1, #4
 2903 052e D8E7     		b	.L222
 2904              	.L236:
 2905              		.align	2
 2906              	.L235:
 2907 0530 00000000 		.word	.LANCHOR4
ARM GAS  /tmp/ccSQtpaj.s 			page 52


 2908 0534 00000140 		.word	1073807360
 2909              		.cfi_endproc
 2910              	.LFE318:
 2911              		.size	set_next_comm_step, .-set_next_comm_step
 2912              		.section	.text.commutate,"ax",%progbits
 2913              		.align	2
 2914              		.p2align 4,,15
 2915              		.thumb
 2916              		.thumb_func
 2917              		.type	commutate, %function
 2918              	commutate:
 2919              	.LFB314:
 2920              		.loc 1 2372 0
 2921              		.cfi_startproc
 2922              		@ args = 0, pretend = 0, frame = 24
 2923              		@ frame_needed = 0, uses_anonymous_args = 0
 2924              	.LVL220:
 2925              		.loc 1 2373 0
 2926 0000 2B4B     		ldr	r3, .L261
 2927 0002 2C4A     		ldr	r2, .L261+4
 2928 0004 1968     		ldr	r1, [r3]	@ float
 2929              		.loc 1 2372 0
 2930 0006 F0B5     		push	{r4, r5, r6, r7, lr}
 2931              		.cfi_def_cfa_offset 20
 2932              		.cfi_offset 4, -20
 2933              		.cfi_offset 5, -16
 2934              		.cfi_offset 6, -12
 2935              		.cfi_offset 7, -8
 2936              		.cfi_offset 14, -4
 2937              		.loc 1 2374 0
 2938 0008 2B4C     		ldr	r4, .L261+8
 2939              		.loc 1 2373 0
 2940 000a 1160     		str	r1, [r2]	@ float
 2941              		.loc 1 2374 0
 2942 000c 2268     		ldr	r2, [r4]
 2943 000e 2B49     		ldr	r1, .L261+12
 2944              		.loc 1 2378 0
 2945 0010 2B4D     		ldr	r5, .L261+16
 2946              		.loc 1 2376 0
 2947 0012 2C4E     		ldr	r6, .L261+20
 2948              		.loc 1 2374 0
 2949 0014 D3F800E0 		ldr	lr, [r3]	@ float
 2950              		.loc 1 2378 0
 2951 0018 2D68     		ldr	r5, [r5]
 2952              		.loc 1 2374 0
 2953 001a 013A     		subs	r2, r2, #1
 2954 001c 01EB8202 		add	r2, r1, r2, lsl #2
 2955              		.loc 1 2375 0
 2956 0020 0027     		movs	r7, #0
 2957              		.loc 1 2376 0
 2958 0022 0021     		movs	r1, #0
 2959              		.loc 1 2374 0
 2960 0024 C2F800E0 		str	lr, [r2]	@ float
 2961              		.loc 1 2375 0
 2962 0028 1F60     		str	r7, [r3]	@ float
 2963              		.loc 1 2376 0
 2964 002a 3160     		str	r1, [r6]
ARM GAS  /tmp/ccSQtpaj.s 			page 53


 2965              		.loc 1 2378 0
 2966 002c AB78     		ldrb	r3, [r5, #2]	@ zero_extendqisi2
 2967              		.loc 1 2372 0
 2968 002e 87B0     		sub	sp, sp, #28
 2969              		.cfi_def_cfa_offset 48
 2970              		.loc 1 2378 0
 2971 0030 03BB     		cbnz	r3, .L238
 2972              		.loc 1 2378 0 is_stmt 0 discriminator 1
 2973 0032 254B     		ldr	r3, .L261+24
 2974 0034 1B78     		ldrb	r3, [r3]	@ zero_extendqisi2
 2975 0036 EBB1     		cbz	r3, .L238
 2976              		.loc 1 2379 0 is_stmt 1
 2977 0038 2368     		ldr	r3, [r4]
 2978 003a 1844     		add	r0, r0, r3
 2979              	.LVL221:
 2980 003c 2060     		str	r0, [r4]
 2981              		.loc 1 2380 0
 2982 003e 2368     		ldr	r3, [r4]
 2983 0040 062B     		cmp	r3, #6
 2984 0042 0BDD     		ble	.L256
 2985              	.L249:
 2986              		.loc 1 2381 0
 2987 0044 2368     		ldr	r3, [r4]
 2988 0046 063B     		subs	r3, r3, #6
 2989 0048 2360     		str	r3, [r4]
 2990              		.loc 1 2380 0
 2991 004a 2368     		ldr	r3, [r4]
 2992 004c 062B     		cmp	r3, #6
 2993 004e F9DC     		bgt	.L249
 2994              		.loc 1 2383 0
 2995 0050 2368     		ldr	r3, [r4]
 2996 0052 002B     		cmp	r3, #0
 2997 0054 05DC     		bgt	.L260
 2998              	.L248:
 2999              		.loc 1 2384 0
 3000 0056 2368     		ldr	r3, [r4]
 3001 0058 0633     		adds	r3, r3, #6
 3002 005a 2360     		str	r3, [r4]
 3003              	.L256:
 3004              		.loc 1 2383 0
 3005 005c 2368     		ldr	r3, [r4]
 3006 005e 002B     		cmp	r3, #0
 3007 0060 F9DD     		ble	.L248
 3008              	.L260:
 3009              		.loc 1 2387 0
 3010 0062 FFF7FEFF 		bl	update_rpm_tacho
 3011              	.LVL222:
 3012              		.loc 1 2389 0
 3013 0066 194B     		ldr	r3, .L261+28
 3014 0068 1B78     		ldrb	r3, [r3]	@ zero_extendqisi2
 3015 006a 022B     		cmp	r3, #2
 3016 006c 1BD1     		bne	.L257
 3017              		.loc 1 2394 0
 3018 006e 2068     		ldr	r0, [r4]
 3019 0070 FFF7FEFF 		bl	set_next_comm_step
 3020              	.LVL223:
 3021              	.L238:
ARM GAS  /tmp/ccSQtpaj.s 			page 54


 3022              		.loc 1 2397 0
 3023 0074 1648     		ldr	r0, .L261+32
 3024              		.loc 1 2403 0
 3025 0076 174D     		ldr	r5, .L261+36
 3026              		.loc 1 2397 0
 3027 0078 2021     		movs	r1, #32
 3028 007a FFF7FEFF 		bl	TIM_GenerateEvent
 3029              	.LVL224:
 3030              		.loc 1 2398 0
 3031 007e 164B     		ldr	r3, .L261+40
 3032 0080 0122     		movs	r2, #1
 3033 0082 1A60     		str	r2, [r3]
 3034              		.loc 1 2402 0
 3035 0084 FFF7FEFF 		bl	utils_sys_lock_cnt
 3036              	.LVL225:
 3037              		.loc 1 2403 0
 3038 0088 0FCD     		ldmia	r5!, {r0, r1, r2, r3}
 3039 008a 6C46     		mov	r4, sp
 3040 008c 0FC4     		stmia	r4!, {r0, r1, r2, r3}
 3041 008e 95E80300 		ldmia	r5, {r0, r1}
 3042 0092 84E80300 		stmia	r4, {r0, r1}
 3043              		.loc 1 2404 0
 3044 0096 FFF7FEFF 		bl	utils_sys_unlock_cnt
 3045              	.LVL226:
 3046              		.loc 1 2406 0
 3047 009a 6846     		mov	r0, sp
 3048 009c FFF7FEFF 		bl	update_adc_sample_pos
 3049              	.LVL227:
 3050              		.loc 1 2407 0
 3051 00a0 6846     		mov	r0, sp
 3052 00a2 FFF7FEFF 		bl	set_next_timer_settings
 3053              	.LVL228:
 3054              	.L257:
 3055              		.loc 1 2408 0
 3056 00a6 FFF7FEFF 		bl	update_sensor_mode
 3057              	.LVL229:
 3058              		.loc 1 2409 0
 3059 00aa 07B0     		add	sp, sp, #28
 3060              		.cfi_def_cfa_offset 20
 3061              		@ sp needed
 3062 00ac F0BD     		pop	{r4, r5, r6, r7, pc}
 3063              	.L262:
 3064 00ae 00BF     		.align	2
 3065              	.L261:
 3066 00b0 00000000 		.word	.LANCHOR31
 3067 00b4 00000000 		.word	.LANCHOR32
 3068 00b8 00000000 		.word	.LANCHOR3
 3069 00bc 00000000 		.word	.LANCHOR27
 3070 00c0 00000000 		.word	.LANCHOR0
 3071 00c4 00000000 		.word	.LANCHOR33
 3072 00c8 00000000 		.word	.LANCHOR11
 3073 00cc 00000000 		.word	.LANCHOR2
 3074 00d0 00000140 		.word	1073807360
 3075 00d4 00000000 		.word	.LANCHOR12
 3076 00d8 00000000 		.word	.LANCHOR34
 3077              		.cfi_endproc
 3078              	.LFE314:
ARM GAS  /tmp/ccSQtpaj.s 			page 55


 3079              		.size	commutate, .-commutate
 3080              		.section	.text.set_switching_frequency.constprop.0,"ax",%progbits
 3081              		.align	2
 3082              		.p2align 4,,15
 3083              		.thumb
 3084              		.thumb_func
 3085              		.type	set_switching_frequency.constprop.0, %function
 3086              	set_switching_frequency.constprop.0:
 3087              	.LFB319:
 3088              		.loc 1 2451 0
 3089              		.cfi_startproc
 3090              		@ args = 0, pretend = 0, frame = 24
 3091              		@ frame_needed = 0, uses_anonymous_args = 0
 3092              	.LVL230:
 3093 0000 70B5     		push	{r4, r5, r6, lr}
 3094              		.cfi_def_cfa_offset 16
 3095              		.cfi_offset 4, -16
 3096              		.cfi_offset 5, -12
 3097              		.cfi_offset 6, -8
 3098              		.cfi_offset 14, -4
 3099              		.loc 1 2452 0
 3100 0002 114E     		ldr	r6, .L265
 3101              		.loc 1 2456 0
 3102 0004 114D     		ldr	r5, .L265+4
 3103              		.loc 1 2452 0
 3104 0006 124B     		ldr	r3, .L265+8
 3105 0008 3360     		str	r3, [r6]	@ float
 3106              		.loc 1 2451 0
 3107 000a 86B0     		sub	sp, sp, #24
 3108              		.cfi_def_cfa_offset 40
 3109              		.loc 1 2455 0
 3110 000c FFF7FEFF 		bl	utils_sys_lock_cnt
 3111              	.LVL231:
 3112              		.loc 1 2456 0
 3113 0010 0FCD     		ldmia	r5!, {r0, r1, r2, r3}
 3114 0012 6C46     		mov	r4, sp
 3115 0014 0FC4     		stmia	r4!, {r0, r1, r2, r3}
 3116 0016 95E80300 		ldmia	r5, {r0, r1}
 3117 001a 84E80300 		stmia	r4, {r0, r1}
 3118              		.loc 1 2457 0
 3119 001e FFF7FEFF 		bl	utils_sys_unlock_cnt
 3120              	.LVL232:
 3121              		.loc 1 2459 0
 3122 0022 D6ED007A 		flds	s15, [r6]
 3123 0026 0B4A     		ldr	r2, .L265+12
 3124 0028 FDEEE77A 		ftosizs	s15, s15
 3125              		.loc 1 2460 0
 3126 002c 6846     		mov	r0, sp
 3127              		.loc 1 2459 0
 3128 002e 17EE903A 		fmrs	r3, s15	@ int
 3129 0032 92FBF3F3 		sdiv	r3, r2, r3
 3130 0036 0193     		str	r3, [sp, #4]
 3131              		.loc 1 2460 0
 3132 0038 FFF7FEFF 		bl	update_adc_sample_pos
 3133              	.LVL233:
 3134              		.loc 1 2461 0
 3135 003c 6846     		mov	r0, sp
ARM GAS  /tmp/ccSQtpaj.s 			page 56


 3136 003e FFF7FEFF 		bl	set_next_timer_settings
 3137              	.LVL234:
 3138              		.loc 1 2462 0
 3139 0042 06B0     		add	sp, sp, #24
 3140              		.cfi_def_cfa_offset 16
 3141              		@ sp needed
 3142 0044 70BD     		pop	{r4, r5, r6, pc}
 3143              	.L266:
 3144 0046 00BF     		.align	2
 3145              	.L265:
 3146 0048 00000000 		.word	.LANCHOR13
 3147 004c 00000000 		.word	.LANCHOR12
 3148 0050 00401C47 		.word	1193033728
 3149 0054 007A030A 		.word	168000000
 3150              		.cfi_endproc
 3151              	.LFE319:
 3152              		.size	set_switching_frequency.constprop.0, .-set_switching_frequency.constprop.0
 3153              		.section	.text.full_brake_hw,"ax",%progbits
 3154              		.align	2
 3155              		.p2align 4,,15
 3156              		.thumb
 3157              		.thumb_func
 3158              		.type	full_brake_hw, %function
 3159              	full_brake_hw:
 3160              	.LFB288:
 3161              		.loc 1 893 0
 3162              		.cfi_startproc
 3163              		@ args = 0, pretend = 0, frame = 0
 3164              		@ frame_needed = 0, uses_anonymous_args = 0
 3165 0000 10B5     		push	{r4, lr}
 3166              		.cfi_def_cfa_offset 8
 3167              		.cfi_offset 4, -8
 3168              		.cfi_offset 14, -4
 3169              		.loc 1 894 0
 3170 0002 1B4C     		ldr	r4, .L269
 3171 0004 0021     		movs	r1, #0
 3172 0006 2046     		mov	r0, r4
 3173 0008 4022     		movs	r2, #64
 3174 000a FFF7FEFF 		bl	TIM_SelectOCxM
 3175              	.LVL235:
 3176              		.loc 1 895 0
 3177 000e 2046     		mov	r0, r4
 3178 0010 0021     		movs	r1, #0
 3179 0012 0122     		movs	r2, #1
 3180 0014 FFF7FEFF 		bl	TIM_CCxCmd
 3181              	.LVL236:
 3182              		.loc 1 896 0
 3183 0018 2046     		mov	r0, r4
 3184 001a 0021     		movs	r1, #0
 3185 001c 0422     		movs	r2, #4
 3186 001e FFF7FEFF 		bl	TIM_CCxNCmd
 3187              	.LVL237:
 3188              		.loc 1 898 0
 3189 0022 2046     		mov	r0, r4
 3190 0024 0421     		movs	r1, #4
 3191 0026 4022     		movs	r2, #64
 3192 0028 FFF7FEFF 		bl	TIM_SelectOCxM
ARM GAS  /tmp/ccSQtpaj.s 			page 57


 3193              	.LVL238:
 3194              		.loc 1 899 0
 3195 002c 2046     		mov	r0, r4
 3196 002e 0421     		movs	r1, #4
 3197 0030 0122     		movs	r2, #1
 3198 0032 FFF7FEFF 		bl	TIM_CCxCmd
 3199              	.LVL239:
 3200              		.loc 1 900 0
 3201 0036 0421     		movs	r1, #4
 3202 0038 2046     		mov	r0, r4
 3203 003a 0A46     		mov	r2, r1
 3204 003c FFF7FEFF 		bl	TIM_CCxNCmd
 3205              	.LVL240:
 3206              		.loc 1 902 0
 3207 0040 2046     		mov	r0, r4
 3208 0042 0821     		movs	r1, #8
 3209 0044 4022     		movs	r2, #64
 3210 0046 FFF7FEFF 		bl	TIM_SelectOCxM
 3211              	.LVL241:
 3212              		.loc 1 903 0
 3213 004a 2046     		mov	r0, r4
 3214 004c 0821     		movs	r1, #8
 3215 004e 0122     		movs	r2, #1
 3216 0050 FFF7FEFF 		bl	TIM_CCxCmd
 3217              	.LVL242:
 3218              		.loc 1 904 0
 3219 0054 2046     		mov	r0, r4
 3220 0056 0821     		movs	r1, #8
 3221 0058 0422     		movs	r2, #4
 3222 005a FFF7FEFF 		bl	TIM_CCxNCmd
 3223              	.LVL243:
 3224              		.loc 1 906 0
 3225 005e 2046     		mov	r0, r4
 3226 0060 2021     		movs	r1, #32
 3227 0062 FFF7FEFF 		bl	TIM_GenerateEvent
 3228              	.LVL244:
 3229              		.loc 1 909 0
 3230 0066 BDE81040 		pop	{r4, lr}
 3231              		.cfi_restore 14
 3232              		.cfi_restore 4
 3233              		.cfi_def_cfa_offset 0
 3234              		.loc 1 908 0
 3235 006a FFF7FEBF 		b	set_switching_frequency.constprop.0
 3236              	.LVL245:
 3237              	.L270:
 3238 006e 00BF     		.align	2
 3239              	.L269:
 3240 0070 00000140 		.word	1073807360
 3241              		.cfi_endproc
 3242              	.LFE288:
 3243              		.size	full_brake_hw, .-full_brake_hw
 3244              		.section	.text.stop_pwm_hw,"ax",%progbits
 3245              		.align	2
 3246              		.p2align 4,,15
 3247              		.thumb
 3248              		.thumb_func
 3249              		.type	stop_pwm_hw, %function
ARM GAS  /tmp/ccSQtpaj.s 			page 58


 3250              	stop_pwm_hw:
 3251              	.LFB286:
 3252              		.loc 1 869 0
 3253              		.cfi_startproc
 3254              		@ args = 0, pretend = 0, frame = 0
 3255              		@ frame_needed = 0, uses_anonymous_args = 0
 3256 0000 10B5     		push	{r4, lr}
 3257              		.cfi_def_cfa_offset 8
 3258              		.cfi_offset 4, -8
 3259              		.cfi_offset 14, -4
 3260              		.loc 1 870 0
 3261 0002 1B4C     		ldr	r4, .L273
 3262 0004 0021     		movs	r1, #0
 3263 0006 2046     		mov	r0, r4
 3264 0008 4022     		movs	r2, #64
 3265 000a FFF7FEFF 		bl	TIM_SelectOCxM
 3266              	.LVL246:
 3267              		.loc 1 871 0
 3268 000e 2046     		mov	r0, r4
 3269 0010 0021     		movs	r1, #0
 3270 0012 0122     		movs	r2, #1
 3271 0014 FFF7FEFF 		bl	TIM_CCxCmd
 3272              	.LVL247:
 3273              		.loc 1 872 0
 3274 0018 0021     		movs	r1, #0
 3275 001a 2046     		mov	r0, r4
 3276 001c 0A46     		mov	r2, r1
 3277 001e FFF7FEFF 		bl	TIM_CCxNCmd
 3278              	.LVL248:
 3279              		.loc 1 874 0
 3280 0022 2046     		mov	r0, r4
 3281 0024 0421     		movs	r1, #4
 3282 0026 4022     		movs	r2, #64
 3283 0028 FFF7FEFF 		bl	TIM_SelectOCxM
 3284              	.LVL249:
 3285              		.loc 1 875 0
 3286 002c 2046     		mov	r0, r4
 3287 002e 0421     		movs	r1, #4
 3288 0030 0122     		movs	r2, #1
 3289 0032 FFF7FEFF 		bl	TIM_CCxCmd
 3290              	.LVL250:
 3291              		.loc 1 876 0
 3292 0036 2046     		mov	r0, r4
 3293 0038 0421     		movs	r1, #4
 3294 003a 0022     		movs	r2, #0
 3295 003c FFF7FEFF 		bl	TIM_CCxNCmd
 3296              	.LVL251:
 3297              		.loc 1 878 0
 3298 0040 2046     		mov	r0, r4
 3299 0042 0821     		movs	r1, #8
 3300 0044 4022     		movs	r2, #64
 3301 0046 FFF7FEFF 		bl	TIM_SelectOCxM
 3302              	.LVL252:
 3303              		.loc 1 879 0
 3304 004a 2046     		mov	r0, r4
 3305 004c 0821     		movs	r1, #8
 3306 004e 0122     		movs	r2, #1
ARM GAS  /tmp/ccSQtpaj.s 			page 59


 3307 0050 FFF7FEFF 		bl	TIM_CCxCmd
 3308              	.LVL253:
 3309              		.loc 1 880 0
 3310 0054 2046     		mov	r0, r4
 3311 0056 0821     		movs	r1, #8
 3312 0058 0022     		movs	r2, #0
 3313 005a FFF7FEFF 		bl	TIM_CCxNCmd
 3314              	.LVL254:
 3315              		.loc 1 882 0
 3316 005e 2046     		mov	r0, r4
 3317 0060 2021     		movs	r1, #32
 3318 0062 FFF7FEFF 		bl	TIM_GenerateEvent
 3319              	.LVL255:
 3320              		.loc 1 885 0
 3321 0066 BDE81040 		pop	{r4, lr}
 3322              		.cfi_restore 14
 3323              		.cfi_restore 4
 3324              		.cfi_def_cfa_offset 0
 3325              		.loc 1 884 0
 3326 006a FFF7FEBF 		b	set_switching_frequency.constprop.0
 3327              	.LVL256:
 3328              	.L274:
 3329 006e 00BF     		.align	2
 3330              	.L273:
 3331 0070 00000140 		.word	1073807360
 3332              		.cfi_endproc
 3333              	.LFE286:
 3334              		.size	stop_pwm_hw, .-stop_pwm_hw
 3335              		.section	.text.mcpwm_deinit,"ax",%progbits
 3336              		.align	2
 3337              		.p2align 4,,15
 3338              		.global	mcpwm_deinit
 3339              		.thumb
 3340              		.thumb_func
 3341              		.type	mcpwm_deinit, %function
 3342              	mcpwm_deinit:
 3343              	.LFB257:
 3344              		.loc 1 460 0
 3345              		.cfi_startproc
 3346              		@ args = 0, pretend = 0, frame = 0
 3347              		@ frame_needed = 0, uses_anonymous_args = 0
 3348 0000 38B5     		push	{r3, r4, r5, lr}
 3349              		.cfi_def_cfa_offset 16
 3350              		.cfi_offset 3, -16
 3351              		.cfi_offset 4, -12
 3352              		.cfi_offset 5, -8
 3353              		.cfi_offset 14, -4
 3354              		.loc 1 463 0
 3355 0002 154C     		ldr	r4, .L279
 3356              		.loc 1 464 0
 3357 0004 154D     		ldr	r5, .L279+4
 3358              		.loc 1 461 0
 3359 0006 FFF7FEFF 		bl	WWDG_DeInit
 3360              	.LVL257:
 3361              		.loc 1 463 0
 3362 000a 0123     		movs	r3, #1
 3363 000c 2370     		strb	r3, [r4]
ARM GAS  /tmp/ccSQtpaj.s 			page 60


 3364              		.loc 1 464 0
 3365 000e 2B70     		strb	r3, [r5]
 3366              		.loc 1 466 0
 3367 0010 01E0     		b	.L276
 3368              	.L277:
 3369              		.loc 1 467 0
 3370 0012 FFF7FEFF 		bl	chThdSleep
 3371              	.LVL258:
 3372              	.L276:
 3373              		.loc 1 466 0
 3374 0016 2378     		ldrb	r3, [r4]	@ zero_extendqisi2
 3375              		.loc 1 467 0
 3376 0018 0A20     		movs	r0, #10
 3377              		.loc 1 466 0
 3378 001a 002B     		cmp	r3, #0
 3379 001c F9D1     		bne	.L277
 3380              		.loc 1 466 0 is_stmt 0 discriminator 1
 3381 001e 2B78     		ldrb	r3, [r5]	@ zero_extendqisi2
 3382 0020 002B     		cmp	r3, #0
 3383 0022 F6D1     		bne	.L277
 3384              		.loc 1 470 0 is_stmt 1
 3385 0024 0E48     		ldr	r0, .L279+8
 3386 0026 FFF7FEFF 		bl	TIM_DeInit
 3387              	.LVL259:
 3388              		.loc 1 471 0
 3389 002a 4FF08040 		mov	r0, #1073741824
 3390 002e FFF7FEFF 		bl	TIM_DeInit
 3391              	.LVL260:
 3392              		.loc 1 472 0
 3393 0032 0C48     		ldr	r0, .L279+12
 3394 0034 FFF7FEFF 		bl	TIM_DeInit
 3395              	.LVL261:
 3396              		.loc 1 473 0
 3397 0038 0B48     		ldr	r0, .L279+16
 3398 003a FFF7FEFF 		bl	TIM_DeInit
 3399              	.LVL262:
 3400              		.loc 1 474 0
 3401 003e FFF7FEFF 		bl	ADC_DeInit
 3402              	.LVL263:
 3403              		.loc 1 475 0
 3404 0042 0A48     		ldr	r0, .L279+20
 3405 0044 FFF7FEFF 		bl	DMA_DeInit
 3406              	.LVL264:
 3407              		.loc 1 476 0
 3408 0048 1220     		movs	r0, #18
 3409 004a FFF7FEFF 		bl	nvicDisableVector
 3410              	.LVL265:
 3411              		.loc 1 477 0
 3412 004e 0848     		ldr	r0, .L279+24
 3413              		.loc 1 478 0
 3414 0050 BDE83840 		pop	{r3, r4, r5, lr}
 3415              		.cfi_restore 14
 3416              		.cfi_restore 5
 3417              		.cfi_restore 4
 3418              		.cfi_restore 3
 3419              		.cfi_def_cfa_offset 0
 3420              		.loc 1 477 0
ARM GAS  /tmp/ccSQtpaj.s 			page 61


 3421 0054 FFF7FEBF 		b	dmaStreamRelease
 3422              	.LVL266:
 3423              	.L280:
 3424              		.align	2
 3425              	.L279:
 3426 0058 00000000 		.word	.LANCHOR23
 3427 005c 00000000 		.word	.LANCHOR14
 3428 0060 00000140 		.word	1073807360
 3429 0064 00040140 		.word	1073808384
 3430 0068 00180040 		.word	1073747968
 3431 006c 70640240 		.word	1073898608
 3432 0070 90000000 		.word	_stm32_dma_streams+144
 3433              		.cfi_endproc
 3434              	.LFE257:
 3435              		.size	mcpwm_deinit, .-mcpwm_deinit
 3436              		.section	.text.mcpwm_init_hall_table,"ax",%progbits
 3437              		.align	2
 3438              		.p2align 4,,15
 3439              		.global	mcpwm_init_hall_table
 3440              		.thumb
 3441              		.thumb_func
 3442              		.type	mcpwm_init_hall_table, %function
 3443              	mcpwm_init_hall_table:
 3444              	.LFB259:
 3445              		.loc 1 498 0
 3446              		.cfi_startproc
 3447              		@ args = 0, pretend = 0, frame = 32
 3448              		@ frame_needed = 0, uses_anonymous_args = 0
 3449              		@ link register save eliminated.
 3450              	.LVL267:
 3451 0000 F0B4     		push	{r4, r5, r6, r7}
 3452              		.cfi_def_cfa_offset 16
 3453              		.cfi_offset 4, -16
 3454              		.cfi_offset 5, -12
 3455              		.cfi_offset 6, -8
 3456              		.cfi_offset 7, -4
 3457              		.loc 1 499 0
 3458 0002 104F     		ldr	r7, .L288
 3459 0004 104C     		ldr	r4, .L288+4
 3460              		.loc 1 498 0
 3461 0006 0546     		mov	r5, r0
 3462              		.loc 1 499 0
 3463 0008 0FCF     		ldmia	r7!, {r0, r1, r2, r3}
 3464              	.LVL268:
 3465              		.loc 1 498 0
 3466 000a 88B0     		sub	sp, sp, #32
 3467              		.cfi_def_cfa_offset 48
 3468              		.loc 1 499 0
 3469 000c 01AE     		add	r6, sp, #4
 3470 000e 0FC6     		stmia	r6!, {r0, r1, r2, r3}
 3471 0010 97E80700 		ldmia	r7, {r0, r1, r2}
 3472 0014 86E80700 		stmia	r6, {r0, r1, r2}
 3473              	.LVL269:
 3474 0018 681E     		subs	r0, r5, #1
 3475 001a 04F12001 		add	r1, r4, #32
 3476              	.LVL270:
 3477              	.L284:
ARM GAS  /tmp/ccSQtpaj.s 			page 62


 3478              	.LBB146:
 3479              	.LBB147:
 3480              		.loc 1 502 0
 3481 001e 10F9013F 		ldrsb	r3, [r0, #1]!
 3482              	.LVL271:
 3483 0022 44F8043F 		str	r3, [r4, #4]!
 3484              	.LVL272:
 3485              		.loc 1 510 0
 3486 0026 08AA     		add	r2, sp, #32
 3487 0028 02EB8302 		add	r2, r2, r3, lsl #2
 3488              		.loc 1 505 0
 3489 002c 002B     		cmp	r3, #0
 3490              		.loc 1 510 0
 3491 002e C8BF     		it	gt
 3492 0030 52F81C3C 		ldrgt	r3, [r2, #-28]
 3493              	.LVL273:
 3494 0034 44F8203C 		str	r3, [r4, #-32]
 3495              	.LVL274:
 3496              	.LBE147:
 3497              		.loc 1 501 0
 3498 0038 8C42     		cmp	r4, r1
 3499 003a F0D1     		bne	.L284
 3500              	.LBE146:
 3501              		.loc 1 512 0
 3502 003c 08B0     		add	sp, sp, #32
 3503              		.cfi_def_cfa_offset 16
 3504              		@ sp needed
 3505 003e F0BC     		pop	{r4, r5, r6, r7}
 3506              		.cfi_restore 7
 3507              		.cfi_restore 6
 3508              		.cfi_restore 5
 3509              		.cfi_restore 4
 3510              		.cfi_def_cfa_offset 0
 3511              	.LVL275:
 3512 0040 7047     		bx	lr
 3513              	.L289:
 3514 0042 00BF     		.align	2
 3515              	.L288:
 3516 0044 00000000 		.word	.LANCHOR35
 3517 0048 1C000000 		.word	.LANCHOR36+28
 3518              		.cfi_endproc
 3519              	.LFE259:
 3520              		.size	mcpwm_init_hall_table, .-mcpwm_init_hall_table
 3521              		.section	.text.mcpwm_init,"ax",%progbits
 3522              		.align	2
 3523              		.p2align 4,,15
 3524              		.global	mcpwm_init
 3525              		.thumb
 3526              		.thumb_func
 3527              		.type	mcpwm_init, %function
 3528              	mcpwm_init:
 3529              	.LFB256:
 3530              		.loc 1 161 0
 3531              		.cfi_startproc
 3532              		@ args = 0, pretend = 0, frame = 184
 3533              		@ frame_needed = 0, uses_anonymous_args = 0
 3534              	.LVL276:
ARM GAS  /tmp/ccSQtpaj.s 			page 63


 3535 0000 2DE9F04F 		push	{r4, r5, r6, r7, r8, r9, r10, fp, lr}
 3536              		.cfi_def_cfa_offset 36
 3537              		.cfi_offset 4, -36
 3538              		.cfi_offset 5, -32
 3539              		.cfi_offset 6, -28
 3540              		.cfi_offset 7, -24
 3541              		.cfi_offset 8, -20
 3542              		.cfi_offset 9, -16
 3543              		.cfi_offset 10, -12
 3544              		.cfi_offset 11, -8
 3545              		.cfi_offset 14, -4
 3546 0004 B1B0     		sub	sp, sp, #196
 3547              		.cfi_def_cfa_offset 232
 3548              		.loc 1 161 0
 3549 0006 8346     		mov	fp, r0
 3550              		.loc 1 162 0
 3551 0008 FFF7FEFF 		bl	utils_sys_lock_cnt
 3552              	.LVL277:
 3553              		.loc 1 194 0
 3554 000c CC49     		ldr	r1, .L297
 3555              		.loc 1 168 0
 3556 000e CD4B     		ldr	r3, .L297+4
 3557              		.loc 1 174 0
 3558 0010 DFEDCD7A 		flds	s15, .L297+8
 3559              		.loc 1 168 0
 3560 0014 C3F800B0 		str	fp, [r3]
 3561              		.loc 1 172 0
 3562 0018 0024     		movs	r4, #0
 3563              		.loc 1 194 0
 3564 001a 0C60     		str	r4, [r1]
 3565 001c 4C60     		str	r4, [r1, #4]
 3566 001e 8C60     		str	r4, [r1, #8]
 3567 0020 CC60     		str	r4, [r1, #12]
 3568 0022 0C61     		str	r4, [r1, #16]
 3569 0024 4C61     		str	r4, [r1, #20]
 3570 0026 01F11803 		add	r3, r1, #24
 3571              		.loc 1 171 0
 3572 002a DFF8B4A3 		ldr	r10, .L297+160
 3573              		.loc 1 172 0
 3574 002e DFF8B493 		ldr	r9, .L297+164
 3575              		.loc 1 173 0
 3576 0032 C64E     		ldr	r6, .L297+12
 3577              		.loc 1 174 0
 3578 0034 DFF8B083 		ldr	r8, .L297+168
 3579              		.loc 1 175 0
 3580 0038 DFF8B0C3 		ldr	ip, .L297+172
 3581              		.loc 1 176 0
 3582 003c DFF8B0E3 		ldr	lr, .L297+176
 3583              		.loc 1 177 0
 3584 0040 C34F     		ldr	r7, .L297+16
 3585              		.loc 1 178 0
 3586 0042 C448     		ldr	r0, .L297+20
 3587              		.loc 1 179 0
 3588 0044 C449     		ldr	r1, .L297+24
 3589              		.loc 1 194 0
 3590 0046 1C60     		str	r4, [r3]
 3591              		.loc 1 171 0
ARM GAS  /tmp/ccSQtpaj.s 			page 64


 3592 0048 0125     		movs	r5, #1
 3593 004a CAF80050 		str	r5, [r10]
 3594              		.loc 1 181 0
 3595 004e C34B     		ldr	r3, .L297+28
 3596              		.loc 1 172 0
 3597 0050 C9F80040 		str	r4, [r9]
 3598              		.loc 1 173 0
 3599 0054 3560     		str	r5, [r6]
 3600              		.loc 1 174 0
 3601 0056 C8ED007A 		fsts	s15, [r8]
 3602              		.loc 1 175 0
 3603 005a CCED007A 		fsts	s15, [ip]
 3604              		.loc 1 176 0
 3605 005e CEED007A 		fsts	s15, [lr]
 3606              		.loc 1 177 0
 3607 0062 C7ED007A 		fsts	s15, [r7]
 3608              		.loc 1 178 0
 3609 0066 C0ED007A 		fsts	s15, [r0]
 3610              		.loc 1 179 0
 3611 006a C1ED007A 		fsts	s15, [r1]
 3612              		.loc 1 180 0
 3613 006e BC49     		ldr	r1, .L297+32
 3614              		.loc 1 200 0
 3615 0070 BC4A     		ldr	r2, .L297+36
 3616              		.loc 1 180 0
 3617 0072 0C60     		str	r4, [r1]
 3618              		.loc 1 181 0
 3619 0074 1C60     		str	r4, [r3]
 3620              		.loc 1 182 0
 3621 0076 BC4B     		ldr	r3, .L297+40
 3622              		.loc 1 184 0
 3623 0078 BC49     		ldr	r1, .L297+44
 3624              		.loc 1 182 0
 3625 007a 1C60     		str	r4, [r3]
 3626              		.loc 1 183 0
 3627 007c BC4B     		ldr	r3, .L297+48
 3628              		.loc 1 188 0
 3629 007e 9FEDBD7A 		flds	s14, .L297+52
 3630              		.loc 1 183 0
 3631 0082 1C70     		strb	r4, [r3]
 3632              		.loc 1 184 0
 3633 0084 0523     		movs	r3, #5
 3634 0086 0B70     		strb	r3, [r1]
 3635              		.loc 1 185 0
 3636 0088 BB4B     		ldr	r3, .L297+56
 3637              		.loc 1 186 0
 3638 008a BC49     		ldr	r1, .L297+60
 3639              		.loc 1 185 0
 3640 008c C3ED007A 		fsts	s15, [r3]
 3641              		.loc 1 186 0
 3642 0090 C1ED007A 		fsts	s15, [r1]
 3643              		.loc 1 187 0
 3644 0094 BA49     		ldr	r1, .L297+64
 3645              		.loc 1 193 0
 3646 0096 DFF85CE3 		ldr	lr, .L297+180
 3647              		.loc 1 192 0
 3648 009a DFF85CC3 		ldr	ip, .L297+184
ARM GAS  /tmp/ccSQtpaj.s 			page 65


 3649              		.loc 1 187 0
 3650 009e C1ED007A 		fsts	s15, [r1]
 3651              		.loc 1 188 0
 3652 00a2 B84E     		ldr	r6, .L297+68
 3653              		.loc 1 189 0
 3654 00a4 DFF854A3 		ldr	r10, .L297+188
 3655              		.loc 1 190 0
 3656 00a8 DFF85493 		ldr	r9, .L297+192
 3657              		.loc 1 191 0
 3658 00ac DFF85483 		ldr	r8, .L297+196
 3659              		.loc 1 195 0
 3660 00b0 B54F     		ldr	r7, .L297+72
 3661              		.loc 1 196 0
 3662 00b2 B648     		ldr	r0, .L297+76
 3663              		.loc 1 197 0
 3664 00b4 B649     		ldr	r1, .L297+80
 3665              		.loc 1 188 0
 3666 00b6 86ED007A 		fsts	s14, [r6]
 3667              		.loc 1 200 0
 3668 00ba 02F11403 		add	r3, r2, #20
 3669              		.loc 1 189 0
 3670 00be CAF80040 		str	r4, [r10]
 3671              		.loc 1 190 0
 3672 00c2 C9F80040 		str	r4, [r9]
 3673              		.loc 1 191 0
 3674 00c6 C8F80040 		str	r4, [r8]
 3675              		.loc 1 192 0
 3676 00ca CCF80040 		str	r4, [ip]
 3677              		.loc 1 193 0
 3678 00ce CEF80040 		str	r4, [lr]
 3679              		.loc 1 195 0
 3680 00d2 C7ED007A 		fsts	s15, [r7]
 3681              		.loc 1 196 0
 3682 00d6 C0ED007A 		fsts	s15, [r0]
 3683              		.loc 1 197 0
 3684 00da C1ED007A 		fsts	s15, [r1]
 3685              		.loc 1 198 0
 3686 00de AD49     		ldr	r1, .L297+84
 3687              		.loc 1 200 0
 3688 00e0 1460     		str	r4, [r2]
 3689 00e2 5460     		str	r4, [r2, #4]
 3690 00e4 9460     		str	r4, [r2, #8]
 3691 00e6 D460     		str	r4, [r2, #12]
 3692 00e8 1461     		str	r4, [r2, #16]
 3693              		.loc 1 199 0
 3694 00ea AB4F     		ldr	r7, .L297+88
 3695              		.loc 1 200 0
 3696 00ec 1C60     		str	r4, [r3]
 3697              		.loc 1 201 0
 3698 00ee AB4B     		ldr	r3, .L297+92
 3699              		.loc 1 198 0
 3700 00f0 0C60     		str	r4, [r1]
 3701              		.loc 1 202 0
 3702 00f2 E022     		movs	r2, #224
 3703 00f4 2146     		mov	r1, r4
 3704 00f6 AA48     		ldr	r0, .L297+96
 3705              		.loc 1 199 0
ARM GAS  /tmp/ccSQtpaj.s 			page 66


 3706 00f8 C7ED007A 		fsts	s15, [r7]
 3707              		.loc 1 201 0
 3708 00fc 1C70     		strb	r4, [r3]
 3709              		.loc 1 202 0
 3710 00fe FFF7FEFF 		bl	memset
 3711              	.LVL278:
 3712              		.loc 1 203 0
 3713 0102 FFF7FEFF 		bl	update_sensor_mode
 3714              	.LVL279:
 3715              		.loc 1 205 0
 3716 0106 0BF18000 		add	r0, fp, #128
 3717 010a FFF7FEFF 		bl	mcpwm_init_hall_table
 3718              	.LVL280:
 3719              		.loc 1 208 0
 3720 010e 2A46     		mov	r2, r5
 3721 0110 A448     		ldr	r0, .L297+100
 3722 0112 9FEDA50A 		flds	s0, .L297+104
 3723              		.loc 1 216 0
 3724 0116 A54F     		ldr	r7, .L297+108
 3725              		.loc 1 217 0
 3726 0118 DFF8EC82 		ldr	r8, .L297+200
 3727              		.loc 1 208 0
 3728 011c 0721     		movs	r1, #7
 3729 011e FFF7FEFF 		bl	filter_create_fir_lowpass
 3730              	.LVL281:
 3731              		.loc 1 211 0
 3732 0122 2A46     		mov	r2, r5
 3733 0124 A248     		ldr	r0, .L297+112
 3734 0126 9FEDA00A 		flds	s0, .L297+104
 3735 012a 0721     		movs	r1, #7
 3736 012c FFF7FEFF 		bl	filter_create_fir_lowpass
 3737              	.LVL282:
 3738              		.loc 1 214 0
 3739 0130 9FEDA00A 		flds	s0, .L297+116
 3740 0134 A048     		ldr	r0, .L297+120
 3741 0136 2A46     		mov	r2, r5
 3742 0138 0421     		movs	r1, #4
 3743 013a FFF7FEFF 		bl	filter_create_fir_lowpass
 3744              	.LVL283:
 3745              		.loc 1 216 0
 3746 013e 3846     		mov	r0, r7
 3747 0140 FFF7FEFF 		bl	TIM_DeInit
 3748              	.LVL284:
 3749              		.loc 1 217 0
 3750 0144 4046     		mov	r0, r8
 3751 0146 FFF7FEFF 		bl	TIM_DeInit
 3752              	.LVL285:
 3753              		.loc 1 218 0
 3754 014a 7C62     		str	r4, [r7, #36]
 3755              		.loc 1 222 0
 3756 014c 2846     		mov	r0, r5
 3757 014e 2946     		mov	r1, r5
 3758              		.loc 1 219 0
 3759 0150 C8F82440 		str	r4, [r8, #36]
 3760              		.loc 1 222 0
 3761 0154 FFF7FEFF 		bl	RCC_APB2PeriphClockCmd
 3762              	.LVL286:
ARM GAS  /tmp/ccSQtpaj.s 			page 67


 3763              		.loc 1 227 0
 3764 0158 D6ED007A 		flds	s15, [r6]
 3765 015c 974A     		ldr	r2, .L297+124
 3766              		.loc 1 225 0
 3767 015e ADF81440 		strh	r4, [sp, #20]	@ movhi
 3768              		.loc 1 227 0
 3769 0162 FDEEE77A 		ftosizs	s15, s15
 3770              		.loc 1 231 0
 3771 0166 3846     		mov	r0, r7
 3772              		.loc 1 227 0
 3773 0168 17EE903A 		fmrs	r3, s15	@ int
 3774              		.loc 1 231 0
 3775 016c 05A9     		add	r1, sp, #20
 3776              		.loc 1 227 0
 3777 016e 92FBF3F3 		sdiv	r3, r2, r3
 3778              		.loc 1 226 0
 3779 0172 ADF81640 		strh	r4, [sp, #22]	@ movhi
 3780              		.loc 1 227 0
 3781 0176 0693     		str	r3, [sp, #24]
 3782              		.loc 1 228 0
 3783 0178 ADF81C40 		strh	r4, [sp, #28]	@ movhi
 3784              		.loc 1 229 0
 3785 017c 8DF81E40 		strb	r4, [sp, #30]
 3786              		.loc 1 231 0
 3787 0180 FFF7FEFF 		bl	TIM_TimeBaseInit
 3788              	.LVL287:
 3789              		.loc 1 237 0
 3790 0184 FB6A     		ldr	r3, [r7, #44]
 3791              		.loc 1 235 0
 3792 0186 ADF84250 		strh	r5, [sp, #66]	@ movhi
 3793              		.loc 1 237 0
 3794 018a EB40     		lsrs	r3, r3, r5
 3795              		.loc 1 236 0
 3796 018c 4FF00409 		mov	r9, #4
 3797              		.loc 1 240 0
 3798 0190 4FF4807A 		mov	r10, #256
 3799              		.loc 1 243 0
 3800 0194 3846     		mov	r0, r7
 3801 0196 10A9     		add	r1, sp, #64
 3802              		.loc 1 241 0
 3803 0198 4FF4007B 		mov	fp, #512
 3804              	.LVL288:
 3805              		.loc 1 237 0
 3806 019c 1293     		str	r3, [sp, #72]
 3807              		.loc 1 234 0
 3808 019e 4FF06003 		mov	r3, #96	@ movhi
 3809 01a2 ADF84030 		strh	r3, [sp, #64]	@ movhi
 3810              		.loc 1 238 0
 3811 01a6 ADF84C40 		strh	r4, [sp, #76]	@ movhi
 3812              		.loc 1 239 0
 3813 01aa ADF84E40 		strh	r4, [sp, #78]	@ movhi
 3814              		.loc 1 236 0
 3815 01ae ADF84490 		strh	r9, [sp, #68]	@ movhi
 3816              		.loc 1 240 0
 3817 01b2 ADF850A0 		strh	r10, [sp, #80]	@ movhi
 3818              		.loc 1 241 0
 3819 01b6 ADF852B0 		strh	fp, [sp, #82]	@ movhi
ARM GAS  /tmp/ccSQtpaj.s 			page 68


 3820              		.loc 1 243 0
 3821 01ba FFF7FEFF 		bl	TIM_OC1Init
 3822              	.LVL289:
 3823              		.loc 1 244 0
 3824 01be 3846     		mov	r0, r7
 3825 01c0 10A9     		add	r1, sp, #64
 3826 01c2 FFF7FEFF 		bl	TIM_OC2Init
 3827              	.LVL290:
 3828              		.loc 1 245 0
 3829 01c6 3846     		mov	r0, r7
 3830 01c8 10A9     		add	r1, sp, #64
 3831 01ca FFF7FEFF 		bl	TIM_OC3Init
 3832              	.LVL291:
 3833              		.loc 1 246 0
 3834 01ce 3846     		mov	r0, r7
 3835 01d0 10A9     		add	r1, sp, #64
 3836 01d2 FFF7FEFF 		bl	TIM_OC4Init
 3837              	.LVL292:
 3838              		.loc 1 248 0
 3839 01d6 3846     		mov	r0, r7
 3840 01d8 0821     		movs	r1, #8
 3841 01da FFF7FEFF 		bl	TIM_OC1PreloadConfig
 3842              	.LVL293:
 3843              		.loc 1 249 0
 3844 01de 3846     		mov	r0, r7
 3845 01e0 0821     		movs	r1, #8
 3846 01e2 FFF7FEFF 		bl	TIM_OC2PreloadConfig
 3847              	.LVL294:
 3848              		.loc 1 250 0
 3849 01e6 3846     		mov	r0, r7
 3850 01e8 0821     		movs	r1, #8
 3851 01ea FFF7FEFF 		bl	TIM_OC3PreloadConfig
 3852              	.LVL295:
 3853              		.loc 1 251 0
 3854 01ee 3846     		mov	r0, r7
 3855 01f0 0821     		movs	r1, #8
 3856 01f2 FFF7FEFF 		bl	TIM_OC4PreloadConfig
 3857              	.LVL296:
 3858              		.loc 1 257 0
 3859 01f6 3C23     		movs	r3, #60
 3860              		.loc 1 254 0
 3861 01f8 4FF4006C 		mov	ip, #2048
 3862              		.loc 1 255 0
 3863 01fc 4FF48066 		mov	r6, #1024
 3864              		.loc 1 262 0
 3865 0200 3846     		mov	r0, r7
 3866 0202 08A9     		add	r1, sp, #32
 3867              		.loc 1 257 0
 3868 0204 ADF82630 		strh	r3, [sp, #38]	@ movhi
 3869              		.loc 1 259 0
 3870 0208 4FF40053 		mov	r3, #8192	@ movhi
 3871              		.loc 1 254 0
 3872 020c ADF820C0 		strh	ip, [sp, #32]	@ movhi
 3873 0210 CDF80CC0 		str	ip, [sp, #12]
 3874              		.loc 1 259 0
 3875 0214 ADF82A30 		strh	r3, [sp, #42]	@ movhi
 3876              		.loc 1 256 0
ARM GAS  /tmp/ccSQtpaj.s 			page 69


 3877 0218 ADF82440 		strh	r4, [sp, #36]	@ movhi
 3878              		.loc 1 258 0
 3879 021c ADF82840 		strh	r4, [sp, #40]	@ movhi
 3880              		.loc 1 260 0
 3881 0220 ADF82C40 		strh	r4, [sp, #44]	@ movhi
 3882              		.loc 1 255 0
 3883 0224 ADF82260 		strh	r6, [sp, #34]	@ movhi
 3884              		.loc 1 262 0
 3885 0228 FFF7FEFF 		bl	TIM_BDTRConfig
 3886              	.LVL297:
 3887              		.loc 1 263 0
 3888 022c 3846     		mov	r0, r7
 3889 022e 2946     		mov	r1, r5
 3890 0230 FFF7FEFF 		bl	TIM_CCPreloadControl
 3891              	.LVL298:
 3892              		.loc 1 264 0
 3893 0234 3846     		mov	r0, r7
 3894 0236 2946     		mov	r1, r5
 3895 0238 FFF7FEFF 		bl	TIM_ARRPreloadConfig
 3896              	.LVL299:
 3897              		.loc 1 274 0
 3898 023c 2946     		mov	r1, r5
 3899 023e 6048     		ldr	r0, .L297+128
 3900 0240 FFF7FEFF 		bl	RCC_AHB1PeriphClockCmd
 3901              	.LVL300:
 3902              		.loc 1 275 0
 3903 0244 2946     		mov	r1, r5
 3904 0246 4FF4E060 		mov	r0, #1792
 3905 024a FFF7FEFF 		bl	RCC_APB2PeriphClockCmd
 3906              	.LVL301:
 3907              		.loc 1 277 0
 3908 024e 2346     		mov	r3, r4
 3909 0250 5C4A     		ldr	r2, .L297+132
 3910 0252 5D48     		ldr	r0, .L297+136
 3911 0254 0321     		movs	r1, #3
 3912 0256 FFF7FEFF 		bl	dmaStreamAllocate
 3913              	.LVL302:
 3914              		.loc 1 290 0
 3915 025a DDF80CC0 		ldr	ip, [sp, #12]
 3916              		.loc 1 284 0
 3917 025e DFF8ACE1 		ldr	lr, .L297+204
 3918              		.loc 1 285 0
 3919 0262 5A4A     		ldr	r2, .L297+140
 3920              		.loc 1 298 0
 3921 0264 5A48     		ldr	r0, .L297+144
 3922              		.loc 1 290 0
 3923 0266 CDF8A0C0 		str	ip, [sp, #160]
 3924              		.loc 1 291 0
 3925 026a 4FF40053 		mov	r3, #8192
 3926              		.loc 1 287 0
 3927 026e 4FF00C0C 		mov	ip, #12
 3928              		.loc 1 298 0
 3929 0272 21A9     		add	r1, sp, #132
 3930              		.loc 1 291 0
 3931 0274 2993     		str	r3, [sp, #164]
 3932              		.loc 1 293 0
 3933 0276 4FF40033 		mov	r3, #131072
ARM GAS  /tmp/ccSQtpaj.s 			page 70


 3934              		.loc 1 284 0
 3935 027a CDF88CE0 		str	lr, [sp, #140]
 3936              		.loc 1 287 0
 3937 027e CDF894C0 		str	ip, [sp, #148]
 3938              		.loc 1 293 0
 3939 0282 2B93     		str	r3, [sp, #172]
 3940              		.loc 1 285 0
 3941 0284 2292     		str	r2, [sp, #136]
 3942              		.loc 1 283 0
 3943 0286 2194     		str	r4, [sp, #132]
 3944              		.loc 1 286 0
 3945 0288 2494     		str	r4, [sp, #144]
 3946              		.loc 1 288 0
 3947 028a 2694     		str	r4, [sp, #152]
 3948              		.loc 1 289 0
 3949 028c 2796     		str	r6, [sp, #156]
 3950              		.loc 1 292 0
 3951 028e CDF8A8A0 		str	r10, [sp, #168]
 3952              		.loc 1 294 0
 3953 0292 2C94     		str	r4, [sp, #176]
 3954              		.loc 1 295 0
 3955 0294 2D94     		str	r4, [sp, #180]
 3956              		.loc 1 296 0
 3957 0296 2E94     		str	r4, [sp, #184]
 3958              		.loc 1 297 0
 3959 0298 2F94     		str	r4, [sp, #188]
 3960              		.loc 1 298 0
 3961 029a FFF7FEFF 		bl	DMA_Init
 3962              	.LVL303:
 3963              		.loc 1 301 0
 3964 029e 2946     		mov	r1, r5
 3965 02a0 4B48     		ldr	r0, .L297+144
 3966 02a2 FFF7FEFF 		bl	DMA_Cmd
 3967              	.LVL304:
 3968              		.loc 1 304 0
 3969 02a6 1021     		movs	r1, #16
 3970 02a8 2A46     		mov	r2, r5
 3971 02aa 4948     		ldr	r0, .L297+144
 3972 02ac FFF7FEFF 		bl	DMA_ITConfig
 3973              	.LVL305:
 3974              		.loc 1 309 0
 3975 02b0 1622     		movs	r2, #22
 3976              		.loc 1 311 0
 3977 02b2 4FF48043 		mov	r3, #16384
 3978              		.loc 1 313 0
 3979 02b6 0CA8     		add	r0, sp, #48
 3980              		.loc 1 309 0
 3981 02b8 0C92     		str	r2, [sp, #48]
 3982              		.loc 1 311 0
 3983 02ba 0E93     		str	r3, [sp, #56]
 3984              		.loc 1 310 0
 3985 02bc 0D94     		str	r4, [sp, #52]
 3986              		.loc 1 312 0
 3987 02be 0F94     		str	r4, [sp, #60]
 3988              		.loc 1 313 0
 3989 02c0 FFF7FEFF 		bl	ADC_CommonInit
 3990              	.LVL306:
ARM GAS  /tmp/ccSQtpaj.s 			page 71


 3991              		.loc 1 320 0
 3992 02c4 4FF05063 		mov	r3, #218103808
 3993              		.loc 1 319 0
 3994 02c8 4FF00052 		mov	r2, #536870912
 3995              		.loc 1 324 0
 3996 02cc 15A9     		add	r1, sp, #84
 3997 02ce 4148     		ldr	r0, .L297+148
 3998              		.loc 1 320 0
 3999 02d0 1893     		str	r3, [sp, #96]
 4000              		.loc 1 319 0
 4001 02d2 1792     		str	r2, [sp, #92]
 4002              		.loc 1 316 0
 4003 02d4 1594     		str	r4, [sp, #84]
 4004              		.loc 1 317 0
 4005 02d6 8DF85850 		strb	r5, [sp, #88]
 4006              		.loc 1 318 0
 4007 02da 8DF85940 		strb	r4, [sp, #89]
 4008              		.loc 1 321 0
 4009 02de 1994     		str	r4, [sp, #100]
 4010              		.loc 1 322 0
 4011 02e0 8DF86890 		strb	r9, [sp, #104]
 4012              		.loc 1 324 0
 4013 02e4 FFF7FEFF 		bl	ADC_Init
 4014              	.LVL307:
 4015              		.loc 1 327 0
 4016 02e8 15A9     		add	r1, sp, #84
 4017 02ea 3B48     		ldr	r0, .L297+152
 4018              		.loc 1 325 0
 4019 02ec 1794     		str	r4, [sp, #92]
 4020              		.loc 1 326 0
 4021 02ee 1894     		str	r4, [sp, #96]
 4022              		.loc 1 327 0
 4023 02f0 FFF7FEFF 		bl	ADC_Init
 4024              	.LVL308:
 4025              		.loc 1 328 0
 4026 02f4 15A9     		add	r1, sp, #84
 4027 02f6 3948     		ldr	r0, .L297+156
 4028 02f8 FFF7FEFF 		bl	ADC_Init
 4029              	.LVL309:
 4030              		.loc 1 331 0
 4031 02fc 2846     		mov	r0, r5
 4032 02fe FFF7FEFF 		bl	ADC_TempSensorVrefintCmd
 4033              	.LVL310:
 4034              		.loc 1 334 0
 4035 0302 2846     		mov	r0, r5
 4036 0304 FFF7FEFF 		bl	ADC_MultiModeDMARequestAfterLastTransferCmd
 4037              	.LVL311:
 4038              		.loc 1 337 0
 4039 0308 2146     		mov	r1, r4
 4040 030a 3248     		ldr	r0, .L297+148
 4041 030c FFF7FEFF 		bl	ADC_ExternalTrigInjectedConvConfig
 4042              	.LVL312:
 4043              		.loc 1 338 0
 4044 0310 3148     		ldr	r0, .L297+152
 4045 0312 4FF44021 		mov	r1, #786432
 4046 0316 FFF7FEFF 		bl	ADC_ExternalTrigInjectedConvConfig
 4047              	.LVL313:
ARM GAS  /tmp/ccSQtpaj.s 			page 72


 4048              		.loc 1 339 0
 4049 031a 2E48     		ldr	r0, .L297+148
 4050 031c 4FF40011 		mov	r1, #2097152
 4051 0320 FFF7FEFF 		bl	ADC_ExternalTrigInjectedConvEdgeConfig
 4052              	.LVL314:
 4053              		.loc 1 340 0
 4054 0324 2C48     		ldr	r0, .L297+152
 4055 0326 4FF40011 		mov	r1, #2097152
 4056 032a FFF7FEFF 		bl	ADC_ExternalTrigInjectedConvEdgeConfig
 4057              	.LVL315:
 4058              		.loc 1 341 0
 4059 032e 2948     		ldr	r0, .L297+148
 4060 0330 0221     		movs	r1, #2
 4061 0332 FFF7FEFF 		bl	ADC_InjectedSequencerLengthConfig
 4062              	.LVL316:
 4063              		.loc 1 342 0
 4064 0336 2848     		ldr	r0, .L297+152
 4065 0338 0221     		movs	r1, #2
 4066 033a FFF7FEFF 		bl	ADC_InjectedSequencerLengthConfig
 4067              	.LVL317:
 4068 033e 67E0     		b	.L298
 4069              	.L299:
 4070              		.align	2
 4071              	.L297:
 4072 0340 00000000 		.word	.LANCHOR6
 4073 0344 00000000 		.word	.LANCHOR0
 4074 0348 00000000 		.word	0
 4075 034c 00000000 		.word	.LANCHOR4
 4076 0350 00000000 		.word	.LANCHOR19
 4077 0354 00000000 		.word	.LANCHOR39
 4078 0358 00000000 		.word	.LANCHOR22
 4079 035c 00000000 		.word	.LANCHOR8
 4080 0360 00000000 		.word	.LANCHOR9
 4081 0364 00000000 		.word	.LANCHOR27
 4082 0368 00000000 		.word	.LANCHOR7
 4083 036c 00000000 		.word	.LANCHOR16
 4084 0370 00000000 		.word	.LANCHOR2
 4085 0374 00401C47 		.word	1193033728
 4086 0378 00000000 		.word	.LANCHOR20
 4087 037c 00000000 		.word	.LANCHOR40
 4088 0380 00000000 		.word	.LANCHOR41
 4089 0384 00000000 		.word	.LANCHOR13
 4090 0388 00000000 		.word	.LANCHOR45
 4091 038c 00000000 		.word	.LANCHOR46
 4092 0390 00000000 		.word	.LANCHOR31
 4093 0394 00000000 		.word	.LANCHOR33
 4094 0398 00000000 		.word	.LANCHOR32
 4095 039c 00000000 		.word	.LANCHOR47
 4096 03a0 00000000 		.word	.LANCHOR48
 4097 03a4 00000000 		.word	.LANCHOR49
 4098 03a8 0AD7A33C 		.word	1017370378
 4099 03ac 00000140 		.word	1073807360
 4100 03b0 00000000 		.word	.LANCHOR26
 4101 03b4 9A99193E 		.word	1041865114
 4102 03b8 00000000 		.word	.LANCHOR50
 4103 03bc 007A030A 		.word	168000000
 4104 03c0 05004000 		.word	4194309
ARM GAS  /tmp/ccSQtpaj.s 			page 73


 4105 03c4 00000000 		.word	mcpwm_adc_int_handler
 4106 03c8 90000000 		.word	_stm32_dma_streams+144
 4107 03cc 08230140 		.word	1073816328
 4108 03d0 70640240 		.word	1073898608
 4109 03d4 00200140 		.word	1073815552
 4110 03d8 00210140 		.word	1073815808
 4111 03dc 00220140 		.word	1073816064
 4112 03e0 00000000 		.word	.LANCHOR3
 4113 03e4 00000000 		.word	.LANCHOR37
 4114 03e8 00000000 		.word	.LANCHOR10
 4115 03ec 00000000 		.word	.LANCHOR38
 4116 03f0 00000000 		.word	.LANCHOR21
 4117 03f4 00000000 		.word	.LANCHOR34
 4118 03f8 00000000 		.word	.LANCHOR44
 4119 03fc 00000000 		.word	.LANCHOR42
 4120 0400 00000000 		.word	.LANCHOR1
 4121 0404 00000000 		.word	.LANCHOR43
 4122 0408 00040140 		.word	1073808384
 4123 040c 00000000 		.word	ADC_Value
 4124              	.L298:
 4125              		.loc 1 344 0
 4126 0410 FFF7FEFF 		bl	hw_setup_adc_channels
 4127              	.LVL318:
 4128              		.loc 1 347 0
 4129 0414 2A46     		mov	r2, r5
 4130 0416 8248     		ldr	r0, .L300
 4131 0418 40F20741 		movw	r1, #1031
 4132 041c FFF7FEFF 		bl	ADC_ITConfig
 4133              	.LVL319:
 4134              		.loc 1 348 0
 4135 0420 1220     		movs	r0, #18
 4136 0422 0621     		movs	r1, #6
 4137 0424 FFF7FEFF 		bl	nvicEnableVector
 4138              	.LVL320:
 4139              		.loc 1 351 0
 4140 0428 2946     		mov	r1, r5
 4141 042a 7D48     		ldr	r0, .L300
 4142 042c FFF7FEFF 		bl	ADC_Cmd
 4143              	.LVL321:
 4144              		.loc 1 354 0
 4145 0430 2946     		mov	r1, r5
 4146 0432 7C48     		ldr	r0, .L300+4
 4147 0434 FFF7FEFF 		bl	ADC_Cmd
 4148              	.LVL322:
 4149              		.loc 1 357 0
 4150 0438 2946     		mov	r1, r5
 4151 043a 7B48     		ldr	r0, .L300+8
 4152 043c FFF7FEFF 		bl	ADC_Cmd
 4153              	.LVL323:
 4154              		.loc 1 361 0
 4155 0440 2946     		mov	r1, r5
 4156 0442 0220     		movs	r0, #2
 4157 0444 FFF7FEFF 		bl	RCC_APB2PeriphClockCmd
 4158              	.LVL324:
 4159              		.loc 1 365 0
 4160 0448 4FF6FF73 		movw	r3, #65535
 4161              		.loc 1 368 0
ARM GAS  /tmp/ccSQtpaj.s 			page 74


 4162 044c 4046     		mov	r0, r8
 4163 044e 05A9     		add	r1, sp, #20
 4164              		.loc 1 365 0
 4165 0450 0693     		str	r3, [sp, #24]
 4166              		.loc 1 363 0
 4167 0452 ADF81440 		strh	r4, [sp, #20]	@ movhi
 4168              		.loc 1 364 0
 4169 0456 ADF81640 		strh	r4, [sp, #22]	@ movhi
 4170              		.loc 1 366 0
 4171 045a ADF81C40 		strh	r4, [sp, #28]	@ movhi
 4172              		.loc 1 367 0
 4173 045e 8DF81E40 		strb	r4, [sp, #30]
 4174              		.loc 1 368 0
 4175 0462 FFF7FEFF 		bl	TIM_TimeBaseInit
 4176              	.LVL325:
 4177              		.loc 1 372 0
 4178 0466 4FF4FA73 		mov	r3, #500
 4179              		.loc 1 370 0
 4180 046a 4FF06002 		mov	r2, #96	@ movhi
 4181              		.loc 1 377 0
 4182 046e 4046     		mov	r0, r8
 4183 0470 10A9     		add	r1, sp, #64
 4184              		.loc 1 370 0
 4185 0472 ADF84020 		strh	r2, [sp, #64]	@ movhi
 4186              		.loc 1 372 0
 4187 0476 1293     		str	r3, [sp, #72]
 4188              		.loc 1 371 0
 4189 0478 ADF84250 		strh	r5, [sp, #66]	@ movhi
 4190              		.loc 1 373 0
 4191 047c ADF84C40 		strh	r4, [sp, #76]	@ movhi
 4192              		.loc 1 374 0
 4193 0480 ADF84E40 		strh	r4, [sp, #78]	@ movhi
 4194              		.loc 1 375 0
 4195 0484 ADF850A0 		strh	r10, [sp, #80]	@ movhi
 4196              		.loc 1 376 0
 4197 0488 ADF852B0 		strh	fp, [sp, #82]	@ movhi
 4198              		.loc 1 377 0
 4199 048c FFF7FEFF 		bl	TIM_OC1Init
 4200              	.LVL326:
 4201              		.loc 1 378 0
 4202 0490 4046     		mov	r0, r8
 4203 0492 0821     		movs	r1, #8
 4204 0494 FFF7FEFF 		bl	TIM_OC1PreloadConfig
 4205              	.LVL327:
 4206              		.loc 1 379 0
 4207 0498 4046     		mov	r0, r8
 4208 049a 10A9     		add	r1, sp, #64
 4209 049c FFF7FEFF 		bl	TIM_OC2Init
 4210              	.LVL328:
 4211              		.loc 1 380 0
 4212 04a0 4046     		mov	r0, r8
 4213 04a2 0821     		movs	r1, #8
 4214 04a4 FFF7FEFF 		bl	TIM_OC2PreloadConfig
 4215              	.LVL329:
 4216              		.loc 1 382 0
 4217 04a8 4046     		mov	r0, r8
 4218 04aa 2946     		mov	r1, r5
ARM GAS  /tmp/ccSQtpaj.s 			page 75


 4219 04ac FFF7FEFF 		bl	TIM_ARRPreloadConfig
 4220              	.LVL330:
 4221              		.loc 1 383 0
 4222 04b0 4046     		mov	r0, r8
 4223 04b2 2946     		mov	r1, r5
 4224 04b4 FFF7FEFF 		bl	TIM_CCPreloadControl
 4225              	.LVL331:
 4226              		.loc 1 386 0
 4227 04b8 4046     		mov	r0, r8
 4228 04ba 2946     		mov	r1, r5
 4229 04bc FFF7FEFF 		bl	TIM_CtrlPWMOutputs
 4230              	.LVL332:
 4231              		.loc 1 389 0
 4232 04c0 3846     		mov	r0, r7
 4233 04c2 2021     		movs	r1, #32
 4234 04c4 FFF7FEFF 		bl	TIM_SelectOutputTrigger
 4235              	.LVL333:
 4236              		.loc 1 390 0
 4237 04c8 3846     		mov	r0, r7
 4238 04ca 8021     		movs	r1, #128
 4239 04cc FFF7FEFF 		bl	TIM_SelectMasterSlaveMode
 4240              	.LVL334:
 4241              		.loc 1 391 0
 4242 04d0 4046     		mov	r0, r8
 4243 04d2 2146     		mov	r1, r4
 4244 04d4 FFF7FEFF 		bl	TIM_SelectInputTrigger
 4245              	.LVL335:
 4246              		.loc 1 392 0
 4247 04d8 4046     		mov	r0, r8
 4248 04da 4946     		mov	r1, r9
 4249 04dc FFF7FEFF 		bl	TIM_SelectSlaveMode
 4250              	.LVL336:
 4251              		.loc 1 395 0
 4252 04e0 3846     		mov	r0, r7
 4253 04e2 2946     		mov	r1, r5
 4254 04e4 FFF7FEFF 		bl	TIM_Cmd
 4255              	.LVL337:
 4256              		.loc 1 396 0
 4257 04e8 4046     		mov	r0, r8
 4258 04ea 2946     		mov	r1, r5
 4259 04ec FFF7FEFF 		bl	TIM_Cmd
 4260              	.LVL338:
 4261              		.loc 1 399 0
 4262 04f0 3846     		mov	r0, r7
 4263 04f2 2946     		mov	r1, r5
 4264 04f4 FFF7FEFF 		bl	TIM_CtrlPWMOutputs
 4265              	.LVL339:
 4266              		.loc 1 402 0
 4267 04f8 2846     		mov	r0, r5
 4268 04fa 2946     		mov	r1, r5
 4269 04fc FFF7FEFF 		bl	RCC_APB1PeriphClockCmd
 4270              	.LVL340:
 4271              		.loc 1 406 0
 4272 0500 4FF0FF32 		mov	r2, #-1
 4273              		.loc 1 407 0
 4274 0504 5323     		movs	r3, #83
 4275              		.loc 1 410 0
ARM GAS  /tmp/ccSQtpaj.s 			page 76


 4276 0506 05A9     		add	r1, sp, #20
 4277 0508 4FF08040 		mov	r0, #1073741824
 4278              		.loc 1 406 0
 4279 050c 0692     		str	r2, [sp, #24]
 4280              		.loc 1 407 0
 4281 050e ADF81430 		strh	r3, [sp, #20]	@ movhi
 4282              		.loc 1 408 0
 4283 0512 ADF81C40 		strh	r4, [sp, #28]	@ movhi
 4284              		.loc 1 409 0
 4285 0516 ADF81640 		strh	r4, [sp, #22]	@ movhi
 4286              		.loc 1 410 0
 4287 051a FFF7FEFF 		bl	TIM_TimeBaseInit
 4288              	.LVL341:
 4289              		.loc 1 413 0
 4290 051e 2946     		mov	r1, r5
 4291 0520 4FF08040 		mov	r0, #1073741824
 4292 0524 FFF7FEFF 		bl	TIM_Cmd
 4293              	.LVL342:
 4294              		.loc 1 416 0
 4295 0528 FFF7FEFF 		bl	stop_pwm_hw
 4296              	.LVL343:
 4297              		.loc 1 418 0
 4298 052c FB6A     		ldr	r3, [r7, #44]
 4299 052e 1C93     		str	r3, [sp, #112]
 4300              		.loc 1 419 0
 4301 0530 FB6A     		ldr	r3, [r7, #44]
 4302              		.loc 1 420 0
 4303 0532 1BA8     		add	r0, sp, #108
 4304              		.loc 1 419 0
 4305 0534 EB40     		lsrs	r3, r3, r5
 4306 0536 1D93     		str	r3, [sp, #116]
 4307              		.loc 1 420 0
 4308 0538 FFF7FEFF 		bl	update_adc_sample_pos
 4309              	.LVL344:
 4310              		.loc 1 421 0
 4311 053c 1BA8     		add	r0, sp, #108
 4312 053e FFF7FEFF 		bl	set_next_timer_settings
 4313              	.LVL345:
 4314              		.loc 1 423 0
 4315 0542 FFF7FEFF 		bl	utils_sys_unlock_cnt
 4316              	.LVL346:
 4317              		.loc 1 427 0
 4318 0546 394B     		ldr	r3, .L300+12
 4319              		.loc 1 426 0
 4320 0548 394A     		ldr	r2, .L300+16
 4321              		.loc 1 427 0
 4322 054a 4FF48051 		mov	r1, #4096
 4323              		.loc 1 426 0
 4324 054e 1683     		strh	r6, [r2, #24]	@ movhi
 4325              		.loc 1 427 0
 4326 0550 5983     		strh	r1, [r3, #26]	@ movhi
 4327              	.LBB150:
 4328              	.LBB151:
 4329              		.loc 1 515 0
 4330 0552 1983     		strh	r1, [r3, #24]	@ movhi
 4331              	.L291:
 4332              		.loc 1 516 0
ARM GAS  /tmp/ccSQtpaj.s 			page 77


 4333 0554 1369     		ldr	r3, [r2, #16]
 4334 0556 DB04     		lsls	r3, r3, #19
 4335 0558 FCD5     		bpl	.L291
 4336              		.loc 1 517 0
 4337 055a 42F21070 		movw	r0, #10000
 4338 055e FFF7FEFF 		bl	chThdSleep
 4339              	.LVL347:
 4340              		.loc 1 518 0
 4341 0562 344C     		ldr	r4, .L300+20
 4342              		.loc 1 519 0
 4343 0564 3448     		ldr	r0, .L300+24
 4344              		.loc 1 520 0
 4345 0566 3549     		ldr	r1, .L300+28
 4346              		.loc 1 518 0
 4347 0568 0023     		movs	r3, #0
 4348 056a 2360     		str	r3, [r4]
 4349              		.loc 1 519 0
 4350 056c 0360     		str	r3, [r0]
 4351              		.loc 1 520 0
 4352 056e 0B60     		str	r3, [r1]
 4353              	.L292:
 4354              		.loc 1 521 0
 4355 0570 0B68     		ldr	r3, [r1]
 4356 0572 324A     		ldr	r2, .L300+28
 4357 0574 B3F57A6F 		cmp	r3, #4000
 4358 0578 FADB     		blt	.L292
 4359              		.loc 1 522 0
 4360 057a 3149     		ldr	r1, .L300+32
 4361              		.loc 1 523 0
 4362 057c 314F     		ldr	r7, .L300+36
 4363              		.loc 1 522 0
 4364 057e 2368     		ldr	r3, [r4]
 4365              		.loc 1 524 0
 4366 0580 2A4E     		ldr	r6, .L300+12
 4367              		.loc 1 522 0
 4368 0582 1468     		ldr	r4, [r2]
 4369 0584 93FBF4F3 		sdiv	r3, r3, r4
 4370 0588 0B60     		str	r3, [r1]
 4371              		.loc 1 523 0
 4372 058a 0368     		ldr	r3, [r0]
 4373 058c 1268     		ldr	r2, [r2]
 4374 058e 93FBF2F3 		sdiv	r3, r3, r2
 4375              		.loc 1 525 0
 4376 0592 0125     		movs	r5, #1
 4377              		.loc 1 523 0
 4378 0594 3B60     		str	r3, [r7]
 4379              		.loc 1 524 0
 4380 0596 4FF48054 		mov	r4, #4096
 4381              		.loc 1 525 0
 4382 059a 2B4B     		ldr	r3, .L300+40
 4383              		.loc 1 524 0
 4384 059c 7483     		strh	r4, [r6, #26]	@ movhi
 4385              	.LBE151:
 4386              	.LBE150:
 4387              		.loc 1 431 0
 4388 059e 2946     		mov	r1, r5
 4389 05a0 4020     		movs	r0, #64
ARM GAS  /tmp/ccSQtpaj.s 			page 78


 4390              		.loc 1 437 0
 4391 05a2 0024     		movs	r4, #0
 4392              	.LBB153:
 4393              	.LBB152:
 4394              		.loc 1 525 0
 4395 05a4 1D70     		strb	r5, [r3]
 4396              	.LBE152:
 4397              	.LBE153:
 4398              		.loc 1 431 0
 4399 05a6 FFF7FEFF 		bl	RCC_APB1PeriphClockCmd
 4400              	.LVL348:
 4401              		.loc 1 435 0
 4402 05aa 4FF0FF32 		mov	r2, #-1
 4403              		.loc 1 436 0
 4404 05ae 0723     		movs	r3, #7
 4405              		.loc 1 439 0
 4406 05b0 05A9     		add	r1, sp, #20
 4407 05b2 2648     		ldr	r0, .L300+44
 4408              		.loc 1 435 0
 4409 05b4 0692     		str	r2, [sp, #24]
 4410              		.loc 1 436 0
 4411 05b6 ADF81430 		strh	r3, [sp, #20]	@ movhi
 4412              		.loc 1 437 0
 4413 05ba ADF81C40 		strh	r4, [sp, #28]	@ movhi
 4414              		.loc 1 438 0
 4415 05be ADF81640 		strh	r4, [sp, #22]	@ movhi
 4416              		.loc 1 439 0
 4417 05c2 FFF7FEFF 		bl	TIM_TimeBaseInit
 4418              	.LVL349:
 4419              		.loc 1 441 0
 4420 05c6 2946     		mov	r1, r5
 4421 05c8 2048     		ldr	r0, .L300+44
 4422              		.loc 1 445 0
 4423 05ca 214E     		ldr	r6, .L300+48
 4424              		.loc 1 441 0
 4425 05cc FFF7FEFF 		bl	TIM_Cmd
 4426              	.LVL350:
 4427              		.loc 1 444 0
 4428 05d0 204A     		ldr	r2, .L300+52
 4429              		.loc 1 446 0
 4430 05d2 0094     		str	r4, [sp]
 4431 05d4 204B     		ldr	r3, .L300+56
 4432              		.loc 1 444 0
 4433 05d6 1470     		strb	r4, [r2]
 4434              		.loc 1 446 0
 4435 05d8 40F69811 		movw	r1, #2456
 4436 05dc 4022     		movs	r2, #64
 4437              		.loc 1 445 0
 4438 05de 3470     		strb	r4, [r6]
 4439              		.loc 1 446 0
 4440 05e0 1E48     		ldr	r0, .L300+60
 4441 05e2 FFF7FEFF 		bl	chThdCreateStatic
 4442              	.LVL351:
 4443              		.loc 1 447 0
 4444 05e6 1E4B     		ldr	r3, .L300+64
 4445 05e8 0094     		str	r4, [sp]
 4446 05ea 4022     		movs	r2, #64
ARM GAS  /tmp/ccSQtpaj.s 			page 79


 4447 05ec 4FF4B361 		mov	r1, #1432
 4448 05f0 1C48     		ldr	r0, .L300+68
 4449 05f2 FFF7FEFF 		bl	chThdCreateStatic
 4450              	.LVL352:
 4451              		.loc 1 450 0
 4452 05f6 2946     		mov	r1, r5
 4453 05f8 4FF40060 		mov	r0, #2048
 4454 05fc FFF7FEFF 		bl	RCC_APB1PeriphClockCmd
 4455              	.LVL353:
 4456              		.loc 1 451 0
 4457 0600 2046     		mov	r0, r4
 4458 0602 FFF7FEFF 		bl	WWDG_SetPrescaler
 4459              	.LVL354:
 4460              		.loc 1 452 0
 4461 0606 FF20     		movs	r0, #255
 4462 0608 FFF7FEFF 		bl	WWDG_SetWindowValue
 4463              	.LVL355:
 4464              		.loc 1 453 0
 4465 060c 6420     		movs	r0, #100
 4466 060e FFF7FEFF 		bl	WWDG_Enable
 4467              	.LVL356:
 4468              		.loc 1 456 0
 4469 0612 154B     		ldr	r3, .L300+72
 4470 0614 1C60     		str	r4, [r3]
 4471              		.loc 1 457 0
 4472 0616 154B     		ldr	r3, .L300+76
 4473 0618 1C60     		str	r4, [r3]
 4474              		.loc 1 458 0
 4475 061a 31B0     		add	sp, sp, #196
 4476              		.cfi_def_cfa_offset 36
 4477              		@ sp needed
 4478 061c BDE8F08F 		pop	{r4, r5, r6, r7, r8, r9, r10, fp, pc}
 4479              	.L301:
 4480              		.align	2
 4481              	.L300:
 4482 0620 00200140 		.word	1073815552
 4483 0624 00210140 		.word	1073815808
 4484 0628 00220140 		.word	1073816064
 4485 062c 00040240 		.word	1073873920
 4486 0630 00080240 		.word	1073874944
 4487 0634 00000000 		.word	.LANCHOR51
 4488 0638 00000000 		.word	.LANCHOR52
 4489 063c 00000000 		.word	.LANCHOR53
 4490 0640 00000000 		.word	.LANCHOR54
 4491 0644 00000000 		.word	.LANCHOR55
 4492 0648 00000000 		.word	.LANCHOR47
 4493 064c 00180040 		.word	1073747968
 4494 0650 00000000 		.word	.LANCHOR14
 4495 0654 00000000 		.word	.LANCHOR23
 4496 0658 00000000 		.word	timer_thread
 4497 065c 00000000 		.word	.LANCHOR56
 4498 0660 00000000 		.word	rpm_thread
 4499 0664 00000000 		.word	.LANCHOR57
 4500 0668 00000000 		.word	.LANCHOR9
 4501 066c 00000000 		.word	.LANCHOR8
 4502              		.cfi_endproc
 4503              	.LFE256:
ARM GAS  /tmp/ccSQtpaj.s 			page 80


 4504              		.size	mcpwm_init, .-mcpwm_init
 4505              		.section	.text.mcpwm_set_configuration,"ax",%progbits
 4506              		.align	2
 4507              		.p2align 4,,15
 4508              		.global	mcpwm_set_configuration
 4509              		.thumb
 4510              		.thumb_func
 4511              		.type	mcpwm_set_configuration, %function
 4512              	mcpwm_set_configuration:
 4513              	.LFB258:
 4514              		.loc 1 480 0
 4515              		.cfi_startproc
 4516              		@ args = 0, pretend = 0, frame = 0
 4517              		@ frame_needed = 0, uses_anonymous_args = 0
 4518              	.LVL357:
 4519 0000 70B5     		push	{r4, r5, r6, lr}
 4520              		.cfi_def_cfa_offset 16
 4521              		.cfi_offset 4, -16
 4522              		.cfi_offset 5, -12
 4523              		.cfi_offset 6, -8
 4524              		.cfi_offset 14, -4
 4525              	.LBB154:
 4526              	.LBB155:
 4527              		.loc 1 864 0
 4528 0002 0C49     		ldr	r1, .L304
 4529              		.loc 1 865 0
 4530 0004 0C4A     		ldr	r2, .L304+4
 4531              	.LBE155:
 4532              	.LBE154:
 4533              		.loc 1 482 0
 4534 0006 0D4D     		ldr	r5, .L304+8
 4535              	.LBB158:
 4536              	.LBB156:
 4537              		.loc 1 864 0
 4538 0008 0023     		movs	r3, #0
 4539              	.LBE156:
 4540              	.LBE158:
 4541              		.loc 1 482 0
 4542 000a 0526     		movs	r6, #5
 4543              		.loc 1 480 0
 4544 000c 0446     		mov	r4, r0
 4545              		.loc 1 482 0
 4546 000e 2E70     		strb	r6, [r5]
 4547              	.LBB159:
 4548              	.LBB157:
 4549              		.loc 1 864 0
 4550 0010 0B70     		strb	r3, [r1]
 4551              		.loc 1 865 0
 4552 0012 1360     		str	r3, [r2]
 4553              		.loc 1 866 0
 4554 0014 FFF7FEFF 		bl	stop_pwm_hw
 4555              	.LVL358:
 4556              	.LBE157:
 4557              	.LBE159:
 4558              		.loc 1 485 0
 4559 0018 FFF7FEFF 		bl	utils_sys_lock_cnt
 4560              	.LVL359:
ARM GAS  /tmp/ccSQtpaj.s 			page 81


 4561              		.loc 1 486 0
 4562 001c 084B     		ldr	r3, .L304+12
 4563              		.loc 1 487 0
 4564 001e 04F18000 		add	r0, r4, #128
 4565              		.loc 1 486 0
 4566 0022 1C60     		str	r4, [r3]
 4567              		.loc 1 487 0
 4568 0024 FFF7FEFF 		bl	mcpwm_init_hall_table
 4569              	.LVL360:
 4570              		.loc 1 488 0
 4571 0028 FFF7FEFF 		bl	update_sensor_mode
 4572              	.LVL361:
 4573              		.loc 1 490 0
 4574 002c BDE87040 		pop	{r4, r5, r6, lr}
 4575              		.cfi_restore 14
 4576              		.cfi_restore 6
 4577              		.cfi_restore 5
 4578              		.cfi_restore 4
 4579              		.cfi_def_cfa_offset 0
 4580              	.LVL362:
 4581              		.loc 1 489 0
 4582 0030 FFF7FEBF 		b	utils_sys_unlock_cnt
 4583              	.LVL363:
 4584              	.L305:
 4585              		.align	2
 4586              	.L304:
 4587 0034 00000000 		.word	.LANCHOR2
 4588 0038 00000000 		.word	.LANCHOR42
 4589 003c 00000000 		.word	.LANCHOR16
 4590 0040 00000000 		.word	.LANCHOR0
 4591              		.cfi_endproc
 4592              	.LFE258:
 4593              		.size	mcpwm_set_configuration, .-mcpwm_set_configuration
 4594              		.section	.text.mcpwm_set_brake_current,"ax",%progbits
 4595              		.align	2
 4596              		.p2align 4,,15
 4597              		.global	mcpwm_set_brake_current
 4598              		.thumb
 4599              		.thumb_func
 4600              		.type	mcpwm_set_brake_current, %function
 4601              	mcpwm_set_brake_current:
 4602              	.LFB267:
 4603              		.loc 1 644 0
 4604              		.cfi_startproc
 4605              		@ args = 0, pretend = 0, frame = 8
 4606              		@ frame_needed = 0, uses_anonymous_args = 0
 4607              	.LVL364:
 4608 0000 30B5     		push	{r4, r5, lr}
 4609              		.cfi_def_cfa_offset 12
 4610              		.cfi_offset 4, -12
 4611              		.cfi_offset 5, -8
 4612              		.cfi_offset 14, -4
 4613              		.loc 1 645 0
 4614 0002 2E4C     		ldr	r4, .L331
 4615 0004 2368     		ldr	r3, [r4]
 4616 0006 D3ED457A 		flds	s15, [r3, #276]
 4617 000a B0EEC07A 		fabss	s14, s0
ARM GAS  /tmp/ccSQtpaj.s 			page 82


 4618 000e B4EEE77A 		fcmpes	s14, s15
 4619              		.loc 1 644 0
 4620 0012 83B0     		sub	sp, sp, #12
 4621              		.cfi_def_cfa_offset 24
 4622              		.loc 1 645 0
 4623 0014 F1EE10FA 		fmstat
 4624              		.loc 1 644 0
 4625 0018 8DED010A 		fsts	s0, [sp, #4]
 4626              		.loc 1 645 0
 4627 001c 2DD4     		bmi	.L329
 4628              		.loc 1 651 0
 4629 001e 93ED160A 		flds	s0, [r3, #88]
 4630              	.LVL365:
 4631 0022 D3ED160A 		flds	s1, [r3, #88]
 4632              		.loc 1 653 0
 4633 0026 264D     		ldr	r5, .L331+4
 4634              		.loc 1 651 0
 4635 0028 B0EEC00A 		fabss	s0, s0
 4636 002c B1EE400A 		fnegs	s0, s0
 4637 0030 F0EEE00A 		fabss	s1, s1
 4638 0034 01A8     		add	r0, sp, #4
 4639              	.LVL366:
 4640 0036 FFF7FEFF 		bl	utils_truncate_number
 4641              	.LVL367:
 4642              		.loc 1 654 0
 4643 003a 2249     		ldr	r1, .L331+8
 4644 003c 0198     		ldr	r0, [sp, #4]	@ float
 4645              		.loc 1 656 0
 4646 003e 224B     		ldr	r3, .L331+12
 4647              		.loc 1 653 0
 4648 0040 0322     		movs	r2, #3
 4649 0042 2A70     		strb	r2, [r5]
 4650              		.loc 1 654 0
 4651 0044 0860     		str	r0, [r1]	@ float
 4652              		.loc 1 656 0
 4653 0046 1978     		ldrb	r1, [r3]	@ zero_extendqisi2
 4654 0048 0229     		cmp	r1, #2
 4655 004a 14D0     		beq	.L306
 4656              		.loc 1 656 0 is_stmt 0 discriminator 1
 4657 004c 1978     		ldrb	r1, [r3]	@ zero_extendqisi2
 4658 004e 9142     		cmp	r1, r2
 4659 0050 11D0     		beq	.L306
 4660              		.loc 1 659 0 is_stmt 1
 4661 0052 2168     		ldr	r1, [r4]
 4662 0054 8878     		ldrb	r0, [r1, #2]	@ zero_extendqisi2
 4663 0056 0128     		cmp	r0, #1
 4664 0058 1BD0     		beq	.L330
 4665              		.loc 1 666 0
 4666 005a 1C48     		ldr	r0, .L331+16
 4667 005c D0ED007A 		flds	s15, [r0]
 4668 0060 91ED087A 		flds	s14, [r1, #32]
 4669 0064 F0EEE77A 		fabss	s15, s15
 4670 0068 F4EEC77A 		fcmpes	s15, s14
 4671 006c F1EE10FA 		fmstat
 4672 0070 1BDD     		ble	.L326
 4673              	.L328:
 4674              		.loc 1 667 0
ARM GAS  /tmp/ccSQtpaj.s 			page 83


 4675 0072 0222     		movs	r2, #2
 4676 0074 1A70     		strb	r2, [r3]
 4677              	.L306:
 4678              		.loc 1 673 0
 4679 0076 03B0     		add	sp, sp, #12
 4680              		.cfi_remember_state
 4681              		.cfi_def_cfa_offset 12
 4682              		@ sp needed
 4683 0078 30BD     		pop	{r4, r5, pc}
 4684              	.LVL368:
 4685              	.L329:
 4686              		.cfi_restore_state
 4687              		.loc 1 646 0
 4688 007a 1148     		ldr	r0, .L331+4
 4689              	.LBB160:
 4690              	.LBB161:
 4691              		.loc 1 864 0
 4692 007c 1249     		ldr	r1, .L331+12
 4693              		.loc 1 865 0
 4694 007e 144A     		ldr	r2, .L331+20
 4695              		.loc 1 864 0
 4696 0080 0023     		movs	r3, #0
 4697              	.LBE161:
 4698              	.LBE160:
 4699              		.loc 1 646 0
 4700 0082 0524     		movs	r4, #5
 4701 0084 0470     		strb	r4, [r0]
 4702              	.LBB163:
 4703              	.LBB162:
 4704              		.loc 1 864 0
 4705 0086 0B70     		strb	r3, [r1]
 4706              		.loc 1 865 0
 4707 0088 1360     		str	r3, [r2]
 4708              		.loc 1 866 0
 4709 008a FFF7FEFF 		bl	stop_pwm_hw
 4710              	.LVL369:
 4711              	.LBE162:
 4712              	.LBE163:
 4713              		.loc 1 673 0
 4714 008e 03B0     		add	sp, sp, #12
 4715              		.cfi_remember_state
 4716              		.cfi_def_cfa_offset 12
 4717              		@ sp needed
 4718 0090 30BD     		pop	{r4, r5, pc}
 4719              	.LVL370:
 4720              	.L330:
 4721              		.cfi_restore_state
 4722              		.loc 1 660 0
 4723 0092 1049     		ldr	r1, .L331+24
 4724 0094 9FED107A 		flds	s14, .L331+28
 4725 0098 D1ED007A 		flds	s15, [r1]
 4726 009c F0EEE77A 		fabss	s15, s15
 4727 00a0 F4EEC77A 		fcmpes	s15, s14
 4728 00a4 F1EE10FA 		fmstat
 4729 00a8 E3DC     		bgt	.L328
 4730              	.L326:
 4731              	.LBB164:
ARM GAS  /tmp/ccSQtpaj.s 			page 84


 4732              	.LBB165:
 4733              		.loc 1 889 0
 4734 00aa 0949     		ldr	r1, .L331+20
 4735              		.loc 1 888 0
 4736 00ac 1A70     		strb	r2, [r3]
 4737              		.loc 1 889 0
 4738 00ae 0023     		movs	r3, #0
 4739 00b0 0B60     		str	r3, [r1]
 4740              		.loc 1 890 0
 4741 00b2 FFF7FEFF 		bl	full_brake_hw
 4742              	.LVL371:
 4743              	.LBE165:
 4744              	.LBE164:
 4745              		.loc 1 673 0
 4746 00b6 03B0     		add	sp, sp, #12
 4747              		.cfi_def_cfa_offset 12
 4748              		@ sp needed
 4749 00b8 30BD     		pop	{r4, r5, pc}
 4750              	.LVL372:
 4751              	.L332:
 4752 00ba 00BF     		.align	2
 4753              	.L331:
 4754 00bc 00000000 		.word	.LANCHOR0
 4755 00c0 00000000 		.word	.LANCHOR16
 4756 00c4 00000000 		.word	.LANCHOR22
 4757 00c8 00000000 		.word	.LANCHOR2
 4758 00cc 00000000 		.word	.LANCHOR10
 4759 00d0 00000000 		.word	.LANCHOR42
 4760 00d4 00000000 		.word	.LANCHOR21
 4761 00d8 CDCCCC3D 		.word	1036831949
 4762              		.cfi_endproc
 4763              	.LFE267:
 4764              		.size	mcpwm_set_brake_current, .-mcpwm_set_brake_current
 4765              		.section	.text.mcpwm_get_comm_step,"ax",%progbits
 4766              		.align	2
 4767              		.p2align 4,,15
 4768              		.global	mcpwm_get_comm_step
 4769              		.thumb
 4770              		.thumb_func
 4771              		.type	mcpwm_get_comm_step, %function
 4772              	mcpwm_get_comm_step:
 4773              	.LFB268:
 4774              		.loc 1 681 0
 4775              		.cfi_startproc
 4776              		@ args = 0, pretend = 0, frame = 0
 4777              		@ frame_needed = 0, uses_anonymous_args = 0
 4778              		@ link register save eliminated.
 4779              		.loc 1 682 0
 4780 0000 014B     		ldr	r3, .L334
 4781 0002 1868     		ldr	r0, [r3]
 4782              		.loc 1 683 0
 4783 0004 7047     		bx	lr
 4784              	.L335:
 4785 0006 00BF     		.align	2
 4786              	.L334:
 4787 0008 00000000 		.word	.LANCHOR3
 4788              		.cfi_endproc
ARM GAS  /tmp/ccSQtpaj.s 			page 85


 4789              	.LFE268:
 4790              		.size	mcpwm_get_comm_step, .-mcpwm_get_comm_step
 4791              		.section	.text.mcpwm_get_duty_cycle_set,"ax",%progbits
 4792              		.align	2
 4793              		.p2align 4,,15
 4794              		.global	mcpwm_get_duty_cycle_set
 4795              		.thumb
 4796              		.thumb_func
 4797              		.type	mcpwm_get_duty_cycle_set, %function
 4798              	mcpwm_get_duty_cycle_set:
 4799              	.LFB269:
 4800              		.loc 1 685 0
 4801              		.cfi_startproc
 4802              		@ args = 0, pretend = 0, frame = 0
 4803              		@ frame_needed = 0, uses_anonymous_args = 0
 4804              		@ link register save eliminated.
 4805              		.loc 1 686 0
 4806 0000 014B     		ldr	r3, .L337
 4807 0002 93ED000A 		flds	s0, [r3]
 4808              		.loc 1 687 0
 4809 0006 7047     		bx	lr
 4810              	.L338:
 4811              		.align	2
 4812              	.L337:
 4813 0008 00000000 		.word	.LANCHOR38
 4814              		.cfi_endproc
 4815              	.LFE269:
 4816              		.size	mcpwm_get_duty_cycle_set, .-mcpwm_get_duty_cycle_set
 4817              		.section	.text.mcpwm_get_duty_cycle_now,"ax",%progbits
 4818              		.align	2
 4819              		.p2align 4,,15
 4820              		.global	mcpwm_get_duty_cycle_now
 4821              		.thumb
 4822              		.thumb_func
 4823              		.type	mcpwm_get_duty_cycle_now, %function
 4824              	mcpwm_get_duty_cycle_now:
 4825              	.LFB270:
 4826              		.loc 1 689 0
 4827              		.cfi_startproc
 4828              		@ args = 0, pretend = 0, frame = 0
 4829              		@ frame_needed = 0, uses_anonymous_args = 0
 4830              		@ link register save eliminated.
 4831              		.loc 1 690 0
 4832 0000 014B     		ldr	r3, .L340
 4833 0002 93ED000A 		flds	s0, [r3]
 4834              		.loc 1 691 0
 4835 0006 7047     		bx	lr
 4836              	.L341:
 4837              		.align	2
 4838              	.L340:
 4839 0008 00000000 		.word	.LANCHOR21
 4840              		.cfi_endproc
 4841              	.LFE270:
 4842              		.size	mcpwm_get_duty_cycle_now, .-mcpwm_get_duty_cycle_now
 4843              		.section	.text.mcpwm_get_switching_frequency_now,"ax",%progbits
 4844              		.align	2
 4845              		.p2align 4,,15
ARM GAS  /tmp/ccSQtpaj.s 			page 86


 4846              		.global	mcpwm_get_switching_frequency_now
 4847              		.thumb
 4848              		.thumb_func
 4849              		.type	mcpwm_get_switching_frequency_now, %function
 4850              	mcpwm_get_switching_frequency_now:
 4851              	.LFB271:
 4852              		.loc 1 699 0
 4853              		.cfi_startproc
 4854              		@ args = 0, pretend = 0, frame = 0
 4855              		@ frame_needed = 0, uses_anonymous_args = 0
 4856              		@ link register save eliminated.
 4857              		.loc 1 700 0
 4858 0000 014B     		ldr	r3, .L343
 4859 0002 93ED000A 		flds	s0, [r3]
 4860              		.loc 1 701 0
 4861 0006 7047     		bx	lr
 4862              	.L344:
 4863              		.align	2
 4864              	.L343:
 4865 0008 00000000 		.word	.LANCHOR13
 4866              		.cfi_endproc
 4867              	.LFE271:
 4868              		.size	mcpwm_get_switching_frequency_now, .-mcpwm_get_switching_frequency_now
 4869              		.section	.text.mcpwm_get_rpm,"ax",%progbits
 4870              		.align	2
 4871              		.p2align 4,,15
 4872              		.global	mcpwm_get_rpm
 4873              		.thumb
 4874              		.thumb_func
 4875              		.type	mcpwm_get_rpm, %function
 4876              	mcpwm_get_rpm:
 4877              	.LFB272:
 4878              		.loc 1 711 0
 4879              		.cfi_startproc
 4880              		@ args = 0, pretend = 0, frame = 0
 4881              		@ frame_needed = 0, uses_anonymous_args = 0
 4882              		@ link register save eliminated.
 4883              		.loc 1 712 0
 4884 0000 064B     		ldr	r3, .L349
 4885 0002 1B68     		ldr	r3, [r3]
 4886 0004 1BB1     		cbz	r3, .L348
 4887              		.loc 1 712 0 is_stmt 0 discriminator 2
 4888 0006 064B     		ldr	r3, .L349+4
 4889 0008 93ED000A 		flds	s0, [r3]
 4890              		.loc 1 713 0 is_stmt 1 discriminator 2
 4891 000c 7047     		bx	lr
 4892              	.L348:
 4893              		.loc 1 712 0 discriminator 1
 4894 000e 044B     		ldr	r3, .L349+4
 4895 0010 93ED000A 		flds	s0, [r3]
 4896 0014 B1EE400A 		fnegs	s0, s0
 4897 0018 7047     		bx	lr
 4898              	.L350:
 4899 001a 00BF     		.align	2
 4900              	.L349:
 4901 001c 00000000 		.word	.LANCHOR4
 4902 0020 00000000 		.word	.LANCHOR10
ARM GAS  /tmp/ccSQtpaj.s 			page 87


 4903              		.cfi_endproc
 4904              	.LFE272:
 4905              		.size	mcpwm_get_rpm, .-mcpwm_get_rpm
 4906              		.section	.text.mcpwm_get_state,"ax",%progbits
 4907              		.align	2
 4908              		.p2align 4,,15
 4909              		.global	mcpwm_get_state
 4910              		.thumb
 4911              		.thumb_func
 4912              		.type	mcpwm_get_state, %function
 4913              	mcpwm_get_state:
 4914              	.LFB273:
 4915              		.loc 1 715 0
 4916              		.cfi_startproc
 4917              		@ args = 0, pretend = 0, frame = 0
 4918              		@ frame_needed = 0, uses_anonymous_args = 0
 4919              		@ link register save eliminated.
 4920              		.loc 1 716 0
 4921 0000 014B     		ldr	r3, .L352
 4922 0002 1878     		ldrb	r0, [r3]	@ zero_extendqisi2
 4923              		.loc 1 717 0
 4924 0004 7047     		bx	lr
 4925              	.L353:
 4926 0006 00BF     		.align	2
 4927              	.L352:
 4928 0008 00000000 		.word	.LANCHOR2
 4929              		.cfi_endproc
 4930              	.LFE273:
 4931              		.size	mcpwm_get_state, .-mcpwm_get_state
 4932              		.section	.text.mcpwm_get_kv,"ax",%progbits
 4933              		.align	2
 4934              		.p2align 4,,15
 4935              		.global	mcpwm_get_kv
 4936              		.thumb
 4937              		.thumb_func
 4938              		.type	mcpwm_get_kv, %function
 4939              	mcpwm_get_kv:
 4940              	.LFB274:
 4941              		.loc 1 727 0
 4942              		.cfi_startproc
 4943              		@ args = 0, pretend = 0, frame = 0
 4944              		@ frame_needed = 0, uses_anonymous_args = 0
 4945              		@ link register save eliminated.
 4946              		.loc 1 728 0
 4947 0000 0D4A     		ldr	r2, .L355
 4948 0002 0E4B     		ldr	r3, .L355+4
 4949 0004 92ED000A 		flds	s0, [r2]
 4950 0008 1B8A     		ldrh	r3, [r3, #16]
 4951 000a 9FED0D6A 		flds	s12, .L355+8
 4952 000e 0D4A     		ldr	r2, .L355+12
 4953 0010 DFED0D7A 		flds	s15, .L355+16
 4954 0014 D2ED006A 		flds	s13, [r2]
 4955 0018 9BB2     		uxth	r3, r3
 4956 001a 07EE103A 		fmsr	s14, r3	@ int
 4957 001e B8EE477A 		fuitos	s14, s14
 4958 0022 F0EEE66A 		fabss	s13, s13
 4959 0026 27EE067A 		fmuls	s14, s14, s12
ARM GAS  /tmp/ccSQtpaj.s 			page 88


 4960 002a 67EE277A 		fmuls	s15, s14, s15
 4961 002e 67EEA67A 		fmuls	s15, s15, s13
 4962              		.loc 1 729 0
 4963 0032 80EE270A 		fdivs	s0, s0, s15
 4964 0036 7047     		bx	lr
 4965              	.L356:
 4966              		.align	2
 4967              	.L355:
 4968 0038 00000000 		.word	.LANCHOR10
 4969 003c 00000000 		.word	ADC_Value
 4970 0040 6740533A 		.word	978534503
 4971 0044 00000000 		.word	.LANCHOR21
 4972 0048 74D19541 		.word	1100337524
 4973              		.cfi_endproc
 4974              	.LFE274:
 4975              		.size	mcpwm_get_kv, .-mcpwm_get_kv
 4976              		.section	.text.mcpwm_get_kv_filtered,"ax",%progbits
 4977              		.align	2
 4978              		.p2align 4,,15
 4979              		.global	mcpwm_get_kv_filtered
 4980              		.thumb
 4981              		.thumb_func
 4982              		.type	mcpwm_get_kv_filtered, %function
 4983              	mcpwm_get_kv_filtered:
 4984              	.LFB275:
 4985              		.loc 1 739 0
 4986              		.cfi_startproc
 4987              		@ args = 0, pretend = 0, frame = 0
 4988              		@ frame_needed = 0, uses_anonymous_args = 0
 4989              		@ link register save eliminated.
 4990              		.loc 1 740 0
 4991 0000 034B     		ldr	r3, .L358
 4992 0002 0448     		ldr	r0, .L358+4
 4993 0004 1B68     		ldr	r3, [r3]
 4994 0006 0449     		ldr	r1, .L358+8
 4995 0008 0722     		movs	r2, #7
 4996 000a FFF7FEBF 		b	filter_run_fir_iteration
 4997              	.LVL373:
 4998              	.L359:
 4999 000e 00BF     		.align	2
 5000              	.L358:
 5001 0010 00000000 		.word	.LANCHOR30
 5002 0014 00000000 		.word	.LANCHOR29
 5003 0018 00000000 		.word	.LANCHOR49
 5004              		.cfi_endproc
 5005              	.LFE275:
 5006              		.size	mcpwm_get_kv_filtered, .-mcpwm_get_kv_filtered
 5007              		.section	.text.mcpwm_get_tot_current,"ax",%progbits
 5008              		.align	2
 5009              		.p2align 4,,15
 5010              		.global	mcpwm_get_tot_current
 5011              		.thumb
 5012              		.thumb_func
 5013              		.type	mcpwm_get_tot_current, %function
 5014              	mcpwm_get_tot_current:
 5015              	.LFB276:
 5016              		.loc 1 754 0
ARM GAS  /tmp/ccSQtpaj.s 			page 89


 5017              		.cfi_startproc
 5018              		@ args = 0, pretend = 0, frame = 0
 5019              		@ frame_needed = 0, uses_anonymous_args = 0
 5020              		@ link register save eliminated.
 5021              		.loc 1 755 0
 5022 0000 014B     		ldr	r3, .L361
 5023 0002 93ED000A 		flds	s0, [r3]
 5024              		.loc 1 756 0
 5025 0006 7047     		bx	lr
 5026              	.L362:
 5027              		.align	2
 5028              	.L361:
 5029 0008 00000000 		.word	.LANCHOR40
 5030              		.cfi_endproc
 5031              	.LFE276:
 5032              		.size	mcpwm_get_tot_current, .-mcpwm_get_tot_current
 5033              		.section	.text.mcpwm_get_tot_current_filtered,"ax",%progbits
 5034              		.align	2
 5035              		.p2align 4,,15
 5036              		.global	mcpwm_get_tot_current_filtered
 5037              		.thumb
 5038              		.thumb_func
 5039              		.type	mcpwm_get_tot_current_filtered, %function
 5040              	mcpwm_get_tot_current_filtered:
 5041              	.LFB277:
 5042              		.loc 1 766 0
 5043              		.cfi_startproc
 5044              		@ args = 0, pretend = 0, frame = 0
 5045              		@ frame_needed = 0, uses_anonymous_args = 0
 5046              		@ link register save eliminated.
 5047              		.loc 1 767 0
 5048 0000 014B     		ldr	r3, .L364
 5049 0002 93ED000A 		flds	s0, [r3]
 5050              		.loc 1 768 0
 5051 0006 7047     		bx	lr
 5052              	.L365:
 5053              		.align	2
 5054              	.L364:
 5055 0008 00000000 		.word	.LANCHOR41
 5056              		.cfi_endproc
 5057              	.LFE277:
 5058              		.size	mcpwm_get_tot_current_filtered, .-mcpwm_get_tot_current_filtered
 5059              		.section	.text.mcpwm_get_tot_current_directional,"ax",%progbits
 5060              		.align	2
 5061              		.p2align 4,,15
 5062              		.global	mcpwm_get_tot_current_directional
 5063              		.thumb
 5064              		.thumb_func
 5065              		.type	mcpwm_get_tot_current_directional, %function
 5066              	mcpwm_get_tot_current_directional:
 5067              	.LFB278:
 5068              		.loc 1 777 0
 5069              		.cfi_startproc
 5070              		@ args = 0, pretend = 0, frame = 0
 5071              		@ frame_needed = 0, uses_anonymous_args = 0
 5072              		@ link register save eliminated.
 5073              	.LBB166:
ARM GAS  /tmp/ccSQtpaj.s 			page 90


 5074              	.LBB167:
 5075              		.loc 1 755 0
 5076 0000 064A     		ldr	r2, .L369
 5077              	.LBE167:
 5078              	.LBE166:
 5079              		.loc 1 779 0
 5080 0002 074B     		ldr	r3, .L369+4
 5081              	.LBB169:
 5082              	.LBB168:
 5083              		.loc 1 755 0
 5084 0004 92ED000A 		flds	s0, [r2]
 5085              	.LBE168:
 5086              	.LBE169:
 5087              		.loc 1 779 0
 5088 0008 D3ED007A 		flds	s15, [r3]
 5089 000c F5EEC07A 		fcmpezs	s15
 5090 0010 F1EE10FA 		fmstat
 5091 0014 D8BF     		it	le
 5092 0016 B1EE400A 		fnegsle	s0, s0
 5093              		.loc 1 780 0
 5094 001a 7047     		bx	lr
 5095              	.L370:
 5096              		.align	2
 5097              	.L369:
 5098 001c 00000000 		.word	.LANCHOR40
 5099 0020 00000000 		.word	.LANCHOR21
 5100              		.cfi_endproc
 5101              	.LFE278:
 5102              		.size	mcpwm_get_tot_current_directional, .-mcpwm_get_tot_current_directional
 5103              		.section	.text.mcpwm_get_tot_current_directional_filtered,"ax",%progbits
 5104              		.align	2
 5105              		.p2align 4,,15
 5106              		.global	mcpwm_get_tot_current_directional_filtered
 5107              		.thumb
 5108              		.thumb_func
 5109              		.type	mcpwm_get_tot_current_directional_filtered, %function
 5110              	mcpwm_get_tot_current_directional_filtered:
 5111              	.LFB279:
 5112              		.loc 1 789 0
 5113              		.cfi_startproc
 5114              		@ args = 0, pretend = 0, frame = 0
 5115              		@ frame_needed = 0, uses_anonymous_args = 0
 5116              		@ link register save eliminated.
 5117              	.LBB170:
 5118              	.LBB171:
 5119              		.loc 1 767 0
 5120 0000 064A     		ldr	r2, .L374
 5121              	.LBE171:
 5122              	.LBE170:
 5123              		.loc 1 791 0
 5124 0002 074B     		ldr	r3, .L374+4
 5125              	.LBB173:
 5126              	.LBB172:
 5127              		.loc 1 767 0
 5128 0004 92ED000A 		flds	s0, [r2]
 5129              	.LBE172:
 5130              	.LBE173:
ARM GAS  /tmp/ccSQtpaj.s 			page 91


 5131              		.loc 1 791 0
 5132 0008 D3ED007A 		flds	s15, [r3]
 5133 000c F5EEC07A 		fcmpezs	s15
 5134 0010 F1EE10FA 		fmstat
 5135 0014 D8BF     		it	le
 5136 0016 B1EE400A 		fnegsle	s0, s0
 5137              		.loc 1 792 0
 5138 001a 7047     		bx	lr
 5139              	.L375:
 5140              		.align	2
 5141              	.L374:
 5142 001c 00000000 		.word	.LANCHOR41
 5143 0020 00000000 		.word	.LANCHOR21
 5144              		.cfi_endproc
 5145              	.LFE279:
 5146              		.size	mcpwm_get_tot_current_directional_filtered, .-mcpwm_get_tot_current_directional_filtered
 5147              		.section	.text.mcpwm_get_tot_current_in,"ax",%progbits
 5148              		.align	2
 5149              		.p2align 4,,15
 5150              		.global	mcpwm_get_tot_current_in
 5151              		.thumb
 5152              		.thumb_func
 5153              		.type	mcpwm_get_tot_current_in, %function
 5154              	mcpwm_get_tot_current_in:
 5155              	.LFB280:
 5156              		.loc 1 800 0
 5157              		.cfi_startproc
 5158              		@ args = 0, pretend = 0, frame = 0
 5159              		@ frame_needed = 0, uses_anonymous_args = 0
 5160              		@ link register save eliminated.
 5161              	.LBB174:
 5162              	.LBB175:
 5163              		.loc 1 755 0
 5164 0000 054A     		ldr	r2, .L377
 5165              	.LBE175:
 5166              	.LBE174:
 5167              		.loc 1 801 0
 5168 0002 064B     		ldr	r3, .L377+4
 5169              	.LBB177:
 5170              	.LBB176:
 5171              		.loc 1 755 0
 5172 0004 92ED000A 		flds	s0, [r2]
 5173              	.LBE176:
 5174              	.LBE177:
 5175              		.loc 1 801 0
 5176 0008 D3ED007A 		flds	s15, [r3]
 5177 000c F0EEE77A 		fabss	s15, s15
 5178              		.loc 1 802 0
 5179 0010 27EE800A 		fmuls	s0, s15, s0
 5180 0014 7047     		bx	lr
 5181              	.L378:
 5182 0016 00BF     		.align	2
 5183              	.L377:
 5184 0018 00000000 		.word	.LANCHOR40
 5185 001c 00000000 		.word	.LANCHOR21
 5186              		.cfi_endproc
 5187              	.LFE280:
ARM GAS  /tmp/ccSQtpaj.s 			page 92


 5188              		.size	mcpwm_get_tot_current_in, .-mcpwm_get_tot_current_in
 5189              		.section	.text.mcpwm_get_tot_current_in_filtered,"ax",%progbits
 5190              		.align	2
 5191              		.p2align 4,,15
 5192              		.global	mcpwm_get_tot_current_in_filtered
 5193              		.thumb
 5194              		.thumb_func
 5195              		.type	mcpwm_get_tot_current_in_filtered, %function
 5196              	mcpwm_get_tot_current_in_filtered:
 5197              	.LFB281:
 5198              		.loc 1 810 0
 5199              		.cfi_startproc
 5200              		@ args = 0, pretend = 0, frame = 0
 5201              		@ frame_needed = 0, uses_anonymous_args = 0
 5202              		@ link register save eliminated.
 5203              	.LBB178:
 5204              	.LBB179:
 5205              		.loc 1 767 0
 5206 0000 054A     		ldr	r2, .L380
 5207              	.LBE179:
 5208              	.LBE178:
 5209              		.loc 1 811 0
 5210 0002 064B     		ldr	r3, .L380+4
 5211              	.LBB181:
 5212              	.LBB180:
 5213              		.loc 1 767 0
 5214 0004 92ED000A 		flds	s0, [r2]
 5215              	.LBE180:
 5216              	.LBE181:
 5217              		.loc 1 811 0
 5218 0008 D3ED007A 		flds	s15, [r3]
 5219 000c F0EEE77A 		fabss	s15, s15
 5220              		.loc 1 812 0
 5221 0010 27EE800A 		fmuls	s0, s15, s0
 5222 0014 7047     		bx	lr
 5223              	.L381:
 5224 0016 00BF     		.align	2
 5225              	.L380:
 5226 0018 00000000 		.word	.LANCHOR41
 5227 001c 00000000 		.word	.LANCHOR21
 5228              		.cfi_endproc
 5229              	.LFE281:
 5230              		.size	mcpwm_get_tot_current_in_filtered, .-mcpwm_get_tot_current_in_filtered
 5231              		.section	.text.mcpwm_get_tachometer_value,"ax",%progbits
 5232              		.align	2
 5233              		.p2align 4,,15
 5234              		.global	mcpwm_get_tachometer_value
 5235              		.thumb
 5236              		.thumb_func
 5237              		.type	mcpwm_get_tachometer_value, %function
 5238              	mcpwm_get_tachometer_value:
 5239              	.LFB282:
 5240              		.loc 1 825 0
 5241              		.cfi_startproc
 5242              		@ args = 0, pretend = 0, frame = 0
 5243              		@ frame_needed = 0, uses_anonymous_args = 0
 5244              		@ link register save eliminated.
ARM GAS  /tmp/ccSQtpaj.s 			page 93


 5245              	.LVL374:
 5246              		.loc 1 826 0
 5247 0000 034B     		ldr	r3, .L387
 5248 0002 1A68     		ldr	r2, [r3]
 5249              	.LVL375:
 5250              		.loc 1 828 0
 5251 0004 08B1     		cbz	r0, .L383
 5252              		.loc 1 829 0
 5253 0006 0021     		movs	r1, #0
 5254 0008 1960     		str	r1, [r3]
 5255              	.L383:
 5256              		.loc 1 833 0
 5257 000a 1046     		mov	r0, r2
 5258              	.LVL376:
 5259 000c 7047     		bx	lr
 5260              	.L388:
 5261 000e 00BF     		.align	2
 5262              	.L387:
 5263 0010 00000000 		.word	.LANCHOR9
 5264              		.cfi_endproc
 5265              	.LFE282:
 5266              		.size	mcpwm_get_tachometer_value, .-mcpwm_get_tachometer_value
 5267              		.section	.text.mcpwm_get_tachometer_abs_value,"ax",%progbits
 5268              		.align	2
 5269              		.p2align 4,,15
 5270              		.global	mcpwm_get_tachometer_abs_value
 5271              		.thumb
 5272              		.thumb_func
 5273              		.type	mcpwm_get_tachometer_abs_value, %function
 5274              	mcpwm_get_tachometer_abs_value:
 5275              	.LFB283:
 5276              		.loc 1 845 0
 5277              		.cfi_startproc
 5278              		@ args = 0, pretend = 0, frame = 0
 5279              		@ frame_needed = 0, uses_anonymous_args = 0
 5280              		@ link register save eliminated.
 5281              	.LVL377:
 5282              		.loc 1 846 0
 5283 0000 034B     		ldr	r3, .L394
 5284 0002 1A68     		ldr	r2, [r3]
 5285              	.LVL378:
 5286              		.loc 1 848 0
 5287 0004 08B1     		cbz	r0, .L390
 5288              		.loc 1 849 0
 5289 0006 0021     		movs	r1, #0
 5290 0008 1960     		str	r1, [r3]
 5291              	.L390:
 5292              		.loc 1 853 0
 5293 000a 1046     		mov	r0, r2
 5294              	.LVL379:
 5295 000c 7047     		bx	lr
 5296              	.L395:
 5297 000e 00BF     		.align	2
 5298              	.L394:
 5299 0010 00000000 		.word	.LANCHOR8
 5300              		.cfi_endproc
 5301              	.LFE283:
ARM GAS  /tmp/ccSQtpaj.s 			page 94


 5302              		.size	mcpwm_get_tachometer_abs_value, .-mcpwm_get_tachometer_abs_value
 5303              		.section	.text.mcpwm_stop_pwm,"ax",%progbits
 5304              		.align	2
 5305              		.p2align 4,,15
 5306              		.global	mcpwm_stop_pwm
 5307              		.thumb
 5308              		.thumb_func
 5309              		.type	mcpwm_stop_pwm, %function
 5310              	mcpwm_stop_pwm:
 5311              	.LFB284:
 5312              		.loc 1 858 0
 5313              		.cfi_startproc
 5314              		@ args = 0, pretend = 0, frame = 0
 5315              		@ frame_needed = 0, uses_anonymous_args = 0
 5316              		@ link register save eliminated.
 5317              		.loc 1 859 0
 5318 0000 0648     		ldr	r0, .L398
 5319              	.LBB182:
 5320              	.LBB183:
 5321              		.loc 1 864 0
 5322 0002 0749     		ldr	r1, .L398+4
 5323              		.loc 1 865 0
 5324 0004 074A     		ldr	r2, .L398+8
 5325              	.LBE183:
 5326              	.LBE182:
 5327              		.loc 1 858 0
 5328 0006 10B4     		push	{r4}
 5329              		.cfi_def_cfa_offset 4
 5330              		.cfi_offset 4, -4
 5331              		.loc 1 859 0
 5332 0008 0524     		movs	r4, #5
 5333 000a 0470     		strb	r4, [r0]
 5334              	.LBB186:
 5335              	.LBB184:
 5336              		.loc 1 864 0
 5337 000c 0023     		movs	r3, #0
 5338              	.LBE184:
 5339              	.LBE186:
 5340              		.loc 1 861 0
 5341 000e 5DF8044B 		ldr	r4, [sp], #4
 5342              		.cfi_restore 4
 5343              		.cfi_def_cfa_offset 0
 5344              	.LBB187:
 5345              	.LBB185:
 5346              		.loc 1 864 0
 5347 0012 0B70     		strb	r3, [r1]
 5348              		.loc 1 865 0
 5349 0014 1360     		str	r3, [r2]
 5350              		.loc 1 866 0
 5351 0016 FFF7FEBF 		b	stop_pwm_hw
 5352              	.LVL380:
 5353              	.L399:
 5354 001a 00BF     		.align	2
 5355              	.L398:
 5356 001c 00000000 		.word	.LANCHOR16
 5357 0020 00000000 		.word	.LANCHOR2
 5358 0024 00000000 		.word	.LANCHOR42
ARM GAS  /tmp/ccSQtpaj.s 			page 95


 5359              	.LBE185:
 5360              	.LBE187:
 5361              		.cfi_endproc
 5362              	.LFE284:
 5363              		.size	mcpwm_stop_pwm, .-mcpwm_stop_pwm
 5364              		.section	.text.mcpwm_adc_inj_int_handler,"ax",%progbits
 5365              		.align	2
 5366              		.p2align 4,,15
 5367              		.global	mcpwm_adc_inj_int_handler
 5368              		.thumb
 5369              		.thumb_func
 5370              		.type	mcpwm_adc_inj_int_handler, %function
 5371              	mcpwm_adc_inj_int_handler:
 5372              	.LFB296:
 5373              		.loc 1 1353 0
 5374              		.cfi_startproc
 5375              		@ args = 0, pretend = 0, frame = 0
 5376              		@ frame_needed = 0, uses_anonymous_args = 0
 5377 0000 F8B5     		push	{r3, r4, r5, r6, r7, lr}
 5378              		.cfi_def_cfa_offset 24
 5379              		.cfi_offset 3, -24
 5380              		.cfi_offset 4, -20
 5381              		.cfi_offset 5, -16
 5382              		.cfi_offset 6, -12
 5383              		.cfi_offset 7, -8
 5384              		.cfi_offset 14, -4
 5385              		.loc 1 1354 0
 5386 0002 B64B     		ldr	r3, .L473
 5387              		.loc 1 1356 0
 5388 0004 B648     		ldr	r0, .L473+4
 5389              		.loc 1 1354 0
 5390 0006 0022     		movs	r2, #0
 5391              		.loc 1 1353 0
 5392 0008 2DED028B 		fstmfdd	sp!, {d8}
 5393              		.cfi_def_cfa_offset 32
 5394              		.cfi_offset 80, -32
 5395              		.cfi_offset 81, -28
 5396              		.loc 1 1356 0
 5397 000c 1421     		movs	r1, #20
 5398              		.loc 1 1354 0
 5399 000e 5A62     		str	r2, [r3, #36]
 5400              		.loc 1 1356 0
 5401 0010 FFF7FEFF 		bl	ADC_GetInjectedConversionValue
 5402              	.LVL381:
 5403              		.loc 1 1357 0
 5404 0014 1421     		movs	r1, #20
 5405              		.loc 1 1356 0
 5406 0016 0546     		mov	r5, r0
 5407              	.LVL382:
 5408              		.loc 1 1357 0
 5409 0018 B248     		ldr	r0, .L473+8
 5410              	.LVL383:
 5411 001a FFF7FEFF 		bl	ADC_GetInjectedConversionValue
 5412              	.LVL384:
 5413              		.loc 1 1359 0
 5414 001e 1821     		movs	r1, #24
 5415              		.loc 1 1357 0
ARM GAS  /tmp/ccSQtpaj.s 			page 96


 5416 0020 0646     		mov	r6, r0
 5417              	.LVL385:
 5418              		.loc 1 1359 0
 5419 0022 B048     		ldr	r0, .L473+8
 5420              	.LVL386:
 5421 0024 FFF7FEFF 		bl	ADC_GetInjectedConversionValue
 5422              	.LVL387:
 5423              		.loc 1 1360 0
 5424 0028 AD48     		ldr	r0, .L473+4
 5425 002a 1821     		movs	r1, #24
 5426 002c FFF7FEFF 		bl	ADC_GetInjectedConversionValue
 5427              	.LVL388:
 5428              		.loc 1 1365 0
 5429 0030 AD4B     		ldr	r3, .L473+12
 5430 0032 1A68     		ldr	r2, [r3]
 5431 0034 012A     		cmp	r2, #1
 5432 0036 00F0B780 		beq	.L464
 5433              		.loc 1 1367 0
 5434 003a 1A68     		ldr	r2, [r3]
 5435 003c 022A     		cmp	r2, #2
 5436 003e 00F0B780 		beq	.L465
 5437              		.loc 1 1369 0
 5438 0042 1B68     		ldr	r3, [r3]
 5439 0044 032B     		cmp	r3, #3
 5440 0046 00F0B780 		beq	.L466
 5441              	.LVL389:
 5442              	.L402:
 5443              		.loc 1 1387 0
 5444 004a A84A     		ldr	r2, .L473+16
 5445              		.loc 1 1388 0
 5446 004c DFF800C3 		ldr	ip, .L473+116
 5447              		.loc 1 1387 0
 5448 0050 1368     		ldr	r3, [r2]
 5449              		.loc 1 1389 0
 5450 0052 DFF800E3 		ldr	lr, .L473+120
 5451              		.loc 1 1391 0
 5452 0056 A649     		ldr	r1, .L473+20
 5453              		.loc 1 1392 0
 5454 0058 A648     		ldr	r0, .L473+24
 5455              		.loc 1 1416 0
 5456 005a A74C     		ldr	r4, .L473+28
 5457              		.loc 1 1421 0
 5458 005c A74F     		ldr	r7, .L473+32
 5459              		.loc 1 1387 0
 5460 005e 2B44     		add	r3, r3, r5
 5461 0060 1360     		str	r3, [r2]
 5462              		.loc 1 1388 0
 5463 0062 DCF80030 		ldr	r3, [ip]
 5464              		.loc 1 1421 0
 5465 0066 3A68     		ldr	r2, [r7]
 5466              		.loc 1 1388 0
 5467 0068 3344     		add	r3, r3, r6
 5468 006a CCF80030 		str	r3, [ip]
 5469              		.loc 1 1389 0
 5470 006e DEF80030 		ldr	r3, [lr]
 5471 0072 0133     		adds	r3, r3, #1
 5472 0074 CEF80030 		str	r3, [lr]
ARM GAS  /tmp/ccSQtpaj.s 			page 97


 5473              		.loc 1 1391 0
 5474 0078 0B68     		ldr	r3, [r1]
 5475              		.loc 1 1392 0
 5476 007a 0368     		ldr	r3, [r0]
 5477              		.loc 1 1393 0
 5478 007c D1F800E0 		ldr	lr, [r1]
 5479              		.loc 1 1394 0
 5480 0080 0368     		ldr	r3, [r0]
 5481              		.loc 1 1395 0
 5482 0082 D1F800C0 		ldr	ip, [r1]
 5483              		.loc 1 1396 0
 5484 0086 D0F800C0 		ldr	ip, [r0]
 5485              		.loc 1 1393 0
 5486 008a CEEB0505 		rsb	r5, lr, r5
 5487              	.LVL390:
 5488              		.loc 1 1394 0
 5489 008e F61A     		subs	r6, r6, r3
 5490              	.LVL391:
 5491              		.loc 1 1416 0
 5492 0090 2560     		str	r5, [r4]
 5493              		.loc 1 1417 0
 5494 0092 6660     		str	r6, [r4, #4]
 5495              		.loc 1 1418 0
 5496 0094 2568     		ldr	r5, [r4]
 5497              	.LVL392:
 5498 0096 6368     		ldr	r3, [r4, #4]
 5499 0098 2B44     		add	r3, r3, r5
 5500 009a 5B42     		negs	r3, r3
 5501 009c A360     		str	r3, [r4, #8]
 5502              	.LVL393:
 5503              		.loc 1 1421 0
 5504 009e 9378     		ldrb	r3, [r2, #2]	@ zero_extendqisi2
 5505 00a0 012B     		cmp	r3, #1
 5506 00a2 23D0     		beq	.L467
 5507              	.LBB188:
 5508              		.loc 1 1450 0
 5509 00a4 964D     		ldr	r5, .L473+36
 5510 00a6 2B78     		ldrb	r3, [r5]	@ zero_extendqisi2
 5511 00a8 032B     		cmp	r3, #3
 5512 00aa 00F0A781 		beq	.L468
 5513              	.LBB189:
 5514              		.loc 1 1456 0
 5515 00ae 954B     		ldr	r3, .L473+40
 5516 00b0 1B68     		ldr	r3, [r3]
 5517 00b2 6BB1     		cbz	r3, .L410
 5518              		.loc 1 1457 0
 5519 00b4 944B     		ldr	r3, .L473+44
 5520 00b6 1A68     		ldr	r2, [r3]
 5521 00b8 013A     		subs	r2, r2, #1
 5522 00ba 052A     		cmp	r2, #5
 5523 00bc 00F2D281 		bhi	.L444
 5524 00c0 DFE812F0 		tbh	[pc, r2, lsl #1]
 5525              	.L413:
 5526 00c4 8400     		.2byte	(.L423-.L413)/2
 5527 00c6 8400     		.2byte	(.L423-.L413)/2
 5528 00c8 0201     		.2byte	(.L421-.L413)/2
 5529 00ca 0701     		.2byte	(.L419-.L413)/2
ARM GAS  /tmp/ccSQtpaj.s 			page 98


 5530 00cc FB00     		.2byte	(.L425-.L413)/2
 5531 00ce FB00     		.2byte	(.L425-.L413)/2
 5532              		.p2align 1
 5533              	.L410:
 5534              		.loc 1 1467 0
 5535 00d0 8D4B     		ldr	r3, .L473+44
 5536 00d2 1A68     		ldr	r2, [r3]
 5537 00d4 013A     		subs	r2, r2, #1
 5538 00d6 052A     		cmp	r2, #5
 5539 00d8 00F2C481 		bhi	.L444
 5540 00dc DFE812F0 		tbh	[pc, r2, lsl #1]
 5541              	.L420:
 5542 00e0 F900     		.2byte	(.L419-.L420)/2
 5543 00e2 F400     		.2byte	(.L421-.L420)/2
 5544 00e4 7600     		.2byte	(.L423-.L420)/2
 5545 00e6 7600     		.2byte	(.L423-.L420)/2
 5546 00e8 ED00     		.2byte	(.L425-.L420)/2
 5547 00ea ED00     		.2byte	(.L425-.L420)/2
 5548              		.p2align 1
 5549              	.L467:
 5550              	.LBE189:
 5551              	.LBE188:
 5552              		.loc 1 1422 0
 5553 00ec 854B     		ldr	r3, .L473+40
 5554 00ee 1B68     		ldr	r3, [r3]
 5555 00f0 002B     		cmp	r3, #0
 5556 00f2 67D1     		bne	.L469
 5557              		.loc 1 1425 0
 5558 00f4 854B     		ldr	r3, .L473+48
 5559 00f6 1B89     		ldrh	r3, [r3, #8]
 5560 00f8 0968     		ldr	r1, [r1]
 5561              	.L462:
 5562 00fa 9BB2     		uxth	r3, r3
 5563 00fc 5B1A     		subs	r3, r3, r1
 5564 00fe 00EE103A 		fmsr	s0, r3	@ int
 5565 0102 B8EEC00A 		fsitos	s0, s0
 5566 0106 B1EE408A 		fnegs	s16, s0
 5567              	.LVL394:
 5568              	.L406:
 5569              		.loc 1 1556 0
 5570 010a 9FED810A 		flds	s0, .L473+52
 5571 010e DFED817A 		flds	s15, .L473+56
 5572 0112 814B     		ldr	r3, .L473+60
 5573              		.loc 1 1559 0
 5574 0114 9FED816A 		flds	s12, .L473+64
 5575              		.loc 1 1556 0
 5576 0118 28EE000A 		fmuls	s0, s16, s0
 5577 011c 80EE270A 		fdivs	s0, s0, s15
 5578 0120 83ED000A 		fsts	s0, [r3]
 5579              		.loc 1 1559 0
 5580 0124 D3ED006A 		flds	s13, [r3]
 5581 0128 92ED057A 		flds	s14, [r2, #20]
 5582 012c 27EE067A 		fmuls	s14, s14, s12
 5583 0130 F0EEE66A 		fabss	s13, s13
 5584 0134 F4EEC76A 		fcmpes	s13, s14
 5585 0138 F1EE10FA 		fmstat
 5586 013c 14DD     		ble	.L440
ARM GAS  /tmp/ccSQtpaj.s 			page 99


 5587              		.loc 1 1560 0
 5588 013e 93ED007A 		flds	s14, [r3]
 5589 0142 D2ED057A 		flds	s15, [r2, #20]
 5590 0146 B5EEC07A 		fcmpezs	s14
 5591 014a F1EE10FA 		fmstat
 5592 014e BFEE007A 		fconsts	s14, #240
 5593 0152 F7EE006A 		fconsts	s13, #112
 5594 0156 58BF     		it	pl
 5595 0158 B0EE667A 		fcpyspl	s14, s13
 5596 015c 67EE277A 		fmuls	s15, s14, s15
 5597 0160 67EE867A 		fmuls	s15, s15, s12
 5598 0164 C3ED007A 		fsts	s15, [r3]
 5599              	.L440:
 5600              		.loc 1 1563 0
 5601 0168 6D4C     		ldr	r4, .L473+68
 5602 016a 93ED000A 		flds	s0, [r3]
 5603 016e 6D48     		ldr	r0, .L473+72
 5604 0170 2246     		mov	r2, r4
 5605 0172 0421     		movs	r1, #4
 5606 0174 FFF7FEFF 		bl	filter_add_sample
 5607              	.LVL395:
 5608              		.loc 1 1565 0
 5609 0178 2368     		ldr	r3, [r4]
 5610 017a 6A48     		ldr	r0, .L473+72
 5611 017c 6A49     		ldr	r1, .L473+76
 5612 017e 0422     		movs	r2, #4
 5613 0180 FFF7FEFF 		bl	filter_run_fir_iteration
 5614              	.LVL396:
 5615 0184 694A     		ldr	r2, .L473+80
 5616              		.loc 1 1569 0
 5617 0186 554B     		ldr	r3, .L473
 5618              		.loc 1 1565 0
 5619 0188 82ED000A 		fsts	s0, [r2]
 5620              		.loc 1 1569 0
 5621 018c D3ED097A 		flds	s15, [r3, #36]	@ int
 5622 0190 9FED677A 		flds	s14, .L473+84
 5623 0194 674B     		ldr	r3, .L473+88
 5624 0196 F8EE677A 		fuitos	s15, s15
 5625              		.loc 1 1570 0
 5626 019a BDEC028B 		fldmfdd	sp!, {d8}
 5627              		.cfi_remember_state
 5628              		.cfi_restore 80
 5629              		.cfi_restore 81
 5630              		.cfi_def_cfa_offset 24
 5631              	.LVL397:
 5632              		.loc 1 1569 0
 5633 019e C7EE877A 		fdivs	s15, s15, s14
 5634 01a2 C3ED007A 		fsts	s15, [r3]
 5635              		.loc 1 1570 0
 5636 01a6 F8BD     		pop	{r3, r4, r5, r6, r7, pc}
 5637              	.LVL398:
 5638              	.L464:
 5639              		.cfi_restore_state
 5640              		.loc 1 1366 0
 5641 01a8 584B     		ldr	r3, .L473+48
 5642 01aa 1D89     		ldrh	r5, [r3, #8]
 5643              	.LVL399:
ARM GAS  /tmp/ccSQtpaj.s 			page 100


 5644 01ac ADB2     		uxth	r5, r5
 5645              	.LVL400:
 5646 01ae 4CE7     		b	.L402
 5647              	.LVL401:
 5648              	.L465:
 5649              		.loc 1 1368 0
 5650 01b0 564B     		ldr	r3, .L473+48
 5651 01b2 DE88     		ldrh	r6, [r3, #6]
 5652              	.LVL402:
 5653 01b4 B6B2     		uxth	r6, r6
 5654              	.LVL403:
 5655 01b6 48E7     		b	.L402
 5656              	.LVL404:
 5657              	.L466:
 5658              		.loc 1 1370 0
 5659 01b8 544B     		ldr	r3, .L473+48
 5660 01ba 1D89     		ldrh	r5, [r3, #8]
 5661              	.LVL405:
 5662              		.loc 1 1371 0
 5663 01bc DE88     		ldrh	r6, [r3, #6]
 5664              	.LVL406:
 5665              		.loc 1 1370 0
 5666 01be ADB2     		uxth	r5, r5
 5667              	.LVL407:
 5668              		.loc 1 1371 0
 5669 01c0 B6B2     		uxth	r6, r6
 5670              	.LVL408:
 5671 01c2 42E7     		b	.L402
 5672              	.LVL409:
 5673              	.L469:
 5674              		.loc 1 1423 0
 5675 01c4 514B     		ldr	r3, .L473+48
 5676 01c6 DB88     		ldrh	r3, [r3, #6]
 5677 01c8 0168     		ldr	r1, [r0]
 5678 01ca 96E7     		b	.L462
 5679              	.L423:
 5680              	.LBB197:
 5681              	.LBB190:
 5682              		.loc 1 1471 0
 5683 01cc D4ED017A 		flds	s15, [r4, #4]	@ int
 5684 01d0 F8EEE77A 		fsitos	s15, s15
 5685 01d4 F1EE677A 		fnegs	s15, s15
 5686              	.LVL410:
 5687              	.L411:
 5688              		.loc 1 1481 0
 5689 01d8 574A     		ldr	r2, .L473+92
 5690 01da 1868     		ldr	r0, [r3]
 5691 01dc 1168     		ldr	r1, [r2]
 5692              		.loc 1 1484 0
 5693 01de 1B68     		ldr	r3, [r3]
 5694 01e0 1360     		str	r3, [r2]
 5695              		.loc 1 1481 0
 5696 01e2 8842     		cmp	r0, r1
 5697              		.loc 1 1482 0
 5698 01e4 16BF     		itet	ne
 5699 01e6 5549     		ldrne	r1, .L473+96
 5700 01e8 5449     		ldreq	r1, .L473+96
ARM GAS  /tmp/ccSQtpaj.s 			page 101


 5701 01ea 91ED008A 		fldsne	s16, [r1]
 5702              	.LVL411:
 5703              		.loc 1 1485 0
 5704 01ee C1ED007A 		fsts	s15, [r1]
 5705 01f2 08BF     		it	eq
 5706 01f4 B0EE678A 		fcpyseq	s16, s15
 5707              	.LVL412:
 5708              	.L409:
 5709              	.LBE190:
 5710              		.loc 1 1488 0
 5711 01f8 514E     		ldr	r6, .L473+100
 5712              	.LVL413:
 5713 01fa 3368     		ldr	r3, [r6]
 5714 01fc 042B     		cmp	r3, #4
 5715 01fe 0AD0     		beq	.L470
 5716              	.L427:
 5717              		.loc 1 1535 0
 5718 0200 002B     		cmp	r3, #0
 5719 0202 00F0AB80 		beq	.L436
 5720              		.loc 1 1539 0
 5721 0206 2A78     		ldrb	r2, [r5]	@ zero_extendqisi2
 5722              		.loc 1 1536 0
 5723 0208 013B     		subs	r3, r3, #1
 5724              		.loc 1 1539 0
 5725 020a 012A     		cmp	r2, #1
 5726              		.loc 1 1536 0
 5727 020c 3360     		str	r3, [r6]
 5728              		.loc 1 1539 0
 5729 020e 00F0C480 		beq	.L471
 5730              	.L463:
 5731 0212 3A68     		ldr	r2, [r7]
 5732 0214 79E7     		b	.L406
 5733              	.L470:
 5734              	.LBB191:
 5735              		.loc 1 1489 0
 5736 0216 94ED007A 		flds	s14, [r4]	@ int
 5737              		.loc 1 1490 0
 5738 021a D4ED017A 		flds	s15, [r4, #4]	@ int
 5739              		.loc 1 1493 0
 5740 021e 494A     		ldr	r2, .L473+104
 5741 0220 494B     		ldr	r3, .L473+108
 5742 0222 1168     		ldr	r1, [r2]
 5743              		.loc 1 1498 0
 5744 0224 4748     		ldr	r0, .L473+104
 5745              		.loc 1 1489 0
 5746 0226 B8EEC77A 		fsitos	s14, s14
 5747              		.loc 1 1490 0
 5748 022a F8EEE77A 		fsitos	s15, s15
 5749              		.loc 1 1489 0
 5750 022e B0EEC77A 		fabss	s14, s14
 5751              	.LVL414:
 5752              		.loc 1 1490 0
 5753 0232 F0EEE77A 		fabss	s15, s15
 5754              	.LVL415:
 5755              		.loc 1 1492 0
 5756 0236 B4EEE77A 		fcmpes	s14, s15
 5757 023a F1EE10FA 		fmstat
ARM GAS  /tmp/ccSQtpaj.s 			page 102


 5758              		.loc 1 1493 0
 5759 023e 03EB8101 		add	r1, r3, r1, lsl #2
 5760 0242 CCBF     		ite	gt
 5761 0244 81ED007A 		fstsgt	s14, [r1]
 5762              		.loc 1 1495 0
 5763 0248 C1ED007A 		fstsle	s15, [r1]
 5764              		.loc 1 1498 0
 5765 024c 1168     		ldr	r1, [r2]
 5766 024e 0029     		cmp	r1, #0
 5767 0250 40F3F480 		ble	.L431
 5768              		.loc 1 1499 0
 5769 0254 D0F800E0 		ldr	lr, [r0]
 5770              		.loc 1 1500 0
 5771 0258 0168     		ldr	r1, [r0]
 5772              		.loc 1 1499 0
 5773 025a 3C4C     		ldr	r4, .L473+112
 5774              		.loc 1 1500 0
 5775 025c 0139     		subs	r1, r1, #1
 5776 025e 03EB8101 		add	r1, r3, r1, lsl #2
 5777 0262 D1ED007A 		flds	s15, [r1]
 5778              	.LVL416:
 5779 0266 0068     		ldr	r0, [r0]
 5780 0268 03EB8000 		add	r0, r3, r0, lsl #2
 5781 026c 90ED007A 		flds	s14, [r0]
 5782              	.LVL417:
 5783 0270 77EEC77A 		fsubs	s15, s15, s14
 5784              		.loc 1 1499 0
 5785 0274 04EB8E01 		add	r1, r4, lr, lsl #2
 5786 0278 C1ED007A 		fsts	s15, [r1]
 5787              	.L432:
 5788              		.loc 1 1506 0
 5789 027c 234C     		ldr	r4, .L473+48
 5790              		.loc 1 1509 0
 5791 027e 2249     		ldr	r1, .L473+44
 5792              		.loc 1 1506 0
 5793 0280 208A     		ldrh	r0, [r4, #16]
 5794              		.loc 1 1509 0
 5795 0282 0968     		ldr	r1, [r1]
 5796 0284 0139     		subs	r1, r1, #1
 5797 0286 0529     		cmp	r1, #5
 5798              		.loc 1 1506 0
 5799 0288 80B2     		uxth	r0, r0
 5800              	.LVL418:
 5801 028a 00F29880 		bhi	.L433
 5802 028e 4FF0010E 		mov	lr, #1
 5803 0292 0EFA01F1 		lsl	r1, lr, r1
 5804 0296 11F0240F 		tst	r1, #36
 5805 029a 20FA0EF0 		lsr	r0, r0, lr
 5806              	.LVL419:
 5807 029e 40F08080 		bne	.L434
 5808 02a2 11F0120F 		tst	r1, #18
 5809 02a6 40F0D980 		bne	.L435
 5810 02aa 11F0090F 		tst	r1, #9
 5811 02ae 00F08680 		beq	.L433
 5812              		.loc 1 1512 0
 5813 02b2 D2F800E0 		ldr	lr, [r2]
 5814 02b6 A188     		ldrh	r1, [r4, #4]
ARM GAS  /tmp/ccSQtpaj.s 			page 103


 5815 02b8 76E0     		b	.L461
 5816              	.LVL420:
 5817              	.L425:
 5818              	.LBE191:
 5819              	.LBB192:
 5820              		.loc 1 1473 0
 5821 02ba D4ED007A 		flds	s15, [r4]	@ int
 5822 02be F8EEE77A 		fsitos	s15, s15
 5823 02c2 F1EE677A 		fnegs	s15, s15
 5824              	.LVL421:
 5825 02c6 87E7     		b	.L411
 5826              	.LVL422:
 5827              	.L421:
 5828              		.loc 1 1469 0
 5829 02c8 D4ED007A 		flds	s15, [r4]	@ int
 5830 02cc F8EEE77A 		fsitos	s15, s15
 5831              	.LVL423:
 5832 02d0 82E7     		b	.L411
 5833              	.LVL424:
 5834              	.L419:
 5835              		.loc 1 1468 0
 5836 02d2 D4ED017A 		flds	s15, [r4, #4]	@ int
 5837 02d6 F8EEE77A 		fsitos	s15, s15
 5838              	.LVL425:
 5839 02da 7DE7     		b	.L411
 5840              	.L474:
 5841              		.align	2
 5842              	.L473:
 5843 02dc 00180040 		.word	1073747968
 5844 02e0 00200140 		.word	1073815552
 5845 02e4 00210140 		.word	1073815808
 5846 02e8 00000000 		.word	.LANCHOR1
 5847 02ec 00000000 		.word	.LANCHOR51
 5848 02f0 00000000 		.word	.LANCHOR54
 5849 02f4 00000000 		.word	.LANCHOR55
 5850 02f8 00000000 		.word	ADC_curr_norm_value
 5851 02fc 00000000 		.word	.LANCHOR0
 5852 0300 00000000 		.word	.LANCHOR2
 5853 0304 00000000 		.word	.LANCHOR4
 5854 0308 00000000 		.word	.LANCHOR3
 5855 030c 00000000 		.word	ADC_Value
 5856 0310 6740533A 		.word	978534503
 5857 0314 0BD7233C 		.word	1008981771
 5858 0318 00000000 		.word	.LANCHOR40
 5859 031c 9A99993F 		.word	1067030938
 5860 0320 00000000 		.word	.LANCHOR67
 5861 0324 00000000 		.word	.LANCHOR66
 5862 0328 00000000 		.word	.LANCHOR50
 5863 032c 00000000 		.word	.LANCHOR41
 5864 0330 8096184B 		.word	1259902592
 5865 0334 00000000 		.word	.LANCHOR68
 5866 0338 00000000 		.word	.LANCHOR58
 5867 033c 00000000 		.word	.LANCHOR59
 5868 0340 00000000 		.word	.LANCHOR60
 5869 0344 00000000 		.word	.LANCHOR37
 5870 0348 00000000 		.word	.LANCHOR61
 5871 034c 00000000 		.word	.LANCHOR62
ARM GAS  /tmp/ccSQtpaj.s 			page 104


 5872 0350 00000000 		.word	.LANCHOR52
 5873 0354 00000000 		.word	.LANCHOR53
 5874 0358 CDCC4C3E 		.word	1045220557
 5875              	.LVL426:
 5876              	.L436:
 5877              	.LBE192:
 5878              		.loc 1 1539 0
 5879 035c 2B78     		ldrb	r3, [r5]	@ zero_extendqisi2
 5880 035e 012B     		cmp	r3, #1
 5881 0360 7FF457AF 		bne	.L463
 5882              	.L438:
 5883              		.loc 1 1540 0
 5884 0364 0523     		movs	r3, #5
 5885              		.loc 1 1542 0
 5886 0366 1FED040A 		flds	s0, .L473+124
 5887              		.loc 1 1540 0
 5888 036a 3360     		str	r3, [r6]
 5889              		.loc 1 1542 0
 5890 036c FFF7FEFF 		bl	set_duty_cycle_hw
 5891              	.LVL427:
 5892              		.loc 1 1544 0
 5893 0370 404A     		ldr	r2, .L475
 5894 0372 1368     		ldr	r3, [r2]
 5895 0374 0133     		adds	r3, r3, #1
 5896 0376 1360     		str	r3, [r2]
 5897              		.loc 1 1545 0
 5898 0378 1368     		ldr	r3, [r2]
 5899 037a 052B     		cmp	r3, #5
 5900              		.loc 1 1546 0
 5901 037c C4BF     		itt	gt
 5902 037e 0023     		movgt	r3, #0
 5903 0380 1360     		strgt	r3, [r2]
 5904              		.loc 1 1549 0
 5905 0382 1368     		ldr	r3, [r2]
 5906 0384 3C4A     		ldr	r2, .L475+4
 5907 0386 0133     		adds	r3, r3, #1
 5908 0388 1360     		str	r3, [r2]
 5909              		.loc 1 1551 0
 5910 038a 1068     		ldr	r0, [r2]
 5911 038c FFF7FEFF 		bl	set_next_comm_step
 5912              	.LVL428:
 5913              		.loc 1 1552 0
 5914 0390 3A48     		ldr	r0, .L475+8
 5915 0392 2021     		movs	r1, #32
 5916 0394 FFF7FEFF 		bl	TIM_GenerateEvent
 5917              	.LVL429:
 5918 0398 3BE7     		b	.L463
 5919              	.L471:
 5920              		.loc 1 1539 0 discriminator 1
 5921 039a 002B     		cmp	r3, #0
 5922 039c 7FF439AF 		bne	.L463
 5923 03a0 E0E7     		b	.L438
 5924              	.L434:
 5925              	.LBB193:
 5926              		.loc 1 1522 0
 5927 03a2 D2F800E0 		ldr	lr, [r2]
 5928 03a6 2188     		ldrh	r1, [r4]
ARM GAS  /tmp/ccSQtpaj.s 			page 105


 5929              	.L461:
 5930 03a8 354C     		ldr	r4, .L475+12
 5931 03aa 89B2     		uxth	r1, r1
 5932 03ac 081A     		subs	r0, r1, r0
 5933 03ae 07EE900A 		fmsr	s15, r0	@ int
 5934 03b2 F8EEE77A 		fsitos	s15, s15
 5935 03b6 04EB8E01 		add	r1, r4, lr, lsl #2
 5936 03ba C1ED007A 		fsts	s15, [r1]
 5937              	.L433:
 5938              		.loc 1 1529 0
 5939 03be 1468     		ldr	r4, [r2]
 5940 03c0 3048     		ldr	r0, .L475+16
 5941              		.loc 1 1530 0
 5942 03c2 3149     		ldr	r1, .L475+20
 5943              		.loc 1 1529 0
 5944 03c4 03EB8403 		add	r3, r3, r4, lsl #2
 5945 03c8 93ED007A 		flds	s14, [r3]
 5946 03cc 1368     		ldr	r3, [r2]
 5947 03ce 00EB8303 		add	r3, r0, r3, lsl #2
 5948 03d2 D3ED007A 		flds	s15, [r3]
 5949 03d6 37EE877A 		fadds	s14, s15, s14
 5950              		.loc 1 1530 0
 5951 03da F7EE006A 		fconsts	s13, #112
 5952              		.loc 1 1529 0
 5953 03de 83ED007A 		fsts	s14, [r3]
 5954              		.loc 1 1530 0
 5955 03e2 1368     		ldr	r3, [r2]
 5956 03e4 01EB8303 		add	r3, r1, r3, lsl #2
 5957 03e8 D3ED007A 		flds	s15, [r3]
 5958 03ec 77EEA67A 		fadds	s15, s15, s13
 5959 03f0 C3ED007A 		fsts	s15, [r3]
 5960              		.loc 1 1532 0
 5961 03f4 FFF7FEFF 		bl	stop_pwm_hw
 5962              	.LVL430:
 5963 03f8 3368     		ldr	r3, [r6]
 5964 03fa 01E7     		b	.L427
 5965              	.LVL431:
 5966              	.L468:
 5967              	.LBE193:
 5968              	.LBB194:
 5969              		.loc 1 1451 0
 5970 03fc D4ED006A 		flds	s13, [r4]	@ int
 5971              		.loc 1 1452 0
 5972 0400 D4ED017A 		flds	s15, [r4, #4]	@ int
 5973              		.loc 1 1453 0
 5974 0404 94ED027A 		flds	s14, [r4, #8]	@ int
 5975              		.loc 1 1452 0
 5976 0408 F8EEE77A 		fsitos	s15, s15
 5977              		.loc 1 1451 0
 5978 040c F8EEE66A 		fsitos	s13, s13
 5979              	.LVL432:
 5980              		.loc 1 1454 0
 5981 0410 67EEA77A 		fmuls	s15, s15, s15
 5982              	.LVL433:
 5983              		.loc 1 1453 0
 5984 0414 B8EEC77A 		fsitos	s14, s14
 5985              	.LVL434:
ARM GAS  /tmp/ccSQtpaj.s 			page 106


 5986              		.loc 1 1454 0
 5987 0418 E6EEA67A 		vfma.f32	s15, s13, s13
 5988 041c B7EE080A 		fconsts	s0, #120
 5989 0420 E7EE077A 		vfma.f32	s15, s14, s14
 5990 0424 C7EE807A 		fdivs	s15, s15, s0
 5991 0428 B1EEE70A 		fsqrts	s0, s15
 5992 042c B4EE400A 		fcmps	s0, s0
 5993 0430 F1EE10FA 		fmstat
 5994 0434 19D1     		bne	.L472
 5995              	.LVL435:
 5996              	.L408:
 5997 0436 B0EE408A 		fcpys	s16, s0
 5998              	.LVL436:
 5999              	.LBE194:
 6000 043a DDE6     		b	.L409
 6001              	.LVL437:
 6002              	.L431:
 6003              	.LBB195:
 6004              		.loc 1 1502 0
 6005 043c 0468     		ldr	r4, [r0]
 6006              		.loc 1 1503 0
 6007 043e D3ED057A 		flds	s15, [r3, #20]
 6008              	.LVL438:
 6009 0442 0068     		ldr	r0, [r0]
 6010              		.loc 1 1502 0
 6011 0444 1149     		ldr	r1, .L475+24
 6012              		.loc 1 1503 0
 6013 0446 03EB8000 		add	r0, r3, r0, lsl #2
 6014 044a 90ED007A 		flds	s14, [r0]
 6015              	.LVL439:
 6016 044e 77EEC77A 		fsubs	s15, s15, s14
 6017              		.loc 1 1502 0
 6018 0452 01EB8401 		add	r1, r1, r4, lsl #2
 6019 0456 C1ED007A 		fsts	s15, [r1]
 6020 045a 0FE7     		b	.L432
 6021              	.L435:
 6022              		.loc 1 1517 0
 6023 045c D2F800E0 		ldr	lr, [r2]
 6024 0460 6188     		ldrh	r1, [r4, #2]
 6025 0462 A1E7     		b	.L461
 6026              	.LVL440:
 6027              	.L444:
 6028              	.LBE195:
 6029              	.LBE197:
 6030              		.loc 1 1420 0
 6031 0464 DFED0A7A 		flds	s15, .L475+28
 6032 0468 B6E6     		b	.L411
 6033              	.LVL441:
 6034              	.L472:
 6035              	.LBB198:
 6036              	.LBB196:
 6037              		.loc 1 1454 0
 6038 046a B0EE670A 		fcpys	s0, s15
 6039 046e FFF7FEFF 		bl	sqrtf
 6040              	.LVL442:
 6041 0472 E0E7     		b	.L408
 6042              	.L476:
ARM GAS  /tmp/ccSQtpaj.s 			page 107


 6043              		.align	2
 6044              	.L475:
 6045 0474 00000000 		.word	.LANCHOR37
 6046 0478 00000000 		.word	.LANCHOR3
 6047 047c 00000140 		.word	1073807360
 6048 0480 00000000 		.word	.LANCHOR63
 6049 0484 00000000 		.word	.LANCHOR64
 6050 0488 00000000 		.word	.LANCHOR65
 6051 048c 00000000 		.word	.LANCHOR62
 6052 0490 00000000 		.word	0
 6053              	.LBE196:
 6054              	.LBE198:
 6055              		.cfi_endproc
 6056              	.LFE296:
 6057              		.size	mcpwm_adc_inj_int_handler, .-mcpwm_adc_inj_int_handler
 6058              		.section	.text.mcpwm_set_detect,"ax",%progbits
 6059              		.align	2
 6060              		.p2align 4,,15
 6061              		.global	mcpwm_set_detect
 6062              		.thumb
 6063              		.thumb_func
 6064              		.type	mcpwm_set_detect, %function
 6065              	mcpwm_set_detect:
 6066              	.LFB298:
 6067              		.loc 1 1955 0
 6068              		.cfi_startproc
 6069              		@ args = 0, pretend = 0, frame = 0
 6070              		@ frame_needed = 0, uses_anonymous_args = 0
 6071 0000 F8B5     		push	{r3, r4, r5, r6, r7, lr}
 6072              		.cfi_def_cfa_offset 24
 6073              		.cfi_offset 3, -24
 6074              		.cfi_offset 4, -20
 6075              		.cfi_offset 5, -16
 6076              		.cfi_offset 6, -12
 6077              		.cfi_offset 7, -8
 6078              		.cfi_offset 14, -4
 6079              		.loc 1 1956 0
 6080 0002 FFF7FEFF 		bl	mc_interface_try_input
 6081              	.LVL443:
 6082 0006 0446     		mov	r4, r0
 6083 0008 00B1     		cbz	r0, .L482
 6084 000a F8BD     		pop	{r3, r4, r5, r6, r7, pc}
 6085              	.L482:
 6086              		.loc 1 1960 0
 6087 000c 0C4B     		ldr	r3, .L483
 6088 000e 0D4F     		ldr	r7, .L483+4
 6089 0010 0D4E     		ldr	r6, .L483+8
 6090 0012 0E4D     		ldr	r5, .L483+12
 6091 0014 0522     		movs	r2, #5
 6092 0016 1A70     		strb	r2, [r3]
 6093              		.loc 1 1961 0
 6094 0018 FFF7FEFF 		bl	stop_pwm_hw
 6095              	.LVL444:
 6096              		.loc 1 1963 0
 6097 001c FFF7FEFF 		bl	set_switching_frequency.constprop.0
 6098              	.LVL445:
 6099              	.LBB199:
ARM GAS  /tmp/ccSQtpaj.s 			page 108


 6100              		.loc 1 1966 0
 6101 0020 0022     		movs	r2, #0
 6102              		.loc 1 1965 0
 6103 0022 2046     		mov	r0, r4
 6104              	.LVL446:
 6105              	.L479:
 6106              		.loc 1 1966 0 discriminator 3
 6107 0024 8300     		lsls	r3, r0, #2
 6108 0026 FC18     		adds	r4, r7, r3
 6109              		.loc 1 1967 0 discriminator 3
 6110 0028 F118     		adds	r1, r6, r3
 6111              		.loc 1 1965 0 discriminator 3
 6112 002a 0130     		adds	r0, r0, #1
 6113              	.LVL447:
 6114              		.loc 1 1968 0 discriminator 3
 6115 002c 2B44     		add	r3, r3, r5
 6116              		.loc 1 1965 0 discriminator 3
 6117 002e 0628     		cmp	r0, #6
 6118              		.loc 1 1966 0 discriminator 3
 6119 0030 2260     		str	r2, [r4]	@ float
 6120              		.loc 1 1967 0 discriminator 3
 6121 0032 0A60     		str	r2, [r1]	@ float
 6122              		.loc 1 1968 0 discriminator 3
 6123 0034 1A60     		str	r2, [r3]	@ float
 6124              		.loc 1 1965 0 discriminator 3
 6125 0036 F5D1     		bne	.L479
 6126              	.LBE199:
 6127              		.loc 1 1971 0
 6128 0038 054B     		ldr	r3, .L483+16
 6129 003a 0122     		movs	r2, #1
 6130 003c 1A70     		strb	r2, [r3]
 6131 003e F8BD     		pop	{r3, r4, r5, r6, r7, pc}
 6132              	.L484:
 6133              		.align	2
 6134              	.L483:
 6135 0040 00000000 		.word	.LANCHOR16
 6136 0044 00000000 		.word	.LANCHOR61
 6137 0048 00000000 		.word	.LANCHOR64
 6138 004c 00000000 		.word	.LANCHOR65
 6139 0050 00000000 		.word	.LANCHOR2
 6140              		.cfi_endproc
 6141              	.LFE298:
 6142              		.size	mcpwm_set_detect, .-mcpwm_set_detect
 6143              		.section	.text.mcpwm_get_detect_pos,"ax",%progbits
 6144              		.align	2
 6145              		.p2align 4,,15
 6146              		.global	mcpwm_get_detect_pos
 6147              		.thumb
 6148              		.thumb_func
 6149              		.type	mcpwm_get_detect_pos, %function
 6150              	mcpwm_get_detect_pos:
 6151              	.LFB299:
 6152              		.loc 1 1974 0
 6153              		.cfi_startproc
 6154              		@ args = 0, pretend = 0, frame = 8
 6155              		@ frame_needed = 0, uses_anonymous_args = 0
 6156 0000 30B5     		push	{r4, r5, lr}
ARM GAS  /tmp/ccSQtpaj.s 			page 109


 6157              		.cfi_def_cfa_offset 12
 6158              		.cfi_offset 4, -12
 6159              		.cfi_offset 5, -8
 6160              		.cfi_offset 14, -4
 6161              		.loc 1 1976 0
 6162 0002 3F48     		ldr	r0, .L494
 6163 0004 3F4C     		ldr	r4, .L494+4
 6164              		.loc 1 1974 0
 6165 0006 2DED048B 		fstmfdd	sp!, {d8, d9}
 6166              		.cfi_def_cfa_offset 28
 6167              		.cfi_offset 80, -28
 6168              		.cfi_offset 81, -24
 6169              		.cfi_offset 82, -20
 6170              		.cfi_offset 83, -16
 6171              		.loc 1 1976 0
 6172 000a 94ED006A 		flds	s12, [r4]
 6173 000e D0ED003A 		flds	s7, [r0]
 6174              		.loc 1 1977 0
 6175 0012 D4ED016A 		flds	s13, [r4, #4]
 6176 0016 90ED014A 		flds	s8, [r0, #4]
 6177              		.loc 1 1978 0
 6178 001a 94ED027A 		flds	s14, [r4, #8]
 6179 001e D0ED027A 		flds	s15, [r0, #8]
 6180              		.loc 1 1979 0
 6181 0022 D4ED034A 		flds	s9, [r4, #12]
 6182 0026 90ED039A 		flds	s18, [r0, #12]
 6183              		.loc 1 1980 0
 6184 002a 94ED045A 		flds	s10, [r4, #16]
 6185 002e D0ED048A 		flds	s17, [r0, #16]
 6186              		.loc 1 1981 0
 6187 0032 D4ED055A 		flds	s11, [r4, #20]
 6188 0036 90ED058A 		flds	s16, [r0, #20]
 6189              		.loc 1 1976 0
 6190 003a 86EE236A 		fdivs	s12, s12, s7
 6191              	.LVL448:
 6192              		.loc 1 1974 0
 6193 003e 83B0     		sub	sp, sp, #12
 6194              		.cfi_def_cfa_offset 40
 6195              	.LBB200:
 6196              		.loc 1 1984 0
 6197 0040 0021     		movs	r1, #0
 6198              		.loc 1 1983 0
 6199 0042 0022     		movs	r2, #0
 6200              	.LBE200:
 6201              		.loc 1 1977 0
 6202 0044 C6EE846A 		fdivs	s13, s13, s8
 6203              	.LVL449:
 6204              		.loc 1 1978 0
 6205 0048 87EE277A 		fdivs	s14, s14, s15
 6206              	.LVL450:
 6207              		.loc 1 1979 0
 6208 004c 84EE899A 		fdivs	s18, s9, s18
 6209              	.LVL451:
 6210              		.loc 1 1980 0
 6211 0050 C5EE288A 		fdivs	s17, s10, s17
 6212              	.LVL452:
 6213              		.loc 1 1981 0
ARM GAS  /tmp/ccSQtpaj.s 			page 110


 6214 0054 85EE888A 		fdivs	s16, s11, s16
 6215              	.LVL453:
 6216              	.L486:
 6217              	.LBB201:
 6218              		.loc 1 1984 0 discriminator 3
 6219 0058 9300     		lsls	r3, r2, #2
 6220 005a E518     		adds	r5, r4, r3
 6221              		.loc 1 1983 0 discriminator 3
 6222 005c 0132     		adds	r2, r2, #1
 6223              	.LVL454:
 6224              		.loc 1 1985 0 discriminator 3
 6225 005e 0344     		add	r3, r3, r0
 6226              		.loc 1 1983 0 discriminator 3
 6227 0060 062A     		cmp	r2, #6
 6228              		.loc 1 1984 0 discriminator 3
 6229 0062 2960     		str	r1, [r5]	@ float
 6230              		.loc 1 1985 0 discriminator 3
 6231 0064 1960     		str	r1, [r3]	@ float
 6232              		.loc 1 1983 0 discriminator 3
 6233 0066 F7D1     		bne	.L486
 6234              	.LBE201:
 6235              		.loc 1 1989 0
 6236 0068 76EEA88A 		fadds	s17, s13, s17
 6237              	.LVL455:
 6238              		.loc 1 1988 0
 6239 006c 36EE099A 		fadds	s18, s12, s18
 6240              	.LVL456:
 6241              		.loc 1 1990 0
 6242 0070 77EE087A 		fadds	s15, s14, s16
 6243              	.LVL457:
 6244              		.loc 1 1992 0
 6245 0074 39EE287A 		fadds	s14, s18, s17
 6246              	.LVL458:
 6247 0078 B0EE088A 		fconsts	s16, #8
 6248              	.LVL459:
 6249 007c 37EE277A 		fadds	s14, s14, s15
 6250              		.loc 1 1997 0
 6251 0080 F7EE086A 		fconsts	s13, #120
 6252              	.LVL460:
 6253              		.loc 1 1992 0
 6254 0084 87EE088A 		fdivs	s16, s14, s16
 6255              	.LVL461:
 6256              		.loc 1 1994 0
 6257 0088 78EEC88A 		fsubs	s17, s17, s16
 6258              	.LVL462:
 6259              		.loc 1 1993 0
 6260 008c 39EE489A 		fsubs	s18, s18, s16
 6261              	.LVL463:
 6262              		.loc 1 1997 0
 6263 0090 28EEA80A 		fmuls	s0, s17, s17
 6264              		.loc 1 1995 0
 6265 0094 37EEC88A 		fsubs	s16, s15, s16
 6266              	.LVL464:
 6267              		.loc 1 1997 0
 6268 0098 A9EE090A 		vfma.f32	s0, s18, s18
 6269 009c A8EE080A 		vfma.f32	s0, s16, s16
 6270 00a0 80EE260A 		fdivs	s0, s0, s13
ARM GAS  /tmp/ccSQtpaj.s 			page 111


 6271 00a4 F1EEC09A 		fsqrts	s19, s0
 6272 00a8 F4EE699A 		fcmps	s19, s19
 6273 00ac F1EE10FA 		fmstat
 6274 00b0 21D1     		bne	.L493
 6275              	.LVL465:
 6276              	.L487:
 6277              		.loc 1 2003 0
 6278 00b2 89EE290A 		fdivs	s0, s18, s19
 6279              	.LVL466:
 6280 00b6 FFF7FEFF 		bl	asinf
 6281              	.LVL467:
 6282              		.loc 1 2010 0
 6283 00ba 01A8     		add	r0, sp, #4
 6284              		.loc 1 2003 0
 6285 00bc DFED127A 		flds	s15, .L494+8
 6286 00c0 9FED127A 		flds	s14, .L494+12
 6287 00c4 20EE270A 		fmuls	s0, s0, s15
 6288              		.loc 1 1999 0
 6289 00c8 C8EEA98A 		fdivs	s17, s17, s19
 6290              	.LVL468:
 6291              		.loc 1 2000 0
 6292 00cc 88EE298A 		fdivs	s16, s16, s19
 6293              	.LVL469:
 6294              		.loc 1 2003 0
 6295 00d0 80EE070A 		fdivs	s0, s0, s14
 6296              	.LVL470:
 6297              		.loc 1 2006 0
 6298 00d4 F4EEC88A 		fcmpes	s17, s16
 6299 00d8 F1EE10FA 		fmstat
 6300              		.loc 1 2007 0
 6301 00dc 48BF     		it	mi
 6302 00de 37EEC00A 		fsubsmi	s0, s15, s0
 6303              	.LVL471:
 6304 00e2 8DED010A 		fsts	s0, [sp, #4]
 6305              		.loc 1 2010 0
 6306 00e6 FFF7FEFF 		bl	utils_norm_angle
 6307              	.LVL472:
 6308              		.loc 1 2013 0
 6309 00ea 9DED010A 		flds	s0, [sp, #4]
 6310 00ee 03B0     		add	sp, sp, #12
 6311              		.cfi_remember_state
 6312              		.cfi_def_cfa_offset 28
 6313              		@ sp needed
 6314 00f0 BDEC048B 		fldmfdd	sp!, {d8-d9}
 6315              		.cfi_restore 82
 6316              		.cfi_restore 83
 6317              		.cfi_restore 80
 6318              		.cfi_restore 81
 6319              		.cfi_def_cfa_offset 12
 6320              	.LVL473:
 6321 00f4 30BD     		pop	{r4, r5, pc}
 6322              	.LVL474:
 6323              	.L493:
 6324              		.cfi_restore_state
 6325              		.loc 1 1997 0
 6326 00f6 FFF7FEFF 		bl	sqrtf
 6327              	.LVL475:
ARM GAS  /tmp/ccSQtpaj.s 			page 112


 6328 00fa F0EE409A 		fcpys	s19, s0
 6329 00fe D8E7     		b	.L487
 6330              	.L495:
 6331              		.align	2
 6332              	.L494:
 6333 0100 00000000 		.word	.LANCHOR65
 6334 0104 00000000 		.word	.LANCHOR64
 6335 0108 00003443 		.word	1127481344
 6336 010c DB0F4940 		.word	1078530011
 6337              		.cfi_endproc
 6338              	.LFE299:
 6339              		.size	mcpwm_get_detect_pos, .-mcpwm_get_detect_pos
 6340              		.section	.text.mcpwm_read_reset_avg_cycle_integrator,"ax",%progbits
 6341              		.align	2
 6342              		.p2align 4,,15
 6343              		.global	mcpwm_read_reset_avg_cycle_integrator
 6344              		.thumb
 6345              		.thumb_func
 6346              		.type	mcpwm_read_reset_avg_cycle_integrator, %function
 6347              	mcpwm_read_reset_avg_cycle_integrator:
 6348              	.LFB300:
 6349              		.loc 1 2015 0
 6350              		.cfi_startproc
 6351              		@ args = 0, pretend = 0, frame = 0
 6352              		@ frame_needed = 0, uses_anonymous_args = 0
 6353              		@ link register save eliminated.
 6354              		.loc 1 2016 0
 6355 0000 0549     		ldr	r1, .L497
 6356 0002 064B     		ldr	r3, .L497+4
 6357 0004 91ED000A 		flds	s0, [r1]
 6358 0008 D3ED007A 		flds	s15, [r3]
 6359              	.LVL476:
 6360              		.loc 1 2017 0
 6361 000c 0022     		movs	r2, #0
 6362 000e 0A60     		str	r2, [r1]	@ float
 6363              		.loc 1 2020 0
 6364 0010 80EE270A 		fdivs	s0, s0, s15
 6365              	.LVL477:
 6366              		.loc 1 2018 0
 6367 0014 1A60     		str	r2, [r3]	@ float
 6368              		.loc 1 2020 0
 6369 0016 7047     		bx	lr
 6370              	.L498:
 6371              		.align	2
 6372              	.L497:
 6373 0018 00000000 		.word	.LANCHOR45
 6374 001c 00000000 		.word	.LANCHOR46
 6375              		.cfi_endproc
 6376              	.LFE300:
 6377              		.size	mcpwm_read_reset_avg_cycle_integrator, .-mcpwm_read_reset_avg_cycle_integrator
 6378              		.section	.text.mcpwm_set_comm_mode,"ax",%progbits
 6379              		.align	2
 6380              		.p2align 4,,15
 6381              		.global	mcpwm_set_comm_mode
 6382              		.thumb
 6383              		.thumb_func
 6384              		.type	mcpwm_set_comm_mode, %function
ARM GAS  /tmp/ccSQtpaj.s 			page 113


 6385              	mcpwm_set_comm_mode:
 6386              	.LFB301:
 6387              		.loc 1 2031 0
 6388              		.cfi_startproc
 6389              		@ args = 0, pretend = 0, frame = 0
 6390              		@ frame_needed = 0, uses_anonymous_args = 0
 6391              		@ link register save eliminated.
 6392              	.LVL478:
 6393              		.loc 1 2032 0
 6394 0000 014B     		ldr	r3, .L500
 6395 0002 1B68     		ldr	r3, [r3]
 6396 0004 5870     		strb	r0, [r3, #1]
 6397 0006 7047     		bx	lr
 6398              	.L501:
 6399              		.align	2
 6400              	.L500:
 6401 0008 00000000 		.word	.LANCHOR0
 6402              		.cfi_endproc
 6403              	.LFE301:
 6404              		.size	mcpwm_set_comm_mode, .-mcpwm_set_comm_mode
 6405              		.section	.text.mcpwm_get_comm_mode,"ax",%progbits
 6406              		.align	2
 6407              		.p2align 4,,15
 6408              		.global	mcpwm_get_comm_mode
 6409              		.thumb
 6410              		.thumb_func
 6411              		.type	mcpwm_get_comm_mode, %function
 6412              	mcpwm_get_comm_mode:
 6413              	.LFB302:
 6414              		.loc 1 2035 0
 6415              		.cfi_startproc
 6416              		@ args = 0, pretend = 0, frame = 0
 6417              		@ frame_needed = 0, uses_anonymous_args = 0
 6418              		@ link register save eliminated.
 6419              		.loc 1 2036 0
 6420 0000 014B     		ldr	r3, .L503
 6421 0002 1B68     		ldr	r3, [r3]
 6422 0004 5878     		ldrb	r0, [r3, #1]	@ zero_extendqisi2
 6423              		.loc 1 2037 0
 6424 0006 7047     		bx	lr
 6425              	.L504:
 6426              		.align	2
 6427              	.L503:
 6428 0008 00000000 		.word	.LANCHOR0
 6429              		.cfi_endproc
 6430              	.LFE302:
 6431              		.size	mcpwm_get_comm_mode, .-mcpwm_get_comm_mode
 6432              		.section	.text.mcpwm_get_last_adc_isr_duration,"ax",%progbits
 6433              		.align	2
 6434              		.p2align 4,,15
 6435              		.global	mcpwm_get_last_adc_isr_duration
 6436              		.thumb
 6437              		.thumb_func
 6438              		.type	mcpwm_get_last_adc_isr_duration, %function
 6439              	mcpwm_get_last_adc_isr_duration:
 6440              	.LFB303:
 6441              		.loc 1 2039 0
ARM GAS  /tmp/ccSQtpaj.s 			page 114


 6442              		.cfi_startproc
 6443              		@ args = 0, pretend = 0, frame = 0
 6444              		@ frame_needed = 0, uses_anonymous_args = 0
 6445              		@ link register save eliminated.
 6446              		.loc 1 2040 0
 6447 0000 014B     		ldr	r3, .L506
 6448 0002 93ED000A 		flds	s0, [r3]
 6449              		.loc 1 2041 0
 6450 0006 7047     		bx	lr
 6451              	.L507:
 6452              		.align	2
 6453              	.L506:
 6454 0008 00000000 		.word	.LANCHOR69
 6455              		.cfi_endproc
 6456              	.LFE303:
 6457              		.size	mcpwm_get_last_adc_isr_duration, .-mcpwm_get_last_adc_isr_duration
 6458              		.section	.text.mcpwm_get_last_inj_adc_isr_duration,"ax",%progbits
 6459              		.align	2
 6460              		.p2align 4,,15
 6461              		.global	mcpwm_get_last_inj_adc_isr_duration
 6462              		.thumb
 6463              		.thumb_func
 6464              		.type	mcpwm_get_last_inj_adc_isr_duration, %function
 6465              	mcpwm_get_last_inj_adc_isr_duration:
 6466              	.LFB304:
 6467              		.loc 1 2043 0
 6468              		.cfi_startproc
 6469              		@ args = 0, pretend = 0, frame = 0
 6470              		@ frame_needed = 0, uses_anonymous_args = 0
 6471              		@ link register save eliminated.
 6472              		.loc 1 2044 0
 6473 0000 014B     		ldr	r3, .L509
 6474 0002 93ED000A 		flds	s0, [r3]
 6475              		.loc 1 2045 0
 6476 0006 7047     		bx	lr
 6477              	.L510:
 6478              		.align	2
 6479              	.L509:
 6480 0008 00000000 		.word	.LANCHOR68
 6481              		.cfi_endproc
 6482              	.LFE304:
 6483              		.size	mcpwm_get_last_inj_adc_isr_duration, .-mcpwm_get_last_inj_adc_isr_duration
 6484              		.section	.text.mcpwm_get_rpm_dep,"ax",%progbits
 6485              		.align	2
 6486              		.p2align 4,,15
 6487              		.global	mcpwm_get_rpm_dep
 6488              		.thumb
 6489              		.thumb_func
 6490              		.type	mcpwm_get_rpm_dep, %function
 6491              	mcpwm_get_rpm_dep:
 6492              	.LFB305:
 6493              		.loc 1 2047 0
 6494              		.cfi_startproc
 6495              		@ args = 0, pretend = 0, frame = 0
 6496              		@ frame_needed = 0, uses_anonymous_args = 0
 6497              		@ link register save eliminated.
 6498              	.LVL479:
ARM GAS  /tmp/ccSQtpaj.s 			page 115


 6499 0000 70B4     		push	{r4, r5, r6}
 6500              		.cfi_def_cfa_offset 12
 6501              		.cfi_offset 4, -12
 6502              		.cfi_offset 5, -8
 6503              		.cfi_offset 6, -4
 6504              		.loc 1 2048 0
 6505 0002 064D     		ldr	r5, .L513
 6506              		.loc 1 2047 0
 6507 0004 0646     		mov	r6, r0
 6508              		.loc 1 2048 0
 6509 0006 0FCD     		ldmia	r5!, {r0, r1, r2, r3}
 6510              	.LVL480:
 6511 0008 3446     		mov	r4, r6
 6512 000a 0FC4     		stmia	r4!, {r0, r1, r2, r3}
 6513 000c 95E80700 		ldmia	r5, {r0, r1, r2}
 6514 0010 84E80700 		stmia	r4, {r0, r1, r2}
 6515              		.loc 1 2049 0
 6516 0014 3046     		mov	r0, r6
 6517 0016 70BC     		pop	{r4, r5, r6}
 6518              		.cfi_restore 6
 6519              		.cfi_restore 5
 6520              		.cfi_restore 4
 6521              		.cfi_def_cfa_offset 0
 6522              	.LVL481:
 6523 0018 7047     		bx	lr
 6524              	.L514:
 6525 001a 00BF     		.align	2
 6526              	.L513:
 6527 001c 00000000 		.word	.LANCHOR6
 6528              		.cfi_endproc
 6529              	.LFE305:
 6530              		.size	mcpwm_get_rpm_dep, .-mcpwm_get_rpm_dep
 6531              		.section	.text.mcpwm_is_dccal_done,"ax",%progbits
 6532              		.align	2
 6533              		.p2align 4,,15
 6534              		.global	mcpwm_is_dccal_done
 6535              		.thumb
 6536              		.thumb_func
 6537              		.type	mcpwm_is_dccal_done, %function
 6538              	mcpwm_is_dccal_done:
 6539              	.LFB306:
 6540              		.loc 1 2051 0
 6541              		.cfi_startproc
 6542              		@ args = 0, pretend = 0, frame = 0
 6543              		@ frame_needed = 0, uses_anonymous_args = 0
 6544              		@ link register save eliminated.
 6545              		.loc 1 2052 0
 6546 0000 014B     		ldr	r3, .L516
 6547 0002 1878     		ldrb	r0, [r3]	@ zero_extendqisi2
 6548              		.loc 1 2053 0
 6549 0004 7047     		bx	lr
 6550              	.L517:
 6551 0006 00BF     		.align	2
 6552              	.L516:
 6553 0008 00000000 		.word	.LANCHOR47
 6554              		.cfi_endproc
 6555              	.LFE306:
ARM GAS  /tmp/ccSQtpaj.s 			page 116


 6556              		.size	mcpwm_is_dccal_done, .-mcpwm_is_dccal_done
 6557              		.section	.text.mcpwm_reset_hall_detect_table,"ax",%progbits
 6558              		.align	2
 6559              		.p2align 4,,15
 6560              		.global	mcpwm_reset_hall_detect_table
 6561              		.thumb
 6562              		.thumb_func
 6563              		.type	mcpwm_reset_hall_detect_table, %function
 6564              	mcpwm_reset_hall_detect_table:
 6565              	.LFB307:
 6566              		.loc 1 2058 0
 6567              		.cfi_startproc
 6568              		@ args = 0, pretend = 0, frame = 0
 6569              		@ frame_needed = 0, uses_anonymous_args = 0
 6570              		@ link register save eliminated.
 6571              		.loc 1 2059 0
 6572 0000 0248     		ldr	r0, .L519
 6573 0002 0021     		movs	r1, #0
 6574 0004 E022     		movs	r2, #224
 6575 0006 FFF7FEBF 		b	memset
 6576              	.LVL482:
 6577              	.L520:
 6578 000a 00BF     		.align	2
 6579              	.L519:
 6580 000c 00000000 		.word	.LANCHOR48
 6581              		.cfi_endproc
 6582              	.LFE307:
 6583              		.size	mcpwm_reset_hall_detect_table, .-mcpwm_reset_hall_detect_table
 6584              		.section	.text.mcpwm_get_hall_detect_result,"ax",%progbits
 6585              		.align	2
 6586              		.p2align 4,,15
 6587              		.global	mcpwm_get_hall_detect_result
 6588              		.thumb
 6589              		.thumb_func
 6590              		.type	mcpwm_get_hall_detect_result, %function
 6591              	mcpwm_get_hall_detect_result:
 6592              	.LFB308:
 6593              		.loc 1 2074 0
 6594              		.cfi_startproc
 6595              		@ args = 0, pretend = 0, frame = 32
 6596              		@ frame_needed = 0, uses_anonymous_args = 0
 6597              	.LVL483:
 6598              		.loc 1 2077 0
 6599 0000 294B     		ldr	r3, .L536
 6600              		.loc 1 2074 0
 6601 0002 F0B5     		push	{r4, r5, r6, r7, lr}
 6602              		.cfi_def_cfa_offset 20
 6603              		.cfi_offset 4, -20
 6604              		.cfi_offset 5, -16
 6605              		.cfi_offset 6, -12
 6606              		.cfi_offset 7, -8
 6607              		.cfi_offset 14, -4
 6608              		.loc 1 2077 0
 6609 0004 1B68     		ldr	r3, [r3]
 6610 0006 93F83431 		ldrb	r3, [r3, #308]	@ zero_extendqisi2
 6611              		.loc 1 2074 0
 6612 000a 89B0     		sub	sp, sp, #36
ARM GAS  /tmp/ccSQtpaj.s 			page 117


 6613              		.cfi_def_cfa_offset 56
 6614              		.loc 1 2077 0
 6615 000c 03F0FF06 		and	r6, r3, #255
 6616 0010 002B     		cmp	r3, #0
 6617 0012 45D1     		bne	.L530
 6618 0014 DFF894E0 		ldr	lr, .L536+4
 6619              	.LBB202:
 6620              	.LBB203:
 6621              	.LBB204:
 6622              		.loc 1 2085 0
 6623 0018 F446     		mov	ip, lr
 6624              	.L523:
 6625              	.LVL484:
 6626              	.LBE204:
 6627              	.LBE203:
 6628              	.LBE202:
 6629              		.loc 1 2074 0
 6630 001a 0123     		movs	r3, #1
 6631 001c 4FF0FF34 		mov	r4, #-1
 6632 0020 0021     		movs	r1, #0
 6633              	.LBB207:
 6634              	.LBB206:
 6635              	.LBB205:
 6636              		.loc 1 2085 0
 6637 0022 C6EBC607 		rsb	r7, r6, r6, lsl #3
 6638              	.LVL485:
 6639              	.L525:
 6640 0026 FA18     		adds	r2, r7, r3
 6641 0028 5EF82250 		ldr	r5, [lr, r2, lsl #2]
 6642 002c 8D42     		cmp	r5, r1
 6643 002e 04DD     		ble	.L524
 6644              		.loc 1 2086 0
 6645 0030 5CF82210 		ldr	r1, [ip, r2, lsl #2]
 6646              	.LVL486:
 6647              		.loc 1 2087 0
 6648 0034 0F29     		cmp	r1, #15
 6649 0036 C8BF     		it	gt
 6650 0038 1C46     		movgt	r4, r3
 6651              	.LVL487:
 6652              	.L524:
 6653              		.loc 1 2084 0 discriminator 2
 6654 003a 0133     		adds	r3, r3, #1
 6655              	.LVL488:
 6656 003c 072B     		cmp	r3, #7
 6657              		.loc 1 2091 0 discriminator 2
 6658 003e 8455     		strb	r4, [r0, r6]
 6659              		.loc 1 2084 0 discriminator 2
 6660 0040 F1D1     		bne	.L525
 6661              	.LBE205:
 6662              	.LBE206:
 6663              		.loc 1 2081 0 discriminator 2
 6664 0042 0136     		adds	r6, r6, #1
 6665              	.LVL489:
 6666 0044 082E     		cmp	r6, #8
 6667 0046 E8D1     		bne	.L523
 6668              	.LVL490:
 6669              	.LBE207:
ARM GAS  /tmp/ccSQtpaj.s 			page 118


 6670              		.loc 1 2096 0
 6671 0048 0023     		movs	r3, #0
 6672              	.LVL491:
 6673              		.loc 1 2097 0
 6674 004a 1C46     		mov	r4, r3
 6675              	.LVL492:
 6676              		.loc 1 2096 0
 6677 004c 0193     		str	r3, [sp, #4]
 6678 004e 0293     		str	r3, [sp, #8]
 6679 0050 0393     		str	r3, [sp, #12]
 6680 0052 0493     		str	r3, [sp, #16]
 6681 0054 0593     		str	r3, [sp, #20]
 6682 0056 0693     		str	r3, [sp, #24]
 6683 0058 0793     		str	r3, [sp, #28]
 6684              	.LVL493:
 6685              		.loc 1 2095 0
 6686 005a 1D46     		mov	r5, r3
 6687              	.LBB208:
 6688              		.loc 1 2103 0
 6689 005c 0126     		movs	r6, #1
 6690              	.LVL494:
 6691 005e 431E     		subs	r3, r0, #1
 6692 0060 0730     		adds	r0, r0, #7
 6693              	.LVL495:
 6694 0062 07E0     		b	.L529
 6695              	.LVL496:
 6696              	.L527:
 6697              		.loc 1 2102 0
 6698 0064 51F81C2C 		ldr	r2, [r1, #-28]
 6699 0068 12B9     		cbnz	r2, .L528
 6700              		.loc 1 2103 0
 6701 006a 41F81C6C 		str	r6, [r1, #-28]
 6702              		.loc 1 2104 0
 6703 006e 0134     		adds	r4, r4, #1
 6704              	.LVL497:
 6705              	.L528:
 6706              		.loc 1 2098 0 discriminator 2
 6707 0070 8342     		cmp	r3, r0
 6708 0072 0AD0     		beq	.L535
 6709              	.LVL498:
 6710              	.L529:
 6711              		.loc 1 2099 0
