ARM GAS  /tmp/ccPVkQgB.s 			page 1


   1              		.syntax unified
   2              		.cpu cortex-m4
   3              		.eabi_attribute 27, 1
   4              		.eabi_attribute 28, 1
   5              		.fpu fpv4-sp-d16
   6              		.eabi_attribute 20, 1
   7              		.eabi_attribute 21, 1
   8              		.eabi_attribute 23, 3
   9              		.eabi_attribute 24, 1
  10              		.eabi_attribute 25, 1
  11              		.eabi_attribute 26, 1
  12              		.eabi_attribute 30, 2
  13              		.eabi_attribute 34, 1
  14              		.eabi_attribute 18, 4
  15              		.thumb
  16              		.file	"terminal.c"
  17              		.text
  18              	.Ltext0:
  19              		.cfi_sections	.debug_frame
  20              		.global	__aeabi_f2d
  21              		.global	__aeabi_i2d
  22              		.section	.text.terminal_process_string,"ax",%progbits
  23              		.align	2
  24              		.p2align 4,,15
  25              		.global	terminal_process_string
  26              		.thumb
  27              		.thumb_func
  28              		.type	terminal_process_string, %function
  29              	terminal_process_string:
  30              	.LFB256:
  31              		.file 1 "terminal.c"
  32              		.loc 1 47 0
  33              		.cfi_startproc
  34              		@ args = 0, pretend = 0, frame = 312
  35              		@ frame_needed = 0, uses_anonymous_args = 0
  36              	.LVL0:
  37 0000 2DE9F047 		push	{r4, r5, r6, r7, r8, r9, r10, lr}
  38              		.cfi_def_cfa_offset 32
  39              		.cfi_offset 4, -32
  40              		.cfi_offset 5, -28
  41              		.cfi_offset 6, -24
  42              		.cfi_offset 7, -20
  43              		.cfi_offset 8, -16
  44              		.cfi_offset 9, -12
  45              		.cfi_offset 10, -8
  46              		.cfi_offset 14, -4
  47 0004 2DED088B 		fstmfdd	sp!, {d8, d9, d10, d11}
  48              		.cfi_def_cfa_offset 64
  49              		.cfi_offset 80, -64
  50              		.cfi_offset 81, -60
  51              		.cfi_offset 82, -56
  52              		.cfi_offset 83, -52
  53              		.cfi_offset 84, -48
  54              		.cfi_offset 85, -44
  55              		.cfi_offset 86, -40
  56              		.cfi_offset 87, -36
  57              		.loc 1 52 0
ARM GAS  /tmp/ccPVkQgB.s 			page 2


  58 0008 8E49     		ldr	r1, .L138
  59              		.loc 1 47 0
  60 000a D4B0     		sub	sp, sp, #336
  61              		.cfi_def_cfa_offset 400
  62              		.loc 1 52 0
  63 000c FFF7FEFF 		bl	strtok
  64              	.LVL1:
  65              		.loc 1 53 0
  66 0010 0346     		mov	r3, r0
  67 0012 0028     		cmp	r0, #0
  68 0014 7AD0     		beq	.L114
  69 0016 13AD     		add	r5, sp, #76
  70 0018 0024     		movs	r4, #0
  71 001a 01E0     		b	.L5
  72              	.LVL2:
  73              	.L115:
  74              		.loc 1 53 0 is_stmt 0 discriminator 1
  75 001c 402C     		cmp	r4, #64
  76 001e 09D0     		beq	.L6
  77              	.LVL3:
  78              	.L5:
  79              		.loc 1 54 0 is_stmt 1
  80 0020 45F8043F 		str	r3, [r5, #4]!
  81              		.loc 1 55 0
  82 0024 0020     		movs	r0, #0
  83              	.LVL4:
  84 0026 8749     		ldr	r1, .L138
  85 0028 FFF7FEFF 		bl	strtok
  86              	.LVL5:
  87              		.loc 1 54 0
  88 002c 0134     		adds	r4, r4, #1
  89              	.LVL6:
  90              		.loc 1 53 0
  91 002e 0346     		mov	r3, r0
  92 0030 0028     		cmp	r0, #0
  93 0032 F3D1     		bne	.L115
  94              	.L6:
  95              		.loc 1 65 0
  96 0034 FFF7FEFF 		bl	mc_interface_get_configuration
  97              	.LVL7:
  98 0038 4FF49C72 		mov	r2, #312
  99 003c 0146     		mov	r1, r0
 100 003e 8248     		ldr	r0, .L138+4
 101 0040 FFF7FEFF 		bl	memcpy
 102              	.LVL8:
 103              		.loc 1 66 0
 104 0044 8049     		ldr	r1, .L138+4
 105 0046 8148     		ldr	r0, .L138+8
 106 0048 4FF49C72 		mov	r2, #312
 107 004c FFF7FEFF 		bl	memcpy
 108              	.LVL9:
 109              		.loc 1 68 0
 110 0050 149D     		ldr	r5, [sp, #80]
 111 0052 7F49     		ldr	r1, .L138+12
 112 0054 2846     		mov	r0, r5
 113 0056 FFF7FEFF 		bl	strcmp
 114              	.LVL10:
ARM GAS  /tmp/ccPVkQgB.s 			page 3


 115 005a 0028     		cmp	r0, #0
 116 005c 5ED0     		beq	.L116
 117              		.loc 1 70 0
 118 005e 2846     		mov	r0, r5
 119 0060 7C49     		ldr	r1, .L138+16
 120 0062 FFF7FEFF 		bl	strcmp
 121              	.LVL11:
 122 0066 0028     		cmp	r0, #0
 123 0068 6CD0     		beq	.L117
 124              		.loc 1 73 0
 125 006a 2846     		mov	r0, r5
 126 006c 7A49     		ldr	r1, .L138+20
 127 006e FFF7FEFF 		bl	strcmp
 128              	.LVL12:
 129 0072 0028     		cmp	r0, #0
 130 0074 72D0     		beq	.L118
 131              		.loc 1 77 0
 132 0076 2846     		mov	r0, r5
 133 0078 7849     		ldr	r1, .L138+24
 134 007a FFF7FEFF 		bl	strcmp
 135              	.LVL13:
 136 007e 0028     		cmp	r0, #0
 137 0080 54D0     		beq	.L119
 138              		.loc 1 79 0
 139 0082 2846     		mov	r0, r5
 140 0084 7649     		ldr	r1, .L138+28
 141 0086 FFF7FEFF 		bl	strcmp
 142              	.LVL14:
 143 008a 0028     		cmp	r0, #0
 144 008c 00F09980 		beq	.L120
 145              		.loc 1 85 0
 146 0090 2846     		mov	r0, r5
 147 0092 7449     		ldr	r1, .L138+32
 148 0094 FFF7FEFF 		bl	strcmp
 149              	.LVL15:
 150 0098 0028     		cmp	r0, #0
 151 009a 00F0A580 		beq	.L121
 152              		.loc 1 99 0
 153 009e 2846     		mov	r0, r5
 154 00a0 7149     		ldr	r1, .L138+36
 155 00a2 FFF7FEFF 		bl	strcmp
 156              	.LVL16:
 157 00a6 0028     		cmp	r0, #0
 158 00a8 00F0C380 		beq	.L122
 159              		.loc 1 101 0
 160 00ac 2846     		mov	r0, r5
 161 00ae 6F49     		ldr	r1, .L138+40
 162 00b0 FFF7FEFF 		bl	strcmp
 163              	.LVL17:
 164 00b4 0028     		cmp	r0, #0
 165 00b6 7BD0     		beq	.L123
 166              		.loc 1 123 0
 167 00b8 2846     		mov	r0, r5
 168 00ba 6D49     		ldr	r1, .L138+44
 169 00bc FFF7FEFF 		bl	strcmp
 170              	.LVL18:
 171 00c0 0028     		cmp	r0, #0
ARM GAS  /tmp/ccPVkQgB.s 			page 4


 172 00c2 00F07981 		beq	.L124
 173              		.loc 1 125 0
 174 00c6 2846     		mov	r0, r5
 175 00c8 6A49     		ldr	r1, .L138+48
 176 00ca FFF7FEFF 		bl	strcmp
 177              	.LVL19:
 178 00ce 0028     		cmp	r0, #0
 179 00d0 00F07E81 		beq	.L125
 180              		.loc 1 127 0
 181 00d4 2846     		mov	r0, r5
 182 00d6 6849     		ldr	r1, .L138+52
 183 00d8 FFF7FEFF 		bl	strcmp
 184              	.LVL20:
 185 00dc 0028     		cmp	r0, #0
 186 00de 00F0B481 		beq	.L126
 187              		.loc 1 152 0
 188 00e2 2846     		mov	r0, r5
 189 00e4 6549     		ldr	r1, .L138+56
 190 00e6 FFF7FEFF 		bl	strcmp
 191              	.LVL21:
 192 00ea 0028     		cmp	r0, #0
 193 00ec 00F09481 		beq	.L127
 194              		.loc 1 154 0
 195 00f0 2846     		mov	r0, r5
 196 00f2 6349     		ldr	r1, .L138+60
 197 00f4 FFF7FEFF 		bl	strcmp
 198              	.LVL22:
 199 00f8 0028     		cmp	r0, #0
 200 00fa 40F07081 		bne	.L24
 201              		.loc 1 156 0
 202 00fe 042C     		cmp	r4, #4
 203 0100 00F0ED81 		beq	.L128
 204              		.loc 1 198 0
 205 0104 5F48     		ldr	r0, .L138+64
 206 0106 FFF7FEFF 		bl	commands_printf
 207              	.LVL23:
 208 010a 02E0     		b	.L1
 209              	.LVL24:
 210              	.L114:
 211              		.loc 1 59 0
 212 010c 5E48     		ldr	r0, .L138+68
 213              	.LVL25:
 214 010e FFF7FEFF 		bl	commands_printf
 215              	.LVL26:
 216              	.L1:
 217              		.loc 1 455 0
 218 0112 54B0     		add	sp, sp, #336
 219              		.cfi_remember_state
 220              		.cfi_def_cfa_offset 64
 221              		@ sp needed
 222 0114 BDEC088B 		fldmfdd	sp!, {d8-d11}
 223              		.cfi_restore 86
 224              		.cfi_restore 87
 225              		.cfi_restore 84
 226              		.cfi_restore 85
 227              		.cfi_restore 82
 228              		.cfi_restore 83
ARM GAS  /tmp/ccPVkQgB.s 			page 5


 229              		.cfi_restore 80
 230              		.cfi_restore 81
 231              		.cfi_def_cfa_offset 32
 232 0118 BDE8F087 		pop	{r4, r5, r6, r7, r8, r9, r10, pc}
 233              	.LVL27:
 234              	.L116:
 235              		.cfi_restore_state
 236              		.loc 1 69 0
 237 011c 5B48     		ldr	r0, .L138+72
 238 011e FFF7FEFF 		bl	commands_printf
 239              	.LVL28:
 240              		.loc 1 455 0
 241 0122 54B0     		add	sp, sp, #336
 242              		.cfi_remember_state
 243              		.cfi_def_cfa_offset 64
 244              		@ sp needed
 245 0124 BDEC088B 		fldmfdd	sp!, {d8-d11}
 246              		.cfi_restore 80
 247              		.cfi_restore 81
 248              		.cfi_restore 82
 249              		.cfi_restore 83
 250              		.cfi_restore 84
 251              		.cfi_restore 85
 252              		.cfi_restore 86
 253              		.cfi_restore 87
 254              		.cfi_def_cfa_offset 32
 255 0128 BDE8F087 		pop	{r4, r5, r6, r7, r8, r9, r10, pc}
 256              	.LVL29:
 257              	.L119:
 258              		.cfi_restore_state
 259              		.loc 1 78 0
 260 012c FFF7FEFF 		bl	mcpwm_get_kv_filtered
 261              	.LVL30:
 262 0130 10EE100A 		fmrs	r0, s0
 263 0134 FFF7FEFF 		bl	__aeabi_f2d
 264              	.LVL31:
 265 0138 0246     		mov	r2, r0
 266 013a 0B46     		mov	r3, r1
 267 013c 5448     		ldr	r0, .L138+76
 268 013e FFF7FEFF 		bl	commands_printf
 269              	.LVL32:
 270 0142 E6E7     		b	.L1
 271              	.L117:
 272              		.loc 1 71 0
 273 0144 9FED530A 		flds	s0, .L138+80
 274 0148 FFF7FEFF 		bl	mc_interface_set_duty
 275              	.LVL33:
 276              		.loc 1 72 0
 277 014c 5248     		ldr	r0, .L138+84
 278 014e FFF7FEFF 		bl	commands_printf
 279              	.LVL34:
 280              		.loc 1 455 0
 281 0152 54B0     		add	sp, sp, #336
 282              		.cfi_remember_state
 283              		.cfi_def_cfa_offset 64
 284              		@ sp needed
 285 0154 BDEC088B 		fldmfdd	sp!, {d8-d11}
ARM GAS  /tmp/ccPVkQgB.s 			page 6


 286              		.cfi_restore 80
 287              		.cfi_restore 81
 288              		.cfi_restore 82
 289              		.cfi_restore 83
 290              		.cfi_restore 84
 291              		.cfi_restore 85
 292              		.cfi_restore 86
 293              		.cfi_restore 87
 294              		.cfi_def_cfa_offset 32
 295 0158 BDE8F087 		pop	{r4, r5, r6, r7, r8, r9, r10, pc}
 296              	.LVL35:
 297              	.L118:
 298              		.cfi_restore_state
 299              		.loc 1 74 0
 300 015c FFF7FEFF 		bl	mcpwm_get_last_adc_isr_duration
 301              	.LVL36:
 302 0160 9FED4E8A 		flds	s16, .L138+88
 303 0164 60EE087A 		fmuls	s15, s0, s16
 304 0168 17EE900A 		fmrs	r0, s15
 305 016c FFF7FEFF 		bl	__aeabi_f2d
 306              	.LVL37:
 307 0170 0246     		mov	r2, r0
 308 0172 0B46     		mov	r3, r1
 309 0174 4A48     		ldr	r0, .L138+92
 310 0176 FFF7FEFF 		bl	commands_printf
 311              	.LVL38:
 312              		.loc 1 75 0
 313 017a FFF7FEFF 		bl	mc_interface_get_last_inj_adc_isr_duration
 314              	.LVL39:
 315 017e 60EE087A 		fmuls	s15, s0, s16
 316 0182 17EE900A 		fmrs	r0, s15
 317 0186 FFF7FEFF 		bl	__aeabi_f2d
 318              	.LVL40:
 319 018a 0246     		mov	r2, r0
 320 018c 0B46     		mov	r3, r1
 321 018e 4548     		ldr	r0, .L138+96
 322 0190 FFF7FEFF 		bl	commands_printf
 323              	.LVL41:
 324              		.loc 1 76 0
 325 0194 FFF7FEFF 		bl	mc_interface_get_last_sample_adc_isr_duration
 326              	.LVL42:
 327 0198 60EE087A 		fmuls	s15, s0, s16
 328 019c 17EE900A 		fmrs	r0, s15
 329 01a0 FFF7FEFF 		bl	__aeabi_f2d
 330              	.LVL43:
 331 01a4 0246     		mov	r2, r0
 332 01a6 0B46     		mov	r3, r1
 333 01a8 3F48     		ldr	r0, .L138+100
 334 01aa FFF7FEFF 		bl	commands_printf
 335              	.LVL44:
 336 01ae B0E7     		b	.L1
 337              	.L123:
 338              		.loc 1 102 0
 339 01b0 3E4F     		ldr	r7, .L138+104
 340 01b2 3B68     		ldr	r3, [r7]
 341 01b4 002B     		cmp	r3, #0
 342 01b6 40F08F80 		bne	.L17
ARM GAS  /tmp/ccPVkQgB.s 			page 7


 343              		.loc 1 103 0
 344 01ba 3D48     		ldr	r0, .L138+108
 345 01bc FFF7FEFF 		bl	commands_printf
 346              	.LVL45:
 347 01c0 A7E7     		b	.L1
 348              	.L120:
 349              	.LBB54:
 350              		.loc 1 81 0
 351 01c2 0DA9     		add	r1, sp, #52
 352 01c4 FFF7FEFF 		bl	chHeapStatus
 353              	.LVL46:
 354 01c8 0446     		mov	r4, r0
 355              	.LVL47:
 356              		.loc 1 82 0
 357 01ca FFF7FEFF 		bl	chCoreGetStatusX
 358              	.LVL48:
 359 01ce 0146     		mov	r1, r0
 360 01d0 3848     		ldr	r0, .L138+112
 361 01d2 FFF7FEFF 		bl	commands_printf
 362              	.LVL49:
 363              		.loc 1 83 0
 364 01d6 2146     		mov	r1, r4
 365 01d8 3748     		ldr	r0, .L138+116
 366 01da FFF7FEFF 		bl	commands_printf
 367              	.LVL50:
 368              		.loc 1 84 0
 369 01de 0D99     		ldr	r1, [sp, #52]
 370 01e0 3648     		ldr	r0, .L138+120
 371 01e2 FFF7FEFF 		bl	commands_printf
 372              	.LVL51:
 373              	.LBE54:
 374 01e6 94E7     		b	.L1
 375              	.LVL52:
 376              	.L121:
 377              	.LBB55:
 378              		.loc 1 88 0
 379 01e8 3548     		ldr	r0, .L138+124
 380 01ea 364E     		ldr	r6, .L138+128
 381 01ec FFF7FEFF 		bl	commands_printf
 382              	.LVL53:
 383              		.loc 1 89 0
 384 01f0 3548     		ldr	r0, .L138+132
 385 01f2 FFF7FEFF 		bl	commands_printf
 386              	.LVL54:
 387              		.loc 1 90 0
 388 01f6 FFF7FEFF 		bl	chRegFirstThread
 389              	.LVL55:
 390 01fa 0446     		mov	r4, r0
 391              	.LVL56:
 392              	.L14:
 393              		.loc 1 94 0 discriminator 1
 394 01fc A17F     		ldrb	r1, [r4, #30]	@ zero_extendqisi2
 395              		.loc 1 92 0 discriminator 1
 396 01fe E268     		ldr	r2, [r4, #12]
 397 0200 A368     		ldr	r3, [r4, #8]
 398 0202 256A     		ldr	r5, [r4, #32]
 399 0204 3148     		ldr	r0, .L138+136
ARM GAS  /tmp/ccPVkQgB.s 			page 8


 400              	.LVL57:
 401              		.loc 1 94 0 discriminator 1
 402 0206 0139     		subs	r1, r1, #1
 403              		.loc 1 92 0 discriminator 1
 404 0208 0091     		str	r1, [sp]
 405 020a 217F     		ldrb	r1, [r4, #28]	@ zero_extendqisi2
 406 020c 56F82110 		ldr	r1, [r6, r1, lsl #2]
 407 0210 0191     		str	r1, [sp, #4]
 408 0212 A169     		ldr	r1, [r4, #24]
 409 0214 0291     		str	r1, [sp, #8]
 410 0216 0395     		str	r5, [sp, #12]
 411 0218 2146     		mov	r1, r4
 412 021a FFF7FEFF 		bl	commands_printf
 413              	.LVL58:
 414              		.loc 1 96 0 discriminator 1
 415 021e 2046     		mov	r0, r4
 416 0220 FFF7FEFF 		bl	chRegNextThread
 417              	.LVL59:
 418              		.loc 1 97 0 discriminator 1
 419 0224 0446     		mov	r4, r0
 420 0226 0028     		cmp	r0, #0
 421 0228 E8D1     		bne	.L14
 422              		.loc 1 98 0
 423 022a 2948     		ldr	r0, .L138+140
 424              	.LVL60:
 425 022c FFF7FEFF 		bl	commands_printf
 426              	.LVL61:
 427              	.LBE55:
 428 0230 6FE7     		b	.L1
 429              	.LVL62:
 430              	.L122:
 431              		.loc 1 100 0
 432 0232 FFF7FEFF 		bl	mc_interface_get_fault
 433              	.LVL63:
 434 0236 FFF7FEFF 		bl	mc_interface_fault_to_string
 435              	.LVL64:
 436 023a 0146     		mov	r1, r0
 437 023c 2548     		ldr	r0, .L138+144
 438 023e FFF7FEFF 		bl	commands_printf
 439              	.LVL65:
 440 0242 66E7     		b	.L1
 441              	.L139:
 442              		.align	2
 443              	.L138:
 444 0244 10000000 		.word	.LC2
 445 0248 00000000 		.word	.LANCHOR0
 446 024c 00000000 		.word	.LANCHOR1
 447 0250 2C000000 		.word	.LC4
 448 0254 3C000000 		.word	.LC6
 449 0258 54000000 		.word	.LC8
 450 025c D8000000 		.word	.LC12
 451 0260 FC000000 		.word	.LC14
 452 0264 54010000 		.word	.LC18
 453 0268 04020000 		.word	.LC23
 454 026c 10020000 		.word	.LC25
 455 0270 C4030000 		.word	.LC42
 456 0274 E4030000 		.word	.LC44
ARM GAS  /tmp/ccPVkQgB.s 			page 9


 457 0278 04040000 		.word	.LC46
 458 027c BC040000 		.word	.LC58
 459 0280 DC040000 		.word	.LC60
 460 0284 34060000 		.word	.LC71
 461 0288 14000000 		.word	.LC3
 462 028c 34000000 		.word	.LC5
 463 0290 DC000000 		.word	.LC13
 464 0294 00000000 		.word	0
 465 0298 44000000 		.word	.LC7
 466 029c 00007A44 		.word	1148846080
 467 02a0 68000000 		.word	.LC9
 468 02a4 88000000 		.word	.LC10
 469 02a8 B0000000 		.word	.LC11
 470 02ac 00000000 		.word	.LANCHOR3
 471 02b0 18020000 		.word	.LC26
 472 02b4 00010000 		.word	.LC15
 473 02b8 1C010000 		.word	.LC16
 474 02bc 34010000 		.word	.LC17
 475 02c0 5C010000 		.word	.LC19
 476 02c4 00000000 		.word	.LANCHOR2
 477 02c8 9C010000 		.word	.LC20
 478 02cc DC010000 		.word	.LC21
 479 02d0 00020000 		.word	.LC22
 480 02d4 0C020000 		.word	.LC24
 481              	.L17:
 482              		.loc 1 105 0
 483 02d8 C148     		ldr	r0, .L140
 484 02da FFF7FEFF 		bl	commands_printf
 485              	.LVL66:
 486              	.LBB56:
 487              		.loc 1 106 0
 488 02de 3B68     		ldr	r3, [r7]
 489 02e0 002B     		cmp	r3, #0
 490 02e2 7FF716AF 		ble	.L1
 491 02e6 BF4E     		ldr	r6, .L140+4
 492 02e8 0025     		movs	r5, #0
 493              	.LVL67:
 494              	.L18:
 495              		.loc 1 107 0 discriminator 3
 496 02ea 3423     		movs	r3, #52
 497 02ec 03FB05F3 		mul	r3, r3, r5
 498 02f0 F418     		adds	r4, r6, r3
 499 02f2 F05C     		ldrb	r0, [r6, r3]	@ zero_extendqisi2
 500 02f4 FFF7FEFF 		bl	mc_interface_fault_to_string
 501              	.LVL68:
 502 02f8 0146     		mov	r1, r0
 503 02fa BB48     		ldr	r0, .L140+8
 504 02fc FFF7FEFF 		bl	commands_printf
 505              	.LVL69:
 506              		.loc 1 108 0 discriminator 3
 507 0300 6068     		ldr	r0, [r4, #4]	@ float
 508 0302 FFF7FEFF 		bl	__aeabi_f2d
 509              	.LVL70:
 510 0306 0246     		mov	r2, r0
 511 0308 0B46     		mov	r3, r1
 512 030a B848     		ldr	r0, .L140+12
 513 030c FFF7FEFF 		bl	commands_printf
ARM GAS  /tmp/ccPVkQgB.s 			page 10


 514              	.LVL71:
 515              		.loc 1 109 0 discriminator 3
 516 0310 A068     		ldr	r0, [r4, #8]	@ float
 517 0312 FFF7FEFF 		bl	__aeabi_f2d
 518              	.LVL72:
 519 0316 0246     		mov	r2, r0
 520 0318 0B46     		mov	r3, r1
 521 031a B548     		ldr	r0, .L140+16
 522 031c FFF7FEFF 		bl	commands_printf
 523              	.LVL73:
 524              		.loc 1 110 0 discriminator 3
 525 0320 E068     		ldr	r0, [r4, #12]	@ float
 526 0322 FFF7FEFF 		bl	__aeabi_f2d
 527              	.LVL74:
 528 0326 0246     		mov	r2, r0
 529 0328 0B46     		mov	r3, r1
 530 032a B248     		ldr	r0, .L140+20
 531 032c FFF7FEFF 		bl	commands_printf
 532              	.LVL75:
 533              		.loc 1 111 0 discriminator 3
 534 0330 2069     		ldr	r0, [r4, #16]	@ float
 535 0332 FFF7FEFF 		bl	__aeabi_f2d
 536              	.LVL76:
 537 0336 0246     		mov	r2, r0
 538 0338 0B46     		mov	r3, r1
 539 033a AF48     		ldr	r0, .L140+24
 540 033c FFF7FEFF 		bl	commands_printf
 541              	.LVL77:
 542              		.loc 1 112 0 discriminator 3
 543 0340 6069     		ldr	r0, [r4, #20]	@ float
 544 0342 FFF7FEFF 		bl	__aeabi_f2d
 545              	.LVL78:
 546 0346 0246     		mov	r2, r0
 547 0348 0B46     		mov	r3, r1
 548 034a AC48     		ldr	r0, .L140+28
 549 034c FFF7FEFF 		bl	commands_printf
 550              	.LVL79:
 551              		.loc 1 113 0 discriminator 3
 552 0350 A169     		ldr	r1, [r4, #24]
 553 0352 AB48     		ldr	r0, .L140+32
 554 0354 FFF7FEFF 		bl	commands_printf
 555              	.LVL80:
 556              		.loc 1 114 0 discriminator 3
 557 0358 E169     		ldr	r1, [r4, #28]
 558 035a AA48     		ldr	r0, .L140+36
 559 035c FFF7FEFF 		bl	commands_printf
 560              	.LVL81:
 561              		.loc 1 115 0 discriminator 3
 562 0360 D4ED0A7A 		flds	s15, [r4, #40]	@ int
 563 0364 94ED047A 		flds	s14, [r4, #16]
 564 0368 A748     		ldr	r0, .L140+40
 565 036a F8EEE77A 		fsitos	s15, s15
 566              		.loc 1 106 0 discriminator 3
 567 036e 0135     		adds	r5, r5, #1
 568              	.LVL82:
 569              		.loc 1 115 0 discriminator 3
 570 0370 67EE877A 		fmuls	s15, s15, s14
ARM GAS  /tmp/ccPVkQgB.s 			page 11


 571 0374 FDEEE77A 		ftosizs	s15, s15
 572 0378 17EE901A 		fmrs	r1, s15	@ int
 573 037c FFF7FEFF 		bl	commands_printf
 574              	.LVL83:
 575              		.loc 1 116 0 discriminator 3
 576 0380 216A     		ldr	r1, [r4, #32]
 577 0382 A248     		ldr	r0, .L140+44
 578 0384 FFF7FEFF 		bl	commands_printf
 579              	.LVL84:
 580              		.loc 1 117 0 discriminator 3
 581 0388 616A     		ldr	r1, [r4, #36]
 582 038a A148     		ldr	r0, .L140+48
 583 038c FFF7FEFF 		bl	commands_printf
 584              	.LVL85:
 585              		.loc 1 118 0 discriminator 3
 586 0390 A16A     		ldr	r1, [r4, #40]
 587 0392 A048     		ldr	r0, .L140+52
 588 0394 FFF7FEFF 		bl	commands_printf
 589              	.LVL86:
 590              		.loc 1 119 0 discriminator 3
 591 0398 E16A     		ldr	r1, [r4, #44]
 592 039a 9F48     		ldr	r0, .L140+56
 593 039c FFF7FEFF 		bl	commands_printf
 594              	.LVL87:
 595              		.loc 1 120 0 discriminator 3
 596 03a0 206B     		ldr	r0, [r4, #48]	@ float
 597 03a2 FFF7FEFF 		bl	__aeabi_f2d
 598              	.LVL88:
 599 03a6 0246     		mov	r2, r0
 600 03a8 0B46     		mov	r3, r1
 601 03aa 9C48     		ldr	r0, .L140+60
 602 03ac FFF7FEFF 		bl	commands_printf
 603              	.LVL89:
 604              		.loc 1 106 0 discriminator 3
 605 03b0 3B68     		ldr	r3, [r7]
 606 03b2 AB42     		cmp	r3, r5
 607 03b4 99DC     		bgt	.L18
 608 03b6 ACE6     		b	.L1
 609              	.LVL90:
 610              	.L124:
 611              	.LBE56:
 612              		.loc 1 124 0
 613 03b8 FFF7FEFF 		bl	mc_interface_get_rpm
 614              	.LVL91:
 615 03bc 10EE100A 		fmrs	r0, s0
 616 03c0 FFF7FEFF 		bl	__aeabi_f2d
 617              	.LVL92:
 618 03c4 0246     		mov	r2, r0
 619 03c6 0B46     		mov	r3, r1
 620 03c8 9548     		ldr	r0, .L140+64
 621 03ca FFF7FEFF 		bl	commands_printf
 622              	.LVL93:
 623 03ce A0E6     		b	.L1
 624              	.L125:
 625              		.loc 1 126 0
 626 03d0 FFF7FEFF 		bl	mc_interface_get_tachometer_value
 627              	.LVL94:
ARM GAS  /tmp/ccPVkQgB.s 			page 12


 628 03d4 0146     		mov	r1, r0
 629 03d6 9348     		ldr	r0, .L140+68
 630 03d8 FFF7FEFF 		bl	commands_printf
 631              	.LVL95:
 632 03dc 99E6     		b	.L1
 633              	.L24:
 634              		.loc 1 200 0
 635 03de 2846     		mov	r0, r5
 636 03e0 9149     		ldr	r1, .L140+72
 637 03e2 FFF7FEFF 		bl	strcmp
 638              	.LVL96:
 639 03e6 0028     		cmp	r0, #0
 640 03e8 00F05C81 		beq	.L129
 641              		.loc 1 205 0
 642 03ec 2846     		mov	r0, r5
 643 03ee 8F49     		ldr	r1, .L140+76
 644 03f0 FFF7FEFF 		bl	strcmp
 645              	.LVL97:
 646 03f4 0646     		mov	r6, r0
 647 03f6 0028     		cmp	r0, #0
 648 03f8 00F01182 		beq	.L130
 649              		.loc 1 220 0
 650 03fc 2846     		mov	r0, r5
 651 03fe 8C49     		ldr	r1, .L140+80
 652 0400 FFF7FEFF 		bl	strcmp
 653              	.LVL98:
 654 0404 0028     		cmp	r0, #0
 655 0406 40F0B180 		bne	.L44
 656              		.loc 1 221 0
 657 040a 022C     		cmp	r4, #2
 658 040c 00F08D81 		beq	.L131
 659              	.L45:
 660              		.loc 1 249 0
 661 0410 8848     		ldr	r0, .L140+84
 662 0412 FFF7FEFF 		bl	commands_printf
 663              	.LVL99:
 664 0416 7CE6     		b	.L1
 665              	.L127:
 666              		.loc 1 153 0
 667 0418 874B     		ldr	r3, .L140+88
 668 041a DFED886A 		flds	s13, .L140+92
 669 041e 1B8A     		ldrh	r3, [r3, #16]
 670 0420 9FED877A 		flds	s14, .L140+96
 671 0424 9BB2     		uxth	r3, r3
 672 0426 07EE903A 		fmsr	s15, r3	@ int
 673 042a F8EE677A 		fuitos	s15, s15
 674 042e 67EEA67A 		fmuls	s15, s15, s13
 675 0432 67EE877A 		fmuls	s15, s15, s14
 676 0436 17EE900A 		fmrs	r0, s15
 677 043a FFF7FEFF 		bl	__aeabi_f2d
 678              	.LVL100:
 679 043e 0246     		mov	r2, r0
 680 0440 0B46     		mov	r3, r1
 681 0442 8048     		ldr	r0, .L140+100
 682 0444 FFF7FEFF 		bl	commands_printf
 683              	.LVL101:
 684 0448 63E6     		b	.L1
ARM GAS  /tmp/ccPVkQgB.s 			page 13


 685              	.L126:
 686              	.LVL102:
 687              	.LBB57:
 688              	.LBB58:
 689              	.LBB59:
 690              	.LBB60:
 691              	.LBB61:
 692              		.file 2 "ChibiOS_3.0.2/os/ext/CMSIS/include/core_cmFunc.h"
 693              		.loc 2 546 0
 694 044a 2023     		movs	r3, #32
 695              	@ 546 "ChibiOS_3.0.2/os/ext/CMSIS/include/core_cmFunc.h" 1
 696 044c 83F31188 		MSR basepri, r3
 697              	@ 0 "" 2
 698              		.thumb
 699              	.LBE61:
 700              	.LBE60:
 701              	.LBE59:
 702              	.LBE58:
 703              		.loc 1 129 0
 704 0450 7D4B     		ldr	r3, .L140+104
 705              		.loc 1 130 0
 706 0452 7E49     		ldr	r1, .L140+108
 707              		.loc 1 129 0
 708 0454 5A6A     		ldr	r2, [r3, #36]
 709 0456 0A92     		str	r2, [sp, #40]
 710              		.loc 1 130 0
 711 0458 4A6A     		ldr	r2, [r1, #36]
 712 045a 0B92     		str	r2, [sp, #44]
 713              		.loc 1 131 0
 714 045c 1A68     		ldr	r2, [r3]
 715 045e C2F30012 		ubfx	r2, r2, #4, #1
 716 0462 0C92     		str	r2, [sp, #48]
 717              		.loc 1 132 0
 718 0464 0A68     		ldr	r2, [r1]
 719 0466 C2F30012 		ubfx	r2, r2, #4, #1
 720 046a 0D92     		str	r2, [sp, #52]
 721              	.LVL103:
 722              	.LBB62:
 723              	.LBB63:
 724              	.LBB64:
 725              	.LBB65:
 726              	.LBB66:
 727              		.loc 2 546 0
 728              	@ 546 "ChibiOS_3.0.2/os/ext/CMSIS/include/core_cmFunc.h" 1
 729 046c 80F31188 		MSR basepri, r0
 730              	@ 0 "" 2
 731              		.thumb
 732              	.LBE66:
 733              	.LBE65:
 734              	.LBE64:
 735              	.LBE63:
 736              	.LBE62:
 737              		.loc 1 141 0
 738 0470 7748     		ldr	r0, .L140+112
 739              		.loc 1 134 0
 740 0472 D3F834A0 		ldr	r10, [r3, #52]
 741              	.LVL104:
ARM GAS  /tmp/ccPVkQgB.s 			page 14


 742              		.loc 1 135 0
 743 0476 D3F83890 		ldr	r9, [r3, #56]
 744              	.LVL105:
 745              		.loc 1 136 0
 746 047a D3F83C80 		ldr	r8, [r3, #60]
 747              	.LVL106:
 748              		.loc 1 137 0
 749 047e DF6A     		ldr	r7, [r3, #44]
 750              	.LVL107:
 751              		.loc 1 138 0
 752 0480 4E6B     		ldr	r6, [r1, #52]
 753              	.LVL108:
 754              		.loc 1 139 0
 755 0482 1D6C     		ldr	r5, [r3, #64]
 756              	.LVL109:
 757              		.loc 1 140 0
 758 0484 8C6B     		ldr	r4, [r1, #56]
 759              	.LVL110:
 760              		.loc 1 141 0
 761 0486 0A99     		ldr	r1, [sp, #40]
 762 0488 FFF7FEFF 		bl	commands_printf
 763              	.LVL111:
 764              		.loc 1 142 0
 765 048c 0B99     		ldr	r1, [sp, #44]
 766 048e 7148     		ldr	r0, .L140+116
 767 0490 FFF7FEFF 		bl	commands_printf
 768              	.LVL112:
 769              		.loc 1 143 0
 770 0494 5146     		mov	r1, r10
 771 0496 7048     		ldr	r0, .L140+120
 772 0498 FFF7FEFF 		bl	commands_printf
 773              	.LVL113:
 774              		.loc 1 144 0
 775 049c 4946     		mov	r1, r9
 776 049e 6F48     		ldr	r0, .L140+124
 777 04a0 FFF7FEFF 		bl	commands_printf
 778              	.LVL114:
 779              		.loc 1 145 0
 780 04a4 4146     		mov	r1, r8
 781 04a6 6E48     		ldr	r0, .L140+128
 782 04a8 FFF7FEFF 		bl	commands_printf
 783              	.LVL115:
 784              		.loc 1 146 0
 785 04ac 3946     		mov	r1, r7
 786 04ae 6D48     		ldr	r0, .L140+132
 787 04b0 FFF7FEFF 		bl	commands_printf
 788              	.LVL116:
 789              		.loc 1 147 0
 790 04b4 0C99     		ldr	r1, [sp, #48]
 791 04b6 6C48     		ldr	r0, .L140+136
 792 04b8 FFF7FEFF 		bl	commands_printf
 793              	.LVL117:
 794              		.loc 1 148 0
 795 04bc 0D99     		ldr	r1, [sp, #52]
 796 04be 6B48     		ldr	r0, .L140+140
 797 04c0 FFF7FEFF 		bl	commands_printf
 798              	.LVL118:
ARM GAS  /tmp/ccPVkQgB.s 			page 15


 799              		.loc 1 149 0
 800 04c4 3146     		mov	r1, r6
 801 04c6 6A48     		ldr	r0, .L140+144
 802 04c8 FFF7FEFF 		bl	commands_printf
 803              	.LVL119:
 804              		.loc 1 150 0
 805 04cc 2946     		mov	r1, r5
 806 04ce 6948     		ldr	r0, .L140+148
 807 04d0 FFF7FEFF 		bl	commands_printf
 808              	.LVL120:
 809              		.loc 1 151 0
 810 04d4 2146     		mov	r1, r4
 811 04d6 6848     		ldr	r0, .L140+152
 812 04d8 FFF7FEFF 		bl	commands_printf
 813              	.LVL121:
 814              	.LBE57:
 815 04dc 19E6     		b	.L1
 816              	.LVL122:
 817              	.L128:
 818              	.LBB67:
 819              		.loc 1 157 0
 820 04de 674B     		ldr	r3, .L140+156
 821              		.loc 1 160 0
 822 04e0 6749     		ldr	r1, .L140+160
 823 04e2 1598     		ldr	r0, [sp, #84]
 824              		.loc 1 157 0
 825 04e4 0793     		str	r3, [sp, #28]	@ float
 826              		.loc 1 160 0
 827 04e6 07AA     		add	r2, sp, #28
 828              		.loc 1 158 0
 829 04e8 0893     		str	r3, [sp, #32]	@ float
 830              		.loc 1 159 0
 831 04ea 0993     		str	r3, [sp, #36]	@ float
 832              		.loc 1 160 0
 833 04ec FFF7FEFF 		bl	sscanf
 834              	.LVL123:
 835              		.loc 1 161 0
 836 04f0 08AA     		add	r2, sp, #32
 837 04f2 6349     		ldr	r1, .L140+160
 838 04f4 1698     		ldr	r0, [sp, #88]
 839 04f6 FFF7FEFF 		bl	sscanf
 840              	.LVL124:
 841              		.loc 1 162 0
 842 04fa 1798     		ldr	r0, [sp, #92]
 843 04fc 6049     		ldr	r1, .L140+160
 844 04fe 09AA     		add	r2, sp, #36
 845 0500 FFF7FEFF 		bl	sscanf
 846              	.LVL125:
 847              		.loc 1 164 0
 848 0504 9DED070A 		flds	s0, [sp, #28]
 849 0508 B5EEC00A 		fcmpezs	s0
 850 050c F1EE10FA 		fmstat
 851 0510 28DD     		ble	.L108
 852              		.loc 1 164 0 is_stmt 0 discriminator 1
 853 0512 5C4B     		ldr	r3, .L140+164
 854 0514 D3ED017A 		flds	s15, [r3, #4]
 855 0518 B4EEE70A 		fcmpes	s0, s15
ARM GAS  /tmp/ccPVkQgB.s 			page 16


 856 051c F1EE10FA 		fmstat
 857 0520 20D5     		bpl	.L108
 858              		.loc 1 165 0 is_stmt 1 discriminator 2
 859 0522 DDED080A 		flds	s1, [sp, #32]
 860              		.loc 1 164 0 discriminator 2
 861 0526 F2EE047A 		fconsts	s15, #36
 862 052a F4EEE70A 		fcmpes	s1, s15
 863 052e F1EE10FA 		fmstat
 864 0532 17DD     		ble	.L108
 865              		.loc 1 165 0
 866 0534 DFED547A 		flds	s15, .L140+168
 867 0538 F4EEE70A 		fcmpes	s1, s15
 868 053c F1EE10FA 		fmstat
 869 0540 10D5     		bpl	.L108
 870              		.loc 1 166 0 discriminator 1
 871 0542 9DED091A 		flds	s2, [sp, #36]
 872              		.loc 1 165 0 discriminator 1
 873 0546 DFED517A 		flds	s15, .L140+172
 874 054a B4EEE71A 		fcmpes	s2, s15
 875 054e F1EE10FA 		fmstat
 876 0552 07DD     		ble	.L108
 877              		.loc 1 166 0
 878 0554 DFED4E7A 		flds	s15, .L140+176
 879 0558 B4EEE71A 		fcmpes	s2, s15
 880 055c F1EE10FA 		fmstat
 881 0560 00F1BC80 		bmi	.L132
 882              	.LVL126:
 883              	.L108:
 884              	.LBE67:
 885              	.LBB71:
 886              		.loc 1 366 0
 887 0564 4B48     		ldr	r0, .L140+180
 888 0566 FFF7FEFF 		bl	commands_printf
 889              	.LVL127:
 890 056a D2E5     		b	.L1
 891              	.LVL128:
 892              	.L44:
 893              	.LBE71:
 894              		.loc 1 251 0
 895 056c 2846     		mov	r0, r5
 896 056e 4A49     		ldr	r1, .L140+184
 897 0570 FFF7FEFF 		bl	strcmp
 898              	.LVL129:
 899 0574 0028     		cmp	r0, #0
 900 0576 40F0AC81 		bne	.L52
 901              		.loc 1 252 0
 902 057a 022C     		cmp	r4, #2
 903 057c 7FF448AF 		bne	.L45
 904              	.LBB77:
 905              		.loc 1 253 0
 906 0580 0DAD     		add	r5, sp, #52
 907 0582 3E4B     		ldr	r3, .L140+156
 908              		.loc 1 254 0
 909 0584 1598     		ldr	r0, [sp, #84]
 910 0586 3E49     		ldr	r1, .L140+160
 911              		.loc 1 253 0
 912 0588 0D93     		str	r3, [sp, #52]	@ float
ARM GAS  /tmp/ccPVkQgB.s 			page 17


 913              		.loc 1 254 0
 914 058a 2A46     		mov	r2, r5
 915 058c FFF7FEFF 		bl	sscanf
 916              	.LVL130:
 917              		.loc 1 256 0
 918 0590 D5ED007A 		flds	s15, [r5]
 919 0594 F5EEC07A 		fcmpezs	s15
 920 0598 F1EE10FA 		fmstat
 921 059c E2DD     		ble	.L108
 922              		.loc 1 256 0 is_stmt 0 discriminator 1
 923 059e 394C     		ldr	r4, .L140+164
 924              	.LVL131:
 925 05a0 94ED017A 		flds	s14, [r4, #4]
 926 05a4 F4EEC77A 		fcmpes	s15, s14
 927 05a8 F1EE10FA 		fmstat
 928 05ac DAD8     		bhi	.L108
 929              		.loc 1 257 0 is_stmt 1
 930 05ae 0223     		movs	r3, #2
 931              		.loc 1 258 0
 932 05b0 2046     		mov	r0, r4
 933              		.loc 1 257 0
 934 05b2 A370     		strb	r3, [r4, #2]
 935              		.loc 1 258 0
 936 05b4 FFF7FEFF 		bl	mc_interface_set_configuration
 937              	.LVL132:
 938              		.loc 1 260 0
 939 05b8 95ED000A 		flds	s0, [r5]
 940 05bc 4FF4FA60 		mov	r0, #2000
 941 05c0 FFF7FEFF 		bl	mcpwm_foc_measure_resistance
 942              	.LVL133:
 943 05c4 10EE100A 		fmrs	r0, s0
 944 05c8 FFF7FEFF 		bl	__aeabi_f2d
 945              	.LVL134:
 946 05cc 0246     		mov	r2, r0
 947 05ce 0B46     		mov	r3, r1
 948 05d0 3248     		ldr	r0, .L140+188
 949 05d2 FFF7FEFF 		bl	commands_printf
 950              	.LVL135:
 951              		.loc 1 262 0
 952 05d6 3248     		ldr	r0, .L140+192
 953 05d8 FFF7FEFF 		bl	mc_interface_set_configuration
 954              	.LVL136:
 955 05dc 99E5     		b	.L1
 956              	.L141:
 957 05de 00BF     		.align	2
 958              	.L140:
 959 05e0 3C020000 		.word	.LC27
 960 05e4 00000000 		.word	.LANCHOR4
 961 05e8 70020000 		.word	.LC28
 962 05ec 88020000 		.word	.LC29
 963 05f0 A0020000 		.word	.LC30
 964 05f4 B8020000 		.word	.LC31
 965 05f8 D0020000 		.word	.LC32
 966 05fc E8020000 		.word	.LC33
 967 0600 00030000 		.word	.LC34
 968 0604 18030000 		.word	.LC35
 969 0608 30030000 		.word	.LC36
ARM GAS  /tmp/ccPVkQgB.s 			page 18


 970 060c 48030000 		.word	.LC37
 971 0610 60030000 		.word	.LC38
 972 0614 78030000 		.word	.LC39
 973 0618 90030000 		.word	.LC40
 974 061c A8030000 		.word	.LC41
 975 0620 C8030000 		.word	.LC43
 976 0624 EC030000 		.word	.LC45
 977 0628 5C060000 		.word	.LC72
 978 062c B8060000 		.word	.LC76
 979 0630 94070000 		.word	.LC84
 980 0634 F0070000 		.word	.LC89
 981 0638 00000000 		.word	ADC_Value
 982 063c 6740533A 		.word	978534503
 983 0640 74D19541 		.word	1100337524
 984 0644 C4040000 		.word	.LC59
 985 0648 00000140 		.word	1073807360
 986 064c 00040140 		.word	1073808384
 987 0650 08040000 		.word	.LC47
 988 0654 18040000 		.word	.LC48
 989 0658 28040000 		.word	.LC49
 990 065c 38040000 		.word	.LC50
 991 0660 48040000 		.word	.LC51
 992 0664 58040000 		.word	.LC52
 993 0668 60040000 		.word	.LC53
 994 066c 6C040000 		.word	.LC54
 995 0670 78040000 		.word	.LC55
 996 0674 8C040000 		.word	.LC56
 997 0678 A4040000 		.word	.LC57
 998 067c 000080BF 		.word	-1082130432
 999 0680 EC040000 		.word	.LC61
 1000 0684 00000000 		.word	.LANCHOR0
 1001 0688 00803B45 		.word	1161527296
 1002 068c 0AD7A33C 		.word	1017370378
 1003 0690 CDCC4C3F 		.word	1061997773
 1004 0694 1C060000 		.word	.LC70
 1005 0698 18080000 		.word	.LC90
 1006 069c 24080000 		.word	.LC91
 1007 06a0 00000000 		.word	.LANCHOR1
 1008              	.LVL137:
 1009              	.L129:
 1010              	.LBE77:
 1011              	.LBB78:
 1012              		.loc 1 201 0 discriminator 7
 1013 06a4 0DA8     		add	r0, sp, #52
 1014 06a6 FFF7FEFF 		bl	mcpwm_get_rpm_dep
 1015              	.LVL138:
 1016              		.loc 1 202 0 discriminator 7
 1017 06aa 0D98     		ldr	r0, [sp, #52]	@ float
 1018 06ac FFF7FEFF 		bl	__aeabi_f2d
 1019              	.LVL139:
 1020 06b0 0246     		mov	r2, r0
 1021 06b2 0B46     		mov	r3, r1
 1022 06b4 A248     		ldr	r0, .L142
 1023 06b6 FFF7FEFF 		bl	commands_printf
 1024              	.LVL140:
 1025              		.loc 1 203 0 discriminator 7
 1026 06ba 0E98     		ldr	r0, [sp, #56]	@ float
ARM GAS  /tmp/ccPVkQgB.s 			page 19


 1027 06bc FFF7FEFF 		bl	__aeabi_f2d
 1028              	.LVL141:
 1029 06c0 0246     		mov	r2, r0
 1030 06c2 0B46     		mov	r3, r1
 1031 06c4 9F48     		ldr	r0, .L142+4
 1032 06c6 FFF7FEFF 		bl	commands_printf
 1033              	.LVL142:
 1034              		.loc 1 204 0 discriminator 7
 1035 06ca 0F98     		ldr	r0, [sp, #60]	@ float
 1036 06cc FFF7FEFF 		bl	__aeabi_f2d
 1037              	.LVL143:
 1038 06d0 0246     		mov	r2, r0
 1039 06d2 0B46     		mov	r3, r1
 1040 06d4 9C48     		ldr	r0, .L142+8
 1041 06d6 FFF7FEFF 		bl	commands_printf
 1042              	.LVL144:
 1043              	.LBE78:
 1044 06da 1AE5     		b	.L1
 1045              	.L132:
 1046              	.LBB79:
 1047              	.LBB68:
 1048              		.loc 1 172 0
 1049 06dc 0AA8     		add	r0, sp, #40
 1050 06de 0BA9     		add	r1, sp, #44
 1051 06e0 0DAA     		add	r2, sp, #52
 1052 06e2 0CAB     		add	r3, sp, #48
 1053 06e4 FFF7FEFF 		bl	conf_general_detect_motor_param
 1054              	.LVL145:
 1055 06e8 0028     		cmp	r0, #0
 1056 06ea 00F09480 		beq	.L33
 1057              		.loc 1 173 0
 1058 06ee 0A98     		ldr	r0, [sp, #40]	@ float
 1059 06f0 FFF7FEFF 		bl	__aeabi_f2d
 1060              	.LVL146:
 1061 06f4 0246     		mov	r2, r0
 1062 06f6 0B46     		mov	r3, r1
 1063 06f8 9448     		ldr	r0, .L142+12
 1064 06fa FFF7FEFF 		bl	commands_printf
 1065              	.LVL147:
 1066              		.loc 1 174 0
 1067 06fe 0B98     		ldr	r0, [sp, #44]	@ float
 1068 0700 FFF7FEFF 		bl	__aeabi_f2d
 1069              	.LVL148:
 1070 0704 0246     		mov	r2, r0
 1071 0706 0B46     		mov	r3, r1
 1072 0708 9148     		ldr	r0, .L142+16
 1073 070a FFF7FEFF 		bl	commands_printf
 1074              	.LVL149:
 1075              		.loc 1 176 0
 1076 070e 0C9B     		ldr	r3, [sp, #48]
 1077 0710 002B     		cmp	r3, #0
 1078 0712 7ED0     		beq	.L133
 1079              		.loc 1 181 0
 1080 0714 591C     		adds	r1, r3, #1
 1081 0716 5CD0     		beq	.L134
 1082              		.loc 1 186 0
 1083 0718 9A1C     		adds	r2, r3, #2
ARM GAS  /tmp/ccPVkQgB.s 			page 20


 1084 071a 56D0     		beq	.L135
 1085              		.loc 1 188 0
 1086 071c 0333     		adds	r3, r3, #3
 1087 071e 7FF4F8AC 		bne	.L1
 1088              		.loc 1 189 0
 1089 0722 8C48     		ldr	r0, .L142+20
 1090 0724 FFF7FEFF 		bl	commands_printf
 1091              	.LVL150:
 1092 0728 F3E4     		b	.L1
 1093              	.L131:
 1094              	.LBE68:
 1095              	.LBE79:
 1096              	.LBB80:
 1097              		.loc 1 222 0
 1098 072a 8B4B     		ldr	r3, .L142+24
 1099              		.loc 1 223 0
 1100 072c 1598     		ldr	r0, [sp, #84]
 1101 072e 8B49     		ldr	r1, .L142+28
 1102              		.loc 1 222 0
 1103 0730 0B93     		str	r3, [sp, #44]	@ float
 1104              		.loc 1 223 0
 1105 0732 0BAA     		add	r2, sp, #44
 1106 0734 FFF7FEFF 		bl	sscanf
 1107              	.LVL151:
 1108              		.loc 1 225 0
 1109 0738 DDED0B7A 		flds	s15, [sp, #44]
 1110 073c F5EEC07A 		fcmpezs	s15
 1111 0740 F1EE10FA 		fmstat
 1112 0744 7FF70EAF 		ble	.L108
 1113              		.loc 1 225 0 is_stmt 0 discriminator 1
 1114 0748 854C     		ldr	r4, .L142+32
 1115              	.LVL152:
 1116 074a 94ED017A 		flds	s14, [r4, #4]
 1117 074e F4EEC77A 		fcmpes	s15, s14
 1118 0752 F1EE10FA 		fmstat
 1119 0756 3FF605AF 		bhi	.L108
 1120              		.loc 1 226 0 is_stmt 1
 1121 075a FFF7FEFF 		bl	encoder_is_configured
 1122              	.LVL153:
 1123 075e 0028     		cmp	r0, #0
 1124 0760 53D0     		beq	.L49
 1125              	.LBB81:
 1126              		.loc 1 228 0
 1127 0762 0223     		movs	r3, #2
 1128              		.loc 1 229 0
 1129 0764 2046     		mov	r0, r4
 1130              		.loc 1 227 0
 1131 0766 A678     		ldrb	r6, [r4, #2]	@ zero_extendqisi2
 1132              	.LVL154:
 1133              		.loc 1 228 0
 1134 0768 A370     		strb	r3, [r4, #2]
 1135              		.loc 1 231 0
 1136 076a 0025     		movs	r5, #0
 1137              		.loc 1 229 0
 1138 076c FFF7FEFF 		bl	mc_interface_set_configuration
 1139              	.LVL155:
 1140              		.loc 1 233 0
ARM GAS  /tmp/ccPVkQgB.s 			page 21


 1141 0770 0027     		movs	r7, #0
 1142              		.loc 1 234 0
 1143 0772 9DED0B0A 		flds	s0, [sp, #44]
 1144              		.loc 1 231 0
 1145 0776 0C95     		str	r5, [sp, #48]	@ float
 1146              		.loc 1 234 0
 1147 0778 0DAA     		add	r2, sp, #52
 1148 077a 0AAB     		add	r3, sp, #40
 1149 077c 0CA9     		add	r1, sp, #48
 1150 077e 0120     		movs	r0, #1
 1151              		.loc 1 232 0
 1152 0780 0D95     		str	r5, [sp, #52]	@ float
 1153              		.loc 1 233 0
 1154 0782 8DF82870 		strb	r7, [sp, #40]
 1155              		.loc 1 234 0
 1156 0786 FFF7FEFF 		bl	mcpwm_foc_encoder_detect
 1157              	.LVL156:
 1158              		.loc 1 237 0
 1159 078a 2046     		mov	r0, r4
 1160              		.loc 1 236 0
 1161 078c A670     		strb	r6, [r4, #2]
 1162              		.loc 1 237 0
 1163 078e FFF7FEFF 		bl	mc_interface_set_configuration
 1164              	.LVL157:
 1165              		.loc 1 239 0
 1166 0792 0C98     		ldr	r0, [sp, #48]	@ float
 1167 0794 FFF7FEFF 		bl	__aeabi_f2d
 1168              	.LVL158:
 1169 0798 0246     		mov	r2, r0
 1170 079a 0B46     		mov	r3, r1
 1171 079c 7148     		ldr	r0, .L142+36
 1172 079e FFF7FEFF 		bl	commands_printf
 1173              	.LVL159:
 1174              		.loc 1 240 0
 1175 07a2 0D98     		ldr	r0, [sp, #52]	@ float
 1176 07a4 FFF7FEFF 		bl	__aeabi_f2d
 1177              	.LVL160:
 1178 07a8 0246     		mov	r2, r0
 1179 07aa 0B46     		mov	r3, r1
 1180 07ac 6E48     		ldr	r0, .L142+40
 1181 07ae FFF7FEFF 		bl	commands_printf
 1182              	.LVL161:
 1183              		.loc 1 241 0
 1184 07b2 9DF82810 		ldrb	r1, [sp, #40]	@ zero_extendqisi2
 1185 07b6 6D4A     		ldr	r2, .L142+44
 1186 07b8 6D4B     		ldr	r3, .L142+48
 1187 07ba 6E48     		ldr	r0, .L142+52
 1188 07bc B942     		cmp	r1, r7
 1189 07be 14BF     		ite	ne
 1190 07c0 1146     		movne	r1, r2
 1191 07c2 1946     		moveq	r1, r3
 1192 07c4 FFF7FEFF 		bl	commands_printf
 1193              	.LVL162:
 1194              	.LBE81:
 1195 07c8 A3E4     		b	.L1
 1196              	.LVL163:
 1197              	.L135:
ARM GAS  /tmp/ccPVkQgB.s 			page 22


 1198              	.LBE80:
 1199              	.LBB82:
 1200              	.LBB69:
 1201              		.loc 1 187 0
 1202 07ca 6B48     		ldr	r0, .L142+56
 1203 07cc FFF7FEFF 		bl	commands_printf
 1204              	.LVL164:
 1205 07d0 9FE4     		b	.L1
 1206              	.L134:
 1207              		.loc 1 182 0
 1208 07d2 6A48     		ldr	r0, .L142+60
 1209              	.L110:
 1210 07d4 FFF7FEFF 		bl	commands_printf
 1211              	.LVL165:
 1212              		.loc 1 183 0
 1213 07d8 9DF93B00 		ldrsb	r0, [sp, #59]
 1214 07dc 9DF93770 		ldrsb	r7, [sp, #55]
 1215 07e0 9DF93860 		ldrsb	r6, [sp, #56]
 1216 07e4 9DF93950 		ldrsb	r5, [sp, #57]
 1217 07e8 9DF93A40 		ldrsb	r4, [sp, #58]
 1218              	.LVL166:
 1219 07ec 0490     		str	r0, [sp, #16]
 1220 07ee 9DF93410 		ldrsb	r1, [sp, #52]
 1221 07f2 9DF93520 		ldrsb	r2, [sp, #53]
 1222 07f6 9DF93630 		ldrsb	r3, [sp, #54]
 1223 07fa 0097     		str	r7, [sp]
 1224 07fc 0196     		str	r6, [sp, #4]
 1225 07fe 0295     		str	r5, [sp, #8]
 1226 0800 0394     		str	r4, [sp, #12]
 1227 0802 5F48     		ldr	r0, .L142+64
 1228 0804 FFF7FEFF 		bl	commands_printf
 1229              	.LVL167:
 1230 0808 83E4     		b	.L1
 1231              	.L49:
 1232              	.LBE69:
 1233              	.LBE82:
 1234              	.LBB83:
 1235              		.loc 1 243 0
 1236 080a 5E48     		ldr	r0, .L142+68
 1237 080c FFF7FEFF 		bl	commands_printf
 1238              	.LVL168:
 1239 0810 7FE4     		b	.L1
 1240              	.LVL169:
 1241              	.L133:
 1242              	.LBE83:
 1243              	.LBB84:
 1244              	.LBB70:
 1245              		.loc 1 177 0
 1246 0812 5D48     		ldr	r0, .L142+72
 1247 0814 DEE7     		b	.L110
 1248              	.L33:
 1249              		.loc 1 192 0
 1250 0816 5D48     		ldr	r0, .L142+76
 1251 0818 FFF7FEFF 		bl	commands_printf
 1252              	.LVL170:
 1253              	.LBE70:
 1254              		.loc 1 166 0
ARM GAS  /tmp/ccPVkQgB.s 			page 23


 1255 081c 79E4     		b	.L1
 1256              	.L130:
 1257              	.LBE84:
 1258              		.loc 1 206 0
 1259 081e 5C48     		ldr	r0, .L142+80
 1260              	.LBB85:
 1261              	.LBB86:
 1262              	.LBB87:
 1263              	.LBB88:
 1264              	.LBB89:
 1265              	.LBB90:
 1266              		.file 3 "ChibiOS_3.0.2/os/rt/include/chvt.h"
 1267              		.loc 3 231 0
 1268 0820 5C4F     		ldr	r7, .L142+84
 1269              	.LBE90:
 1270              	.LBE89:
 1271              	.LBE88:
 1272              	.LBE87:
 1273              		.loc 1 210 0
 1274 0822 9FED5D8A 		flds	s16, .L142+88
 1275              		.loc 1 213 0
 1276 0826 DFED5D8A 		flds	s17, .L142+92
 1277              	.LBE86:
 1278              	.LBE85:
 1279              		.loc 1 206 0
 1280 082a FFF7FEFF 		bl	commands_printf
 1281              	.LVL171:
 1282              	.LBB101:
 1283              		.loc 1 207 0
 1284 082e 3446     		mov	r4, r6
 1285              	.LVL172:
 1286 0830 02E0     		b	.L43
 1287              	.LVL173:
 1288              	.L41:
 1289              		.loc 1 207 0 is_stmt 0 discriminator 2
 1290 0832 032C     		cmp	r4, #3
 1291 0834 3FF46DAC 		beq	.L1
 1292              	.LVL174:
 1293              	.L43:
 1294              	.LBB99:
 1295              		.loc 1 208 0 is_stmt 1
 1296 0838 2046     		mov	r0, r4
 1297 083a FFF7FEFF 		bl	comm_can_get_status_msg_index
 1298              	.LVL175:
 1299              		.loc 1 210 0
 1300 083e 0168     		ldr	r1, [r0]
 1301 0840 0029     		cmp	r1, #0
 1302              		.loc 1 208 0
 1303 0842 0546     		mov	r5, r0
 1304              	.LVL176:
 1305              		.loc 1 210 0
 1306 0844 B7EE007A 		fconsts	s14, #112
 1307              	.LBE99:
 1308              		.loc 1 207 0
 1309 0848 04F10104 		add	r4, r4, #1
 1310              	.LVL177:
 1311              	.LBB100:
ARM GAS  /tmp/ccPVkQgB.s 			page 24


 1312              		.loc 1 210 0
 1313 084c F1DB     		blt	.L41
 1314              	.LBB94:
 1315              	.LBB93:
 1316              	.LBB92:
 1317              	.LBB91:
 1318              		.loc 3 231 0 discriminator 1
 1319 084e BB6A     		ldr	r3, [r7, #40]
 1320              	.LBE91:
 1321              	.LBE92:
 1322              		.loc 3 267 0 discriminator 1
 1323 0850 4268     		ldr	r2, [r0, #4]
 1324 0852 9B1A     		subs	r3, r3, r2
 1325 0854 07EE903A 		fmsr	s15, r3	@ int
 1326              	.LBE93:
 1327              	.LBE94:
 1328              		.loc 1 210 0 discriminator 1
 1329 0858 F8EE677A 		fuitos	s15, s15
 1330 085c C7EE887A 		fdivs	s15, s15, s16
 1331 0860 F4EEC77A 		fcmpes	s15, s14
 1332 0864 F1EE10FA 		fmstat
 1333 0868 E3D5     		bpl	.L41
 1334              		.loc 1 211 0
 1335 086a 4D48     		ldr	r0, .L142+96
 1336              	.LVL178:
 1337 086c FFF7FEFF 		bl	commands_printf
 1338              	.LVL179:
 1339              		.loc 1 212 0
 1340 0870 6968     		ldr	r1, [r5, #4]
 1341 0872 4C48     		ldr	r0, .L142+100
 1342 0874 FFF7FEFF 		bl	commands_printf
 1343              	.LVL180:
 1344              	.LBB95:
 1345              	.LBB96:
 1346              		.loc 3 267 0
 1347 0878 6A68     		ldr	r2, [r5, #4]
 1348              	.LBB97:
 1349              	.LBB98:
 1350              		.loc 3 231 0
 1351 087a BB6A     		ldr	r3, [r7, #40]
 1352              	.LBE98:
 1353              	.LBE97:
 1354              		.loc 3 267 0
 1355 087c 9B1A     		subs	r3, r3, r2
 1356 087e 07EE903A 		fmsr	s15, r3	@ int
 1357              	.LBE96:
 1358              	.LBE95:
 1359              		.loc 1 213 0
 1360 0882 F8EE677A 		fuitos	s15, s15
 1361 0886 C7EE887A 		fdivs	s15, s15, s16
 1362 088a 67EEA87A 		fmuls	s15, s15, s17
 1363 088e 17EE900A 		fmrs	r0, s15
 1364 0892 FFF7FEFF 		bl	__aeabi_f2d
 1365              	.LVL181:
 1366 0896 0246     		mov	r2, r0
 1367 0898 0B46     		mov	r3, r1
 1368 089a 4348     		ldr	r0, .L142+104
ARM GAS  /tmp/ccPVkQgB.s 			page 25


 1369 089c FFF7FEFF 		bl	commands_printf
 1370              	.LVL182:
 1371              		.loc 1 214 0
 1372 08a0 A868     		ldr	r0, [r5, #8]	@ float
 1373 08a2 FFF7FEFF 		bl	__aeabi_f2d
 1374              	.LVL183:
 1375 08a6 0246     		mov	r2, r0
 1376 08a8 0B46     		mov	r3, r1
 1377 08aa 4048     		ldr	r0, .L142+108
 1378 08ac FFF7FEFF 		bl	commands_printf
 1379              	.LVL184:
 1380              		.loc 1 215 0
 1381 08b0 E868     		ldr	r0, [r5, #12]	@ float
 1382 08b2 FFF7FEFF 		bl	__aeabi_f2d
 1383              	.LVL185:
 1384 08b6 0246     		mov	r2, r0
 1385 08b8 0B46     		mov	r3, r1
 1386 08ba 3D48     		ldr	r0, .L142+112
 1387 08bc FFF7FEFF 		bl	commands_printf
 1388              	.LVL186:
 1389              		.loc 1 217 0
 1390 08c0 6869     		ldr	r0, [r5, #20]
 1391 08c2 FFF7FEFF 		bl	__aeabi_i2d
 1392              	.LVL187:
 1393 08c6 0246     		mov	r2, r0
 1394 08c8 0B46     		mov	r3, r1
 1395 08ca 3A48     		ldr	r0, .L142+116
 1396 08cc FFF7FEFF 		bl	commands_printf
 1397              	.LVL188:
 1398 08d0 AFE7     		b	.L41
 1399              	.LVL189:
 1400              	.L52:
 1401              	.LBE100:
 1402              	.LBE101:
 1403              		.loc 1 269 0
 1404 08d2 2846     		mov	r0, r5
 1405 08d4 3849     		ldr	r1, .L142+120
 1406 08d6 FFF7FEFF 		bl	strcmp
 1407              	.LVL190:
 1408 08da 0028     		cmp	r0, #0
 1409 08dc 74D1     		bne	.L57
 1410              		.loc 1 270 0
 1411 08de 022C     		cmp	r4, #2
 1412 08e0 7FF496AD 		bne	.L45
 1413              	.LBB102:
 1414              		.loc 1 271 0
 1415 08e4 0DAD     		add	r5, sp, #52
 1416 08e6 1C4B     		ldr	r3, .L142+24
 1417              		.loc 1 272 0
 1418 08e8 1598     		ldr	r0, [sp, #84]
 1419 08ea 1C49     		ldr	r1, .L142+28
 1420              		.loc 1 271 0
 1421 08ec 0D93     		str	r3, [sp, #52]	@ float
 1422              		.loc 1 272 0
 1423 08ee 2A46     		mov	r2, r5
 1424 08f0 FFF7FEFF 		bl	sscanf
 1425              	.LVL191:
ARM GAS  /tmp/ccPVkQgB.s 			page 26


 1426              		.loc 1 274 0
 1427 08f4 D5ED007A 		flds	s15, [r5]
 1428 08f8 F5EEC07A 		fcmpezs	s15
 1429 08fc F1EE10FA 		fmstat
 1430 0900 7FF730AE 		ble	.L108
 1431              		.loc 1 275 0
 1432 0904 164B     		ldr	r3, .L142+32
 1433              		.loc 1 276 0
 1434 0906 2D4A     		ldr	r2, .L142+124
 1435 0908 C3F89420 		str	r2, [r3, #148]	@ float
 1436              		.loc 1 275 0
 1437 090c 0221     		movs	r1, #2
 1438              		.loc 1 277 0
 1439 090e 1846     		mov	r0, r3
 1440              		.loc 1 275 0
 1441 0910 9970     		strb	r1, [r3, #2]
 1442              		.loc 1 277 0
 1443 0912 FFF7FEFF 		bl	mc_interface_set_configuration
 1444              	.LVL192:
 1445              		.loc 1 279 0
 1446 0916 C820     		movs	r0, #200
 1447 0918 95ED000A 		flds	s0, [r5]
 1448 091c 0021     		movs	r1, #0
 1449 091e FFF7FEFF 		bl	mcpwm_foc_measure_inductance
 1450              	.LVL193:
 1451 0922 10EE100A 		fmrs	r0, s0
 1452              	.L111:
 1453              	.LBE102:
 1454              	.LBB103:
 1455              		.loc 1 317 0 discriminator 20
 1456 0926 FFF7FEFF 		bl	__aeabi_f2d
 1457              	.LVL194:
 1458 092a 0246     		mov	r2, r0
 1459 092c 0B46     		mov	r3, r1
 1460 092e 2448     		ldr	r0, .L142+128
 1461 0930 FFF7FEFF 		bl	commands_printf
 1462              	.LVL195:
 1463              		.loc 1 319 0 discriminator 20
 1464 0934 2348     		ldr	r0, .L142+132
 1465 0936 FFF7FEFF 		bl	mc_interface_set_configuration
 1466              	.LVL196:
 1467              	.LBE103:
 1468 093a FFF7EABB 		b	.L1
 1469              	.L143:
 1470 093e 00BF     		.align	2
 1471              	.L142:
 1472 0940 64060000 		.word	.LC73
 1473 0944 7C060000 		.word	.LC74
 1474 0948 9C060000 		.word	.LC75
 1475 094c F0040000 		.word	.LC62
 1476 0950 10050000 		.word	.LC63
 1477 0954 B4050000 		.word	.LC68
 1478 0958 000080BF 		.word	-1082130432
 1479 095c EC040000 		.word	.LC61
 1480 0960 00000000 		.word	.LANCHOR0
 1481 0964 A8070000 		.word	.LC85
 1482 0968 B8070000 		.word	.LC86
ARM GAS  /tmp/ccPVkQgB.s 			page 27


 1483 096c 00000000 		.word	.LC0
 1484 0970 08000000 		.word	.LC1
 1485 0974 C8070000 		.word	.LC87
 1486 0978 84050000 		.word	.LC67
 1487 097c 64050000 		.word	.LC66
 1488 0980 44050000 		.word	.LC65
 1489 0984 D8070000 		.word	.LC88
 1490 0988 28050000 		.word	.LC64
 1491 098c E4050000 		.word	.LC69
 1492 0990 C4060000 		.word	.LC77
 1493 0994 00000000 		.word	ch
 1494 0998 00401C46 		.word	1176256512
 1495 099c 00007A44 		.word	1148846080
 1496 09a0 F4060000 		.word	.LC78
 1497 09a4 0C070000 		.word	.LC79
 1498 09a8 24070000 		.word	.LC80
 1499 09ac 40070000 		.word	.LC81
 1500 09b0 5C070000 		.word	.LC82
 1501 09b4 78070000 		.word	.LC83
 1502 09b8 3C080000 		.word	.LC92
 1503 09bc 00803B45 		.word	1161527296
 1504 09c0 48080000 		.word	.LC93
 1505 09c4 00000000 		.word	.LANCHOR1
 1506              	.L57:
 1507              		.loc 1 288 0
 1508 09c8 2846     		mov	r0, r5
 1509 09ca 7C49     		ldr	r1, .L144
 1510 09cc FFF7FEFF 		bl	strcmp
 1511              	.LVL197:
 1512 09d0 0028     		cmp	r0, #0
 1513 09d2 53D1     		bne	.L61
 1514              		.loc 1 289 0
 1515 09d4 052C     		cmp	r4, #5
 1516 09d6 7FF41BAD 		bne	.L45
 1517              	.LBB104:
 1518              		.loc 1 290 0
 1519 09da 794B     		ldr	r3, .L144+4
 1520              		.loc 1 294 0
 1521 09dc 7949     		ldr	r1, .L144+8
 1522 09de 1598     		ldr	r0, [sp, #84]
 1523              		.loc 1 290 0
 1524 09e0 0993     		str	r3, [sp, #36]	@ float
 1525              		.loc 1 294 0
 1526 09e2 09AA     		add	r2, sp, #36
 1527              		.loc 1 291 0
 1528 09e4 0A93     		str	r3, [sp, #40]	@ float
 1529              		.loc 1 292 0
 1530 09e6 0B93     		str	r3, [sp, #44]	@ float
 1531              		.loc 1 293 0
 1532 09e8 0C93     		str	r3, [sp, #48]	@ float
 1533              		.loc 1 294 0
 1534 09ea FFF7FEFF 		bl	sscanf
 1535              	.LVL198:
 1536              		.loc 1 295 0
 1537 09ee 0AAA     		add	r2, sp, #40
 1538 09f0 7449     		ldr	r1, .L144+8
 1539 09f2 1698     		ldr	r0, [sp, #88]
ARM GAS  /tmp/ccPVkQgB.s 			page 28


 1540 09f4 FFF7FEFF 		bl	sscanf
 1541              	.LVL199:
 1542              		.loc 1 296 0
 1543 09f8 0BAA     		add	r2, sp, #44
 1544 09fa 7249     		ldr	r1, .L144+8
 1545 09fc 1798     		ldr	r0, [sp, #92]
 1546 09fe FFF7FEFF 		bl	sscanf
 1547              	.LVL200:
 1548              		.loc 1 297 0
 1549 0a02 1898     		ldr	r0, [sp, #96]
 1550 0a04 6F49     		ldr	r1, .L144+8
 1551 0a06 0CAA     		add	r2, sp, #48
 1552 0a08 FFF7FEFF 		bl	sscanf
 1553              	.LVL201:
 1554              		.loc 1 299 0
 1555 0a0c 9DED090A 		flds	s0, [sp, #36]
 1556 0a10 B5EEC00A 		fcmpezs	s0
 1557 0a14 F1EE10FA 		fmstat
 1558 0a18 7FF7A4AD 		ble	.L108
 1559              		.loc 1 299 0 is_stmt 0 discriminator 1
 1560 0a1c 6A4B     		ldr	r3, .L144+12
 1561 0a1e D3ED017A 		flds	s15, [r3, #4]
 1562 0a22 B4EEE70A 		fcmpes	s0, s15
 1563 0a26 F1EE10FA 		fmstat
 1564 0a2a 3FF69BAD 		bhi	.L108
 1565              		.loc 1 299 0 discriminator 2
 1566 0a2e 9DED0B1A 		flds	s2, [sp, #44]
 1567 0a32 B5EEC01A 		fcmpezs	s2
 1568 0a36 F1EE10FA 		fmstat
 1569 0a3a 7FF793AD 		ble	.L108
 1570              		.loc 1 299 0 discriminator 3
 1571 0a3e DDED0A0A 		flds	s1, [sp, #40]
 1572 0a42 DFED627A 		flds	s15, .L144+16
 1573 0a46 F4EEE70A 		fcmpes	s1, s15
 1574 0a4a F1EE10FA 		fmstat
 1575 0a4e 7FF789AD 		ble	.L108
 1576              		.loc 1 299 0 discriminator 4
 1577 0a52 DDED0C1A 		flds	s3, [sp, #48]
 1578 0a56 F5EEC01A 		fcmpezs	s3
 1579 0a5a F1EE10FA 		fmstat
 1580 0a5e FFF681AD 		blt	.L108
 1581              	.LBB105:
 1582              		.loc 1 301 0 is_stmt 1
 1583 0a62 0DA8     		add	r0, sp, #52
 1584 0a64 FFF7FEFF 		bl	conf_general_measure_flux_linkage
 1585              	.LVL202:
 1586              		.loc 1 302 0
 1587 0a68 0D98     		ldr	r0, [sp, #52]	@ float
 1588              	.LVL203:
 1589              	.L112:
 1590              	.LBE105:
 1591              	.LBE104:
 1592              	.LBB106:
 1593              	.LBB72:
 1594              		.loc 1 364 0
 1595 0a6a FFF7FEFF 		bl	__aeabi_f2d
 1596              	.LVL204:
ARM GAS  /tmp/ccPVkQgB.s 			page 29


 1597 0a6e 0246     		mov	r2, r0
 1598 0a70 0B46     		mov	r3, r1
 1599 0a72 5748     		ldr	r0, .L144+20
 1600 0a74 FFF7FEFF 		bl	commands_printf
 1601              	.LVL205:
 1602              	.LBE72:
 1603 0a78 FFF74BBB 		b	.L1
 1604              	.LVL206:
 1605              	.L61:
 1606              	.LBE106:
 1607              		.loc 1 309 0
 1608 0a7c 2846     		mov	r0, r5
 1609 0a7e 5549     		ldr	r1, .L144+24
 1610 0a80 FFF7FEFF 		bl	strcmp
 1611              	.LVL207:
 1612 0a84 0028     		cmp	r0, #0
 1613 0a86 00F08280 		beq	.L136
 1614              		.loc 1 320 0
 1615 0a8a 2846     		mov	r0, r5
 1616 0a8c 5249     		ldr	r1, .L144+28
 1617 0a8e FFF7FEFF 		bl	strcmp
 1618              	.LVL208:
 1619 0a92 0646     		mov	r6, r0
 1620 0a94 0028     		cmp	r0, #0
 1621 0a96 40F0AB80 		bne	.L70
 1622              		.loc 1 321 0
 1623 0a9a 022C     		cmp	r4, #2
 1624 0a9c 7FF4B8AC 		bne	.L45
 1625              	.LBB107:
 1626              		.loc 1 322 0
 1627 0aa0 0DAD     		add	r5, sp, #52
 1628 0aa2 474B     		ldr	r3, .L144+4
 1629              		.loc 1 323 0
 1630 0aa4 1598     		ldr	r0, [sp, #84]
 1631 0aa6 4749     		ldr	r1, .L144+8
 1632              		.loc 1 322 0
 1633 0aa8 2B60     		str	r3, [r5]	@ float
 1634              		.loc 1 323 0
 1635 0aaa 2A46     		mov	r2, r5
 1636 0aac FFF7FEFF 		bl	sscanf
 1637              	.LVL209:
 1638              		.loc 1 325 0
 1639 0ab0 D5ED007A 		flds	s15, [r5]
 1640 0ab4 F5EEC07A 		fcmpezs	s15
 1641 0ab8 F1EE10FA 		fmstat
 1642 0abc 7FF752AD 		ble	.L108
 1643              	.LBB76:
 1644              		.loc 1 326 0
 1645 0ac0 414F     		ldr	r7, .L144+12
 1646              	.LBB73:
 1647              		.loc 1 336 0
 1648 0ac2 9FED468A 		flds	s16, .L144+32
 1649              	.LBE73:
 1650              		.loc 1 326 0
 1651 0ac6 BC70     		strb	r4, [r7, #2]
 1652              		.loc 1 327 0
 1653 0ac8 3846     		mov	r0, r7
ARM GAS  /tmp/ccPVkQgB.s 			page 30


 1654 0aca FFF7FEFF 		bl	mc_interface_set_configuration
 1655              	.LVL210:
 1656              		.loc 1 328 0
 1657 0ace D7ED2B7A 		flds	s15, [r7, #172]
 1658 0ad2 B7EE08AA 		fconsts	s20, #120
 1659 0ad6 27EE8AAA 		fmuls	s20, s15, s20
 1660              	.LVL211:
 1661              		.loc 1 331 0
 1662 0ada FFF7FEFF 		bl	timeout_get_timeout_msec
 1663              	.LVL212:
 1664 0ade 0746     		mov	r7, r0
 1665              	.LVL213:
 1666              		.loc 1 332 0
 1667 0ae0 FFF7FEFF 		bl	timeout_get_brake_current
 1668              	.LVL214:
 1669              		.loc 1 333 0
 1670 0ae4 4EF66020 		movw	r0, #60000
 1671              		.loc 1 332 0
 1672 0ae8 F0EE40AA 		fcpys	s21, s0
 1673              	.LVL215:
 1674              		.loc 1 333 0
 1675 0aec 9FED3C0A 		flds	s0, .L144+36
 1676              	.LVL216:
 1677 0af0 FFF7FEFF 		bl	timeout_configure
 1678              	.LVL217:
 1679              	.LBB74:
 1680              		.loc 1 335 0
 1681 0af4 3446     		mov	r4, r6
 1682              	.LVL218:
 1683              	.L73:
 1684              		.loc 1 336 0 discriminator 3
 1685 0af6 07EE904A 		fmsr	s15, r4	@ int
 1686 0afa F8EEE77A 		fsitos	s15, s15
 1687 0afe 95ED000A 		flds	s0, [r5]
 1688 0b02 C7EE887A 		fdivs	s15, s15, s16
 1689              		.loc 1 335 0 discriminator 3
 1690 0b06 0134     		adds	r4, r4, #1
 1691              	.LVL219:
 1692              		.loc 1 336 0 discriminator 3
 1693 0b08 27EE800A 		fmuls	s0, s15, s0
 1694 0b0c FFF7FEFF 		bl	mc_interface_set_duty
 1695              	.LVL220:
 1696              		.loc 1 337 0 discriminator 3
 1697 0b10 C820     		movs	r0, #200
 1698 0b12 FFF7FEFF 		bl	chThdSleep
 1699              	.LVL221:
 1700              		.loc 1 335 0 discriminator 3
 1701 0b16 642C     		cmp	r4, #100
 1702 0b18 EDD1     		bne	.L73
 1703 0b1a 9FED318A 		flds	s16, .L144+36
 1704 0b1e 4FF47A74 		mov	r4, #1000
 1705              	.LVL222:
 1706 0b22 F0EE489A 		fcpys	s19, s16
 1707 0b26 F0EE488A 		fcpys	s17, s16
 1708 0b2a B0EE489A 		fcpys	s18, s16
 1709              	.LBE74:
 1710              	.LBB75:
ARM GAS  /tmp/ccPVkQgB.s 			page 31


 1711              		.loc 1 348 0 discriminator 3
 1712 0b2e B7EE00BA 		fconsts	s22, #112
 1713              	.L74:
 1714              	.LVL223:
 1715              		.loc 1 345 0 discriminator 3
 1716 0b32 FFF7FEFF 		bl	mcpwm_foc_get_vq
 1717              	.LVL224:
 1718 0b36 39EE009A 		fadds	s18, s18, s0
 1719              	.LVL225:
 1720              		.loc 1 346 0 discriminator 3
 1721 0b3a FFF7FEFF 		bl	mc_interface_get_rpm
 1722              	.LVL226:
 1723 0b3e 78EE808A 		fadds	s17, s17, s0
 1724              	.LVL227:
 1725              		.loc 1 347 0 discriminator 3
 1726 0b42 FFF7FEFF 		bl	mc_interface_get_tot_current_directional
 1727              	.LVL228:
 1728              		.loc 1 349 0 discriminator 3
 1729 0b46 0A20     		movs	r0, #10
 1730              		.loc 1 347 0 discriminator 3
 1731 0b48 38EE008A 		fadds	s16, s16, s0
 1732              	.LVL229:
 1733              		.loc 1 349 0 discriminator 3
 1734 0b4c FFF7FEFF 		bl	chThdSleep
 1735              	.LVL230:
 1736              		.loc 1 344 0 discriminator 3
 1737 0b50 013C     		subs	r4, r4, #1
 1738              	.LVL231:
 1739              		.loc 1 348 0 discriminator 3
 1740 0b52 79EE8B9A 		fadds	s19, s19, s22
 1741              	.LVL232:
 1742              		.loc 1 344 0 discriminator 3
 1743 0b56 ECD1     		bne	.L74
 1744              	.LBE75:
 1745              		.loc 1 352 0
 1746 0b58 FFF7FEFF 		bl	mc_interface_release_motor
 1747              	.LVL233:
 1748              		.loc 1 353 0
 1749 0b5c 2148     		ldr	r0, .L144+40
 1750 0b5e FFF7FEFF 		bl	mc_interface_set_configuration
 1751              	.LVL234:
 1752              		.loc 1 356 0
 1753 0b62 3846     		mov	r0, r7
 1754 0b64 B0EE6A0A 		fcpys	s0, s21
 1755 0b68 FFF7FEFF 		bl	timeout_configure
 1756              	.LVL235:
 1757              		.loc 1 358 0
 1758 0b6c 89EE297A 		fdivs	s14, s18, s19
 1759              	.LVL236:
 1760              		.loc 1 360 0
 1761 0b70 88EE298A 		fdivs	s16, s16, s19
 1762              	.LVL237:
 1763              		.loc 1 359 0
 1764 0b74 C8EEA98A 		fdivs	s17, s17, s19
 1765              	.LVL238:
 1766              		.loc 1 362 0
 1767 0b78 AAEE487A 		vfms.f32	s14, s20, s16
ARM GAS  /tmp/ccPVkQgB.s 			page 32


 1768              	.LVL239:
 1769 0b7c DFED1A7A 		flds	s15, .L144+44
 1770 0b80 68EEA77A 		fmuls	s15, s17, s15
 1771              		.loc 1 364 0
 1772 0b84 C7EE277A 		fdivs	s15, s14, s15
 1773 0b88 17EE900A 		fmrs	r0, s15
 1774 0b8c 6DE7     		b	.L112
 1775              	.LVL240:
 1776              	.L136:
 1777              	.LBE76:
 1778              	.LBE107:
 1779              	.LBB108:
 1780              		.loc 1 310 0 discriminator 20
 1781 0b8e 0E4B     		ldr	r3, .L144+12
 1782 0b90 0222     		movs	r2, #2
 1783              		.loc 1 311 0 discriminator 20
 1784 0b92 1846     		mov	r0, r3
 1785              		.loc 1 310 0 discriminator 20
 1786 0b94 9A70     		strb	r2, [r3, #2]
 1787              		.loc 1 311 0 discriminator 20
 1788 0b96 FFF7FEFF 		bl	mc_interface_set_configuration
 1789              	.LVL241:
 1790              		.loc 1 313 0 discriminator 20
 1791 0b9a 0023     		movs	r3, #0
 1792              		.loc 1 315 0 discriminator 20
 1793 0b9c 0DA9     		add	r1, sp, #52
 1794 0b9e 0CA8     		add	r0, sp, #48
 1795              		.loc 1 313 0 discriminator 20
 1796 0ba0 0C93     		str	r3, [sp, #48]	@ float
 1797              		.loc 1 314 0 discriminator 20
 1798 0ba2 0D93     		str	r3, [sp, #52]	@ float
 1799              		.loc 1 315 0 discriminator 20
 1800 0ba4 FFF7FEFF 		bl	mcpwm_foc_measure_res_ind
 1801              	.LVL242:
 1802              		.loc 1 316 0 discriminator 20
 1803 0ba8 0C98     		ldr	r0, [sp, #48]	@ float
 1804 0baa FFF7FEFF 		bl	__aeabi_f2d
 1805              	.LVL243:
 1806 0bae 0246     		mov	r2, r0
 1807 0bb0 0B46     		mov	r3, r1
 1808 0bb2 0E48     		ldr	r0, .L144+48
 1809 0bb4 FFF7FEFF 		bl	commands_printf
 1810              	.LVL244:
 1811              		.loc 1 317 0 discriminator 20
 1812 0bb8 0D98     		ldr	r0, [sp, #52]	@ float
 1813 0bba B4E6     		b	.L111
 1814              	.L145:
 1815              		.align	2
 1816              	.L144:
 1817 0bbc 68080000 		.word	.LC94
 1818 0bc0 000080BF 		.word	-1082130432
 1819 0bc4 EC040000 		.word	.LC61
 1820 0bc8 00000000 		.word	.LANCHOR0
 1821 0bcc 0AD7A33C 		.word	1017370378
 1822 0bd0 78080000 		.word	.LC95
 1823 0bd4 8C080000 		.word	.LC96
 1824 0bd8 B4080000 		.word	.LC98
ARM GAS  /tmp/ccPVkQgB.s 			page 33


 1825 0bdc 0000C842 		.word	1120403456
 1826 0be0 00000000 		.word	0
 1827 0be4 00000000 		.word	.LANCHOR1
 1828 0be8 5077D63D 		.word	1037465424
 1829 0bec 9C080000 		.word	.LC97
 1830              	.L70:
 1831              	.LBE108:
 1832              		.loc 1 371 0
 1833 0bf0 2846     		mov	r0, r5
 1834 0bf2 5A49     		ldr	r1, .L146
 1835 0bf4 FFF7FEFF 		bl	strcmp
 1836              	.LVL245:
 1837 0bf8 0028     		cmp	r0, #0
 1838 0bfa 00F0A880 		beq	.L137
 1839              		.loc 1 377 0
 1840 0bfe 2846     		mov	r0, r5
 1841 0c00 5749     		ldr	r1, .L146+4
 1842 0c02 FFF7FEFF 		bl	strcmp
 1843              	.LVL246:
 1844 0c06 0028     		cmp	r0, #0
 1845 0c08 40F09B80 		bne	.L77
 1846              		.loc 1 378 0
 1847 0c0c 5548     		ldr	r0, .L146+8
 1848 0c0e FFF7FEFF 		bl	commands_printf
 1849              	.LVL247:
 1850              		.loc 1 379 0
 1851 0c12 5348     		ldr	r0, .L146+4
 1852 0c14 FFF7FEFF 		bl	commands_printf
 1853              	.LVL248:
 1854              		.loc 1 380 0
 1855 0c18 5348     		ldr	r0, .L146+12
 1856 0c1a FFF7FEFF 		bl	commands_printf
 1857              	.LVL249:
 1858              		.loc 1 382 0
 1859 0c1e 5348     		ldr	r0, .L146+16
 1860 0c20 FFF7FEFF 		bl	commands_printf
 1861              	.LVL250:
 1862              		.loc 1 383 0
 1863 0c24 5248     		ldr	r0, .L146+20
 1864 0c26 FFF7FEFF 		bl	commands_printf
 1865              	.LVL251:
 1866              		.loc 1 385 0
 1867 0c2a 5248     		ldr	r0, .L146+24
 1868 0c2c FFF7FEFF 		bl	commands_printf
 1869              	.LVL252:
 1870              		.loc 1 386 0
 1871 0c30 5148     		ldr	r0, .L146+28
 1872 0c32 FFF7FEFF 		bl	commands_printf
 1873              	.LVL253:
 1874              		.loc 1 388 0
 1875 0c36 5148     		ldr	r0, .L146+32
 1876 0c38 FFF7FEFF 		bl	commands_printf
 1877              	.LVL254:
 1878              		.loc 1 389 0
 1879 0c3c 5048     		ldr	r0, .L146+36
 1880 0c3e FFF7FEFF 		bl	commands_printf
 1881              	.LVL255:
ARM GAS  /tmp/ccPVkQgB.s 			page 34


 1882              		.loc 1 391 0
 1883 0c42 5048     		ldr	r0, .L146+40
 1884 0c44 FFF7FEFF 		bl	commands_printf
 1885              	.LVL256:
 1886              		.loc 1 392 0
 1887 0c48 4F48     		ldr	r0, .L146+44
 1888 0c4a FFF7FEFF 		bl	commands_printf
 1889              	.LVL257:
 1890              		.loc 1 394 0
 1891 0c4e 4F48     		ldr	r0, .L146+48
 1892 0c50 FFF7FEFF 		bl	commands_printf
 1893              	.LVL258:
 1894              		.loc 1 395 0
 1895 0c54 4E48     		ldr	r0, .L146+52
 1896 0c56 FFF7FEFF 		bl	commands_printf
 1897              	.LVL259:
 1898              		.loc 1 397 0
 1899 0c5a 4E48     		ldr	r0, .L146+56
 1900 0c5c FFF7FEFF 		bl	commands_printf
 1901              	.LVL260:
 1902              		.loc 1 398 0
 1903 0c60 4D48     		ldr	r0, .L146+60
 1904 0c62 FFF7FEFF 		bl	commands_printf
 1905              	.LVL261:
 1906              		.loc 1 400 0
 1907 0c66 4D48     		ldr	r0, .L146+64
 1908 0c68 FFF7FEFF 		bl	commands_printf
 1909              	.LVL262:
 1910              		.loc 1 401 0
 1911 0c6c 4C48     		ldr	r0, .L146+68
 1912 0c6e FFF7FEFF 		bl	commands_printf
 1913              	.LVL263:
 1914              		.loc 1 403 0
 1915 0c72 4C48     		ldr	r0, .L146+72
 1916 0c74 FFF7FEFF 		bl	commands_printf
 1917              	.LVL264:
 1918              		.loc 1 404 0
 1919 0c78 4B48     		ldr	r0, .L146+76
 1920 0c7a FFF7FEFF 		bl	commands_printf
 1921              	.LVL265:
 1922              		.loc 1 406 0
 1923 0c7e 4B48     		ldr	r0, .L146+80
 1924 0c80 FFF7FEFF 		bl	commands_printf
 1925              	.LVL266:
 1926              		.loc 1 407 0
 1927 0c84 4A48     		ldr	r0, .L146+84
 1928 0c86 FFF7FEFF 		bl	commands_printf
 1929              	.LVL267:
 1930              		.loc 1 409 0
 1931 0c8a 4A48     		ldr	r0, .L146+88
 1932 0c8c FFF7FEFF 		bl	commands_printf
 1933              	.LVL268:
 1934              		.loc 1 410 0
 1935 0c90 4948     		ldr	r0, .L146+92
 1936 0c92 FFF7FEFF 		bl	commands_printf
 1937              	.LVL269:
 1938              		.loc 1 412 0
ARM GAS  /tmp/ccPVkQgB.s 			page 35


 1939 0c96 4948     		ldr	r0, .L146+96
 1940 0c98 FFF7FEFF 		bl	commands_printf
 1941              	.LVL270:
 1942              		.loc 1 413 0
 1943 0c9c 4848     		ldr	r0, .L146+100
 1944 0c9e FFF7FEFF 		bl	commands_printf
 1945              	.LVL271:
 1946              		.loc 1 415 0
 1947 0ca2 4848     		ldr	r0, .L146+104
 1948 0ca4 FFF7FEFF 		bl	commands_printf
 1949              	.LVL272:
 1950              		.loc 1 416 0
 1951 0ca8 4748     		ldr	r0, .L146+108
 1952 0caa FFF7FEFF 		bl	commands_printf
 1953              	.LVL273:
 1954              		.loc 1 418 0
 1955 0cae 4748     		ldr	r0, .L146+112
 1956 0cb0 FFF7FEFF 		bl	commands_printf
 1957              	.LVL274:
 1958              		.loc 1 419 0
 1959 0cb4 4648     		ldr	r0, .L146+116
 1960 0cb6 FFF7FEFF 		bl	commands_printf
 1961              	.LVL275:
 1962              		.loc 1 420 0
 1963 0cba 4648     		ldr	r0, .L146+120
 1964 0cbc FFF7FEFF 		bl	commands_printf
 1965              	.LVL276:
 1966              		.loc 1 421 0
 1967 0cc0 4548     		ldr	r0, .L146+124
 1968 0cc2 FFF7FEFF 		bl	commands_printf
 1969              	.LVL277:
 1970              		.loc 1 423 0
 1971 0cc6 4548     		ldr	r0, .L146+128
 1972 0cc8 FFF7FEFF 		bl	commands_printf
 1973              	.LVL278:
 1974              		.loc 1 424 0
 1975 0ccc 4448     		ldr	r0, .L146+132
 1976 0cce FFF7FEFF 		bl	commands_printf
 1977              	.LVL279:
 1978              		.loc 1 426 0
 1979 0cd2 4448     		ldr	r0, .L146+136
 1980 0cd4 FFF7FEFF 		bl	commands_printf
 1981              	.LVL280:
 1982              		.loc 1 427 0
 1983 0cd8 4348     		ldr	r0, .L146+140
 1984 0cda FFF7FEFF 		bl	commands_printf
 1985              	.LVL281:
 1986              		.loc 1 429 0
 1987 0cde 4348     		ldr	r0, .L146+144
 1988 0ce0 FFF7FEFF 		bl	commands_printf
 1989              	.LVL282:
 1990              		.loc 1 430 0
 1991 0ce4 4248     		ldr	r0, .L146+148
 1992 0ce6 FFF7FEFF 		bl	commands_printf
 1993              	.LVL283:
 1994              		.loc 1 432 0
 1995 0cea 4248     		ldr	r0, .L146+152
ARM GAS  /tmp/ccPVkQgB.s 			page 36


 1996 0cec FFF7FEFF 		bl	commands_printf
 1997              	.LVL284:
 1998              		.loc 1 433 0
 1999 0cf0 4148     		ldr	r0, .L146+156
 2000 0cf2 FFF7FEFF 		bl	commands_printf
 2001              	.LVL285:
 2002              		.loc 1 435 0
 2003 0cf6 4148     		ldr	r0, .L146+160
 2004 0cf8 FFF7FEFF 		bl	commands_printf
 2005              	.LVL286:
 2006              		.loc 1 436 0
 2007 0cfc 4048     		ldr	r0, .L146+164
 2008 0cfe FFF7FEFF 		bl	commands_printf
 2009              	.LVL287:
 2010              		.loc 1 438 0
 2011 0d02 4048     		ldr	r0, .L146+168
 2012 0d04 FFF7FEFF 		bl	commands_printf
 2013              	.LVL288:
 2014              		.loc 1 439 0
 2015 0d08 3F48     		ldr	r0, .L146+172
 2016 0d0a FFF7FEFF 		bl	commands_printf
 2017              	.LVL289:
 2018              		.loc 1 440 0
 2019 0d0e 3F48     		ldr	r0, .L146+176
 2020 0d10 FFF7FEFF 		bl	commands_printf
 2021              	.LVL290:
 2022              		.loc 1 441 0
 2023 0d14 3E48     		ldr	r0, .L146+180
 2024 0d16 FFF7FEFF 		bl	commands_printf
 2025              	.LVL291:
 2026              		.loc 1 443 0
 2027 0d1a 3E48     		ldr	r0, .L146+184
 2028 0d1c FFF7FEFF 		bl	commands_printf
 2029              	.LVL292:
 2030              		.loc 1 444 0
 2031 0d20 3D48     		ldr	r0, .L146+188
 2032 0d22 FFF7FEFF 		bl	commands_printf
 2033              	.LVL293:
 2034              		.loc 1 446 0
 2035 0d26 3D48     		ldr	r0, .L146+192
 2036 0d28 FFF7FEFF 		bl	commands_printf
 2037              	.LVL294:
 2038              		.loc 1 447 0
 2039 0d2c 3C48     		ldr	r0, .L146+196
 2040 0d2e FFF7FEFF 		bl	commands_printf
 2041              	.LVL295:
 2042              		.loc 1 449 0
 2043 0d32 0A48     		ldr	r0, .L146
 2044 0d34 FFF7FEFF 		bl	commands_printf
 2045              	.LVL296:
 2046              		.loc 1 450 0
 2047 0d38 3A48     		ldr	r0, .L146+200
 2048 0d3a FFF7FEFF 		bl	commands_printf
 2049              	.LVL297:
 2050 0d3e FFF7E8B9 		b	.L1
 2051              	.L77:
 2052              		.loc 1 452 0
ARM GAS  /tmp/ccPVkQgB.s 			page 37


 2053 0d42 2946     		mov	r1, r5
 2054 0d44 3848     		ldr	r0, .L146+204
 2055 0d46 FFF7FEFF 		bl	commands_printf
 2056              	.LVL298:
 2057 0d4a FFF7E2B9 		b	.L1
 2058              	.L137:
 2059              		.loc 1 372 0
 2060 0d4e FFF7FEFF 		bl	mcpwm_foc_print_state
 2061              	.LVL299:
 2062              		.loc 1 373 0
 2063 0d52 3648     		ldr	r0, .L146+208
 2064 0d54 FFF7FEFF 		bl	commands_printf
 2065              	.LVL300:
 2066 0d58 FFF7DBB9 		b	.L1
 2067              	.L147:
 2068              		.align	2
 2069              	.L146:
 2070 0d5c C8080000 		.word	.LC99
 2071 0d60 D4080000 		.word	.LC100
 2072 0d64 DC080000 		.word	.LC101
 2073 0d68 F0080000 		.word	.LC102
 2074 0d6c 2C000000 		.word	.LC4
 2075 0d70 04090000 		.word	.LC103
 2076 0d74 3C000000 		.word	.LC6
 2077 0d78 30090000 		.word	.LC104
 2078 0d7c 54000000 		.word	.LC8
 2079 0d80 44090000 		.word	.LC105
 2080 0d84 D8000000 		.word	.LC12
 2081 0d88 74090000 		.word	.LC106
 2082 0d8c FC000000 		.word	.LC14
 2083 0d90 98090000 		.word	.LC107
 2084 0d94 54010000 		.word	.LC18
 2085 0d98 AC090000 		.word	.LC108
 2086 0d9c 04020000 		.word	.LC23
 2087 0da0 C0090000 		.word	.LC109
 2088 0da4 10020000 		.word	.LC25
 2089 0da8 E0090000 		.word	.LC110
 2090 0dac C4030000 		.word	.LC42
 2091 0db0 240A0000 		.word	.LC111
 2092 0db4 E4030000 		.word	.LC44
 2093 0db8 480A0000 		.word	.LC112
 2094 0dbc 04040000 		.word	.LC46
 2095 0dc0 640A0000 		.word	.LC113
 2096 0dc4 BC040000 		.word	.LC58
 2097 0dc8 840A0000 		.word	.LC114
 2098 0dcc A00A0000 		.word	.LC115
 2099 0dd0 CC0A0000 		.word	.LC116
 2100 0dd4 100B0000 		.word	.LC117
 2101 0dd8 4C0B0000 		.word	.LC118
 2102 0ddc 5C060000 		.word	.LC72
 2103 0de0 740B0000 		.word	.LC119
 2104 0de4 B8060000 		.word	.LC76
 2105 0de8 940B0000 		.word	.LC120
 2106 0dec D00B0000 		.word	.LC121
 2107 0df0 F00B0000 		.word	.LC122
 2108 0df4 340C0000 		.word	.LC123
 2109 0df8 4C0C0000 		.word	.LC124
ARM GAS  /tmp/ccPVkQgB.s 			page 38


 2110 0dfc 8C0C0000 		.word	.LC125
 2111 0e00 A00C0000 		.word	.LC126
 2112 0e04 F40C0000 		.word	.LC127
 2113 0e08 2C0D0000 		.word	.LC128
 2114 0e0c 6C0D0000 		.word	.LC129
 2115 0e10 980D0000 		.word	.LC130
 2116 0e14 8C080000 		.word	.LC96
 2117 0e18 D00D0000 		.word	.LC131
 2118 0e1c 280E0000 		.word	.LC132
 2119 0e20 440E0000 		.word	.LC133
 2120 0e24 7C0E0000 		.word	.LC134
 2121 0e28 A00E0000 		.word	.LC135
 2122 0e2c 10000000 		.word	.LC2
 2123              		.cfi_endproc
 2124              	.LFE256:
 2125              		.size	terminal_process_string, .-terminal_process_string
 2126              		.section	.text.terminal_add_fault_data,"ax",%progbits
 2127              		.align	2
 2128              		.p2align 4,,15
 2129              		.global	terminal_add_fault_data
 2130              		.thumb
 2131              		.thumb_func
 2132              		.type	terminal_add_fault_data, %function
 2133              	terminal_add_fault_data:
 2134              	.LFB257:
 2135              		.loc 1 457 0
 2136              		.cfi_startproc
 2137              		@ args = 0, pretend = 0, frame = 0
 2138              		@ frame_needed = 0, uses_anonymous_args = 0
 2139              	.LVL301:
 2140 0000 F0B5     		push	{r4, r5, r6, r7, lr}
 2141              		.cfi_def_cfa_offset 20
 2142              		.cfi_offset 4, -20
 2143              		.cfi_offset 5, -16
 2144              		.cfi_offset 6, -12
 2145              		.cfi_offset 7, -8
 2146              		.cfi_offset 14, -4
 2147              		.loc 1 458 0
 2148 0002 0646     		mov	r6, r0
 2149 0004 0FCE     		ldmia	r6!, {r0, r1, r2, r3}
 2150              	.LVL302:
 2151 0006 0C4F     		ldr	r7, .L151
 2152 0008 0C4C     		ldr	r4, .L151+4
 2153 000a 3D68     		ldr	r5, [r7]
 2154 000c 4FF0340C 		mov	ip, #52
 2155 0010 05F1010E 		add	lr, r5, #1
 2156 0014 0CFB0544 		mla	r4, ip, r5, r4
 2157 0018 C7F800E0 		str	lr, [r7]
 2158 001c 0FC4     		stmia	r4!, {r0, r1, r2, r3}
 2159 001e 0FCE     		ldmia	r6!, {r0, r1, r2, r3}
 2160              	.LVL303:
 2161 0020 0FC4     		stmia	r4!, {r0, r1, r2, r3}
 2162 0022 0FCE     		ldmia	r6!, {r0, r1, r2, r3}
 2163              	.LVL304:
 2164 0024 0FC4     		stmia	r4!, {r0, r1, r2, r3}
 2165 0026 3368     		ldr	r3, [r6]
 2166 0028 2360     		str	r3, [r4]
ARM GAS  /tmp/ccPVkQgB.s 			page 39


 2167              		.loc 1 459 0
 2168 002a 3B68     		ldr	r3, [r7]
 2169 002c 182B     		cmp	r3, #24
 2170              		.loc 1 460 0
 2171 002e C4BF     		itt	gt
 2172 0030 0023     		movgt	r3, #0
 2173 0032 3B60     		strgt	r3, [r7]
 2174 0034 F0BD     		pop	{r4, r5, r6, r7, pc}
 2175              	.LVL305:
 2176              	.L152:
 2177 0036 00BF     		.align	2
 2178              	.L151:
 2179 0038 00000000 		.word	.LANCHOR3
 2180 003c 00000000 		.word	.LANCHOR4
 2181              		.cfi_endproc
 2182              	.LFE257:
 2183              		.size	terminal_add_fault_data, .-terminal_add_fault_data
 2184              		.section	.bss.mcconf_old.11180,"aw",%nobits
 2185              		.align	2
 2186              		.set	.LANCHOR1,. + 0
 2187              		.type	mcconf_old.11180, %object
 2188              		.size	mcconf_old.11180, 312
 2189              	mcconf_old.11180:
 2190 0000 00000000 		.space	312
 2190      00000000 
 2190      00000000 
 2190      00000000 
 2190      00000000 
 2191              		.section	.bss.mcconf.11179,"aw",%nobits
 2192              		.align	2
 2193              		.set	.LANCHOR0,. + 0
 2194              		.type	mcconf.11179, %object
 2195              		.size	mcconf.11179, 312
 2196              	mcconf.11179:
 2197 0000 00000000 		.space	312
 2197      00000000 
 2197      00000000 
 2197      00000000 
 2197      00000000 
 2198              		.section	.bss.fault_vec_write,"aw",%nobits
 2199              		.align	2
 2200              		.set	.LANCHOR3,. + 0
 2201              		.type	fault_vec_write, %object
 2202              		.size	fault_vec_write, 4
 2203              	fault_vec_write:
 2204 0000 00000000 		.space	4
 2205              		.section	.rodata.str1.4,"aMS",%progbits,1
 2206              		.align	2
 2207              	.LC0:
 2208 0000 74727565 		.ascii	"true\000"
 2208      00
 2209 0005 000000   		.space	3
 2210              	.LC1:
 2211 0008 66616C73 		.ascii	"false\000"
 2211      6500
 2212 000e 0000     		.space	2
 2213              	.LC2:
ARM GAS  /tmp/ccPVkQgB.s 			page 40


 2214 0010 2000     		.ascii	" \000"
 2215 0012 0000     		.space	2
 2216              	.LC3:
 2217 0014 4E6F2063 		.ascii	"No command received\012\000"
 2217      6F6D6D61 
 2217      6E642072 
 2217      65636569 
 2217      7665640A 
 2218 0029 000000   		.space	3
 2219              	.LC4:
 2220 002c 70696E67 		.ascii	"ping\000"
 2220      00
 2221 0031 000000   		.space	3
 2222              	.LC5:
 2223 0034 706F6E67 		.ascii	"pong\012\000"
 2223      0A00
 2224 003a 0000     		.space	2
 2225              	.LC6:
 2226 003c 73746F70 		.ascii	"stop\000"
 2226      00
 2227 0041 000000   		.space	3
 2228              	.LC7:
 2229 0044 4D6F746F 		.ascii	"Motor stopped\012\000"
 2229      72207374 
 2229      6F707065 
 2229      640A00
 2230 0053 00       		.space	1
 2231              	.LC8:
 2232 0054 6C617374 		.ascii	"last_adc_duration\000"
 2232      5F616463 
 2232      5F647572 
 2232      6174696F 
 2232      6E00
 2233 0066 0000     		.space	2
 2234              	.LC9:
 2235 0068 4C617465 		.ascii	"Latest ADC duration: %.4f ms\000"
 2235      73742041 
 2235      44432064 
 2235      75726174 
 2235      696F6E3A 
 2236 0085 000000   		.space	3
 2237              	.LC10:
 2238 0088 4C617465 		.ascii	"Latest injected ADC duration: %.4f ms\000"
 2238      73742069 
 2238      6E6A6563 
 2238      74656420 
 2238      41444320 
 2239 00ae 0000     		.space	2
 2240              	.LC11:
 2241 00b0 4C617465 		.ascii	"Latest sample ADC duration: %.4f ms\012\000"
 2241      73742073 
 2241      616D706C 
 2241      65204144 
 2241      43206475 
 2242 00d5 000000   		.space	3
 2243              	.LC12:
 2244 00d8 6B7600   		.ascii	"kv\000"
ARM GAS  /tmp/ccPVkQgB.s 			page 41


 2245 00db 00       		.space	1
 2246              	.LC13:
 2247 00dc 43616C63 		.ascii	"Calculated KV: %.2f rpm/volt\012\000"
 2247      756C6174 
 2247      6564204B 
 2247      563A2025 
 2247      2E326620 
 2248 00fa 0000     		.space	2
 2249              	.LC14:
 2250 00fc 6D656D00 		.ascii	"mem\000"
 2251              	.LC15:
 2252 0100 636F7265 		.ascii	"core free memory : %u bytes\000"
 2252      20667265 
 2252      65206D65 
 2252      6D6F7279 
 2252      203A2025 
 2253              	.LC16:
 2254 011c 68656170 		.ascii	"heap fragments   : %u\000"
 2254      20667261 
 2254      676D656E 
 2254      74732020 
 2254      203A2025 
 2255 0132 0000     		.space	2
 2256              	.LC17:
 2257 0134 68656170 		.ascii	"heap free total  : %u bytes\012\000"
 2257      20667265 
 2257      6520746F 
 2257      74616C20 
 2257      203A2025 
 2258 0151 000000   		.space	3
 2259              	.LC18:
 2260 0154 74687265 		.ascii	"threads\000"
 2260      61647300 
 2261              	.LC19:
 2262 015c 20202020 		.ascii	"    addr    stack prio refs     state           nam"
 2262      61646472 
 2262      20202020 
 2262      73746163 
 2262      6B207072 
 2263 018f 65207469 		.ascii	"e time    \000"
 2263      6D652020 
 2263      202000
 2264 019a 0000     		.space	2
 2265              	.LC20:
 2266 019c 2D2D2D2D 		.ascii	"---------------------------------------------------"
 2266      2D2D2D2D 
 2266      2D2D2D2D 
 2266      2D2D2D2D 
 2266      2D2D2D2D 
 2267 01cf 2D2D2D2D 		.ascii	"----------\000"
 2267      2D2D2D2D 
 2267      2D2D00
 2268 01da 0000     		.space	2
 2269              	.LC21:
 2270 01dc 252E386C 		.ascii	"%.8lx %.8lx %4lu %4lu %9s %14s %lu\000"
 2270      7820252E 
 2270      386C7820 
ARM GAS  /tmp/ccPVkQgB.s 			page 42


 2270      25346C75 
 2270      2025346C 
 2271 01ff 00       		.space	1
 2272              	.LC22:
 2273 0200 00       		.ascii	"\000"
 2274 0201 000000   		.space	3
 2275              	.LC23:
 2276 0204 6661756C 		.ascii	"fault\000"
 2276      7400
 2277 020a 0000     		.space	2
 2278              	.LC24:
 2279 020c 25730A00 		.ascii	"%s\012\000"
 2280              	.LC25:
 2281 0210 6661756C 		.ascii	"faults\000"
 2281      747300
 2282 0217 00       		.space	1
 2283              	.LC26:
 2284 0218 4E6F2066 		.ascii	"No faults registered since startup\012\000"
 2284      61756C74 
 2284      73207265 
 2284      67697374 
 2284      65726564 
 2285              	.LC27:
 2286 023c 54686520 		.ascii	"The following faults were registered since start:\012"
 2286      666F6C6C 
 2286      6F77696E 
 2286      67206661 
 2286      756C7473 
 2287 026e 00       		.ascii	"\000"
 2288 026f 00       		.space	1
 2289              	.LC28:
 2290 0270 4661756C 		.ascii	"Fault            : %s\000"
 2290      74202020 
 2290      20202020 
 2290      20202020 
 2290      203A2025 
 2291 0286 0000     		.space	2
 2292              	.LC29:
 2293 0288 43757272 		.ascii	"Current          : %.1f\000"
 2293      656E7420 
 2293      20202020 
 2293      20202020 
 2293      203A2025 
 2294              	.LC30:
 2295 02a0 43757272 		.ascii	"Current filtered : %.1f\000"
 2295      656E7420 
 2295      66696C74 
 2295      65726564 
 2295      203A2025 
 2296              	.LC31:
 2297 02b8 566F6C74 		.ascii	"Voltage          : %.2f\000"
 2297      61676520 
 2297      20202020 
 2297      20202020 
 2297      203A2025 
 2298              	.LC32:
 2299 02d0 44757479 		.ascii	"Duty             : %.2f\000"
ARM GAS  /tmp/ccPVkQgB.s 			page 43


 2299      20202020 
 2299      20202020 
 2299      20202020 
 2299      203A2025 
 2300              	.LC33:
 2301 02e8 52504D20 		.ascii	"RPM              : %.1f\000"
 2301      20202020 
 2301      20202020 
 2301      20202020 
 2301      203A2025 
 2302              	.LC34:
 2303 0300 54616368 		.ascii	"Tacho            : %d\000"
 2303      6F202020 
 2303      20202020 
 2303      20202020 
 2303      203A2025 
 2304 0316 0000     		.space	2
 2305              	.LC35:
 2306 0318 4379636C 		.ascii	"Cycles running   : %d\000"
 2306      65732072 
 2306      756E6E69 
 2306      6E672020 
 2306      203A2025 
 2307 032e 0000     		.space	2
 2308              	.LC36:
 2309 0330 54494D20 		.ascii	"TIM duty         : %d\000"
 2309      64757479 
 2309      20202020 
 2309      20202020 
 2309      203A2025 
 2310 0346 0000     		.space	2
 2311              	.LC37:
 2312 0348 54494D20 		.ascii	"TIM val samp     : %d\000"
 2312      76616C20 
 2312      73616D70 
 2312      20202020 
 2312      203A2025 
 2313 035e 0000     		.space	2
 2314              	.LC38:
 2315 0360 54494D20 		.ascii	"TIM current samp : %d\000"
 2315      63757272 
 2315      656E7420 
 2315      73616D70 
 2315      203A2025 
 2316 0376 0000     		.space	2
 2317              	.LC39:
 2318 0378 54494D20 		.ascii	"TIM top          : %d\000"
 2318      746F7020 
 2318      20202020 
 2318      20202020 
 2318      203A2025 
 2319 038e 0000     		.space	2
 2320              	.LC40:
 2321 0390 436F6D6D 		.ascii	"Comm step        : %d\000"
 2321      20737465 
 2321      70202020 
 2321      20202020 
ARM GAS  /tmp/ccPVkQgB.s 			page 44


 2321      203A2025 
 2322 03a6 0000     		.space	2
 2323              	.LC41:
 2324 03a8 54656D70 		.ascii	"Temperature      : %.2f\012\000"
 2324      65726174 
 2324      75726520 
 2324      20202020 
 2324      203A2025 
 2325 03c1 000000   		.space	3
 2326              	.LC42:
 2327 03c4 72706D00 		.ascii	"rpm\000"
 2328              	.LC43:
 2329 03c8 456C6563 		.ascii	"Electrical RPM: %.2f rpm\012\000"
 2329      74726963 
 2329      616C2052 
 2329      504D3A20 
 2329      252E3266 
 2330 03e2 0000     		.space	2
 2331              	.LC44:
 2332 03e4 74616368 		.ascii	"tacho\000"
 2332      6F00
 2333 03ea 0000     		.space	2
 2334              	.LC45:
 2335 03ec 54616368 		.ascii	"Tachometer counts: %i\012\000"
 2335      6F6D6574 
 2335      65722063 
 2335      6F756E74 
 2335      733A2025 
 2336 0403 00       		.space	1
 2337              	.LC46:
 2338 0404 74696D00 		.ascii	"tim\000"
 2339              	.LC47:
 2340 0408 54696D31 		.ascii	"Tim1 CNT: %i\000"
 2340      20434E54 
 2340      3A202569 
 2340      00
 2341 0415 000000   		.space	3
 2342              	.LC48:
 2343 0418 54696D38 		.ascii	"Tim8 CNT: %u\000"
 2343      20434E54 
 2343      3A202575 
 2343      00
 2344 0425 000000   		.space	3
 2345              	.LC49:
 2346 0428 44757479 		.ascii	"Duty cycle1: %u\000"
 2346      20637963 
 2346      6C65313A 
 2346      20257500 
 2347              	.LC50:
 2348 0438 44757479 		.ascii	"Duty cycle2: %u\000"
 2348      20637963 
 2348      6C65323A 
 2348      20257500 
 2349              	.LC51:
 2350 0448 44757479 		.ascii	"Duty cycle3: %u\000"
 2350      20637963 
 2350      6C65333A 
ARM GAS  /tmp/ccPVkQgB.s 			page 45


 2350      20257500 
 2351              	.LC52:
 2352 0458 546F703A 		.ascii	"Top: %u\000"
 2352      20257500 
 2353              	.LC53:
 2354 0460 44697231 		.ascii	"Dir1: %u\000"
 2354      3A202575 
 2354      00
 2355 0469 000000   		.space	3
 2356              	.LC54:
 2357 046c 44697238 		.ascii	"Dir8: %u\000"
 2357      3A202575 
 2357      00
 2358 0475 000000   		.space	3
 2359              	.LC55:
 2360 0478 566F6C74 		.ascii	"Voltage sample: %u\000"
 2360      61676520 
 2360      73616D70 
 2360      6C653A20 
 2360      257500
 2361 048b 00       		.space	1
 2362              	.LC56:
 2363 048c 43757272 		.ascii	"Current 1 sample: %u\000"
 2363      656E7420 
 2363      31207361 
 2363      6D706C65 
 2363      3A202575 
 2364 04a1 000000   		.space	3
 2365              	.LC57:
 2366 04a4 43757272 		.ascii	"Current 2 sample: %u\012\000"
 2366      656E7420 
 2366      32207361 
 2366      6D706C65 
 2366      3A202575 
 2367 04ba 0000     		.space	2
 2368              	.LC58:
 2369 04bc 766F6C74 		.ascii	"volt\000"
 2369      00
 2370 04c1 000000   		.space	3
 2371              	.LC59:
 2372 04c4 496E7075 		.ascii	"Input voltage: %.2f\012\000"
 2372      7420766F 
 2372      6C746167 
 2372      653A2025 
 2372      2E32660A 
 2373 04d9 000000   		.space	3
 2374              	.LC60:
 2375 04dc 70617261 		.ascii	"param_detect\000"
 2375      6D5F6465 
 2375      74656374 
 2375      00
 2376 04e9 000000   		.space	3
 2377              	.LC61:
 2378 04ec 256600   		.ascii	"%f\000"
 2379 04ef 00       		.space	1
 2380              	.LC62:
 2381 04f0 4379636C 		.ascii	"Cycle integrator limit: %.2f\000"
ARM GAS  /tmp/ccPVkQgB.s 			page 46


 2381      6520696E 
 2381      74656772 
 2381      61746F72 
 2381      206C696D 
 2382 050d 000000   		.space	3
 2383              	.LC63:
 2384 0510 436F7570 		.ascii	"Coupling factor: %.2f\000"
 2384      6C696E67 
 2384      20666163 
 2384      746F723A 
 2384      20252E32 
 2385 0526 0000     		.space	2
 2386              	.LC64:
 2387 0528 44657465 		.ascii	"Detected hall sensor table:\000"
 2387      63746564 
 2387      2068616C 
 2387      6C207365 
 2387      6E736F72 
 2388              	.LC65:
 2389 0544 25692C20 		.ascii	"%i, %i, %i, %i, %i, %i, %i, %i\012\000"
 2389      25692C20 
 2389      25692C20 
 2389      25692C20 
 2389      25692C20 
 2390              	.LC66:
 2391 0564 48616C6C 		.ascii	"Hall sensor detection failed:\000"
 2391      2073656E 
 2391      736F7220 
 2391      64657465 
 2391      6374696F 
 2392 0582 0000     		.space	2
 2393              	.LC67:
 2394 0584 57533238 		.ascii	"WS2811 enabled. Hall sensors cannot be used.\012\000"
 2394      31312065 
 2394      6E61626C 
 2394      65642E20 
 2394      48616C6C 
 2395 05b2 0000     		.space	2
 2396              	.LC68:
 2397 05b4 456E636F 		.ascii	"Encoder enabled. Hall sensors cannot be used.\012\000"
 2397      64657220 
 2397      656E6162 
 2397      6C65642E 
 2397      2048616C 
 2398 05e3 00       		.space	1
 2399              	.LC69:
 2400 05e4 44657465 		.ascii	"Detection failed. Try again with different paramete"
 2400      6374696F 
 2400      6E206661 
 2400      696C6564 
 2400      2E205472 
 2401 0617 72732E0A 		.ascii	"rs.\012\000"
 2401      00
 2402              	.LC70:
 2403 061c 496E7661 		.ascii	"Invalid argument(s).\012\000"
 2403      6C696420 
 2403      61726775 
ARM GAS  /tmp/ccPVkQgB.s 			page 47


 2403      6D656E74 
 2403      2873292E 
 2404 0632 0000     		.space	2
 2405              	.LC71:
 2406 0634 54686973 		.ascii	"This command requires three arguments.\012\000"
 2406      20636F6D 
 2406      6D616E64 
 2406      20726571 
 2406      75697265 
 2407              	.LC72:
 2408 065c 72706D5F 		.ascii	"rpm_dep\000"
 2408      64657000 
 2409              	.LC73:
 2410 0664 4379636C 		.ascii	"Cycle int limit: %.2f\000"
 2410      6520696E 
 2410      74206C69 
 2410      6D69743A 
 2410      20252E32 
 2411 067a 0000     		.space	2
 2412              	.LC74:
 2413 067c 4379636C 		.ascii	"Cycle int limit running: %.2f\000"
 2413      6520696E 
 2413      74206C69 
 2413      6D697420 
 2413      72756E6E 
 2414 069a 0000     		.space	2
 2415              	.LC75:
 2416 069c 4379636C 		.ascii	"Cycle int limit max: %.2f\012\000"
 2416      6520696E 
 2416      74206C69 
 2416      6D697420 
 2416      6D61783A 
 2417 06b7 00       		.space	1
 2418              	.LC76:
 2419 06b8 63616E5F 		.ascii	"can_devs\000"
 2419      64657673 
 2419      00
 2420 06c1 000000   		.space	3
 2421              	.LC77:
 2422 06c4 43414E20 		.ascii	"CAN devices seen on the bus the past second:\012\000"
 2422      64657669 
 2422      63657320 
 2422      7365656E 
 2422      206F6E20 
 2423 06f2 0000     		.space	2
 2424              	.LC78:
 2425 06f4 49442020 		.ascii	"ID                 : %i\000"
 2425      20202020 
 2425      20202020 
 2425      20202020 
 2425      2020203A 
 2426              	.LC79:
 2427 070c 52582054 		.ascii	"RX Time            : %i\000"
 2427      696D6520 
 2427      20202020 
 2427      20202020 
 2427      2020203A 
ARM GAS  /tmp/ccPVkQgB.s 			page 48


 2428              	.LC80:
 2429 0724 41676520 		.ascii	"Age (milliseconds) : %.2f\000"
 2429      286D696C 
 2429      6C697365 
 2429      636F6E64 
 2429      7329203A 
 2430 073e 0000     		.space	2
 2431              	.LC81:
 2432 0740 52504D20 		.ascii	"RPM                : %.2f\000"
 2432      20202020 
 2432      20202020 
 2432      20202020 
 2432      2020203A 
 2433 075a 0000     		.space	2
 2434              	.LC82:
 2435 075c 43757272 		.ascii	"Current            : %.2f\000"
 2435      656E7420 
 2435      20202020 
 2435      20202020 
 2435      2020203A 
 2436 0776 0000     		.space	2
 2437              	.LC83:
 2438 0778 43727569 		.ascii	"Cruise Control     : %.0f\000"
 2438      73652043 
 2438      6F6E7472 
 2438      6F6C2020 
 2438      2020203A 
 2439 0792 0000     		.space	2
 2440              	.LC84:
 2441 0794 666F635F 		.ascii	"foc_encoder_detect\000"
 2441      656E636F 
 2441      6465725F 
 2441      64657465 
 2441      637400
 2442 07a7 00       		.space	1
 2443              	.LC85:
 2444 07a8 4F666673 		.ascii	"Offset   : %.2f\000"
 2444      65742020 
 2444      203A2025 
 2444      2E326600 
 2445              	.LC86:
 2446 07b8 52617469 		.ascii	"Ratio    : %.2f\000"
 2446      6F202020 
 2446      203A2025 
 2446      2E326600 
 2447              	.LC87:
 2448 07c8 496E7665 		.ascii	"Inverted : %s\012\000"
 2448      72746564 
 2448      203A2025 
 2448      730A00
 2449 07d7 00       		.space	1
 2450              	.LC88:
 2451 07d8 456E636F 		.ascii	"Encoder not enabled.\012\000"
 2451      64657220 
 2451      6E6F7420 
 2451      656E6162 
 2451      6C65642E 
ARM GAS  /tmp/ccPVkQgB.s 			page 49


 2452 07ee 0000     		.space	2
 2453              	.LC89:
 2454 07f0 54686973 		.ascii	"This command requires one argument.\012\000"
 2454      20636F6D 
 2454      6D616E64 
 2454      20726571 
 2454      75697265 
 2455 0815 000000   		.space	3
 2456              	.LC90:
 2457 0818 6D656173 		.ascii	"measure_res\000"
 2457      7572655F 
 2457      72657300 
 2458              	.LC91:
 2459 0824 52657369 		.ascii	"Resistance: %.6f ohm\012\000"
 2459      7374616E 
 2459      63653A20 
 2459      252E3666 
 2459      206F686D 
 2460 083a 0000     		.space	2
 2461              	.LC92:
 2462 083c 6D656173 		.ascii	"measure_ind\000"
 2462      7572655F 
 2462      696E6400 
 2463              	.LC93:
 2464 0848 496E6475 		.ascii	"Inductance: %.2f microhenry\012\000"
 2464      6374616E 
 2464      63653A20 
 2464      252E3266 
 2464      206D6963 
 2465 0865 000000   		.space	3
 2466              	.LC94:
 2467 0868 6D656173 		.ascii	"measure_linkage\000"
 2467      7572655F 
 2467      6C696E6B 
 2467      61676500 
 2468              	.LC95:
 2469 0878 466C7578 		.ascii	"Flux linkage: %.7f\012\000"
 2469      206C696E 
 2469      6B616765 
 2469      3A20252E 
 2469      37660A00 
 2470              	.LC96:
 2471 088c 6D656173 		.ascii	"measure_res_ind\000"
 2471      7572655F 
 2471      7265735F 
 2471      696E6400 
 2472              	.LC97:
 2473 089c 52657369 		.ascii	"Resistance: %.6f ohm\000"
 2473      7374616E 
 2473      63653A20 
 2473      252E3666 
 2473      206F686D 
 2474 08b1 000000   		.space	3
 2475              	.LC98:
 2476 08b4 6D656173 		.ascii	"measure_linkage_foc\000"
 2476      7572655F 
 2476      6C696E6B 
ARM GAS  /tmp/ccPVkQgB.s 			page 50


 2476      6167655F 
 2476      666F6300 
 2477              	.LC99:
 2478 08c8 666F635F 		.ascii	"foc_state\000"
 2478      73746174 
 2478      6500
 2479 08d2 0000     		.space	2
 2480              	.LC100:
 2481 08d4 68656C70 		.ascii	"help\000"
 2481      00
 2482 08d9 000000   		.space	3
 2483              	.LC101:
 2484 08dc 56616C69 		.ascii	"Valid commands are:\000"
 2484      6420636F 
 2484      6D6D616E 
 2484      64732061 
 2484      72653A00 
 2485              	.LC102:
 2486 08f0 20205368 		.ascii	"  Show this help\000"
 2486      6F772074 
 2486      68697320 
 2486      68656C70 
 2486      00
 2487 0901 000000   		.space	3
 2488              	.LC103:
 2489 0904 20205072 		.ascii	"  Print pong here to see if the reply works\000"
 2489      696E7420 
 2489      706F6E67 
 2489      20686572 
 2489      6520746F 
 2490              	.LC104:
 2491 0930 20205374 		.ascii	"  Stop the motor\000"
 2491      6F702074 
 2491      6865206D 
 2491      6F746F72 
 2491      00
 2492 0941 000000   		.space	3
 2493              	.LC105:
 2494 0944 20205468 		.ascii	"  The time the latest ADC interrupt consumed\000"
 2494      65207469 
 2494      6D652074 
 2494      6865206C 
 2494      61746573 
 2495 0971 000000   		.space	3
 2496              	.LC106:
 2497 0974 20205468 		.ascii	"  The calculated kv of the motor\000"
 2497      65206361 
 2497      6C63756C 
 2497      61746564 
 2497      206B7620 
 2498 0995 000000   		.space	3
 2499              	.LC107:
 2500 0998 20205368 		.ascii	"  Show memory usage\000"
 2500      6F77206D 
 2500      656D6F72 
 2500      79207573 
 2500      61676500 
ARM GAS  /tmp/ccPVkQgB.s 			page 51


 2501              	.LC108:
 2502 09ac 20204C69 		.ascii	"  List all threads\000"
 2502      73742061 
 2502      6C6C2074 
 2502      68726561 
 2502      647300
 2503 09bf 00       		.space	1
 2504              	.LC109:
 2505 09c0 20205072 		.ascii	"  Prints the current fault code\000"
 2505      696E7473 
 2505      20746865 
 2505      20637572 
 2505      72656E74 
 2506              	.LC110:
 2507 09e0 20205072 		.ascii	"  Prints all stored fault codes and conditions when"
 2507      696E7473 
 2507      20616C6C 
 2507      2073746F 
 2507      72656420 
 2508 0a13 20746865 		.ascii	" they arrived\000"
 2508      79206172 
 2508      72697665 
 2508      6400
 2509 0a21 000000   		.space	3
 2510              	.LC111:
 2511 0a24 20205072 		.ascii	"  Prints the current electrical RPM\000"
 2511      696E7473 
 2511      20746865 
 2511      20637572 
 2511      72656E74 
 2512              	.LC112:
 2513 0a48 20205072 		.ascii	"  Prints tachometer value\000"
 2513      696E7473 
 2513      20746163 
 2513      686F6D65 
 2513      74657220 
 2514 0a62 0000     		.space	2
 2515              	.LC113:
 2516 0a64 20205072 		.ascii	"  Prints tim1 and tim8 settings\000"
 2516      696E7473 
 2516      2074696D 
 2516      3120616E 
 2516      64207469 
 2517              	.LC114:
 2518 0a84 20205072 		.ascii	"  Prints different voltages\000"
 2518      696E7473 
 2518      20646966 
 2518      66657265 
 2518      6E742076 
 2519              	.LC115:
 2520 0aa0 70617261 		.ascii	"param_detect [current] [min_rpm] [low_duty]\000"
 2520      6D5F6465 
 2520      74656374 
 2520      205B6375 
 2520      7272656E 
 2521              	.LC116:
 2522 0acc 20205370 		.ascii	"  Spin up the motor in COMM_MODE_DELAY and compute "
ARM GAS  /tmp/ccPVkQgB.s 			page 52


 2522      696E2075 
 2522      70207468 
 2522      65206D6F 
 2522      746F7220 
 2523 0aff 69747320 		.ascii	"its parameters.\000"
 2523      70617261 
 2523      6D657465 
 2523      72732E00 
 2524 0b0f 00       		.space	1
 2525              	.LC117:
 2526 0b10 20205468 		.ascii	"  This test should be performed without load on the"
 2526      69732074 
 2526      65737420 
 2526      73686F75 
 2526      6C642062 
 2527 0b43 206D6F74 		.ascii	" motor.\000"
 2527      6F722E00 
 2528 0b4b 00       		.space	1
 2529              	.LC118:
 2530 0b4c 20204578 		.ascii	"  Example: param_detect 5.0 600 0.06\000"
 2530      616D706C 
 2530      653A2070 
 2530      6172616D 
 2530      5F646574 
 2531 0b71 000000   		.space	3
 2532              	.LC119:
 2533 0b74 20205072 		.ascii	"  Prints some rpm-dep values\000"
 2533      696E7473 
 2533      20736F6D 
 2533      65207270 
 2533      6D2D6465 
 2534 0b91 000000   		.space	3
 2535              	.LC120:
 2536 0b94 20205072 		.ascii	"  Prints all CAN devices seen on the bus the past s"
 2536      696E7473 
 2536      20616C6C 
 2536      2043414E 
 2536      20646576 
 2537 0bc7 65636F6E 		.ascii	"econd\000"
 2537      6400
 2538 0bcd 000000   		.space	3
 2539              	.LC121:
 2540 0bd0 666F635F 		.ascii	"foc_encoder_detect [current]\000"
 2540      656E636F 
 2540      6465725F 
 2540      64657465 
 2540      6374205B 
 2541 0bed 000000   		.space	3
 2542              	.LC122:
 2543 0bf0 20205275 		.ascii	"  Run the motor at 1Hz on open loop and compute enc"
 2543      6E207468 
 2543      65206D6F 
 2543      746F7220 
 2543      61742031 
 2544 0c23 6F646572 		.ascii	"oder settings\000"
 2544      20736574 
 2544      74696E67 
ARM GAS  /tmp/ccPVkQgB.s 			page 53


 2544      7300
 2545 0c31 000000   		.space	3
 2546              	.LC123:
 2547 0c34 6D656173 		.ascii	"measure_res [current]\000"
 2547      7572655F 
 2547      72657320 
 2547      5B637572 
 2547      72656E74 
 2548 0c4a 0000     		.space	2
 2549              	.LC124:
 2550 0c4c 20204C6F 		.ascii	"  Lock the motor with a current and calculate its r"
 2550      636B2074 
 2550      6865206D 
 2550      6F746F72 
 2550      20776974 
 2551 0c7f 65736973 		.ascii	"esistance\000"
 2551      74616E63 
 2551      6500
 2552 0c89 000000   		.space	3
 2553              	.LC125:
 2554 0c8c 6D656173 		.ascii	"measure_ind [duty]\000"
 2554      7572655F 
 2554      696E6420 
 2554      5B647574 
 2554      795D00
 2555 0c9f 00       		.space	1
 2556              	.LC126:
 2557 0ca0 20205365 		.ascii	"  Send short voltage pulses, measure the current an"
 2557      6E642073 
 2557      686F7274 
 2557      20766F6C 
 2557      74616765 
 2558 0cd3 64206361 		.ascii	"d calculate the motor inductance\000"
 2558      6C63756C 
 2558      61746520 
 2558      74686520 
 2558      6D6F746F 
 2559              	.LC127:
 2560 0cf4 6D656173 		.ascii	"measure_linkage [current] [duty] [min_rpm] [motor_r"
 2560      7572655F 
 2560      6C696E6B 
 2560      61676520 
 2560      5B637572 
 2561 0d27 65735D00 		.ascii	"es]\000"
 2562 0d2b 00       		.space	1
 2563              	.LC128:
 2564 0d2c 20205275 		.ascii	"  Run the motor in BLDC delay mode and measure the "
 2564      6E207468 
 2564      65206D6F 
 2564      746F7220 
 2564      696E2042 
 2565 0d5f 666C7578 		.ascii	"flux linkage\000"
 2565      206C696E 
 2565      6B616765 
 2565      00
 2566              	.LC129:
 2567 0d6c 20206578 		.ascii	"  example measure_linkage 5 0.5 700 0.076\000"
ARM GAS  /tmp/ccPVkQgB.s 			page 54


 2567      616D706C 
 2567      65206D65 
 2567      61737572 
 2567      655F6C69 
 2568 0d96 0000     		.space	2
 2569              	.LC130:
 2570 0d98 20207469 		.ascii	"  tip: measure the resistance with measure_res firs"
 2570      703A206D 
 2570      65617375 
 2570      72652074 
 2570      68652072 
 2571 0dcb 7400     		.ascii	"t\000"
 2572 0dcd 000000   		.space	3
 2573              	.LC131:
 2574 0dd0 20204D65 		.ascii	"  Measure the motor resistance and inductance with "
 2574      61737572 
 2574      65207468 
 2574      65206D6F 
 2574      746F7220 
 2575 0e03 616E2069 		.ascii	"an incremental adaptive algorithm.\000"
 2575      6E637265 
 2575      6D656E74 
 2575      616C2061 
 2575      64617074 
 2576 0e26 0000     		.space	2
 2577              	.LC132:
 2578 0e28 6D656173 		.ascii	"measure_linkage_foc [duty]\000"
 2578      7572655F 
 2578      6C696E6B 
 2578      6167655F 
 2578      666F6320 
 2579 0e43 00       		.space	1
 2580              	.LC133:
 2581 0e44 20205275 		.ascii	"  Run the motor with FOC and measure the flux linka"
 2581      6E207468 
 2581      65206D6F 
 2581      746F7220 
 2581      77697468 
 2582 0e77 67652E00 		.ascii	"ge.\000"
 2583 0e7b 00       		.space	1
 2584              	.LC134:
 2585 0e7c 20205072 		.ascii	"  Print some FOC state variables.\012\000"
 2585      696E7420 
 2585      736F6D65 
 2585      20464F43 
 2585      20737461 
 2586 0e9f 00       		.space	1
 2587              	.LC135:
 2588 0ea0 496E7661 		.ascii	"Invalid command: %s\012type help to list all availa"
 2588      6C696420 
 2588      636F6D6D 
 2588      616E643A 
 2588      2025730A 
 2589 0ed0 626C6520 		.ascii	"ble commands\012\000"
 2589      636F6D6D 
 2589      616E6473 
 2589      0A00
ARM GAS  /tmp/ccPVkQgB.s 			page 55


 2590 0ede 0000     		.space	2
 2591              	.LC136:
 2592 0ee0 52454144 		.ascii	"READY\000"
 2592      5900
 2593 0ee6 0000     		.space	2
 2594              	.LC137:
 2595 0ee8 43555252 		.ascii	"CURRENT\000"
 2595      454E5400 
 2596              	.LC138:
 2597 0ef0 57545354 		.ascii	"WTSTART\000"
 2597      41525400 
 2598              	.LC139:
 2599 0ef8 53555350 		.ascii	"SUSPENDED\000"
 2599      454E4445 
 2599      4400
 2600 0f02 0000     		.space	2
 2601              	.LC140:
 2602 0f04 51554555 		.ascii	"QUEUED\000"
 2602      454400
 2603 0f0b 00       		.space	1
 2604              	.LC141:
 2605 0f0c 57545345 		.ascii	"WTSEM\000"
 2605      4D00
 2606 0f12 0000     		.space	2
 2607              	.LC142:
 2608 0f14 57544D54 		.ascii	"WTMTX\000"
 2608      5800
 2609 0f1a 0000     		.space	2
 2610              	.LC143:
 2611 0f1c 5754434F 		.ascii	"WTCOND\000"
 2611      4E4400
 2612 0f23 00       		.space	1
 2613              	.LC144:
 2614 0f24 534C4545 		.ascii	"SLEEPING\000"
 2614      50494E47 
 2614      00
 2615 0f2d 000000   		.space	3
 2616              	.LC145:
 2617 0f30 57544558 		.ascii	"WTEXIT\000"
 2617      495400
 2618 0f37 00       		.space	1
 2619              	.LC146:
 2620 0f38 57544F52 		.ascii	"WTOREVT\000"
 2620      45565400 
 2621              	.LC147:
 2622 0f40 5754414E 		.ascii	"WTANDEVT\000"
 2622      44455654 
 2622      00
 2623 0f49 000000   		.space	3
 2624              	.LC148:
 2625 0f4c 534E444D 		.ascii	"SNDMSGQ\000"
 2625      53475100 
 2626              	.LC149:
 2627 0f54 534E444D 		.ascii	"SNDMSG\000"
 2627      534700
 2628 0f5b 00       		.space	1
 2629              	.LC150:
ARM GAS  /tmp/ccPVkQgB.s 			page 56


 2630 0f5c 57544D53 		.ascii	"WTMSG\000"
 2630      4700
 2631 0f62 0000     		.space	2
 2632              	.LC151:
 2633 0f64 46494E41 		.ascii	"FINAL\000"
 2633      4C00
 2634              		.section	.rodata.states.11184,"a",%progbits
 2635              		.align	2
 2636              		.set	.LANCHOR2,. + 0
 2637              		.type	states.11184, %object
 2638              		.size	states.11184, 64
 2639              	states.11184:
 2640 0000 E00E0000 		.word	.LC136
 2641 0004 E80E0000 		.word	.LC137
 2642 0008 F00E0000 		.word	.LC138
 2643 000c F80E0000 		.word	.LC139
 2644 0010 040F0000 		.word	.LC140
 2645 0014 0C0F0000 		.word	.LC141
 2646 0018 140F0000 		.word	.LC142
 2647 001c 1C0F0000 		.word	.LC143
 2648 0020 240F0000 		.word	.LC144
 2649 0024 300F0000 		.word	.LC145
 2650 0028 380F0000 		.word	.LC146
 2651 002c 400F0000 		.word	.LC147
 2652 0030 4C0F0000 		.word	.LC148
 2653 0034 540F0000 		.word	.LC149
 2654 0038 5C0F0000 		.word	.LC150
 2655 003c 640F0000 		.word	.LC151
 2656              		.section	.bss.fault_vec,"aw",%nobits
 2657              		.align	2
 2658              		.set	.LANCHOR4,. + 0
 2659              		.type	fault_vec, %object
 2660              		.size	fault_vec, 1300
 2661              	fault_vec:
 2662 0000 00000000 		.space	1300
 2662      00000000 
 2662      00000000 
 2662      00000000 
 2662      00000000 
 2663              		.text
 2664              	.Letext0:
 2665              		.file 4 "/usr/lib/gcc/arm-none-eabi/4.9.3/include/stddef.h"
 2666              		.file 5 "/usr/arm-none-eabi/include/machine/_default_types.h"
 2667              		.file 6 "/usr/arm-none-eabi/include/sys/_stdint.h"
 2668              		.file 7 "ChibiOS_3.0.2/os/rt/ports/ARMCMx/compilers/GCC/chtypes.h"
 2669              		.file 8 "ChibiOS_3.0.2/os/rt/include/chsystypes.h"
 2670              		.file 9 "ChibiOS_3.0.2/os/rt/include/chschd.h"
 2671              		.file 10 "ChibiOS_3.0.2/os/ext/CMSIS/ST/stm32f407xx.h"
 2672              		.file 11 "ChibiOS_3.0.2/os/rt/ports/ARMCMx/chcore.h"
 2673              		.file 12 "ChibiOS_3.0.2/os/rt/ports/ARMCMx/chcore_v7m.h"
 2674              		.file 13 "ChibiOS_3.0.2/os/rt/include/chtm.h"
 2675              		.file 14 "ChibiOS_3.0.2/os/rt/include/chsem.h"
 2676              		.file 15 "ChibiOS_3.0.2/os/rt/include/chmtx.h"
 2677              		.file 16 "ChibiOS_3.0.2/os/rt/include/chmemcore.h"
 2678              		.file 17 "ChibiOS_3.0.2/os/rt/include/chheap.h"
 2679              		.file 18 "datatypes.h"
 2680              		.file 19 "ChibiOS_3.0.2/os/rt/include/chsys.h"
ARM GAS  /tmp/ccPVkQgB.s 			page 57


 2681              		.file 20 "ChibiOS_3.0.2/os/ext/CMSIS/include/core_cm4.h"
 2682              		.file 21 "mc_interface.h"
 2683              		.file 22 "ChibiOS_3.0.2/os/rt/include/chregistry.h"
 2684              		.file 23 "conf_general.h"
 2685              		.file 24 "/usr/arm-none-eabi/include/stdio.h"
 2686              		.file 25 "commands.h"
 2687              		.file 26 "ChibiOS_3.0.2/os/rt/include/chthreads.h"
 2688              		.file 27 "mcpwm_foc.h"
 2689              		.file 28 "timeout.h"
 2690              		.file 29 "mcpwm.h"
 2691              		.file 30 "encoder.h"
 2692              		.file 31 "comm_can.h"
 2693              		.file 32 "/usr/arm-none-eabi/include/string.h"