Archive member included because of file (symbol)

/usr/bin/../lib/gcc/arm-none-eabi/4.9.3/../../../../arm-none-eabi/lib/armv7e-m/fpu/libm.a(lib_a-sf_cos.o)
                              build/obj/digital_filter.o (cosf)
/usr/bin/../lib/gcc/arm-none-eabi/4.9.3/../../../../arm-none-eabi/lib/armv7e-m/fpu/libm.a(lib_a-sf_round.o)
                              build/obj/ledpwm.o (roundf)
/usr/bin/../lib/gcc/arm-none-eabi/4.9.3/../../../../arm-none-eabi/lib/armv7e-m/fpu/libm.a(lib_a-sf_sin.o)
                              build/obj/digital_filter.o (sinf)
/usr/bin/../lib/gcc/arm-none-eabi/4.9.3/../../../../arm-none-eabi/lib/armv7e-m/fpu/libm.a(lib_a-w_sqrt.o)
                              build/obj/digital_filter.o (sqrt)
/usr/bin/../lib/gcc/arm-none-eabi/4.9.3/../../../../arm-none-eabi/lib/armv7e-m/fpu/libm.a(lib_a-wf_asin.o)
                              build/obj/mcpwm.o (asinf)
/usr/bin/../lib/gcc/arm-none-eabi/4.9.3/../../../../arm-none-eabi/lib/armv7e-m/fpu/libm.a(lib_a-wf_atan2.o)
                              build/obj/mcpwm_foc.o (atan2f)
/usr/bin/../lib/gcc/arm-none-eabi/4.9.3/../../../../arm-none-eabi/lib/armv7e-m/fpu/libm.a(lib_a-wf_fmod.o)
                              build/obj/utils.o (fmodf)
/usr/bin/../lib/gcc/arm-none-eabi/4.9.3/../../../../arm-none-eabi/lib/armv7e-m/fpu/libm.a(lib_a-wf_log.o)
                              build/obj/commands.o (logf)
/usr/bin/../lib/gcc/arm-none-eabi/4.9.3/../../../../arm-none-eabi/lib/armv7e-m/fpu/libm.a(lib_a-wf_pow.o)
                              build/obj/ledpwm.o (powf)
/usr/bin/../lib/gcc/arm-none-eabi/4.9.3/../../../../arm-none-eabi/lib/armv7e-m/fpu/libm.a(lib_a-wf_sincos.o)
                              build/obj/mcpwm_foc.o (sincosf)
/usr/bin/../lib/gcc/arm-none-eabi/4.9.3/../../../../arm-none-eabi/lib/armv7e-m/fpu/libm.a(lib_a-wf_sqrt.o)
                              build/obj/mcpwm.o (sqrtf)
/usr/bin/../lib/gcc/arm-none-eabi/4.9.3/../../../../arm-none-eabi/lib/armv7e-m/fpu/libm.a(lib_a-e_sqrt.o)
                              /usr/bin/../lib/gcc/arm-none-eabi/4.9.3/../../../../arm-none-eabi/lib/armv7e-m/fpu/libm.a(lib_a-w_sqrt.o) (__ieee754_sqrt)
/usr/bin/../lib/gcc/arm-none-eabi/4.9.3/../../../../arm-none-eabi/lib/armv7e-m/fpu/libm.a(lib_a-ef_asin.o)
                              /usr/bin/../lib/gcc/arm-none-eabi/4.9.3/../../../../arm-none-eabi/lib/armv7e-m/fpu/libm.a(lib_a-wf_asin.o) (__ieee754_asinf)
/usr/bin/../lib/gcc/arm-none-eabi/4.9.3/../../../../arm-none-eabi/lib/armv7e-m/fpu/libm.a(lib_a-ef_atan2.o)
                              /usr/bin/../lib/gcc/arm-none-eabi/4.9.3/../../../../arm-none-eabi/lib/armv7e-m/fpu/libm.a(lib_a-wf_atan2.o) (__ieee754_atan2f)
/usr/bin/../lib/gcc/arm-none-eabi/4.9.3/../../../../arm-none-eabi/lib/armv7e-m/fpu/libm.a(lib_a-ef_fmod.o)
                              /usr/bin/../lib/gcc/arm-none-eabi/4.9.3/../../../../arm-none-eabi/lib/armv7e-m/fpu/libm.a(lib_a-wf_fmod.o) (__ieee754_fmodf)
/usr/bin/../lib/gcc/arm-none-eabi/4.9.3/../../../../arm-none-eabi/lib/armv7e-m/fpu/libm.a(lib_a-ef_log.o)
                              /usr/bin/../lib/gcc/arm-none-eabi/4.9.3/../../../../arm-none-eabi/lib/armv7e-m/fpu/libm.a(lib_a-wf_log.o) (__ieee754_logf)
/usr/bin/../lib/gcc/arm-none-eabi/4.9.3/../../../../arm-none-eabi/lib/armv7e-m/fpu/libm.a(lib_a-ef_pow.o)
                              /usr/bin/../lib/gcc/arm-none-eabi/4.9.3/../../../../arm-none-eabi/lib/armv7e-m/fpu/libm.a(lib_a-wf_pow.o) (__ieee754_powf)
/usr/bin/../lib/gcc/arm-none-eabi/4.9.3/../../../../arm-none-eabi/lib/armv7e-m/fpu/libm.a(lib_a-ef_rem_pio2.o)
                              /usr/bin/../lib/gcc/arm-none-eabi/4.9.3/../../../../arm-none-eabi/lib/armv7e-m/fpu/libm.a(lib_a-sf_cos.o) (__ieee754_rem_pio2f)
/usr/bin/../lib/gcc/arm-none-eabi/4.9.3/../../../../arm-none-eabi/lib/armv7e-m/fpu/libm.a(lib_a-ef_sqrt.o)
                              /usr/bin/../lib/gcc/arm-none-eabi/4.9.3/../../../../arm-none-eabi/lib/armv7e-m/fpu/libm.a(lib_a-wf_sqrt.o) (__ieee754_sqrtf)
/usr/bin/../lib/gcc/arm-none-eabi/4.9.3/../../../../arm-none-eabi/lib/armv7e-m/fpu/libm.a(lib_a-kf_cos.o)
                              /usr/bin/../lib/gcc/arm-none-eabi/4.9.3/../../../../arm-none-eabi/lib/armv7e-m/fpu/libm.a(lib_a-sf_cos.o) (__kernel_cosf)
/usr/bin/../lib/gcc/arm-none-eabi/4.9.3/../../../../arm-none-eabi/lib/armv7e-m/fpu/libm.a(lib_a-kf_rem_pio2.o)
                              /usr/bin/../lib/gcc/arm-none-eabi/4.9.3/../../../../arm-none-eabi/lib/armv7e-m/fpu/libm.a(lib_a-ef_rem_pio2.o) (__kernel_rem_pio2f)
/usr/bin/../lib/gcc/arm-none-eabi/4.9.3/../../../../arm-none-eabi/lib/armv7e-m/fpu/libm.a(lib_a-kf_sin.o)
                              /usr/bin/../lib/gcc/arm-none-eabi/4.9.3/../../../../arm-none-eabi/lib/armv7e-m/fpu/libm.a(lib_a-sf_cos.o) (__kernel_sinf)
/usr/bin/../lib/gcc/arm-none-eabi/4.9.3/../../../../arm-none-eabi/lib/armv7e-m/fpu/libm.a(lib_a-s_fpclassify.o)
                              /usr/bin/../lib/gcc/arm-none-eabi/4.9.3/../../../../arm-none-eabi/lib/armv7e-m/fpu/libm.a(lib_a-w_sqrt.o) (__fpclassifyd)
/usr/bin/../lib/gcc/arm-none-eabi/4.9.3/../../../../arm-none-eabi/lib/armv7e-m/fpu/libm.a(lib_a-s_lib_ver.o)
                              /usr/bin/../lib/gcc/arm-none-eabi/4.9.3/../../../../arm-none-eabi/lib/armv7e-m/fpu/libm.a(lib_a-w_sqrt.o) (__fdlib_version)
/usr/bin/../lib/gcc/arm-none-eabi/4.9.3/../../../../arm-none-eabi/lib/armv7e-m/fpu/libm.a(lib_a-s_matherr.o)
                              /usr/bin/../lib/gcc/arm-none-eabi/4.9.3/../../../../arm-none-eabi/lib/armv7e-m/fpu/libm.a(lib_a-w_sqrt.o) (matherr)
/usr/bin/../lib/gcc/arm-none-eabi/4.9.3/../../../../arm-none-eabi/lib/armv7e-m/fpu/libm.a(lib_a-s_nan.o)
                              /usr/bin/../lib/gcc/arm-none-eabi/4.9.3/../../../../arm-none-eabi/lib/armv7e-m/fpu/libm.a(lib_a-wf_asin.o) (nan)
/usr/bin/../lib/gcc/arm-none-eabi/4.9.3/../../../../arm-none-eabi/lib/armv7e-m/fpu/libm.a(lib_a-s_rint.o)
                              /usr/bin/../lib/gcc/arm-none-eabi/4.9.3/../../../../arm-none-eabi/lib/armv7e-m/fpu/libm.a(lib_a-wf_pow.o) (rint)
/usr/bin/../lib/gcc/arm-none-eabi/4.9.3/../../../../arm-none-eabi/lib/armv7e-m/fpu/libm.a(lib_a-sf_atan.o)
                              /usr/bin/../lib/gcc/arm-none-eabi/4.9.3/../../../../arm-none-eabi/lib/armv7e-m/fpu/libm.a(lib_a-ef_atan2.o) (atanf)
/usr/bin/../lib/gcc/arm-none-eabi/4.9.3/../../../../arm-none-eabi/lib/armv7e-m/fpu/libm.a(lib_a-sf_fabs.o)
                              /usr/bin/../lib/gcc/arm-none-eabi/4.9.3/../../../../arm-none-eabi/lib/armv7e-m/fpu/libm.a(lib_a-wf_asin.o) (fabsf)
/usr/bin/../lib/gcc/arm-none-eabi/4.9.3/../../../../arm-none-eabi/lib/armv7e-m/fpu/libm.a(lib_a-sf_finite.o)
                              /usr/bin/../lib/gcc/arm-none-eabi/4.9.3/../../../../arm-none-eabi/lib/armv7e-m/fpu/libm.a(lib_a-wf_pow.o) (finitef)
/usr/bin/../lib/gcc/arm-none-eabi/4.9.3/../../../../arm-none-eabi/lib/armv7e-m/fpu/libm.a(lib_a-sf_floor.o)
                              /usr/bin/../lib/gcc/arm-none-eabi/4.9.3/../../../../arm-none-eabi/lib/armv7e-m/fpu/libm.a(lib_a-kf_rem_pio2.o) (floorf)
/usr/bin/../lib/gcc/arm-none-eabi/4.9.3/../../../../arm-none-eabi/lib/armv7e-m/fpu/libm.a(lib_a-sf_fpclassify.o)
                              /usr/bin/../lib/gcc/arm-none-eabi/4.9.3/../../../../arm-none-eabi/lib/armv7e-m/fpu/libm.a(lib_a-wf_asin.o) (__fpclassifyf)
/usr/bin/../lib/gcc/arm-none-eabi/4.9.3/../../../../arm-none-eabi/lib/armv7e-m/fpu/libm.a(lib_a-sf_nan.o)
                              /usr/bin/../lib/gcc/arm-none-eabi/4.9.3/../../../../arm-none-eabi/lib/armv7e-m/fpu/libm.a(lib_a-ef_pow.o) (nanf)
/usr/bin/../lib/gcc/arm-none-eabi/4.9.3/../../../../arm-none-eabi/lib/armv7e-m/fpu/libm.a(lib_a-sf_scalbn.o)
                              /usr/bin/../lib/gcc/arm-none-eabi/4.9.3/../../../../arm-none-eabi/lib/armv7e-m/fpu/libm.a(lib_a-ef_pow.o) (scalbnf)
/usr/bin/../lib/gcc/arm-none-eabi/4.9.3/../../../../arm-none-eabi/lib/armv7e-m/fpu/libm.a(lib_a-sf_copysign.o)
                              /usr/bin/../lib/gcc/arm-none-eabi/4.9.3/../../../../arm-none-eabi/lib/armv7e-m/fpu/libm.a(lib_a-sf_scalbn.o) (copysignf)
/usr/bin/../lib/gcc/arm-none-eabi/4.9.3/armv7e-m/fpu/libgcc.a(_arm_addsubdf3.o)
                              build/obj/chprintf.o (__aeabi_dsub)
/usr/bin/../lib/gcc/arm-none-eabi/4.9.3/armv7e-m/fpu/libgcc.a(_arm_muldivdf3.o)
                              build/obj/chprintf.o (__aeabi_dmul)
/usr/bin/../lib/gcc/arm-none-eabi/4.9.3/armv7e-m/fpu/libgcc.a(_arm_cmpdf2.o)
                              /usr/bin/../lib/gcc/arm-none-eabi/4.9.3/../../../../arm-none-eabi/lib/armv7e-m/fpu/libm.a(lib_a-wf_pow.o) (__aeabi_dcmpeq)
/usr/bin/../lib/gcc/arm-none-eabi/4.9.3/armv7e-m/fpu/libgcc.a(_arm_fixdfsi.o)
                              build/obj/chprintf.o (__aeabi_d2iz)
/usr/bin/../lib/gcc/arm-none-eabi/4.9.3/armv7e-m/fpu/libgcc.a(_arm_truncdfsf2.o)
                              build/obj/chprintf.o (__aeabi_d2f)
/usr/bin/../lib/gcc/arm-none-eabi/4.9.3/../../../../arm-none-eabi/lib/armv7e-m/fpu/libg.a(lib_a-errno.o)
                              /usr/bin/../lib/gcc/arm-none-eabi/4.9.3/../../../../arm-none-eabi/lib/armv7e-m/fpu/libm.a(lib_a-w_sqrt.o) (__errno)
/usr/bin/../lib/gcc/arm-none-eabi/4.9.3/../../../../arm-none-eabi/lib/armv7e-m/fpu/libg.a(lib_a-impure.o)
                              /usr/bin/../lib/gcc/arm-none-eabi/4.9.3/../../../../arm-none-eabi/lib/armv7e-m/fpu/libg.a(lib_a-errno.o) (_impure_ptr)
/usr/bin/../lib/gcc/arm-none-eabi/4.9.3/../../../../arm-none-eabi/lib/armv7e-m/fpu/libg.a(lib_a-memcmp.o)
                              build/obj/rfhelp.o (memcmp)
/usr/bin/../lib/gcc/arm-none-eabi/4.9.3/../../../../arm-none-eabi/lib/armv7e-m/fpu/libg.a(lib_a-memcpy.o)
                              build/obj/packet.o (memcpy)
/usr/bin/../lib/gcc/arm-none-eabi/4.9.3/../../../../arm-none-eabi/lib/armv7e-m/fpu/libg.a(lib_a-memset.o)
                              build/obj/usb.o (memset)
/usr/bin/../lib/gcc/arm-none-eabi/4.9.3/../../../../arm-none-eabi/lib/armv7e-m/fpu/libg.a(lib_a-sscanf.o)
                              build/obj/terminal.o (sscanf)
/usr/bin/../lib/gcc/arm-none-eabi/4.9.3/../../../../arm-none-eabi/lib/armv7e-m/fpu/libg.a(lib_a-stdio.o)
                              /usr/bin/../lib/gcc/arm-none-eabi/4.9.3/../../../../arm-none-eabi/lib/armv7e-m/fpu/libg.a(lib_a-sscanf.o) (__seofread)
/usr/bin/../lib/gcc/arm-none-eabi/4.9.3/../../../../arm-none-eabi/lib/armv7e-m/fpu/libg.a(lib_a-strcmp.o)
                              build/obj/terminal.o (strcmp)
/usr/bin/../lib/gcc/arm-none-eabi/4.9.3/../../../../arm-none-eabi/lib/armv7e-m/fpu/libg.a(lib_a-strlen.o)
                              /usr/bin/../lib/gcc/arm-none-eabi/4.9.3/../../../../arm-none-eabi/lib/armv7e-m/fpu/libg.a(lib_a-sscanf.o) (strlen)
/usr/bin/../lib/gcc/arm-none-eabi/4.9.3/../../../../arm-none-eabi/lib/armv7e-m/fpu/libg.a(lib_a-strtok.o)
                              build/obj/terminal.o (strtok)
/usr/bin/../lib/gcc/arm-none-eabi/4.9.3/../../../../arm-none-eabi/lib/armv7e-m/fpu/libg.a(lib_a-strtok_r.o)
                              /usr/bin/../lib/gcc/arm-none-eabi/4.9.3/../../../../arm-none-eabi/lib/armv7e-m/fpu/libg.a(lib_a-strtok.o) (__strtok_r)
/usr/bin/../lib/gcc/arm-none-eabi/4.9.3/../../../../arm-none-eabi/lib/armv7e-m/fpu/libg.a(lib_a-svfscanf.o)
                              /usr/bin/../lib/gcc/arm-none-eabi/4.9.3/../../../../arm-none-eabi/lib/armv7e-m/fpu/libg.a(lib_a-sscanf.o) (__ssvfscanf_r)
/usr/bin/../lib/gcc/arm-none-eabi/4.9.3/../../../../arm-none-eabi/lib/armv7e-m/fpu/libg.a(lib_a-vsnprintf.o)
                              build/obj/commands.o (vsnprintf)
/usr/bin/../lib/gcc/arm-none-eabi/4.9.3/../../../../arm-none-eabi/lib/armv7e-m/fpu/libg.a(lib_a-ctype_.o)
                              /usr/bin/../lib/gcc/arm-none-eabi/4.9.3/../../../../arm-none-eabi/lib/armv7e-m/fpu/libg.a(lib_a-svfscanf.o) (__ctype_ptr__)
/usr/bin/../lib/gcc/arm-none-eabi/4.9.3/../../../../arm-none-eabi/lib/armv7e-m/fpu/libg.a(lib_a-iswspace.o)
                              /usr/bin/../lib/gcc/arm-none-eabi/4.9.3/../../../../arm-none-eabi/lib/armv7e-m/fpu/libg.a(lib_a-svfscanf.o) (iswspace)
/usr/bin/../lib/gcc/arm-none-eabi/4.9.3/../../../../arm-none-eabi/lib/armv7e-m/fpu/libg.a(lib_a-locale.o)
                              /usr/bin/../lib/gcc/arm-none-eabi/4.9.3/../../../../arm-none-eabi/lib/armv7e-m/fpu/libg.a(lib_a-svfscanf.o) (__locale_mb_cur_max)
/usr/bin/../lib/gcc/arm-none-eabi/4.9.3/../../../../arm-none-eabi/lib/armv7e-m/fpu/libg.a(lib_a-mbrtowc.o)
                              /usr/bin/../lib/gcc/arm-none-eabi/4.9.3/../../../../arm-none-eabi/lib/armv7e-m/fpu/libg.a(lib_a-svfscanf.o) (_mbrtowc_r)
/usr/bin/../lib/gcc/arm-none-eabi/4.9.3/../../../../arm-none-eabi/lib/armv7e-m/fpu/libg.a(lib_a-mbtowc_r.o)
                              /usr/bin/../lib/gcc/arm-none-eabi/4.9.3/../../../../arm-none-eabi/lib/armv7e-m/fpu/libg.a(lib_a-mbrtowc.o) (__mbtowc)
/usr/bin/../lib/gcc/arm-none-eabi/4.9.3/../../../../arm-none-eabi/lib/armv7e-m/fpu/libg.a(lib_a-sccl.o)
                              /usr/bin/../lib/gcc/arm-none-eabi/4.9.3/../../../../arm-none-eabi/lib/armv7e-m/fpu/libg.a(lib_a-svfscanf.o) (__sccl)
/usr/bin/../lib/gcc/arm-none-eabi/4.9.3/../../../../arm-none-eabi/lib/armv7e-m/fpu/libg.a(lib_a-sprintf.o)
                              /usr/bin/../lib/gcc/arm-none-eabi/4.9.3/../../../../arm-none-eabi/lib/armv7e-m/fpu/libg.a(lib_a-svfscanf.o) (sprintf)
/usr/bin/../lib/gcc/arm-none-eabi/4.9.3/../../../../arm-none-eabi/lib/armv7e-m/fpu/libg.a(lib_a-strtod.o)
                              /usr/bin/../lib/gcc/arm-none-eabi/4.9.3/../../../../arm-none-eabi/lib/armv7e-m/fpu/libg.a(lib_a-svfscanf.o) (_strtod_r)
/usr/bin/../lib/gcc/arm-none-eabi/4.9.3/../../../../arm-none-eabi/lib/armv7e-m/fpu/libg.a(lib_a-strtol.o)
                              /usr/bin/../lib/gcc/arm-none-eabi/4.9.3/../../../../arm-none-eabi/lib/armv7e-m/fpu/libg.a(lib_a-svfscanf.o) (_strtol_r)
/usr/bin/../lib/gcc/arm-none-eabi/4.9.3/../../../../arm-none-eabi/lib/armv7e-m/fpu/libg.a(lib_a-strtoll_r.o)
                              /usr/bin/../lib/gcc/arm-none-eabi/4.9.3/../../../../arm-none-eabi/lib/armv7e-m/fpu/libg.a(lib_a-svfscanf.o) (_strtoll_r)
/usr/bin/../lib/gcc/arm-none-eabi/4.9.3/../../../../arm-none-eabi/lib/armv7e-m/fpu/libg.a(lib_a-strtoul.o)
                              /usr/bin/../lib/gcc/arm-none-eabi/4.9.3/../../../../arm-none-eabi/lib/armv7e-m/fpu/libg.a(lib_a-svfscanf.o) (_strtoul_r)
/usr/bin/../lib/gcc/arm-none-eabi/4.9.3/../../../../arm-none-eabi/lib/armv7e-m/fpu/libg.a(lib_a-strtoull_r.o)
                              /usr/bin/../lib/gcc/arm-none-eabi/4.9.3/../../../../arm-none-eabi/lib/armv7e-m/fpu/libg.a(lib_a-svfscanf.o) (_strtoull_r)
/usr/bin/../lib/gcc/arm-none-eabi/4.9.3/../../../../arm-none-eabi/lib/armv7e-m/fpu/libg.a(lib_a-svfiscanf.o)
                              /usr/bin/../lib/gcc/arm-none-eabi/4.9.3/../../../../arm-none-eabi/lib/armv7e-m/fpu/libg.a(lib_a-svfscanf.o) (_sungetc_r)
/usr/bin/../lib/gcc/arm-none-eabi/4.9.3/../../../../arm-none-eabi/lib/armv7e-m/fpu/libg.a(lib_a-svfprintf.o)
                              /usr/bin/../lib/gcc/arm-none-eabi/4.9.3/../../../../arm-none-eabi/lib/armv7e-m/fpu/libg.a(lib_a-vsnprintf.o) (_svfprintf_r)
/usr/bin/../lib/gcc/arm-none-eabi/4.9.3/../../../../arm-none-eabi/lib/armv7e-m/fpu/libg.a(lib_a-ungetc.o)
                              /usr/bin/../lib/gcc/arm-none-eabi/4.9.3/../../../../arm-none-eabi/lib/armv7e-m/fpu/libg.a(lib_a-svfiscanf.o) (__submore)
/usr/bin/../lib/gcc/arm-none-eabi/4.9.3/../../../../arm-none-eabi/lib/armv7e-m/fpu/libg.a(lib_a-dtoa.o)
                              /usr/bin/../lib/gcc/arm-none-eabi/4.9.3/../../../../arm-none-eabi/lib/armv7e-m/fpu/libg.a(lib_a-svfprintf.o) (_dtoa_r)
/usr/bin/../lib/gcc/arm-none-eabi/4.9.3/../../../../arm-none-eabi/lib/armv7e-m/fpu/libg.a(lib_a-fflush.o)
                              /usr/bin/../lib/gcc/arm-none-eabi/4.9.3/../../../../arm-none-eabi/lib/armv7e-m/fpu/libg.a(lib_a-ungetc.o) (_fflush_r)
/usr/bin/../lib/gcc/arm-none-eabi/4.9.3/../../../../arm-none-eabi/lib/armv7e-m/fpu/libg.a(lib_a-findfp.o)
                              /usr/bin/../lib/gcc/arm-none-eabi/4.9.3/../../../../arm-none-eabi/lib/armv7e-m/fpu/libg.a(lib_a-ungetc.o) (__sinit)
/usr/bin/../lib/gcc/arm-none-eabi/4.9.3/../../../../arm-none-eabi/lib/armv7e-m/fpu/libg.a(lib_a-freer.o)
                              /usr/bin/../lib/gcc/arm-none-eabi/4.9.3/../../../../arm-none-eabi/lib/armv7e-m/fpu/libg.a(lib_a-svfiscanf.o) (_free_r)
/usr/bin/../lib/gcc/arm-none-eabi/4.9.3/../../../../arm-none-eabi/lib/armv7e-m/fpu/libg.a(lib_a-fwalk.o)
                              /usr/bin/../lib/gcc/arm-none-eabi/4.9.3/../../../../arm-none-eabi/lib/armv7e-m/fpu/libg.a(lib_a-findfp.o) (_fwalk)
/usr/bin/../lib/gcc/arm-none-eabi/4.9.3/../../../../arm-none-eabi/lib/armv7e-m/fpu/libg.a(lib_a-gdtoa-gethex.o)
                              /usr/bin/../lib/gcc/arm-none-eabi/4.9.3/../../../../arm-none-eabi/lib/armv7e-m/fpu/libg.a(lib_a-strtod.o) (__gethex)
/usr/bin/../lib/gcc/arm-none-eabi/4.9.3/../../../../arm-none-eabi/lib/armv7e-m/fpu/libg.a(lib_a-gdtoa-hexnan.o)
                              /usr/bin/../lib/gcc/arm-none-eabi/4.9.3/../../../../arm-none-eabi/lib/armv7e-m/fpu/libg.a(lib_a-strtod.o) (__hexnan)
/usr/bin/../lib/gcc/arm-none-eabi/4.9.3/../../../../arm-none-eabi/lib/armv7e-m/fpu/libg.a(lib_a-mallocr.o)
                              /usr/bin/../lib/gcc/arm-none-eabi/4.9.3/../../../../arm-none-eabi/lib/armv7e-m/fpu/libg.a(lib_a-svfprintf.o) (_malloc_r)
/usr/bin/../lib/gcc/arm-none-eabi/4.9.3/../../../../arm-none-eabi/lib/armv7e-m/fpu/libg.a(lib_a-memchr.o)
                              /usr/bin/../lib/gcc/arm-none-eabi/4.9.3/../../../../arm-none-eabi/lib/armv7e-m/fpu/libg.a(lib_a-svfprintf.o) (memchr)
/usr/bin/../lib/gcc/arm-none-eabi/4.9.3/../../../../arm-none-eabi/lib/armv7e-m/fpu/libg.a(lib_a-mlock.o)
                              /usr/bin/../lib/gcc/arm-none-eabi/4.9.3/../../../../arm-none-eabi/lib/armv7e-m/fpu/libg.a(lib_a-freer.o) (__malloc_lock)
/usr/bin/../lib/gcc/arm-none-eabi/4.9.3/../../../../arm-none-eabi/lib/armv7e-m/fpu/libg.a(lib_a-mprec.o)
                              /usr/bin/../lib/gcc/arm-none-eabi/4.9.3/../../../../arm-none-eabi/lib/armv7e-m/fpu/libg.a(lib_a-strtod.o) (_Balloc)
/usr/bin/../lib/gcc/arm-none-eabi/4.9.3/../../../../arm-none-eabi/lib/armv7e-m/fpu/libg.a(lib_a-reallocr.o)
                              /usr/bin/../lib/gcc/arm-none-eabi/4.9.3/../../../../arm-none-eabi/lib/armv7e-m/fpu/libg.a(lib_a-ungetc.o) (_realloc_r)
/usr/bin/../lib/gcc/arm-none-eabi/4.9.3/../../../../arm-none-eabi/lib/armv7e-m/fpu/libg.a(lib_a-strncmp.o)
                              /usr/bin/../lib/gcc/arm-none-eabi/4.9.3/../../../../arm-none-eabi/lib/armv7e-m/fpu/libg.a(lib_a-strtod.o) (strncmp)
/usr/bin/../lib/gcc/arm-none-eabi/4.9.3/../../../../arm-none-eabi/lib/armv7e-m/fpu/libg.a(lib_a-svfiprintf.o)
                              /usr/bin/../lib/gcc/arm-none-eabi/4.9.3/../../../../arm-none-eabi/lib/armv7e-m/fpu/libg.a(lib_a-svfprintf.o) (__ssprint_r)
/usr/bin/../lib/gcc/arm-none-eabi/4.9.3/../../../../arm-none-eabi/lib/armv7e-m/fpu/libg.a(lib_a-callocr.o)
                              /usr/bin/../lib/gcc/arm-none-eabi/4.9.3/../../../../arm-none-eabi/lib/armv7e-m/fpu/libg.a(lib_a-mprec.o) (_calloc_r)
/usr/bin/../lib/gcc/arm-none-eabi/4.9.3/../../../../arm-none-eabi/lib/armv7e-m/fpu/libg.a(lib_a-fclose.o)
                              /usr/bin/../lib/gcc/arm-none-eabi/4.9.3/../../../../arm-none-eabi/lib/armv7e-m/fpu/libg.a(lib_a-findfp.o) (_fclose_r)
/usr/bin/../lib/gcc/arm-none-eabi/4.9.3/../../../../arm-none-eabi/lib/armv7e-m/fpu/libg.a(lib_a-memmove.o)
                              /usr/bin/../lib/gcc/arm-none-eabi/4.9.3/../../../../arm-none-eabi/lib/armv7e-m/fpu/libg.a(lib_a-reallocr.o) (memmove)
/usr/bin/../lib/gcc/arm-none-eabi/4.9.3/armv7e-m/fpu/libgcc.a(_arm_fixunsdfsi.o)
                              /usr/bin/../lib/gcc/arm-none-eabi/4.9.3/../../../../arm-none-eabi/lib/armv7e-m/fpu/libg.a(lib_a-strtod.o) (__aeabi_d2uiz)
/usr/bin/../lib/gcc/arm-none-eabi/4.9.3/armv7e-m/fpu/libgcc.a(_aeabi_uldivmod.o)
                              /usr/bin/../lib/gcc/arm-none-eabi/4.9.3/../../../../arm-none-eabi/lib/armv7e-m/fpu/libg.a(lib_a-strtoll_r.o) (__aeabi_uldivmod)
/usr/bin/../lib/gcc/arm-none-eabi/4.9.3/armv7e-m/fpu/libgcc.a(bpabi.o)
                              /usr/bin/../lib/gcc/arm-none-eabi/4.9.3/armv7e-m/fpu/libgcc.a(_aeabi_uldivmod.o) (__gnu_uldivmod_helper)
/usr/bin/../lib/gcc/arm-none-eabi/4.9.3/armv7e-m/fpu/libgcc.a(_dvmd_tls.o)
                              /usr/bin/../lib/gcc/arm-none-eabi/4.9.3/armv7e-m/fpu/libgcc.a(_aeabi_uldivmod.o) (__aeabi_ldiv0)
/usr/bin/../lib/gcc/arm-none-eabi/4.9.3/armv7e-m/fpu/libgcc.a(_divdi3.o)
                              /usr/bin/../lib/gcc/arm-none-eabi/4.9.3/armv7e-m/fpu/libgcc.a(bpabi.o) (__divdi3)
/usr/bin/../lib/gcc/arm-none-eabi/4.9.3/armv7e-m/fpu/libgcc.a(_udivdi3.o)
                              /usr/bin/../lib/gcc/arm-none-eabi/4.9.3/armv7e-m/fpu/libgcc.a(bpabi.o) (__udivdi3)

Discarded input sections

 .data          0x00000000        0x0 build/obj/crt0_v7m.o
 .bss           0x00000000        0x0 build/obj/crt0_v7m.o
 .data          0x00000000        0x0 build/obj/chcoreasm_v7m.o
 .bss           0x00000000        0x0 build/obj/chcoreasm_v7m.o
 .text          0x00000000        0x0 build/obj/crt1.o
 .data          0x00000000        0x0 build/obj/crt1.o
 .bss           0x00000000        0x0 build/obj/crt1.o
 .text.__early_init
                0x00000000        0x4 build/obj/crt1.o
 .text          0x00000000        0x0 build/obj/vectors.o
 .data          0x00000000        0x0 build/obj/vectors.o
 .bss           0x00000000        0x0 build/obj/vectors.o
 .text          0x00000000        0x0 build/obj/chsys.o
 .data          0x00000000        0x0 build/obj/chsys.o
 .bss           0x00000000        0x0 build/obj/chsys.o
 .text.chSysIntegrityCheckI
                0x00000000       0xc0 build/obj/chsys.o
 .text.chSysGetStatusAndLockX
                0x00000000       0x14 build/obj/chsys.o
 .text.chSysRestoreStatusX
                0x00000000       0x20 build/obj/chsys.o
 .text.chSysIsCounterWithinX
                0x00000000       0x10 build/obj/chsys.o
 .text          0x00000000        0x0 build/obj/chdebug.o
 .data          0x00000000        0x0 build/obj/chdebug.o
 .bss           0x00000000        0x0 build/obj/chdebug.o
 .debug_info    0x00000000      0x719 build/obj/chdebug.o
 .debug_abbrev  0x00000000      0x125 build/obj/chdebug.o
 .debug_aranges
                0x00000000       0x18 build/obj/chdebug.o
 .debug_line    0x00000000      0x182 build/obj/chdebug.o
 .debug_str     0x00000000      0x5a9 build/obj/chdebug.o
 .comment       0x00000000       0x71 build/obj/chdebug.o
 .ARM.attributes
                0x00000000       0x39 build/obj/chdebug.o
 .text          0x00000000        0x0 build/obj/chvt.o
 .data          0x00000000        0x0 build/obj/chvt.o
 .bss           0x00000000        0x0 build/obj/chvt.o
 .text          0x00000000        0x0 build/obj/chschd.o
 .data          0x00000000        0x0 build/obj/chschd.o
 .bss           0x00000000        0x0 build/obj/chschd.o
 .text          0x00000000        0x0 build/obj/chthreads.o
 .data          0x00000000        0x0 build/obj/chthreads.o
 .bss           0x00000000        0x0 build/obj/chthreads.o
 .text.chThdStart
                0x00000000       0x14 build/obj/chthreads.o
 .text.chThdSetPriority
                0x00000000       0x30 build/obj/chthreads.o
 .text.chThdTerminate
                0x00000000       0x18 build/obj/chthreads.o
 .text.chThdSleepUntil
                0x00000000       0x24 build/obj/chthreads.o
 .text.chThdSleepUntilWindowed
                0x00000000       0x2c build/obj/chthreads.o
 .text.chThdYield
                0x00000000       0x28 build/obj/chthreads.o
 .text.chThdWait
                0x00000000       0x38 build/obj/chthreads.o
 .text.chThdResumeS
                0x00000000       0x10 build/obj/chthreads.o
 .text.chThdResume
                0x00000000       0x28 build/obj/chthreads.o
 .text.chThdDequeueNextI
                0x00000000       0x20 build/obj/chthreads.o
 .text          0x00000000        0x0 build/obj/chtm.o
 .data          0x00000000        0x0 build/obj/chtm.o
 .bss           0x00000000        0x0 build/obj/chtm.o
 .text.chTMObjectInit
                0x00000000       0x18 build/obj/chtm.o
 .text.chTMChainMeasurementToX
                0x00000000       0x40 build/obj/chtm.o
 .text          0x00000000        0x0 build/obj/chdynamic.o
 .data          0x00000000        0x0 build/obj/chdynamic.o
 .bss           0x00000000        0x0 build/obj/chdynamic.o
 .text.chThdAddRef
                0x00000000       0x14 build/obj/chdynamic.o
 .text.chThdCreateFromHeap
                0x00000000       0x3c build/obj/chdynamic.o
 .text.chThdCreateFromMemoryPool
                0x00000000       0x44 build/obj/chdynamic.o
 .text          0x00000000        0x0 build/obj/chregistry.o
 .data          0x00000000        0x0 build/obj/chregistry.o
 .bss           0x00000000        0x0 build/obj/chregistry.o
 .text          0x00000000        0x0 build/obj/chsem.o
 .data          0x00000000        0x0 build/obj/chsem.o
 .bss           0x00000000        0x0 build/obj/chsem.o
 .text.chSemObjectInit
                0x00000000        0x8 build/obj/chsem.o
 .text.chSemResetI
                0x00000000       0x28 build/obj/chsem.o
 .text.chSemReset
                0x00000000       0x18 build/obj/chsem.o
 .text.chSemWait
                0x00000000       0x44 build/obj/chsem.o
 .text.chSemWaitS
                0x00000000       0x34 build/obj/chsem.o
 .text.chSemWaitTimeoutS
                0x00000000       0x40 build/obj/chsem.o
 .text.chSemWaitTimeout
                0x00000000       0x14 build/obj/chsem.o
 .text.chSemSignal
                0x00000000       0x34 build/obj/chsem.o
 .text.chSemSignalI
                0x00000000       0x20 build/obj/chsem.o
 .text.chSemAddCounterI
                0x00000000       0x30 build/obj/chsem.o
 .text.chSemSignalWait
                0x00000000       0x6c build/obj/chsem.o
 .debug_info    0x00000000     0x1173 build/obj/chsem.o
 .debug_abbrev  0x00000000      0x437 build/obj/chsem.o
 .debug_loc     0x00000000      0x5a8 build/obj/chsem.o
 .debug_aranges
                0x00000000       0x70 build/obj/chsem.o
 .debug_ranges  0x00000000      0x168 build/obj/chsem.o
 .debug_line    0x00000000      0x412 build/obj/chsem.o
 .debug_str     0x00000000      0x723 build/obj/chsem.o
 .comment       0x00000000       0x71 build/obj/chsem.o
 .debug_frame   0x00000000      0x14c build/obj/chsem.o
 .ARM.attributes
                0x00000000       0x39 build/obj/chsem.o
 .text          0x00000000        0x0 build/obj/chmtx.o
 .data          0x00000000        0x0 build/obj/chmtx.o
 .bss           0x00000000        0x0 build/obj/chmtx.o
 .text.chMtxTryLock
                0x00000000       0x30 build/obj/chmtx.o
 .text.chMtxTryLockS
                0x00000000       0x20 build/obj/chmtx.o
 .text.chMtxUnlockS
                0x00000000       0x50 build/obj/chmtx.o
 .text.chMtxUnlockAll
                0x00000000       0x54 build/obj/chmtx.o
 .text          0x00000000        0x0 build/obj/chcond.o
 .data          0x00000000        0x0 build/obj/chcond.o
 .bss           0x00000000        0x0 build/obj/chcond.o
 .text.chCondObjectInit
                0x00000000        0x8 build/obj/chcond.o
 .text.chCondSignal
                0x00000000       0x28 build/obj/chcond.o
 .text.chCondSignalI
                0x00000000       0x18 build/obj/chcond.o
 .text.chCondBroadcastI
                0x00000000       0x24 build/obj/chcond.o
 .text.chCondBroadcast
                0x00000000       0x18 build/obj/chcond.o
 .text.chCondWaitS
                0x00000000       0x44 build/obj/chcond.o
 .text.chCondWait
                0x00000000       0x14 build/obj/chcond.o
 .text.chCondWaitTimeoutS
                0x00000000       0x50 build/obj/chcond.o
 .text.chCondWaitTimeout
                0x00000000       0x14 build/obj/chcond.o
 .debug_info    0x00000000      0xfff build/obj/chcond.o
 .debug_abbrev  0x00000000      0x3cb build/obj/chcond.o
 .debug_loc     0x00000000      0x377 build/obj/chcond.o
 .debug_aranges
                0x00000000       0x60 build/obj/chcond.o
 .debug_ranges  0x00000000       0xc0 build/obj/chcond.o
 .debug_line    0x00000000      0x3af build/obj/chcond.o
 .debug_str     0x00000000      0x779 build/obj/chcond.o
 .comment       0x00000000       0x71 build/obj/chcond.o
 .debug_frame   0x00000000      0x108 build/obj/chcond.o
 .ARM.attributes
                0x00000000       0x39 build/obj/chcond.o
 .text          0x00000000        0x0 build/obj/chevents.o
 .data          0x00000000        0x0 build/obj/chevents.o
 .bss           0x00000000        0x0 build/obj/chevents.o
 .text.chEvtGetAndClearEvents
                0x00000000       0x20 build/obj/chevents.o
 .text.chEvtAddEvents
                0x00000000       0x1c build/obj/chevents.o
 .text.chEvtGetAndClearFlags
                0x00000000       0x14 build/obj/chevents.o
 .text.chEvtBroadcastFlags
                0x00000000       0x18 build/obj/chevents.o
 .text.chEvtGetAndClearFlagsI
                0x00000000        0xc build/obj/chevents.o
 .text.chEvtDispatch
                0x00000000       0x38 build/obj/chevents.o
 .text.chEvtWaitOne
                0x00000000       0x3c build/obj/chevents.o
 .text.chEvtWaitAll
                0x00000000       0x38 build/obj/chevents.o
 .text.chEvtWaitOneTimeout
                0x00000000       0x50 build/obj/chevents.o
 .text.chEvtWaitAllTimeout
                0x00000000       0x48 build/obj/chevents.o
 .text          0x00000000        0x0 build/obj/chmsg.o
 .data          0x00000000        0x0 build/obj/chmsg.o
 .bss           0x00000000        0x0 build/obj/chmsg.o
 .text.chMsgSend
                0x00000000       0x40 build/obj/chmsg.o
 .text.chMsgWait
                0x00000000       0x3c build/obj/chmsg.o
 .text.chMsgRelease
                0x00000000       0x14 build/obj/chmsg.o
 .debug_info    0x00000000      0xb97 build/obj/chmsg.o
 .debug_abbrev  0x00000000      0x31f build/obj/chmsg.o
 .debug_loc     0x00000000      0x179 build/obj/chmsg.o
 .debug_aranges
                0x00000000       0x30 build/obj/chmsg.o
 .debug_ranges  0x00000000       0x80 build/obj/chmsg.o
 .debug_line    0x00000000      0x299 build/obj/chmsg.o
 .debug_str     0x00000000      0x67b build/obj/chmsg.o
 .comment       0x00000000       0x71 build/obj/chmsg.o
 .debug_frame   0x00000000       0x68 build/obj/chmsg.o
 .ARM.attributes
                0x00000000       0x39 build/obj/chmsg.o
 .text          0x00000000        0x0 build/obj/chmboxes.o
 .data          0x00000000        0x0 build/obj/chmboxes.o
 .bss           0x00000000        0x0 build/obj/chmboxes.o
 .text.chMBObjectInit
                0x00000000       0x28 build/obj/chmboxes.o
 .text.chMBResetI
                0x00000000       0x24 build/obj/chmboxes.o
 .text.chMBReset
                0x00000000       0x18 build/obj/chmboxes.o
 .text.chMBPostS
                0x00000000       0x38 build/obj/chmboxes.o
 .text.chMBPost
                0x00000000       0x14 build/obj/chmboxes.o
 .text.chMBPostI
                0x00000000       0x34 build/obj/chmboxes.o
 .text.chMBPostAheadS
                0x00000000       0x38 build/obj/chmboxes.o
 .text.chMBPostAhead
                0x00000000       0x14 build/obj/chmboxes.o
 .text.chMBPostAheadI
                0x00000000       0x30 build/obj/chmboxes.o
 .text.chMBFetchS
                0x00000000       0x38 build/obj/chmboxes.o
 .text.chMBFetch
                0x00000000       0x14 build/obj/chmboxes.o
 .text.chMBFetchI
                0x00000000       0x38 build/obj/chmboxes.o
 .debug_info    0x00000000     0x11c1 build/obj/chmboxes.o
 .debug_abbrev  0x00000000      0x3c8 build/obj/chmboxes.o
 .debug_loc     0x00000000      0x64c build/obj/chmboxes.o
 .debug_aranges
                0x00000000       0x78 build/obj/chmboxes.o
 .debug_ranges  0x00000000       0xc8 build/obj/chmboxes.o
 .debug_line    0x00000000      0x3a3 build/obj/chmboxes.o
 .debug_str     0x00000000      0x749 build/obj/chmboxes.o
 .comment       0x00000000       0x71 build/obj/chmboxes.o
 .debug_frame   0x00000000      0x180 build/obj/chmboxes.o
 .ARM.attributes
                0x00000000       0x39 build/obj/chmboxes.o
 .text          0x00000000        0x0 build/obj/chqueues.o
 .data          0x00000000        0x0 build/obj/chqueues.o
 .bss           0x00000000        0x0 build/obj/chqueues.o
 .text.chIQPutI
                0x00000000       0x38 build/obj/chqueues.o
 .text.chOQGetI
                0x00000000       0x38 build/obj/chqueues.o
 .text          0x00000000        0x0 build/obj/chmemcore.o
 .data          0x00000000        0x0 build/obj/chmemcore.o
 .bss           0x00000000        0x0 build/obj/chmemcore.o
 .text.chCoreAllocI
                0x00000000       0x2c build/obj/chmemcore.o
 .text          0x00000000        0x0 build/obj/chheap.o
 .data          0x00000000        0x0 build/obj/chheap.o
 .bss           0x00000000        0x0 build/obj/chheap.o
 .text.chHeapObjectInit
                0x00000000       0x14 build/obj/chheap.o
 .text.chHeapAlloc
                0x00000000       0x8c build/obj/chheap.o
 .text          0x00000000        0x0 build/obj/chmempools.o
 .data          0x00000000        0x0 build/obj/chmempools.o
 .bss           0x00000000        0x0 build/obj/chmempools.o
 .text.chPoolObjectInit
                0x00000000        0xc build/obj/chmempools.o
 .text.chPoolLoadArray
                0x00000000       0x24 build/obj/chmempools.o
 .text.chPoolAllocI
                0x00000000       0x18 build/obj/chmempools.o
 .text.chPoolAlloc
                0x00000000       0x2c build/obj/chmempools.o
 .text.chPoolFreeI
                0x00000000        0x8 build/obj/chmempools.o
 .text          0x00000000        0x0 build/obj/chcore.o
 .data          0x00000000        0x0 build/obj/chcore.o
 .bss           0x00000000        0x0 build/obj/chcore.o
 .debug_info    0x00000000      0x719 build/obj/chcore.o
 .debug_abbrev  0x00000000      0x125 build/obj/chcore.o
 .debug_aranges
                0x00000000       0x18 build/obj/chcore.o
 .debug_line    0x00000000      0x182 build/obj/chcore.o
 .debug_str     0x00000000      0x5b1 build/obj/chcore.o
 .comment       0x00000000       0x71 build/obj/chcore.o
 .ARM.attributes
                0x00000000       0x39 build/obj/chcore.o
 .text          0x00000000        0x0 build/obj/chcore_v7m.o
 .data          0x00000000        0x0 build/obj/chcore_v7m.o
 .bss           0x00000000        0x0 build/obj/chcore_v7m.o
 .text          0x00000000        0x0 build/obj/osal.o
 .data          0x00000000        0x0 build/obj/osal.o
 .bss           0x00000000        0x0 build/obj/osal.o
 .debug_info    0x00000000      0x719 build/obj/osal.o
 .debug_abbrev  0x00000000      0x125 build/obj/osal.o
 .debug_aranges
                0x00000000       0x18 build/obj/osal.o
 .debug_line    0x00000000      0x182 build/obj/osal.o
 .debug_str     0x00000000      0x5ab build/obj/osal.o
 .comment       0x00000000       0x71 build/obj/osal.o
 .ARM.attributes
                0x00000000       0x39 build/obj/osal.o
 .text          0x00000000        0x0 build/obj/hal.o
 .data          0x00000000        0x0 build/obj/hal.o
 .bss           0x00000000        0x0 build/obj/hal.o
 .text          0x00000000        0x0 build/obj/st.o
 .data          0x00000000        0x0 build/obj/st.o
 .bss           0x00000000        0x0 build/obj/st.o
 .text.stStartAlarm
                0x00000000       0x10 build/obj/st.o
 .text.stStopAlarm
                0x00000000        0xc build/obj/st.o
 .text.stSetAlarm
                0x00000000        0x8 build/obj/st.o
 .text.stGetAlarm
                0x00000000        0x8 build/obj/st.o
 .text          0x00000000        0x0 build/obj/hal_queues.o
 .data          0x00000000        0x0 build/obj/hal_queues.o
 .bss           0x00000000        0x0 build/obj/hal_queues.o
 .debug_info    0x00000000      0x720 build/obj/hal_queues.o
 .debug_abbrev  0x00000000      0x125 build/obj/hal_queues.o
 .debug_aranges
                0x00000000       0x18 build/obj/hal_queues.o
 .debug_line    0x00000000      0x182 build/obj/hal_queues.o
 .debug_str     0x00000000      0x5b3 build/obj/hal_queues.o
 .comment       0x00000000       0x71 build/obj/hal_queues.o
 .ARM.attributes
                0x00000000       0x39 build/obj/hal_queues.o
 .text          0x00000000        0x0 build/obj/hal_mmcsd.o
 .data          0x00000000        0x0 build/obj/hal_mmcsd.o
 .bss           0x00000000        0x0 build/obj/hal_mmcsd.o
 .debug_info    0x00000000      0x720 build/obj/hal_mmcsd.o
 .debug_abbrev  0x00000000      0x125 build/obj/hal_mmcsd.o
 .debug_aranges
                0x00000000       0x18 build/obj/hal_mmcsd.o
 .debug_line    0x00000000      0x182 build/obj/hal_mmcsd.o
 .debug_str     0x00000000      0x5b2 build/obj/hal_mmcsd.o
 .comment       0x00000000       0x71 build/obj/hal_mmcsd.o
 .ARM.attributes
                0x00000000       0x39 build/obj/hal_mmcsd.o
 .text          0x00000000        0x0 build/obj/can.o
 .data          0x00000000        0x0 build/obj/can.o
 .bss           0x00000000        0x0 build/obj/can.o
 .text.canStop  0x00000000       0x38 build/obj/can.o
 .text.canSleep
                0x00000000       0x38 build/obj/can.o
 .text.canWakeup
                0x00000000       0x38 build/obj/can.o
 .text          0x00000000        0x0 build/obj/i2c.o
 .data          0x00000000        0x0 build/obj/i2c.o
 .bss           0x00000000        0x0 build/obj/i2c.o
 .text.i2cGetErrors
                0x00000000        0x4 build/obj/i2c.o
 .text          0x00000000        0x0 build/obj/icu.o
 .data          0x00000000        0x0 build/obj/icu.o
 .bss           0x00000000        0x0 build/obj/icu.o
 .text.icuStop  0x00000000       0x1c build/obj/icu.o
 .text.icuWaitCapture
                0x00000000       0x20 build/obj/icu.o
 .text.icuStopCapture
                0x00000000       0x1c build/obj/icu.o
 .text.icuDisableNotifications
                0x00000000       0x14 build/obj/icu.o
 .text          0x00000000        0x0 build/obj/pal.o
 .data          0x00000000        0x0 build/obj/pal.o
 .bss           0x00000000        0x0 build/obj/pal.o
 .text.palReadBus
                0x00000000       0x10 build/obj/pal.o
 .text.palWriteBus
                0x00000000       0x20 build/obj/pal.o
 .text.palSetBusMode
                0x00000000        0xc build/obj/pal.o
 .debug_info    0x00000000      0x9a3 build/obj/pal.o
 .debug_abbrev  0x00000000      0x1cd build/obj/pal.o
 .debug_loc     0x00000000       0xb0 build/obj/pal.o
 .debug_aranges
                0x00000000       0x30 build/obj/pal.o
 .debug_ranges  0x00000000       0x20 build/obj/pal.o
 .debug_line    0x00000000      0x260 build/obj/pal.o
 .debug_str     0x00000000      0x690 build/obj/pal.o
 .comment       0x00000000       0x71 build/obj/pal.o
 .debug_frame   0x00000000       0x50 build/obj/pal.o
 .ARM.attributes
                0x00000000       0x39 build/obj/pal.o
 .text          0x00000000        0x0 build/obj/serial_usb.o
 .data          0x00000000        0x0 build/obj/serial_usb.o
 .bss           0x00000000        0x0 build/obj/serial_usb.o
 .text.sduStop  0x00000000       0x5c build/obj/serial_usb.o
 .text          0x00000000        0x0 build/obj/spi.o
 .data          0x00000000        0x0 build/obj/spi.o
 .bss           0x00000000        0x0 build/obj/spi.o
 .text.spiStart
                0x00000000       0x1c build/obj/spi.o
 .text.spiStop  0x00000000       0x1c build/obj/spi.o
 .text.spiSelect
                0x00000000       0x14 build/obj/spi.o
 .text.spiUnselect
                0x00000000       0x14 build/obj/spi.o
 .text.spiStartIgnore
                0x00000000       0x18 build/obj/spi.o
 .text.spiStartExchange
                0x00000000       0x18 build/obj/spi.o
 .text.spiStartSend
                0x00000000       0x18 build/obj/spi.o
 .text.spiStartReceive
                0x00000000       0x18 build/obj/spi.o
 .text.spiIgnore
                0x00000000       0x24 build/obj/spi.o
 .text.spiExchange
                0x00000000       0x24 build/obj/spi.o
 .text.spiSend  0x00000000       0x24 build/obj/spi.o
 .text.spiReceive
                0x00000000       0x24 build/obj/spi.o
 .text.spiAcquireBus
                0x00000000        0x8 build/obj/spi.o
 .text.spiReleaseBus
                0x00000000        0x8 build/obj/spi.o
 .text          0x00000000        0x0 build/obj/uart.o
 .data          0x00000000        0x0 build/obj/uart.o
 .bss           0x00000000        0x0 build/obj/uart.o
 .text.uartStartSendI
                0x00000000       0x10 build/obj/uart.o
 .text.uartStopSend
                0x00000000       0x2c build/obj/uart.o
 .text.uartStopSendI
                0x00000000       0x18 build/obj/uart.o
 .text.uartStartReceive
                0x00000000       0x1c build/obj/uart.o
 .text.uartStartReceiveI
                0x00000000       0x10 build/obj/uart.o
 .text.uartStopReceive
                0x00000000       0x2c build/obj/uart.o
 .text.uartStopReceiveI
                0x00000000       0x18 build/obj/uart.o
 .text          0x00000000        0x0 build/obj/usb.o
 .data          0x00000000        0x0 build/obj/usb.o
 .bss           0x00000000        0x0 build/obj/usb.o
 .text.usbDisableEndpointsI
                0x00000000       0x24 build/obj/usb.o
 .text.usbPrepareReceive
                0x00000000       0x1c build/obj/usb.o
 .text.usbPrepareTransmit
                0x00000000       0x1c build/obj/usb.o
 .text.usbStallReceiveI
                0x00000000       0x1c build/obj/usb.o
 .text.usbStallTransmitI
                0x00000000       0x1c build/obj/usb.o
 .text          0x00000000        0x0 build/obj/nvic.o
 .data          0x00000000        0x0 build/obj/nvic.o
 .bss           0x00000000        0x0 build/obj/nvic.o
 .text.nvicClearPending
                0x00000000       0x18 build/obj/nvic.o
 .text          0x00000000        0x0 build/obj/stm32_dma.o
 .data          0x00000000        0x0 build/obj/stm32_dma.o
 .bss           0x00000000        0x0 build/obj/stm32_dma.o
 .text          0x00000000        0x0 build/obj/hal_lld.o
 .data          0x00000000        0x0 build/obj/hal_lld.o
 .bss           0x00000000        0x0 build/obj/hal_lld.o
 .data.SystemCoreClock
                0x00000000        0x4 build/obj/hal_lld.o
 .text          0x00000000        0x0 build/obj/st_lld.o
 .data          0x00000000        0x0 build/obj/st_lld.o
 .bss           0x00000000        0x0 build/obj/st_lld.o
 .text          0x00000000        0x0 build/obj/can_lld.o
 .data          0x00000000        0x0 build/obj/can_lld.o
 .bss           0x00000000        0x0 build/obj/can_lld.o
 .text.can_lld_stop
                0x00000000       0x50 build/obj/can_lld.o
 .text.can_lld_sleep
                0x00000000        0xc build/obj/can_lld.o
 .text.can_lld_wakeup
                0x00000000        0xc build/obj/can_lld.o
 .text.canSTM32SetFilters
                0x00000000        0x4 build/obj/can_lld.o
 .text          0x00000000        0x0 build/obj/pal_lld.o
 .data          0x00000000        0x0 build/obj/pal_lld.o
 .bss           0x00000000        0x0 build/obj/pal_lld.o
 .text          0x00000000        0x0 build/obj/i2c_lld.o
 .data          0x00000000        0x0 build/obj/i2c_lld.o
 .bss           0x00000000        0x0 build/obj/i2c_lld.o
 .text          0x00000000        0x0 build/obj/usb_lld.o
 .data          0x00000000        0x0 build/obj/usb_lld.o
 .bss           0x00000000        0x0 build/obj/usb_lld.o
 .text.usb_lld_disable_endpoints
                0x00000000       0x10 build/obj/usb_lld.o
 .text          0x00000000        0x0 build/obj/spi_lld.o
 .data          0x00000000        0x0 build/obj/spi_lld.o
 .bss           0x00000000        0x0 build/obj/spi_lld.o
 .text.spi_lld_serve_tx_interrupt
                0x00000000       0x14 build/obj/spi_lld.o
 .text.spi_lld_serve_rx_interrupt
                0x00000000       0x80 build/obj/spi_lld.o
 .text.spi_lld_start
                0x00000000       0x94 build/obj/spi_lld.o
 .text.spi_lld_stop
                0x00000000       0x3c build/obj/spi_lld.o
 .text.spi_lld_select
                0x00000000       0x10 build/obj/spi_lld.o
 .text.spi_lld_unselect
                0x00000000       0x10 build/obj/spi_lld.o
 .text.spi_lld_ignore
                0x00000000       0x3c build/obj/spi_lld.o
 .text.spi_lld_exchange
                0x00000000       0x38 build/obj/spi_lld.o
 .text.spi_lld_send
                0x00000000       0x38 build/obj/spi_lld.o
 .text.spi_lld_receive
                0x00000000       0x38 build/obj/spi_lld.o
 .text.spi_lld_polled_exchange
                0x00000000       0x10 build/obj/spi_lld.o
 .rodata.str1.4
                0x00000000        0xc build/obj/spi_lld.o
 .bss.dummyrx   0x00000000        0x2 build/obj/spi_lld.o
 .text          0x00000000        0x0 build/obj/icu_lld.o
 .data          0x00000000        0x0 build/obj/icu_lld.o
 .bss           0x00000000        0x0 build/obj/icu_lld.o
 .text.icu_lld_wait_edge.isra.0
                0x00000000       0x38 build/obj/icu_lld.o
 .text.icu_lld_stop
                0x00000000       0x34 build/obj/icu_lld.o
 .text.icu_lld_wait_capture
                0x00000000       0x2c build/obj/icu_lld.o
 .text.icu_lld_stop_capture
                0x00000000       0x10 build/obj/icu_lld.o
 .text.icu_lld_disable_notifications
                0x00000000        0xc build/obj/icu_lld.o
 .text          0x00000000        0x0 build/obj/uart_lld.o
 .data          0x00000000        0x0 build/obj/uart_lld.o
 .bss           0x00000000        0x0 build/obj/uart_lld.o
 .text.uart_lld_stop_send
                0x00000000       0x20 build/obj/uart_lld.o
 .text.uart_lld_start_receive
                0x00000000       0x38 build/obj/uart_lld.o
 .text.uart_lld_stop_receive
                0x00000000       0x4c build/obj/uart_lld.o
 .text          0x00000000        0x0 build/obj/board.o
 .data          0x00000000        0x0 build/obj/board.o
 .bss           0x00000000        0x0 build/obj/board.o
 .text          0x00000000        0x0 build/obj/chprintf.o
 .data          0x00000000        0x0 build/obj/chprintf.o
 .bss           0x00000000        0x0 build/obj/chprintf.o
 .text.long_to_string_with_divisor
                0x00000000       0x48 build/obj/chprintf.o
 .text.chvprintf
                0x00000000      0x408 build/obj/chprintf.o
 .text.chsnprintf
                0x00000000       0x60 build/obj/chprintf.o
 .rodata.str1.4
                0x00000000        0x7 build/obj/chprintf.o
 .rodata.pow10  0x00000000       0x24 build/obj/chprintf.o
 .debug_info    0x00000000      0xd77 build/obj/chprintf.o
 .debug_abbrev  0x00000000      0x32b build/obj/chprintf.o
 .debug_loc     0x00000000      0xa64 build/obj/chprintf.o
 .debug_aranges
                0x00000000       0x30 build/obj/chprintf.o
 .debug_ranges  0x00000000       0x50 build/obj/chprintf.o
 .debug_line    0x00000000      0x38d build/obj/chprintf.o
 .debug_str     0x00000000      0x704 build/obj/chprintf.o
 .comment       0x00000000       0x71 build/obj/chprintf.o
 .debug_frame   0x00000000       0xdc build/obj/chprintf.o
 .ARM.attributes
                0x00000000       0x39 build/obj/chprintf.o
 .text          0x00000000        0x0 build/obj/syscalls.o
 .data          0x00000000        0x0 build/obj/syscalls.o
 .bss           0x00000000        0x0 build/obj/syscalls.o
 .text._read_r  0x00000000        0xc build/obj/syscalls.o
 .text._lseek_r
                0x00000000        0x4 build/obj/syscalls.o
 .text._write_r
                0x00000000        0x4 build/obj/syscalls.o
 .text._close_r
                0x00000000        0x4 build/obj/syscalls.o
 .text._fstat_r
                0x00000000       0x18 build/obj/syscalls.o
 .text._isatty_r
                0x00000000        0x4 build/obj/syscalls.o
 .text          0x00000000        0x0 build/obj/main.o
 .data          0x00000000        0x0 build/obj/main.o
 .bss           0x00000000        0x0 build/obj/main.o
 .text          0x00000000        0x0 build/obj/comm_usb_serial.o
 .data          0x00000000        0x0 build/obj/comm_usb_serial.o
 .bss           0x00000000        0x0 build/obj/comm_usb_serial.o
 .text.comm_usb_serial_is_active
                0x00000000       0x1c build/obj/comm_usb_serial.o
 .text          0x00000000        0x0 build/obj/irq_handlers.o
 .data          0x00000000        0x0 build/obj/irq_handlers.o
 .bss           0x00000000        0x0 build/obj/irq_handlers.o
 .text          0x00000000        0x0 build/obj/buffer.o
 .data          0x00000000        0x0 build/obj/buffer.o
 .bss           0x00000000        0x0 build/obj/buffer.o
 .text          0x00000000        0x0 build/obj/comm_usb.o
 .data          0x00000000        0x0 build/obj/comm_usb.o
 .bss           0x00000000        0x0 build/obj/comm_usb.o
 .text          0x00000000        0x0 build/obj/crc.o
 .data          0x00000000        0x0 build/obj/crc.o
 .bss           0x00000000        0x0 build/obj/crc.o
 .text          0x00000000        0x0 build/obj/digital_filter.o
 .data          0x00000000        0x0 build/obj/digital_filter.o
 .bss           0x00000000        0x0 build/obj/digital_filter.o
 .text.filter_dft
                0x00000000      0x174 build/obj/digital_filter.o
 .text.filter_fftshift
                0x00000000       0x2c build/obj/digital_filter.o
 .text.filter_zeroPad
                0x00000000       0x2c build/obj/digital_filter.o
 .text          0x00000000        0x0 build/obj/ledpwm.o
 .data          0x00000000        0x0 build/obj/ledpwm.o
 .bss           0x00000000        0x0 build/obj/ledpwm.o
 .text.ledpwm_led_on
                0x00000000       0x14 build/obj/ledpwm.o
 .text.ledpwm_led_off
                0x00000000       0x14 build/obj/ledpwm.o
 .text          0x00000000        0x0 build/obj/mcpwm.o
 .data          0x00000000        0x0 build/obj/mcpwm.o
 .bss           0x00000000        0x0 build/obj/mcpwm.o
 .text.mcpwm_get_duty_cycle_set
                0x00000000        0xc build/obj/mcpwm.o
 .text.mcpwm_get_kv
                0x00000000       0x4c build/obj/mcpwm.o
 .text.mcpwm_get_tot_current_in
                0x00000000       0x20 build/obj/mcpwm.o
 .text.mcpwm_set_comm_mode
                0x00000000        0xc build/obj/mcpwm.o
 .text.mcpwm_get_comm_mode
                0x00000000        0xc build/obj/mcpwm.o
 .text.mcpwm_set_duty_noramp
                0x00000000       0x34 build/obj/mcpwm.o
 .text          0x00000000        0x0 build/obj/servo_dec.o
 .data          0x00000000        0x0 build/obj/servo_dec.o
 .bss           0x00000000        0x0 build/obj/servo_dec.o
 .text          0x00000000        0x0 build/obj/utils.o
 .data          0x00000000        0x0 build/obj/utils.o
 .bss           0x00000000        0x0 build/obj/utils.o
 .text.utils_calc_ratio
                0x00000000       0x10 build/obj/utils.o
 .text.utils_map_int
                0x00000000       0x1c build/obj/utils.o
 .text.utils_middle_of_3_int
                0x00000000       0x34 build/obj/utils.o
 .text.utils_fast_inv_sqrt
                0x00000000       0x2c build/obj/utils.o
 .text.utils_fast_sincos
                0x00000000       0xc4 build/obj/utils.o
 .text.utils_avg_angles_rad_fast
                0x00000000       0x68 build/obj/utils.o
 .text          0x00000000        0x0 build/obj/servo.o
 .data          0x00000000        0x0 build/obj/servo.o
 .bss           0x00000000        0x0 build/obj/servo.o
 .debug_info    0x00000000      0x727 build/obj/servo.o
 .debug_abbrev  0x00000000      0x125 build/obj/servo.o
 .debug_aranges
                0x00000000       0x18 build/obj/servo.o
 .debug_line    0x00000000      0x182 build/obj/servo.o
 .debug_str     0x00000000      0x59b build/obj/servo.o
 .comment       0x00000000       0x71 build/obj/servo.o
 .ARM.attributes
                0x00000000       0x39 build/obj/servo.o
 .text          0x00000000        0x0 build/obj/servo_simple.o
 .data          0x00000000        0x0 build/obj/servo_simple.o
 .bss           0x00000000        0x0 build/obj/servo_simple.o
 .debug_info    0x00000000      0x727 build/obj/servo_simple.o
 .debug_abbrev  0x00000000      0x125 build/obj/servo_simple.o
 .debug_aranges
                0x00000000       0x18 build/obj/servo_simple.o
 .debug_line    0x00000000      0x182 build/obj/servo_simple.o
 .debug_str     0x00000000      0x5a2 build/obj/servo_simple.o
 .comment       0x00000000       0x71 build/obj/servo_simple.o
 .ARM.attributes
                0x00000000       0x39 build/obj/servo_simple.o
 .text          0x00000000        0x0 build/obj/packet.o
 .data          0x00000000        0x0 build/obj/packet.o
 .bss           0x00000000        0x0 build/obj/packet.o
 .text          0x00000000        0x0 build/obj/terminal.o
 .data          0x00000000        0x0 build/obj/terminal.o
 .bss           0x00000000        0x0 build/obj/terminal.o
 .text          0x00000000        0x0 build/obj/conf_general.o
 .data          0x00000000        0x0 build/obj/conf_general.o
 .bss           0x00000000        0x0 build/obj/conf_general.o
 .text          0x00000000        0x0 build/obj/eeprom.o
 .data          0x00000000        0x0 build/obj/eeprom.o
 .bss           0x00000000        0x0 build/obj/eeprom.o
 .text          0x00000000        0x0 build/obj/commands.o
 .data          0x00000000        0x0 build/obj/commands.o
 .bss           0x00000000        0x0 build/obj/commands.o
 .text.commands_send_experiment_samples
                0x00000000       0x7c build/obj/commands.o
 .text.commands_set_app_data_handler
                0x00000000        0xc build/obj/commands.o
 .text.commands_send_app_data
                0x00000000       0x34 build/obj/commands.o
 .text          0x00000000        0x0 build/obj/timeout.o
 .data          0x00000000        0x0 build/obj/timeout.o
 .bss           0x00000000        0x0 build/obj/timeout.o
 .text          0x00000000        0x0 build/obj/comm_can.o
 .data          0x00000000        0x0 build/obj/comm_can.o
 .bss           0x00000000        0x0 build/obj/comm_can.o
 .text.comm_can_set_rpm
                0x00000000       0x2c build/obj/comm_can.o
 .text.comm_can_set_pos
                0x00000000       0x38 build/obj/comm_can.o
 .text.comm_can_get_status_msg_id
                0x00000000       0x30 build/obj/comm_can.o
 .text          0x00000000        0x0 build/obj/ws2811.o
 .data          0x00000000        0x0 build/obj/ws2811.o
 .bss           0x00000000        0x0 build/obj/ws2811.o
 .text.ws2811_init
                0x00000000      0x1c4 build/obj/ws2811.o
 .text.ws2811_set_led_color
                0x00000000       0x5c build/obj/ws2811.o
 .text.ws2811_get_led_color
                0x00000000       0x14 build/obj/ws2811.o
 .text.ws2811_all_off
                0x00000000       0x2c build/obj/ws2811.o
 .text.ws2811_set_all
                0x00000000       0x5c build/obj/ws2811.o
 .bss.RGBdata   0x00000000       0x74 build/obj/ws2811.o
 .bss.bitbuffer
                0x00000000      0x5d4 build/obj/ws2811.o
 .bss.gamma_table
                0x00000000      0x100 build/obj/ws2811.o
 .debug_info    0x00000000     0x111e build/obj/ws2811.o
 .debug_abbrev  0x00000000      0x2e8 build/obj/ws2811.o
 .debug_loc     0x00000000      0x3ef build/obj/ws2811.o
 .debug_aranges
                0x00000000       0x40 build/obj/ws2811.o
 .debug_ranges  0x00000000       0x68 build/obj/ws2811.o
 .debug_line    0x00000000      0x421 build/obj/ws2811.o
 .debug_str     0x00000000      0xa34 build/obj/ws2811.o
 .comment       0x00000000       0x71 build/obj/ws2811.o
 .debug_frame   0x00000000       0xbc build/obj/ws2811.o
 .ARM.attributes
                0x00000000       0x39 build/obj/ws2811.o
 .text          0x00000000        0x0 build/obj/led_external.o
 .data          0x00000000        0x0 build/obj/led_external.o
 .bss           0x00000000        0x0 build/obj/led_external.o
 .text.wait_for_state_change
                0x00000000       0x44 build/obj/led_external.o
 .text.set_led_wrapper
                0x00000000       0x20 build/obj/led_external.o
 .text.led_thread
                0x00000000      0x3a0 build/obj/led_external.o
 .text.led_external_init
                0x00000000       0x34 build/obj/led_external.o
 .rodata.str1.4
                0x00000000        0xe build/obj/led_external.o
 .bss.led_thread_wa
                0x00000000      0x598 build/obj/led_external.o
 .text          0x00000000        0x0 build/obj/encoder.o
 .data          0x00000000        0x0 build/obj/encoder.o
 .bss           0x00000000        0x0 build/obj/encoder.o
 .text.spi_exchange
                0x00000000       0x18 build/obj/encoder.o
 .text          0x00000000        0x0 build/obj/flash_helper.o
 .data          0x00000000        0x0 build/obj/flash_helper.o
 .bss           0x00000000        0x0 build/obj/flash_helper.o
 .text          0x00000000        0x0 build/obj/mc_interface.o
 .data          0x00000000        0x0 build/obj/mc_interface.o
 .bss           0x00000000        0x0 build/obj/mc_interface.o
 .text.mc_interface_set_pwm_callback
                0x00000000        0xc build/obj/mc_interface.o
 .text.mc_interface_get_duty_cycle_set
                0x00000000       0x24 build/obj/mc_interface.o
 .text.mc_interface_get_tot_current_in
                0x00000000       0x24 build/obj/mc_interface.o
 .text.mc_interface_get_max_watt
                0x00000000        0xc build/obj/mc_interface.o
 .text.mc_interface_brake_now
                0x00000000        0xc build/obj/mc_interface.o
 .text.mc_interface_set_duty_noramp
                0x00000000       0x48 build/obj/mc_interface.o
 .text          0x00000000        0x0 build/obj/mcpwm_foc.o
 .data          0x00000000        0x0 build/obj/mcpwm_foc.o
 .bss           0x00000000        0x0 build/obj/mcpwm_foc.o
 .text.mcpwm_foc_set_duty_noramp
                0x00000000       0x28 build/obj/mcpwm_foc.o
 .text.mcpwm_foc_get_duty_cycle_set
                0x00000000        0xc build/obj/mcpwm_foc.o
 .text.mcpwm_foc_get_pid_pos_set
                0x00000000        0xc build/obj/mcpwm_foc.o
 .text.mcpwm_foc_get_tot_current_in
                0x00000000        0xc build/obj/mcpwm_foc.o
 .text.mcpwm_foc_get_phase
                0x00000000       0x30 build/obj/mcpwm_foc.o
 .text.mcpwm_foc_get_vd
                0x00000000        0xc build/obj/mcpwm_foc.o
 .text          0x00000000        0x0 build/obj/hw_40.o
 .data          0x00000000        0x0 build/obj/hw_40.o
 .bss           0x00000000        0x0 build/obj/hw_40.o
 .debug_info    0x00000000      0x727 build/obj/hw_40.o
 .debug_abbrev  0x00000000      0x125 build/obj/hw_40.o
 .debug_aranges
                0x00000000       0x18 build/obj/hw_40.o
 .debug_line    0x00000000      0x182 build/obj/hw_40.o
 .debug_str     0x00000000      0x5a2 build/obj/hw_40.o
 .comment       0x00000000       0x71 build/obj/hw_40.o
 .ARM.attributes
                0x00000000       0x39 build/obj/hw_40.o
 .text          0x00000000        0x0 build/obj/hw_45.o
 .data          0x00000000        0x0 build/obj/hw_45.o
 .bss           0x00000000        0x0 build/obj/hw_45.o
 .debug_info    0x00000000      0x727 build/obj/hw_45.o
 .debug_abbrev  0x00000000      0x125 build/obj/hw_45.o
 .debug_aranges
                0x00000000       0x18 build/obj/hw_45.o
 .debug_line    0x00000000      0x182 build/obj/hw_45.o
 .debug_str     0x00000000      0x5a2 build/obj/hw_45.o
 .comment       0x00000000       0x71 build/obj/hw_45.o
 .ARM.attributes
                0x00000000       0x39 build/obj/hw_45.o
 .text          0x00000000        0x0 build/obj/hw_r2.o
 .data          0x00000000        0x0 build/obj/hw_r2.o
 .bss           0x00000000        0x0 build/obj/hw_r2.o
 .debug_info    0x00000000      0x727 build/obj/hw_r2.o
 .debug_abbrev  0x00000000      0x125 build/obj/hw_r2.o
 .debug_aranges
                0x00000000       0x18 build/obj/hw_r2.o
 .debug_line    0x00000000      0x182 build/obj/hw_r2.o
 .debug_str     0x00000000      0x5a2 build/obj/hw_r2.o
 .comment       0x00000000       0x71 build/obj/hw_r2.o
 .ARM.attributes
                0x00000000       0x39 build/obj/hw_r2.o
 .text          0x00000000        0x0 build/obj/hw_46.o
 .data          0x00000000        0x0 build/obj/hw_46.o
 .bss           0x00000000        0x0 build/obj/hw_46.o
 .debug_info    0x00000000      0x727 build/obj/hw_46.o
 .debug_abbrev  0x00000000      0x125 build/obj/hw_46.o
 .debug_aranges
                0x00000000       0x18 build/obj/hw_46.o
 .debug_line    0x00000000      0x182 build/obj/hw_46.o
 .debug_str     0x00000000      0x5a2 build/obj/hw_46.o
 .comment       0x00000000       0x71 build/obj/hw_46.o
 .ARM.attributes
                0x00000000       0x39 build/obj/hw_46.o
 .text          0x00000000        0x0 build/obj/hw_48.o
 .data          0x00000000        0x0 build/obj/hw_48.o
 .bss           0x00000000        0x0 build/obj/hw_48.o
 .debug_info    0x00000000      0x727 build/obj/hw_48.o
 .debug_abbrev  0x00000000      0x125 build/obj/hw_48.o
 .debug_aranges
                0x00000000       0x18 build/obj/hw_48.o
 .debug_line    0x00000000      0x182 build/obj/hw_48.o
 .debug_str     0x00000000      0x5a2 build/obj/hw_48.o
 .comment       0x00000000       0x71 build/obj/hw_48.o
 .ARM.attributes
                0x00000000       0x39 build/obj/hw_48.o
 .text          0x00000000        0x0 build/obj/hw_49.o
 .data          0x00000000        0x0 build/obj/hw_49.o
 .bss           0x00000000        0x0 build/obj/hw_49.o
 .debug_info    0x00000000      0x727 build/obj/hw_49.o
 .debug_abbrev  0x00000000      0x125 build/obj/hw_49.o
 .debug_aranges
                0x00000000       0x18 build/obj/hw_49.o
 .debug_line    0x00000000      0x182 build/obj/hw_49.o
 .debug_str     0x00000000      0x5a2 build/obj/hw_49.o
 .comment       0x00000000       0x71 build/obj/hw_49.o
 .ARM.attributes
                0x00000000       0x39 build/obj/hw_49.o
 .text          0x00000000        0x0 build/obj/hw_410.o
 .data          0x00000000        0x0 build/obj/hw_410.o
 .bss           0x00000000        0x0 build/obj/hw_410.o
 .text.hw_setup_servo_outputs
                0x00000000       0x30 build/obj/hw_410.o
 .text          0x00000000        0x0 build/obj/hw_victor_r1a.o
 .data          0x00000000        0x0 build/obj/hw_victor_r1a.o
 .bss           0x00000000        0x0 build/obj/hw_victor_r1a.o
 .debug_info    0x00000000      0x727 build/obj/hw_victor_r1a.o
 .debug_abbrev  0x00000000      0x125 build/obj/hw_victor_r1a.o
 .debug_aranges
                0x00000000       0x18 build/obj/hw_victor_r1a.o
 .debug_line    0x00000000      0x182 build/obj/hw_victor_r1a.o
 .debug_str     0x00000000      0x5aa build/obj/hw_victor_r1a.o
 .comment       0x00000000       0x71 build/obj/hw_victor_r1a.o
 .ARM.attributes
                0x00000000       0x39 build/obj/hw_victor_r1a.o
 .text          0x00000000        0x0 build/obj/app.o
 .data          0x00000000        0x0 build/obj/app.o
 .bss           0x00000000        0x0 build/obj/app.o
 .text          0x00000000        0x0 build/obj/app_ppm.o
 .data          0x00000000        0x0 build/obj/app_ppm.o
 .bss           0x00000000        0x0 build/obj/app_ppm.o
 .text          0x00000000        0x0 build/obj/app_adc.o
 .data          0x00000000        0x0 build/obj/app_adc.o
 .bss           0x00000000        0x0 build/obj/app_adc.o
 .text          0x00000000        0x0 build/obj/app_sten.o
 .data          0x00000000        0x0 build/obj/app_sten.o
 .bss           0x00000000        0x0 build/obj/app_sten.o
 .debug_info    0x00000000      0x727 build/obj/app_sten.o
 .debug_abbrev  0x00000000      0x125 build/obj/app_sten.o
 .debug_aranges
                0x00000000       0x18 build/obj/app_sten.o
 .debug_line    0x00000000      0x182 build/obj/app_sten.o
 .debug_str     0x00000000      0x5ab build/obj/app_sten.o
 .comment       0x00000000       0x71 build/obj/app_sten.o
 .ARM.attributes
                0x00000000       0x39 build/obj/app_sten.o
 .text          0x00000000        0x0 build/obj/app_uartcomm.o
 .data          0x00000000        0x0 build/obj/app_uartcomm.o
 .bss           0x00000000        0x0 build/obj/app_uartcomm.o
 .text          0x00000000        0x0 build/obj/app_nunchuk.o
 .data          0x00000000        0x0 build/obj/app_nunchuk.o
 .bss           0x00000000        0x0 build/obj/app_nunchuk.o
 .text          0x00000000        0x0 build/obj/spi_sw.o
 .data          0x00000000        0x0 build/obj/spi_sw.o
 .bss           0x00000000        0x0 build/obj/spi_sw.o
 .text          0x00000000        0x0 build/obj/rf.o
 .data          0x00000000        0x0 build/obj/rf.o
 .bss           0x00000000        0x0 build/obj/rf.o
 .text.rf_write_ack_payload
                0x00000000       0x38 build/obj/rf.o
 .text.rf_clear_tx_irq
                0x00000000       0x1c build/obj/rf.o
 .text.rf_get_frequency
                0x00000000       0x20 build/obj/rf.o
 .text.rf_get_address_width
                0x00000000       0x1c build/obj/rf.o
 .text.rf_fifo_status
                0x00000000       0x1c build/obj/rf.o
 .text.rf_rx_power_detect
                0x00000000       0x1c build/obj/rf.o
 .text.rf_read_reg_byte
                0x00000000       0x18 build/obj/rf.o
 .text          0x00000000        0x0 build/obj/rfhelp.o
 .data          0x00000000        0x0 build/obj/rfhelp.o
 .bss           0x00000000        0x0 build/obj/rfhelp.o
 .text.rfhelp_rf_status
                0x00000000       0x20 build/obj/rfhelp.o
 .text.rfhelp_set_tx_addr
                0x00000000       0x58 build/obj/rfhelp.o
 .text.rfhelp_set_rx_addr
                0x00000000       0x78 build/obj/rfhelp.o
 .text.rfhelp_power_down
                0x00000000       0x1c build/obj/rfhelp.o
 .text          0x00000000        0x0 build/obj/nrf_driver.o
 .data          0x00000000        0x0 build/obj/nrf_driver.o
 .bss           0x00000000        0x0 build/obj/nrf_driver.o
 .text          0x00000000        0x0 build/obj/misc.o
 .data          0x00000000        0x0 build/obj/misc.o
 .bss           0x00000000        0x0 build/obj/misc.o
 .text.NVIC_PriorityGroupConfig
                0x00000000       0x14 build/obj/misc.o
 .text.NVIC_Init
                0x00000000       0x70 build/obj/misc.o
 .text.NVIC_SetVectorTable
                0x00000000       0x14 build/obj/misc.o
 .text.NVIC_SystemLPConfig
                0x00000000       0x18 build/obj/misc.o
 .text.SysTick_CLKSourceConfig
                0x00000000       0x18 build/obj/misc.o
 .debug_info    0x00000000      0x545 build/obj/misc.o
 .debug_abbrev  0x00000000      0x156 build/obj/misc.o
 .debug_loc     0x00000000      0x161 build/obj/misc.o
 .debug_aranges
                0x00000000       0x40 build/obj/misc.o
 .debug_ranges  0x00000000       0x30 build/obj/misc.o
 .debug_line    0x00000000      0x1c4 build/obj/misc.o
 .debug_str     0x00000000      0x496 build/obj/misc.o
 .comment       0x00000000       0x71 build/obj/misc.o
 .debug_frame   0x00000000       0x7c build/obj/misc.o
 .ARM.attributes
                0x00000000       0x39 build/obj/misc.o
 .text          0x00000000        0x0 build/obj/stm32f4xx_adc.o
 .data          0x00000000        0x0 build/obj/stm32f4xx_adc.o
 .bss           0x00000000        0x0 build/obj/stm32f4xx_adc.o
 .text.ADC_StructInit
                0x00000000       0x14 build/obj/stm32f4xx_adc.o
 .text.ADC_CommonStructInit
                0x00000000        0xc build/obj/stm32f4xx_adc.o
 .text.ADC_AnalogWatchdogCmd
                0x00000000       0x10 build/obj/stm32f4xx_adc.o
 .text.ADC_AnalogWatchdogThresholdsConfig
                0x00000000        0x8 build/obj/stm32f4xx_adc.o
 .text.ADC_AnalogWatchdogSingleChannelConfig
                0x00000000        0xc build/obj/stm32f4xx_adc.o
 .text.ADC_VBATCmd
                0x00000000       0x1c build/obj/stm32f4xx_adc.o
 .text.ADC_SoftwareStartConv
                0x00000000        0xc build/obj/stm32f4xx_adc.o
 .text.ADC_GetSoftwareStartConvStatus
                0x00000000        0x8 build/obj/stm32f4xx_adc.o
 .text.ADC_EOCOnEachRegularChannelCmd
                0x00000000       0x14 build/obj/stm32f4xx_adc.o
 .text.ADC_ContinuousModeCmd
                0x00000000       0x14 build/obj/stm32f4xx_adc.o
 .text.ADC_DiscModeChannelCountConfig
                0x00000000       0x10 build/obj/stm32f4xx_adc.o
 .text.ADC_DiscModeCmd
                0x00000000       0x14 build/obj/stm32f4xx_adc.o
 .text.ADC_GetConversionValue
                0x00000000        0x8 build/obj/stm32f4xx_adc.o
 .text.ADC_GetMultiModeConversionValue
                0x00000000        0xc build/obj/stm32f4xx_adc.o
 .text.ADC_DMACmd
                0x00000000       0x14 build/obj/stm32f4xx_adc.o
 .text.ADC_DMARequestAfterLastTransferCmd
                0x00000000       0x14 build/obj/stm32f4xx_adc.o
 .text.ADC_SetInjectedOffset
                0x00000000       0x18 build/obj/stm32f4xx_adc.o
 .text.ADC_SoftwareStartInjectedConv
                0x00000000        0xc build/obj/stm32f4xx_adc.o
 .text.ADC_GetSoftwareStartInjectedConvCmdStatus
                0x00000000        0x8 build/obj/stm32f4xx_adc.o
 .text.ADC_AutoInjectedConvCmd
                0x00000000       0x14 build/obj/stm32f4xx_adc.o
 .text.ADC_InjectedDiscModeCmd
                0x00000000       0x14 build/obj/stm32f4xx_adc.o
 .text.ADC_GetFlagStatus
                0x00000000        0xc build/obj/stm32f4xx_adc.o
 .text.ADC_ClearFlag
                0x00000000        0x8 build/obj/stm32f4xx_adc.o
 .text.ADC_GetITStatus
                0x00000000       0x1c build/obj/stm32f4xx_adc.o
 .text          0x00000000        0x0 build/obj/stm32f4xx_dma.o
 .data          0x00000000        0x0 build/obj/stm32f4xx_dma.o
 .bss           0x00000000        0x0 build/obj/stm32f4xx_dma.o
 .text.DMA_StructInit
                0x00000000       0x24 build/obj/stm32f4xx_dma.o
 .text.DMA_PeriphIncOffsetSizeConfig
                0x00000000       0x14 build/obj/stm32f4xx_dma.o
 .text.DMA_FlowControllerConfig
                0x00000000       0x14 build/obj/stm32f4xx_dma.o
 .text.DMA_SetCurrDataCounter
                0x00000000        0x4 build/obj/stm32f4xx_dma.o
 .text.DMA_GetCurrDataCounter
                0x00000000        0x8 build/obj/stm32f4xx_dma.o
 .text.DMA_DoubleBufferModeConfig
                0x00000000       0x18 build/obj/stm32f4xx_dma.o
 .text.DMA_DoubleBufferModeCmd
                0x00000000       0x14 build/obj/stm32f4xx_dma.o
 .text.DMA_MemoryTargetConfig
                0x00000000        0xc build/obj/stm32f4xx_dma.o
 .text.DMA_GetCurrentMemoryTarget
                0x00000000        0x8 build/obj/stm32f4xx_dma.o
 .text.DMA_GetCmdStatus
                0x00000000        0x8 build/obj/stm32f4xx_dma.o
 .text.DMA_GetFIFOStatus
                0x00000000        0x8 build/obj/stm32f4xx_dma.o
 .text.DMA_GetFlagStatus
                0x00000000       0x3c build/obj/stm32f4xx_dma.o
 .text.DMA_ClearFlag
                0x00000000       0x34 build/obj/stm32f4xx_dma.o
 .text.DMA_GetITStatus
                0x00000000       0x50 build/obj/stm32f4xx_dma.o
 .text.DMA_ClearITPendingBit
                0x00000000       0x34 build/obj/stm32f4xx_dma.o
 .text          0x00000000        0x0 build/obj/stm32f4xx_exti.o
 .data          0x00000000        0x0 build/obj/stm32f4xx_exti.o
 .bss           0x00000000        0x0 build/obj/stm32f4xx_exti.o
 .text.EXTI_DeInit
                0x00000000       0x1c build/obj/stm32f4xx_exti.o
 .text.EXTI_StructInit
                0x00000000       0x10 build/obj/stm32f4xx_exti.o
 .text.EXTI_GenerateSWInterrupt
                0x00000000       0x10 build/obj/stm32f4xx_exti.o
 .text.EXTI_GetFlagStatus
                0x00000000       0x14 build/obj/stm32f4xx_exti.o
 .text.EXTI_ClearFlag
                0x00000000        0xc build/obj/stm32f4xx_exti.o
 .text          0x00000000        0x0 build/obj/stm32f4xx_flash.o
 .data          0x00000000        0x0 build/obj/stm32f4xx_flash.o
 .bss           0x00000000        0x0 build/obj/stm32f4xx_flash.o
 .text.FLASH_SetLatency
                0x00000000        0xc build/obj/stm32f4xx_flash.o
 .text.FLASH_PrefetchBufferCmd
                0x00000000       0x1c build/obj/stm32f4xx_flash.o
 .text.FLASH_InstructionCacheCmd
                0x00000000       0x1c build/obj/stm32f4xx_flash.o
 .text.FLASH_DataCacheCmd
                0x00000000       0x1c build/obj/stm32f4xx_flash.o
 .text.FLASH_InstructionCacheReset
                0x00000000       0x10 build/obj/stm32f4xx_flash.o
 .text.FLASH_DataCacheReset
                0x00000000       0x10 build/obj/stm32f4xx_flash.o
 .text.FLASH_Lock
                0x00000000       0x10 build/obj/stm32f4xx_flash.o
 .text.FLASH_OB_Unlock
                0x00000000       0x20 build/obj/stm32f4xx_flash.o
 .text.FLASH_OB_Lock
                0x00000000       0x10 build/obj/stm32f4xx_flash.o
 .text.FLASH_OB_PCROPSelectionConfig
                0x00000000       0x14 build/obj/stm32f4xx_flash.o
 .text.FLASH_OB_BootConfig
                0x00000000       0x18 build/obj/stm32f4xx_flash.o
 .text.FLASH_OB_BORConfig
                0x00000000       0x18 build/obj/stm32f4xx_flash.o
 .text.FLASH_OB_GetUser
                0x00000000       0x10 build/obj/stm32f4xx_flash.o
 .text.FLASH_OB_GetWRP
                0x00000000        0xc build/obj/stm32f4xx_flash.o
 .text.FLASH_OB_GetWRP1
                0x00000000        0xc build/obj/stm32f4xx_flash.o
 .text.FLASH_OB_GetPCROP
                0x00000000        0xc build/obj/stm32f4xx_flash.o
 .text.FLASH_OB_GetPCROP1
                0x00000000        0xc build/obj/stm32f4xx_flash.o
 .text.FLASH_OB_GetRDP
                0x00000000       0x10 build/obj/stm32f4xx_flash.o
 .text.FLASH_OB_GetBOR
                0x00000000       0x10 build/obj/stm32f4xx_flash.o
 .text.FLASH_ITConfig
                0x00000000       0x18 build/obj/stm32f4xx_flash.o
 .text.FLASH_GetFlagStatus
                0x00000000       0x14 build/obj/stm32f4xx_flash.o
 .text.FLASH_EraseAllSectors
                0x00000000       0x5c build/obj/stm32f4xx_flash.o
 .text.FLASH_EraseAllBank1Sectors
                0x00000000       0x5c build/obj/stm32f4xx_flash.o
 .text.FLASH_EraseAllBank2Sectors
                0x00000000       0x5c build/obj/stm32f4xx_flash.o
 .text.FLASH_ProgramDoubleWord
                0x00000000       0x44 build/obj/stm32f4xx_flash.o
 .text.FLASH_ProgramWord
                0x00000000       0x40 build/obj/stm32f4xx_flash.o
 .text.FLASH_OB_WRPConfig
                0x00000000       0x2c build/obj/stm32f4xx_flash.o
 .text.FLASH_OB_WRP1Config
                0x00000000       0x2c build/obj/stm32f4xx_flash.o
 .text.FLASH_OB_PCROPConfig
                0x00000000       0x2c build/obj/stm32f4xx_flash.o
 .text.FLASH_OB_PCROP1Config
                0x00000000       0x2c build/obj/stm32f4xx_flash.o
 .text.FLASH_OB_RDPConfig
                0x00000000       0x18 build/obj/stm32f4xx_flash.o
 .text.FLASH_OB_UserConfig
                0x00000000       0x28 build/obj/stm32f4xx_flash.o
 .text.FLASH_OB_Launch
                0x00000000       0x14 build/obj/stm32f4xx_flash.o
 .text          0x00000000        0x0 build/obj/stm32f4xx_rcc.o
 .data          0x00000000        0x0 build/obj/stm32f4xx_rcc.o
 .bss           0x00000000        0x0 build/obj/stm32f4xx_rcc.o
 .text.RCC_DeInit
                0x00000000       0x34 build/obj/stm32f4xx_rcc.o
 .text.RCC_HSEConfig
                0x00000000       0x10 build/obj/stm32f4xx_rcc.o
 .text.RCC_WaitForHSEStartUp
                0x00000000       0x34 build/obj/stm32f4xx_rcc.o
 .text.RCC_AdjustHSICalibrationValue
                0x00000000       0x14 build/obj/stm32f4xx_rcc.o
 .text.RCC_HSICmd
                0x00000000        0xc build/obj/stm32f4xx_rcc.o
 .text.RCC_LSEConfig
                0x00000000       0x20 build/obj/stm32f4xx_rcc.o
 .text.RCC_LSICmd
                0x00000000        0xc build/obj/stm32f4xx_rcc.o
 .text.RCC_PLLCmd
                0x00000000        0xc build/obj/stm32f4xx_rcc.o
 .text.RCC_PLLI2SCmd
                0x00000000        0xc build/obj/stm32f4xx_rcc.o
 .text.RCC_PLLSAICmd
                0x00000000        0xc build/obj/stm32f4xx_rcc.o
 .text.RCC_ClockSecuritySystemCmd
                0x00000000        0xc build/obj/stm32f4xx_rcc.o
 .text.RCC_MCO1Config
                0x00000000       0x14 build/obj/stm32f4xx_rcc.o
 .text.RCC_MCO2Config
                0x00000000       0x14 build/obj/stm32f4xx_rcc.o
 .text.RCC_SYSCLKConfig
                0x00000000       0x14 build/obj/stm32f4xx_rcc.o
 .text.RCC_GetSYSCLKSource
                0x00000000       0x10 build/obj/stm32f4xx_rcc.o
 .text.RCC_HCLKConfig
                0x00000000       0x14 build/obj/stm32f4xx_rcc.o
 .text.RCC_PCLK1Config
                0x00000000       0x14 build/obj/stm32f4xx_rcc.o
 .text.RCC_PCLK2Config
                0x00000000       0x14 build/obj/stm32f4xx_rcc.o
 .text.RCC_GetClocksFreq
                0x00000000       0x98 build/obj/stm32f4xx_rcc.o
 .text.RCC_RTCCLKConfig
                0x00000000       0x30 build/obj/stm32f4xx_rcc.o
 .text.RCC_RTCCLKCmd
                0x00000000        0xc build/obj/stm32f4xx_rcc.o
 .text.RCC_BackupResetCmd
                0x00000000        0xc build/obj/stm32f4xx_rcc.o
 .text.RCC_TIMCLKPresConfig
                0x00000000        0xc build/obj/stm32f4xx_rcc.o
 .text.RCC_AHB2PeriphClockCmd
                0x00000000       0x18 build/obj/stm32f4xx_rcc.o
 .text.RCC_AHB1PeriphResetCmd
                0x00000000       0x18 build/obj/stm32f4xx_rcc.o
 .text.RCC_AHB2PeriphResetCmd
                0x00000000       0x18 build/obj/stm32f4xx_rcc.o
 .text.RCC_AHB1PeriphClockLPModeCmd
                0x00000000       0x18 build/obj/stm32f4xx_rcc.o
 .text.RCC_AHB2PeriphClockLPModeCmd
                0x00000000       0x18 build/obj/stm32f4xx_rcc.o
 .text.RCC_APB1PeriphClockLPModeCmd
                0x00000000       0x18 build/obj/stm32f4xx_rcc.o
 .text.RCC_APB2PeriphClockLPModeCmd
                0x00000000       0x18 build/obj/stm32f4xx_rcc.o
 .text.RCC_LSEModeConfig
                0x00000000       0x18 build/obj/stm32f4xx_rcc.o
 .text.RCC_ITConfig
                0x00000000       0x18 build/obj/stm32f4xx_rcc.o
 .text.RCC_GetFlagStatus
                0x00000000       0x34 build/obj/stm32f4xx_rcc.o
 .text.RCC_ClearFlag
                0x00000000       0x10 build/obj/stm32f4xx_rcc.o
 .text.RCC_GetITStatus
                0x00000000       0x14 build/obj/stm32f4xx_rcc.o
 .text.RCC_ClearITPendingBit
                0x00000000        0xc build/obj/stm32f4xx_rcc.o
 .data.APBAHBPrescTable
                0x00000000       0x10 build/obj/stm32f4xx_rcc.o
 .text          0x00000000        0x0 build/obj/stm32f4xx_syscfg.o
 .data          0x00000000        0x0 build/obj/stm32f4xx_syscfg.o
 .bss           0x00000000        0x0 build/obj/stm32f4xx_syscfg.o
 .text.SYSCFG_DeInit
                0x00000000       0x1c build/obj/stm32f4xx_syscfg.o
 .text.SYSCFG_MemoryRemapConfig
                0x00000000        0xc build/obj/stm32f4xx_syscfg.o
 .text.SYSCFG_MemorySwappingBank
                0x00000000        0xc build/obj/stm32f4xx_syscfg.o
 .text.SYSCFG_ETH_MediaInterfaceConfig
                0x00000000        0xc build/obj/stm32f4xx_syscfg.o
 .text.SYSCFG_CompensationCellCmd
                0x00000000        0xc build/obj/stm32f4xx_syscfg.o
 .text.SYSCFG_GetCompensationCellStatus
                0x00000000       0x10 build/obj/stm32f4xx_syscfg.o
 .text          0x00000000        0x0 build/obj/stm32f4xx_tim.o
 .data          0x00000000        0x0 build/obj/stm32f4xx_tim.o
 .bss           0x00000000        0x0 build/obj/stm32f4xx_tim.o
 .text.TIM_TimeBaseStructInit
                0x00000000       0x14 build/obj/stm32f4xx_tim.o
 .text.TIM_PrescalerConfig
                0x00000000        0x8 build/obj/stm32f4xx_tim.o
 .text.TIM_CounterModeConfig
                0x00000000       0x10 build/obj/stm32f4xx_tim.o
 .text.TIM_SetCounter
                0x00000000        0x4 build/obj/stm32f4xx_tim.o
 .text.TIM_GetCounter
                0x00000000        0x4 build/obj/stm32f4xx_tim.o
 .text.TIM_GetPrescaler
                0x00000000        0x8 build/obj/stm32f4xx_tim.o
 .text.TIM_UpdateDisableConfig
                0x00000000       0x18 build/obj/stm32f4xx_tim.o
 .text.TIM_UpdateRequestConfig
                0x00000000       0x18 build/obj/stm32f4xx_tim.o
 .text.TIM_SelectOnePulseMode
                0x00000000       0x14 build/obj/stm32f4xx_tim.o
 .text.TIM_SetClockDivision
                0x00000000       0x14 build/obj/stm32f4xx_tim.o
 .text.TIM_OCStructInit
                0x00000000       0x14 build/obj/stm32f4xx_tim.o
 .text.TIM_SetCompare1
                0x00000000        0x4 build/obj/stm32f4xx_tim.o
 .text.TIM_SetCompare2
                0x00000000        0x4 build/obj/stm32f4xx_tim.o
 .text.TIM_SetCompare3
                0x00000000        0x4 build/obj/stm32f4xx_tim.o
 .text.TIM_SetCompare4
                0x00000000        0x4 build/obj/stm32f4xx_tim.o
 .text.TIM_ForcedOC1Config
                0x00000000       0x10 build/obj/stm32f4xx_tim.o
 .text.TIM_ForcedOC2Config
                0x00000000       0x14 build/obj/stm32f4xx_tim.o
 .text.TIM_ForcedOC3Config
                0x00000000       0x10 build/obj/stm32f4xx_tim.o
 .text.TIM_ForcedOC4Config
                0x00000000       0x14 build/obj/stm32f4xx_tim.o
 .text.TIM_OC1FastConfig
                0x00000000       0x10 build/obj/stm32f4xx_tim.o
 .text.TIM_OC2FastConfig
                0x00000000       0x14 build/obj/stm32f4xx_tim.o
 .text.TIM_OC3FastConfig
                0x00000000       0x10 build/obj/stm32f4xx_tim.o
 .text.TIM_OC4FastConfig
                0x00000000       0x14 build/obj/stm32f4xx_tim.o
 .text.TIM_ClearOC1Ref
                0x00000000       0x10 build/obj/stm32f4xx_tim.o
 .text.TIM_ClearOC2Ref
                0x00000000       0x10 build/obj/stm32f4xx_tim.o
 .text.TIM_ClearOC3Ref
                0x00000000       0x10 build/obj/stm32f4xx_tim.o
 .text.TIM_ClearOC4Ref
                0x00000000       0x10 build/obj/stm32f4xx_tim.o
 .text.TIM_OC1PolarityConfig
                0x00000000       0x10 build/obj/stm32f4xx_tim.o
 .text.TIM_OC1NPolarityConfig
                0x00000000       0x10 build/obj/stm32f4xx_tim.o
 .text.TIM_OC2PolarityConfig
                0x00000000       0x14 build/obj/stm32f4xx_tim.o
 .text.TIM_OC2NPolarityConfig
                0x00000000       0x14 build/obj/stm32f4xx_tim.o
 .text.TIM_OC3PolarityConfig
                0x00000000       0x14 build/obj/stm32f4xx_tim.o
 .text.TIM_OC3NPolarityConfig
                0x00000000       0x14 build/obj/stm32f4xx_tim.o
 .text.TIM_OC4PolarityConfig
                0x00000000       0x14 build/obj/stm32f4xx_tim.o
 .text.TIM_ICInit
                0x00000000      0x140 build/obj/stm32f4xx_tim.o
 .text.TIM_ICStructInit
                0x00000000       0x10 build/obj/stm32f4xx_tim.o
 .text.TIM_PWMIConfig
                0x00000000      0x144 build/obj/stm32f4xx_tim.o
 .text.TIM_GetCapture1
                0x00000000        0x4 build/obj/stm32f4xx_tim.o
 .text.TIM_GetCapture2
                0x00000000        0x4 build/obj/stm32f4xx_tim.o
 .text.TIM_GetCapture3
                0x00000000        0x4 build/obj/stm32f4xx_tim.o
 .text.TIM_GetCapture4
                0x00000000        0x4 build/obj/stm32f4xx_tim.o
 .text.TIM_SetIC1Prescaler
                0x00000000       0x14 build/obj/stm32f4xx_tim.o
 .text.TIM_SetIC2Prescaler
                0x00000000       0x18 build/obj/stm32f4xx_tim.o
 .text.TIM_SetIC3Prescaler
                0x00000000       0x14 build/obj/stm32f4xx_tim.o
 .text.TIM_SetIC4Prescaler
                0x00000000       0x18 build/obj/stm32f4xx_tim.o
 .text.TIM_BDTRStructInit
                0x00000000       0x14 build/obj/stm32f4xx_tim.o
 .text.TIM_SelectCOM
                0x00000000       0x18 build/obj/stm32f4xx_tim.o
 .text.TIM_GetFlagStatus
                0x00000000        0xc build/obj/stm32f4xx_tim.o
 .text.TIM_ClearFlag
                0x00000000        0x8 build/obj/stm32f4xx_tim.o
 .text.TIM_DMAConfig
                0x00000000        0x8 build/obj/stm32f4xx_tim.o
 .text.TIM_DMACmd
                0x00000000       0x18 build/obj/stm32f4xx_tim.o
 .text.TIM_SelectCCDMA
                0x00000000       0x18 build/obj/stm32f4xx_tim.o
 .text.TIM_InternalClockConfig
                0x00000000        0xc build/obj/stm32f4xx_tim.o
 .text.TIM_ITRxExternalClockConfig
                0x00000000       0x18 build/obj/stm32f4xx_tim.o
 .text.TIM_TIxExternalClockConfig
                0x00000000       0x80 build/obj/stm32f4xx_tim.o
 .text.TIM_ETRClockMode1Config
                0x00000000       0x28 build/obj/stm32f4xx_tim.o
 .text.TIM_ETRClockMode2Config
                0x00000000       0x20 build/obj/stm32f4xx_tim.o
 .text.TIM_ETRConfig
                0x00000000       0x18 build/obj/stm32f4xx_tim.o
 .text.TIM_SelectHallSensor
                0x00000000       0x18 build/obj/stm32f4xx_tim.o
 .text.TIM_RemapConfig
                0x00000000        0x4 build/obj/stm32f4xx_tim.o
 .text          0x00000000        0x0 build/obj/stm32f4xx_wwdg.o
 .data          0x00000000        0x0 build/obj/stm32f4xx_wwdg.o
 .bss           0x00000000        0x0 build/obj/stm32f4xx_wwdg.o
 .text.WWDG_EnableIT
                0x00000000        0xc build/obj/stm32f4xx_wwdg.o
 .text.WWDG_GetFlagStatus
                0x00000000       0x10 build/obj/stm32f4xx_wwdg.o
 .text.WWDG_ClearFlag
                0x00000000        0xc build/obj/stm32f4xx_wwdg.o
 .text          0x00000000        0x0 /usr/bin/../lib/gcc/arm-none-eabi/4.9.3/../../../../arm-none-eabi/lib/armv7e-m/fpu/libm.a(lib_a-sf_cos.o)
 .data          0x00000000        0x0 /usr/bin/../lib/gcc/arm-none-eabi/4.9.3/../../../../arm-none-eabi/lib/armv7e-m/fpu/libm.a(lib_a-sf_cos.o)
 .bss           0x00000000        0x0 /usr/bin/../lib/gcc/arm-none-eabi/4.9.3/../../../../arm-none-eabi/lib/armv7e-m/fpu/libm.a(lib_a-sf_cos.o)
 .text          0x00000000        0x0 /usr/bin/../lib/gcc/arm-none-eabi/4.9.3/../../../../arm-none-eabi/lib/armv7e-m/fpu/libm.a(lib_a-sf_round.o)
 .data          0x00000000        0x0 /usr/bin/../lib/gcc/arm-none-eabi/4.9.3/../../../../arm-none-eabi/lib/armv7e-m/fpu/libm.a(lib_a-sf_round.o)
 .bss           0x00000000        0x0 /usr/bin/../lib/gcc/arm-none-eabi/4.9.3/../../../../arm-none-eabi/lib/armv7e-m/fpu/libm.a(lib_a-sf_round.o)
 .text          0x00000000        0x0 /usr/bin/../lib/gcc/arm-none-eabi/4.9.3/../../../../arm-none-eabi/lib/armv7e-m/fpu/libm.a(lib_a-sf_sin.o)
 .data          0x00000000        0x0 /usr/bin/../lib/gcc/arm-none-eabi/4.9.3/../../../../arm-none-eabi/lib/armv7e-m/fpu/libm.a(lib_a-sf_sin.o)
 .bss           0x00000000        0x0 /usr/bin/../lib/gcc/arm-none-eabi/4.9.3/../../../../arm-none-eabi/lib/armv7e-m/fpu/libm.a(lib_a-sf_sin.o)
 .text          0x00000000        0x0 /usr/bin/../lib/gcc/arm-none-eabi/4.9.3/../../../../arm-none-eabi/lib/armv7e-m/fpu/libm.a(lib_a-w_sqrt.o)
 .data          0x00000000        0x0 /usr/bin/../lib/gcc/arm-none-eabi/4.9.3/../../../../arm-none-eabi/lib/armv7e-m/fpu/libm.a(lib_a-w_sqrt.o)
 .bss           0x00000000        0x0 /usr/bin/../lib/gcc/arm-none-eabi/4.9.3/../../../../arm-none-eabi/lib/armv7e-m/fpu/libm.a(lib_a-w_sqrt.o)
 .text          0x00000000        0x0 /usr/bin/../lib/gcc/arm-none-eabi/4.9.3/../../../../arm-none-eabi/lib/armv7e-m/fpu/libm.a(lib_a-wf_asin.o)
 .data          0x00000000        0x0 /usr/bin/../lib/gcc/arm-none-eabi/4.9.3/../../../../arm-none-eabi/lib/armv7e-m/fpu/libm.a(lib_a-wf_asin.o)
 .bss           0x00000000        0x0 /usr/bin/../lib/gcc/arm-none-eabi/4.9.3/../../../../arm-none-eabi/lib/armv7e-m/fpu/libm.a(lib_a-wf_asin.o)
 .text          0x00000000        0x0 /usr/bin/../lib/gcc/arm-none-eabi/4.9.3/../../../../arm-none-eabi/lib/armv7e-m/fpu/libm.a(lib_a-wf_atan2.o)
 .data          0x00000000        0x0 /usr/bin/../lib/gcc/arm-none-eabi/4.9.3/../../../../arm-none-eabi/lib/armv7e-m/fpu/libm.a(lib_a-wf_atan2.o)
 .bss           0x00000000        0x0 /usr/bin/../lib/gcc/arm-none-eabi/4.9.3/../../../../arm-none-eabi/lib/armv7e-m/fpu/libm.a(lib_a-wf_atan2.o)
 .text          0x00000000        0x0 /usr/bin/../lib/gcc/arm-none-eabi/4.9.3/../../../../arm-none-eabi/lib/armv7e-m/fpu/libm.a(lib_a-wf_fmod.o)
 .data          0x00000000        0x0 /usr/bin/../lib/gcc/arm-none-eabi/4.9.3/../../../../arm-none-eabi/lib/armv7e-m/fpu/libm.a(lib_a-wf_fmod.o)
 .bss           0x00000000        0x0 /usr/bin/../lib/gcc/arm-none-eabi/4.9.3/../../../../arm-none-eabi/lib/armv7e-m/fpu/libm.a(lib_a-wf_fmod.o)
 .text          0x00000000        0x0 /usr/bin/../lib/gcc/arm-none-eabi/4.9.3/../../../../arm-none-eabi/lib/armv7e-m/fpu/libm.a(lib_a-wf_log.o)
 .data          0x00000000        0x0 /usr/bin/../lib/gcc/arm-none-eabi/4.9.3/../../../../arm-none-eabi/lib/armv7e-m/fpu/libm.a(lib_a-wf_log.o)
 .bss           0x00000000        0x0 /usr/bin/../lib/gcc/arm-none-eabi/4.9.3/../../../../arm-none-eabi/lib/armv7e-m/fpu/libm.a(lib_a-wf_log.o)
 .text          0x00000000        0x0 /usr/bin/../lib/gcc/arm-none-eabi/4.9.3/../../../../arm-none-eabi/lib/armv7e-m/fpu/libm.a(lib_a-wf_pow.o)
 .data          0x00000000        0x0 /usr/bin/../lib/gcc/arm-none-eabi/4.9.3/../../../../arm-none-eabi/lib/armv7e-m/fpu/libm.a(lib_a-wf_pow.o)
 .bss           0x00000000        0x0 /usr/bin/../lib/gcc/arm-none-eabi/4.9.3/../../../../arm-none-eabi/lib/armv7e-m/fpu/libm.a(lib_a-wf_pow.o)
 .text          0x00000000        0x0 /usr/bin/../lib/gcc/arm-none-eabi/4.9.3/../../../../arm-none-eabi/lib/armv7e-m/fpu/libm.a(lib_a-wf_sincos.o)
 .data          0x00000000        0x0 /usr/bin/../lib/gcc/arm-none-eabi/4.9.3/../../../../arm-none-eabi/lib/armv7e-m/fpu/libm.a(lib_a-wf_sincos.o)
 .bss           0x00000000        0x0 /usr/bin/../lib/gcc/arm-none-eabi/4.9.3/../../../../arm-none-eabi/lib/armv7e-m/fpu/libm.a(lib_a-wf_sincos.o)
 .text          0x00000000        0x0 /usr/bin/../lib/gcc/arm-none-eabi/4.9.3/../../../../arm-none-eabi/lib/armv7e-m/fpu/libm.a(lib_a-wf_sqrt.o)
 .data          0x00000000        0x0 /usr/bin/../lib/gcc/arm-none-eabi/4.9.3/../../../../arm-none-eabi/lib/armv7e-m/fpu/libm.a(lib_a-wf_sqrt.o)
 .bss           0x00000000        0x0 /usr/bin/../lib/gcc/arm-none-eabi/4.9.3/../../../../arm-none-eabi/lib/armv7e-m/fpu/libm.a(lib_a-wf_sqrt.o)
 .text          0x00000000        0x0 /usr/bin/../lib/gcc/arm-none-eabi/4.9.3/../../../../arm-none-eabi/lib/armv7e-m/fpu/libm.a(lib_a-e_sqrt.o)
 .data          0x00000000        0x0 /usr/bin/../lib/gcc/arm-none-eabi/4.9.3/../../../../arm-none-eabi/lib/armv7e-m/fpu/libm.a(lib_a-e_sqrt.o)
 .bss           0x00000000        0x0 /usr/bin/../lib/gcc/arm-none-eabi/4.9.3/../../../../arm-none-eabi/lib/armv7e-m/fpu/libm.a(lib_a-e_sqrt.o)
 .text          0x00000000        0x0 /usr/bin/../lib/gcc/arm-none-eabi/4.9.3/../../../../arm-none-eabi/lib/armv7e-m/fpu/libm.a(lib_a-ef_asin.o)
 .data          0x00000000        0x0 /usr/bin/../lib/gcc/arm-none-eabi/4.9.3/../../../../arm-none-eabi/lib/armv7e-m/fpu/libm.a(lib_a-ef_asin.o)
 .bss           0x00000000        0x0 /usr/bin/../lib/gcc/arm-none-eabi/4.9.3/../../../../arm-none-eabi/lib/armv7e-m/fpu/libm.a(lib_a-ef_asin.o)
 .text          0x00000000        0x0 /usr/bin/../lib/gcc/arm-none-eabi/4.9.3/../../../../arm-none-eabi/lib/armv7e-m/fpu/libm.a(lib_a-ef_atan2.o)
 .data          0x00000000        0x0 /usr/bin/../lib/gcc/arm-none-eabi/4.9.3/../../../../arm-none-eabi/lib/armv7e-m/fpu/libm.a(lib_a-ef_atan2.o)
 .bss           0x00000000        0x0 /usr/bin/../lib/gcc/arm-none-eabi/4.9.3/../../../../arm-none-eabi/lib/armv7e-m/fpu/libm.a(lib_a-ef_atan2.o)
 .text          0x00000000        0x0 /usr/bin/../lib/gcc/arm-none-eabi/4.9.3/../../../../arm-none-eabi/lib/armv7e-m/fpu/libm.a(lib_a-ef_fmod.o)
 .data          0x00000000        0x0 /usr/bin/../lib/gcc/arm-none-eabi/4.9.3/../../../../arm-none-eabi/lib/armv7e-m/fpu/libm.a(lib_a-ef_fmod.o)
 .bss           0x00000000        0x0 /usr/bin/../lib/gcc/arm-none-eabi/4.9.3/../../../../arm-none-eabi/lib/armv7e-m/fpu/libm.a(lib_a-ef_fmod.o)
 .text          0x00000000        0x0 /usr/bin/../lib/gcc/arm-none-eabi/4.9.3/../../../../arm-none-eabi/lib/armv7e-m/fpu/libm.a(lib_a-ef_log.o)
 .data          0x00000000        0x0 /usr/bin/../lib/gcc/arm-none-eabi/4.9.3/../../../../arm-none-eabi/lib/armv7e-m/fpu/libm.a(lib_a-ef_log.o)
 .bss           0x00000000        0x0 /usr/bin/../lib/gcc/arm-none-eabi/4.9.3/../../../../arm-none-eabi/lib/armv7e-m/fpu/libm.a(lib_a-ef_log.o)
 .text          0x00000000        0x0 /usr/bin/../lib/gcc/arm-none-eabi/4.9.3/../../../../arm-none-eabi/lib/armv7e-m/fpu/libm.a(lib_a-ef_pow.o)
 .data          0x00000000        0x0 /usr/bin/../lib/gcc/arm-none-eabi/4.9.3/../../../../arm-none-eabi/lib/armv7e-m/fpu/libm.a(lib_a-ef_pow.o)
 .bss           0x00000000        0x0 /usr/bin/../lib/gcc/arm-none-eabi/4.9.3/../../../../arm-none-eabi/lib/armv7e-m/fpu/libm.a(lib_a-ef_pow.o)
 .text          0x00000000        0x0 /usr/bin/../lib/gcc/arm-none-eabi/4.9.3/../../../../arm-none-eabi/lib/armv7e-m/fpu/libm.a(lib_a-ef_rem_pio2.o)
 .data          0x00000000        0x0 /usr/bin/../lib/gcc/arm-none-eabi/4.9.3/../../../../arm-none-eabi/lib/armv7e-m/fpu/libm.a(lib_a-ef_rem_pio2.o)
 .bss           0x00000000        0x0 /usr/bin/../lib/gcc/arm-none-eabi/4.9.3/../../../../arm-none-eabi/lib/armv7e-m/fpu/libm.a(lib_a-ef_rem_pio2.o)
 .text          0x00000000        0x0 /usr/bin/../lib/gcc/arm-none-eabi/4.9.3/../../../../arm-none-eabi/lib/armv7e-m/fpu/libm.a(lib_a-ef_sqrt.o)
 .data          0x00000000        0x0 /usr/bin/../lib/gcc/arm-none-eabi/4.9.3/../../../../arm-none-eabi/lib/armv7e-m/fpu/libm.a(lib_a-ef_sqrt.o)
 .bss           0x00000000        0x0 /usr/bin/../lib/gcc/arm-none-eabi/4.9.3/../../../../arm-none-eabi/lib/armv7e-m/fpu/libm.a(lib_a-ef_sqrt.o)
 .text          0x00000000        0x0 /usr/bin/../lib/gcc/arm-none-eabi/4.9.3/../../../../arm-none-eabi/lib/armv7e-m/fpu/libm.a(lib_a-kf_cos.o)
 .data          0x00000000        0x0 /usr/bin/../lib/gcc/arm-none-eabi/4.9.3/../../../../arm-none-eabi/lib/armv7e-m/fpu/libm.a(lib_a-kf_cos.o)
 .bss           0x00000000        0x0 /usr/bin/../lib/gcc/arm-none-eabi/4.9.3/../../../../arm-none-eabi/lib/armv7e-m/fpu/libm.a(lib_a-kf_cos.o)
 .text          0x00000000        0x0 /usr/bin/../lib/gcc/arm-none-eabi/4.9.3/../../../../arm-none-eabi/lib/armv7e-m/fpu/libm.a(lib_a-kf_rem_pio2.o)
 .data          0x00000000        0x0 /usr/bin/../lib/gcc/arm-none-eabi/4.9.3/../../../../arm-none-eabi/lib/armv7e-m/fpu/libm.a(lib_a-kf_rem_pio2.o)
 .bss           0x00000000        0x0 /usr/bin/../lib/gcc/arm-none-eabi/4.9.3/../../../../arm-none-eabi/lib/armv7e-m/fpu/libm.a(lib_a-kf_rem_pio2.o)
 .text          0x00000000        0x0 /usr/bin/../lib/gcc/arm-none-eabi/4.9.3/../../../../arm-none-eabi/lib/armv7e-m/fpu/libm.a(lib_a-kf_sin.o)
 .data          0x00000000        0x0 /usr/bin/../lib/gcc/arm-none-eabi/4.9.3/../../../../arm-none-eabi/lib/armv7e-m/fpu/libm.a(lib_a-kf_sin.o)
 .bss           0x00000000        0x0 /usr/bin/../lib/gcc/arm-none-eabi/4.9.3/../../../../arm-none-eabi/lib/armv7e-m/fpu/libm.a(lib_a-kf_sin.o)
 .text          0x00000000        0x0 /usr/bin/../lib/gcc/arm-none-eabi/4.9.3/../../../../arm-none-eabi/lib/armv7e-m/fpu/libm.a(lib_a-s_fpclassify.o)
 .data          0x00000000        0x0 /usr/bin/../lib/gcc/arm-none-eabi/4.9.3/../../../../arm-none-eabi/lib/armv7e-m/fpu/libm.a(lib_a-s_fpclassify.o)
 .bss           0x00000000        0x0 /usr/bin/../lib/gcc/arm-none-eabi/4.9.3/../../../../arm-none-eabi/lib/armv7e-m/fpu/libm.a(lib_a-s_fpclassify.o)
 .text          0x00000000        0x0 /usr/bin/../lib/gcc/arm-none-eabi/4.9.3/../../../../arm-none-eabi/lib/armv7e-m/fpu/libm.a(lib_a-s_lib_ver.o)
 .data          0x00000000        0x0 /usr/bin/../lib/gcc/arm-none-eabi/4.9.3/../../../../arm-none-eabi/lib/armv7e-m/fpu/libm.a(lib_a-s_lib_ver.o)
 .bss           0x00000000        0x0 /usr/bin/../lib/gcc/arm-none-eabi/4.9.3/../../../../arm-none-eabi/lib/armv7e-m/fpu/libm.a(lib_a-s_lib_ver.o)
 .text          0x00000000        0x0 /usr/bin/../lib/gcc/arm-none-eabi/4.9.3/../../../../arm-none-eabi/lib/armv7e-m/fpu/libm.a(lib_a-s_matherr.o)
 .data          0x00000000        0x0 /usr/bin/../lib/gcc/arm-none-eabi/4.9.3/../../../../arm-none-eabi/lib/armv7e-m/fpu/libm.a(lib_a-s_matherr.o)
 .bss           0x00000000        0x0 /usr/bin/../lib/gcc/arm-none-eabi/4.9.3/../../../../arm-none-eabi/lib/armv7e-m/fpu/libm.a(lib_a-s_matherr.o)
 .text          0x00000000        0x0 /usr/bin/../lib/gcc/arm-none-eabi/4.9.3/../../../../arm-none-eabi/lib/armv7e-m/fpu/libm.a(lib_a-s_nan.o)
 .data          0x00000000        0x0 /usr/bin/../lib/gcc/arm-none-eabi/4.9.3/../../../../arm-none-eabi/lib/armv7e-m/fpu/libm.a(lib_a-s_nan.o)
 .bss           0x00000000        0x0 /usr/bin/../lib/gcc/arm-none-eabi/4.9.3/../../../../arm-none-eabi/lib/armv7e-m/fpu/libm.a(lib_a-s_nan.o)
 .text          0x00000000        0x0 /usr/bin/../lib/gcc/arm-none-eabi/4.9.3/../../../../arm-none-eabi/lib/armv7e-m/fpu/libm.a(lib_a-s_rint.o)
 .data          0x00000000        0x0 /usr/bin/../lib/gcc/arm-none-eabi/4.9.3/../../../../arm-none-eabi/lib/armv7e-m/fpu/libm.a(lib_a-s_rint.o)
 .bss           0x00000000        0x0 /usr/bin/../lib/gcc/arm-none-eabi/4.9.3/../../../../arm-none-eabi/lib/armv7e-m/fpu/libm.a(lib_a-s_rint.o)
 .text          0x00000000        0x0 /usr/bin/../lib/gcc/arm-none-eabi/4.9.3/../../../../arm-none-eabi/lib/armv7e-m/fpu/libm.a(lib_a-sf_atan.o)
 .data          0x00000000        0x0 /usr/bin/../lib/gcc/arm-none-eabi/4.9.3/../../../../arm-none-eabi/lib/armv7e-m/fpu/libm.a(lib_a-sf_atan.o)
 .bss           0x00000000        0x0 /usr/bin/../lib/gcc/arm-none-eabi/4.9.3/../../../../arm-none-eabi/lib/armv7e-m/fpu/libm.a(lib_a-sf_atan.o)
 .text          0x00000000        0x0 /usr/bin/../lib/gcc/arm-none-eabi/4.9.3/../../../../arm-none-eabi/lib/armv7e-m/fpu/libm.a(lib_a-sf_fabs.o)
 .data          0x00000000        0x0 /usr/bin/../lib/gcc/arm-none-eabi/4.9.3/../../../../arm-none-eabi/lib/armv7e-m/fpu/libm.a(lib_a-sf_fabs.o)
 .bss           0x00000000        0x0 /usr/bin/../lib/gcc/arm-none-eabi/4.9.3/../../../../arm-none-eabi/lib/armv7e-m/fpu/libm.a(lib_a-sf_fabs.o)
 .text          0x00000000        0x0 /usr/bin/../lib/gcc/arm-none-eabi/4.9.3/../../../../arm-none-eabi/lib/armv7e-m/fpu/libm.a(lib_a-sf_finite.o)
 .data          0x00000000        0x0 /usr/bin/../lib/gcc/arm-none-eabi/4.9.3/../../../../arm-none-eabi/lib/armv7e-m/fpu/libm.a(lib_a-sf_finite.o)
 .bss           0x00000000        0x0 /usr/bin/../lib/gcc/arm-none-eabi/4.9.3/../../../../arm-none-eabi/lib/armv7e-m/fpu/libm.a(lib_a-sf_finite.o)
 .text          0x00000000        0x0 /usr/bin/../lib/gcc/arm-none-eabi/4.9.3/../../../../arm-none-eabi/lib/armv7e-m/fpu/libm.a(lib_a-sf_floor.o)
 .data          0x00000000        0x0 /usr/bin/../lib/gcc/arm-none-eabi/4.9.3/../../../../arm-none-eabi/lib/armv7e-m/fpu/libm.a(lib_a-sf_floor.o)
 .bss           0x00000000        0x0 /usr/bin/../lib/gcc/arm-none-eabi/4.9.3/../../../../arm-none-eabi/lib/armv7e-m/fpu/libm.a(lib_a-sf_floor.o)
 .text          0x00000000        0x0 /usr/bin/../lib/gcc/arm-none-eabi/4.9.3/../../../../arm-none-eabi/lib/armv7e-m/fpu/libm.a(lib_a-sf_fpclassify.o)
 .data          0x00000000        0x0 /usr/bin/../lib/gcc/arm-none-eabi/4.9.3/../../../../arm-none-eabi/lib/armv7e-m/fpu/libm.a(lib_a-sf_fpclassify.o)
 .bss           0x00000000        0x0 /usr/bin/../lib/gcc/arm-none-eabi/4.9.3/../../../../arm-none-eabi/lib/armv7e-m/fpu/libm.a(lib_a-sf_fpclassify.o)
 .text          0x00000000        0x0 /usr/bin/../lib/gcc/arm-none-eabi/4.9.3/../../../../arm-none-eabi/lib/armv7e-m/fpu/libm.a(lib_a-sf_nan.o)
 .data          0x00000000        0x0 /usr/bin/../lib/gcc/arm-none-eabi/4.9.3/../../../../arm-none-eabi/lib/armv7e-m/fpu/libm.a(lib_a-sf_nan.o)
 .bss           0x00000000        0x0 /usr/bin/../lib/gcc/arm-none-eabi/4.9.3/../../../../arm-none-eabi/lib/armv7e-m/fpu/libm.a(lib_a-sf_nan.o)
 .text          0x00000000        0x0 /usr/bin/../lib/gcc/arm-none-eabi/4.9.3/../../../../arm-none-eabi/lib/armv7e-m/fpu/libm.a(lib_a-sf_scalbn.o)
 .data          0x00000000        0x0 /usr/bin/../lib/gcc/arm-none-eabi/4.9.3/../../../../arm-none-eabi/lib/armv7e-m/fpu/libm.a(lib_a-sf_scalbn.o)
 .bss           0x00000000        0x0 /usr/bin/../lib/gcc/arm-none-eabi/4.9.3/../../../../arm-none-eabi/lib/armv7e-m/fpu/libm.a(lib_a-sf_scalbn.o)
 .text          0x00000000        0x0 /usr/bin/../lib/gcc/arm-none-eabi/4.9.3/../../../../arm-none-eabi/lib/armv7e-m/fpu/libm.a(lib_a-sf_copysign.o)
 .data          0x00000000        0x0 /usr/bin/../lib/gcc/arm-none-eabi/4.9.3/../../../../arm-none-eabi/lib/armv7e-m/fpu/libm.a(lib_a-sf_copysign.o)
 .bss           0x00000000        0x0 /usr/bin/../lib/gcc/arm-none-eabi/4.9.3/../../../../arm-none-eabi/lib/armv7e-m/fpu/libm.a(lib_a-sf_copysign.o)
 .data          0x00000000        0x0 /usr/bin/../lib/gcc/arm-none-eabi/4.9.3/armv7e-m/fpu/libgcc.a(_arm_addsubdf3.o)
 .bss           0x00000000        0x0 /usr/bin/../lib/gcc/arm-none-eabi/4.9.3/armv7e-m/fpu/libgcc.a(_arm_addsubdf3.o)
 .data          0x00000000        0x0 /usr/bin/../lib/gcc/arm-none-eabi/4.9.3/armv7e-m/fpu/libgcc.a(_arm_muldivdf3.o)
 .bss           0x00000000        0x0 /usr/bin/../lib/gcc/arm-none-eabi/4.9.3/armv7e-m/fpu/libgcc.a(_arm_muldivdf3.o)
 .data          0x00000000        0x0 /usr/bin/../lib/gcc/arm-none-eabi/4.9.3/armv7e-m/fpu/libgcc.a(_arm_cmpdf2.o)
 .bss           0x00000000        0x0 /usr/bin/../lib/gcc/arm-none-eabi/4.9.3/armv7e-m/fpu/libgcc.a(_arm_cmpdf2.o)
 .data          0x00000000        0x0 /usr/bin/../lib/gcc/arm-none-eabi/4.9.3/armv7e-m/fpu/libgcc.a(_arm_fixdfsi.o)
 .bss           0x00000000        0x0 /usr/bin/../lib/gcc/arm-none-eabi/4.9.3/armv7e-m/fpu/libgcc.a(_arm_fixdfsi.o)
 .data          0x00000000        0x0 /usr/bin/../lib/gcc/arm-none-eabi/4.9.3/armv7e-m/fpu/libgcc.a(_arm_truncdfsf2.o)
 .bss           0x00000000        0x0 /usr/bin/../lib/gcc/arm-none-eabi/4.9.3/armv7e-m/fpu/libgcc.a(_arm_truncdfsf2.o)
 .text          0x00000000        0x0 /usr/bin/../lib/gcc/arm-none-eabi/4.9.3/../../../../arm-none-eabi/lib/armv7e-m/fpu/libg.a(lib_a-errno.o)
 .data          0x00000000        0x0 /usr/bin/../lib/gcc/arm-none-eabi/4.9.3/../../../../arm-none-eabi/lib/armv7e-m/fpu/libg.a(lib_a-errno.o)
 .bss           0x00000000        0x0 /usr/bin/../lib/gcc/arm-none-eabi/4.9.3/../../../../arm-none-eabi/lib/armv7e-m/fpu/libg.a(lib_a-errno.o)
 .text          0x00000000        0x0 /usr/bin/../lib/gcc/arm-none-eabi/4.9.3/../../../../arm-none-eabi/lib/armv7e-m/fpu/libg.a(lib_a-impure.o)
 .data          0x00000000        0x0 /usr/bin/../lib/gcc/arm-none-eabi/4.9.3/../../../../arm-none-eabi/lib/armv7e-m/fpu/libg.a(lib_a-impure.o)
 .bss           0x00000000        0x0 /usr/bin/../lib/gcc/arm-none-eabi/4.9.3/../../../../arm-none-eabi/lib/armv7e-m/fpu/libg.a(lib_a-impure.o)
 .rodata._global_impure_ptr
                0x00000000        0x4 /usr/bin/../lib/gcc/arm-none-eabi/4.9.3/../../../../arm-none-eabi/lib/armv7e-m/fpu/libg.a(lib_a-impure.o)
 .text          0x00000000        0x0 /usr/bin/../lib/gcc/arm-none-eabi/4.9.3/../../../../arm-none-eabi/lib/armv7e-m/fpu/libg.a(lib_a-memcmp.o)
 .data          0x00000000        0x0 /usr/bin/../lib/gcc/arm-none-eabi/4.9.3/../../../../arm-none-eabi/lib/armv7e-m/fpu/libg.a(lib_a-memcmp.o)
 .bss           0x00000000        0x0 /usr/bin/../lib/gcc/arm-none-eabi/4.9.3/../../../../arm-none-eabi/lib/armv7e-m/fpu/libg.a(lib_a-memcmp.o)
 .data          0x00000000        0x0 /usr/bin/../lib/gcc/arm-none-eabi/4.9.3/../../../../arm-none-eabi/lib/armv7e-m/fpu/libg.a(lib_a-memcpy.o)
 .bss           0x00000000        0x0 /usr/bin/../lib/gcc/arm-none-eabi/4.9.3/../../../../arm-none-eabi/lib/armv7e-m/fpu/libg.a(lib_a-memcpy.o)
 .text          0x00000000        0x0 /usr/bin/../lib/gcc/arm-none-eabi/4.9.3/../../../../arm-none-eabi/lib/armv7e-m/fpu/libg.a(lib_a-memset.o)
 .data          0x00000000        0x0 /usr/bin/../lib/gcc/arm-none-eabi/4.9.3/../../../../arm-none-eabi/lib/armv7e-m/fpu/libg.a(lib_a-memset.o)
 .bss           0x00000000        0x0 /usr/bin/../lib/gcc/arm-none-eabi/4.9.3/../../../../arm-none-eabi/lib/armv7e-m/fpu/libg.a(lib_a-memset.o)
 .text          0x00000000        0x0 /usr/bin/../lib/gcc/arm-none-eabi/4.9.3/../../../../arm-none-eabi/lib/armv7e-m/fpu/libg.a(lib_a-sscanf.o)
 .data          0x00000000        0x0 /usr/bin/../lib/gcc/arm-none-eabi/4.9.3/../../../../arm-none-eabi/lib/armv7e-m/fpu/libg.a(lib_a-sscanf.o)
 .bss           0x00000000        0x0 /usr/bin/../lib/gcc/arm-none-eabi/4.9.3/../../../../arm-none-eabi/lib/armv7e-m/fpu/libg.a(lib_a-sscanf.o)
 .text._sscanf_r
                0x00000000       0x54 /usr/bin/../lib/gcc/arm-none-eabi/4.9.3/../../../../arm-none-eabi/lib/armv7e-m/fpu/libg.a(lib_a-sscanf.o)
 .text          0x00000000        0x0 /usr/bin/../lib/gcc/arm-none-eabi/4.9.3/../../../../arm-none-eabi/lib/armv7e-m/fpu/libg.a(lib_a-stdio.o)
 .data          0x00000000        0x0 /usr/bin/../lib/gcc/arm-none-eabi/4.9.3/../../../../arm-none-eabi/lib/armv7e-m/fpu/libg.a(lib_a-stdio.o)
 .bss           0x00000000        0x0 /usr/bin/../lib/gcc/arm-none-eabi/4.9.3/../../../../arm-none-eabi/lib/armv7e-m/fpu/libg.a(lib_a-stdio.o)
 .text.__sread  0x00000000       0x24 /usr/bin/../lib/gcc/arm-none-eabi/4.9.3/../../../../arm-none-eabi/lib/armv7e-m/fpu/libg.a(lib_a-stdio.o)
 .text.__swrite
                0x00000000       0x38 /usr/bin/../lib/gcc/arm-none-eabi/4.9.3/../../../../arm-none-eabi/lib/armv7e-m/fpu/libg.a(lib_a-stdio.o)
 .text.__sseek  0x00000000       0x20 /usr/bin/../lib/gcc/arm-none-eabi/4.9.3/../../../../arm-none-eabi/lib/armv7e-m/fpu/libg.a(lib_a-stdio.o)
 .text.__sclose
                0x00000000        0x8 /usr/bin/../lib/gcc/arm-none-eabi/4.9.3/../../../../arm-none-eabi/lib/armv7e-m/fpu/libg.a(lib_a-stdio.o)
 .data          0x00000000        0x0 /usr/bin/../lib/gcc/arm-none-eabi/4.9.3/../../../../arm-none-eabi/lib/armv7e-m/fpu/libg.a(lib_a-strcmp.o)
 .bss           0x00000000        0x0 /usr/bin/../lib/gcc/arm-none-eabi/4.9.3/../../../../arm-none-eabi/lib/armv7e-m/fpu/libg.a(lib_a-strcmp.o)
 .eh_frame      0x00000000       0x70 /usr/bin/../lib/gcc/arm-none-eabi/4.9.3/../../../../arm-none-eabi/lib/armv7e-m/fpu/libg.a(lib_a-strcmp.o)
 .text          0x00000000        0x0 /usr/bin/../lib/gcc/arm-none-eabi/4.9.3/../../../../arm-none-eabi/lib/armv7e-m/fpu/libg.a(lib_a-strlen.o)
 .data          0x00000000        0x0 /usr/bin/../lib/gcc/arm-none-eabi/4.9.3/../../../../arm-none-eabi/lib/armv7e-m/fpu/libg.a(lib_a-strlen.o)
 .bss           0x00000000        0x0 /usr/bin/../lib/gcc/arm-none-eabi/4.9.3/../../../../arm-none-eabi/lib/armv7e-m/fpu/libg.a(lib_a-strlen.o)
 .text          0x00000000        0x0 /usr/bin/../lib/gcc/arm-none-eabi/4.9.3/../../../../arm-none-eabi/lib/armv7e-m/fpu/libg.a(lib_a-strtok.o)
 .data          0x00000000        0x0 /usr/bin/../lib/gcc/arm-none-eabi/4.9.3/../../../../arm-none-eabi/lib/armv7e-m/fpu/libg.a(lib_a-strtok.o)
 .bss           0x00000000        0x0 /usr/bin/../lib/gcc/arm-none-eabi/4.9.3/../../../../arm-none-eabi/lib/armv7e-m/fpu/libg.a(lib_a-strtok.o)
 .text          0x00000000        0x0 /usr/bin/../lib/gcc/arm-none-eabi/4.9.3/../../../../arm-none-eabi/lib/armv7e-m/fpu/libg.a(lib_a-strtok_r.o)
 .data          0x00000000        0x0 /usr/bin/../lib/gcc/arm-none-eabi/4.9.3/../../../../arm-none-eabi/lib/armv7e-m/fpu/libg.a(lib_a-strtok_r.o)
 .bss           0x00000000        0x0 /usr/bin/../lib/gcc/arm-none-eabi/4.9.3/../../../../arm-none-eabi/lib/armv7e-m/fpu/libg.a(lib_a-strtok_r.o)
 .text.strtok_r
                0x00000000        0x8 /usr/bin/../lib/gcc/arm-none-eabi/4.9.3/../../../../arm-none-eabi/lib/armv7e-m/fpu/libg.a(lib_a-strtok_r.o)
 .text          0x00000000        0x0 /usr/bin/../lib/gcc/arm-none-eabi/4.9.3/../../../../arm-none-eabi/lib/armv7e-m/fpu/libg.a(lib_a-svfscanf.o)
 .data          0x00000000        0x0 /usr/bin/../lib/gcc/arm-none-eabi/4.9.3/../../../../arm-none-eabi/lib/armv7e-m/fpu/libg.a(lib_a-svfscanf.o)
 .bss           0x00000000        0x0 /usr/bin/../lib/gcc/arm-none-eabi/4.9.3/../../../../arm-none-eabi/lib/armv7e-m/fpu/libg.a(lib_a-svfscanf.o)
 .text          0x00000000        0x0 /usr/bin/../lib/gcc/arm-none-eabi/4.9.3/../../../../arm-none-eabi/lib/armv7e-m/fpu/libg.a(lib_a-vsnprintf.o)
 .data          0x00000000        0x0 /usr/bin/../lib/gcc/arm-none-eabi/4.9.3/../../../../arm-none-eabi/lib/armv7e-m/fpu/libg.a(lib_a-vsnprintf.o)
 .bss           0x00000000        0x0 /usr/bin/../lib/gcc/arm-none-eabi/4.9.3/../../../../arm-none-eabi/lib/armv7e-m/fpu/libg.a(lib_a-vsnprintf.o)
 .text          0x00000000        0x0 /usr/bin/../lib/gcc/arm-none-eabi/4.9.3/../../../../arm-none-eabi/lib/armv7e-m/fpu/libg.a(lib_a-ctype_.o)
 .data          0x00000000        0x0 /usr/bin/../lib/gcc/arm-none-eabi/4.9.3/../../../../arm-none-eabi/lib/armv7e-m/fpu/libg.a(lib_a-ctype_.o)
 .bss           0x00000000        0x0 /usr/bin/../lib/gcc/arm-none-eabi/4.9.3/../../../../arm-none-eabi/lib/armv7e-m/fpu/libg.a(lib_a-ctype_.o)
 .text          0x00000000        0x0 /usr/bin/../lib/gcc/arm-none-eabi/4.9.3/../../../../arm-none-eabi/lib/armv7e-m/fpu/libg.a(lib_a-iswspace.o)
 .data          0x00000000        0x0 /usr/bin/../lib/gcc/arm-none-eabi/4.9.3/../../../../arm-none-eabi/lib/armv7e-m/fpu/libg.a(lib_a-iswspace.o)
 .bss           0x00000000        0x0 /usr/bin/../lib/gcc/arm-none-eabi/4.9.3/../../../../arm-none-eabi/lib/armv7e-m/fpu/libg.a(lib_a-iswspace.o)
 .text          0x00000000        0x0 /usr/bin/../lib/gcc/arm-none-eabi/4.9.3/../../../../arm-none-eabi/lib/armv7e-m/fpu/libg.a(lib_a-locale.o)
 .data          0x00000000        0x0 /usr/bin/../lib/gcc/arm-none-eabi/4.9.3/../../../../arm-none-eabi/lib/armv7e-m/fpu/libg.a(lib_a-locale.o)
 .bss           0x00000000        0x0 /usr/bin/../lib/gcc/arm-none-eabi/4.9.3/../../../../arm-none-eabi/lib/armv7e-m/fpu/libg.a(lib_a-locale.o)
 .text._setlocale_r
                0x00000000       0x44 /usr/bin/../lib/gcc/arm-none-eabi/4.9.3/../../../../arm-none-eabi/lib/armv7e-m/fpu/libg.a(lib_a-locale.o)
 .text.__locale_msgcharset
                0x00000000        0x8 /usr/bin/../lib/gcc/arm-none-eabi/4.9.3/../../../../arm-none-eabi/lib/armv7e-m/fpu/libg.a(lib_a-locale.o)
 .text.__locale_cjk_lang
                0x00000000        0x4 /usr/bin/../lib/gcc/arm-none-eabi/4.9.3/../../../../arm-none-eabi/lib/armv7e-m/fpu/libg.a(lib_a-locale.o)
 .text.setlocale
                0x00000000       0x10 /usr/bin/../lib/gcc/arm-none-eabi/4.9.3/../../../../arm-none-eabi/lib/armv7e-m/fpu/libg.a(lib_a-locale.o)
 .text.localeconv
                0x00000000        0x8 /usr/bin/../lib/gcc/arm-none-eabi/4.9.3/../../../../arm-none-eabi/lib/armv7e-m/fpu/libg.a(lib_a-locale.o)
 .data.lc_message_charset
                0x00000000       0x20 /usr/bin/../lib/gcc/arm-none-eabi/4.9.3/../../../../arm-none-eabi/lib/armv7e-m/fpu/libg.a(lib_a-locale.o)
 .bss._PathLocale
                0x00000000        0x4 /usr/bin/../lib/gcc/arm-none-eabi/4.9.3/../../../../arm-none-eabi/lib/armv7e-m/fpu/libg.a(lib_a-locale.o)
 .bss.__nlocale_changed
                0x00000000        0x4 /usr/bin/../lib/gcc/arm-none-eabi/4.9.3/../../../../arm-none-eabi/lib/armv7e-m/fpu/libg.a(lib_a-locale.o)
 .bss.__mlocale_changed
                0x00000000        0x4 /usr/bin/../lib/gcc/arm-none-eabi/4.9.3/../../../../arm-none-eabi/lib/armv7e-m/fpu/libg.a(lib_a-locale.o)
 .text          0x00000000        0x0 /usr/bin/../lib/gcc/arm-none-eabi/4.9.3/../../../../arm-none-eabi/lib/armv7e-m/fpu/libg.a(lib_a-mbrtowc.o)
 .data          0x00000000        0x0 /usr/bin/../lib/gcc/arm-none-eabi/4.9.3/../../../../arm-none-eabi/lib/armv7e-m/fpu/libg.a(lib_a-mbrtowc.o)
 .bss           0x00000000        0x0 /usr/bin/../lib/gcc/arm-none-eabi/4.9.3/../../../../arm-none-eabi/lib/armv7e-m/fpu/libg.a(lib_a-mbrtowc.o)
 .text.mbrtowc  0x00000000       0x64 /usr/bin/../lib/gcc/arm-none-eabi/4.9.3/../../../../arm-none-eabi/lib/armv7e-m/fpu/libg.a(lib_a-mbrtowc.o)
 .text          0x00000000        0x0 /usr/bin/../lib/gcc/arm-none-eabi/4.9.3/../../../../arm-none-eabi/lib/armv7e-m/fpu/libg.a(lib_a-mbtowc_r.o)
 .data          0x00000000        0x0 /usr/bin/../lib/gcc/arm-none-eabi/4.9.3/../../../../arm-none-eabi/lib/armv7e-m/fpu/libg.a(lib_a-mbtowc_r.o)
 .bss           0x00000000        0x0 /usr/bin/../lib/gcc/arm-none-eabi/4.9.3/../../../../arm-none-eabi/lib/armv7e-m/fpu/libg.a(lib_a-mbtowc_r.o)
 .text._mbtowc_r
                0x00000000       0x30 /usr/bin/../lib/gcc/arm-none-eabi/4.9.3/../../../../arm-none-eabi/lib/armv7e-m/fpu/libg.a(lib_a-mbtowc_r.o)
 .text          0x00000000        0x0 /usr/bin/../lib/gcc/arm-none-eabi/4.9.3/../../../../arm-none-eabi/lib/armv7e-m/fpu/libg.a(lib_a-sccl.o)
 .data          0x00000000        0x0 /usr/bin/../lib/gcc/arm-none-eabi/4.9.3/../../../../arm-none-eabi/lib/armv7e-m/fpu/libg.a(lib_a-sccl.o)
 .bss           0x00000000        0x0 /usr/bin/../lib/gcc/arm-none-eabi/4.9.3/../../../../arm-none-eabi/lib/armv7e-m/fpu/libg.a(lib_a-sccl.o)
 .text          0x00000000        0x0 /usr/bin/../lib/gcc/arm-none-eabi/4.9.3/../../../../arm-none-eabi/lib/armv7e-m/fpu/libg.a(lib_a-sprintf.o)
 .data          0x00000000        0x0 /usr/bin/../lib/gcc/arm-none-eabi/4.9.3/../../../../arm-none-eabi/lib/armv7e-m/fpu/libg.a(lib_a-sprintf.o)
 .bss           0x00000000        0x0 /usr/bin/../lib/gcc/arm-none-eabi/4.9.3/../../../../arm-none-eabi/lib/armv7e-m/fpu/libg.a(lib_a-sprintf.o)
 .text._sprintf_r
                0x00000000       0x44 /usr/bin/../lib/gcc/arm-none-eabi/4.9.3/../../../../arm-none-eabi/lib/armv7e-m/fpu/libg.a(lib_a-sprintf.o)
 .text          0x00000000        0x0 /usr/bin/../lib/gcc/arm-none-eabi/4.9.3/../../../../arm-none-eabi/lib/armv7e-m/fpu/libg.a(lib_a-strtod.o)
 .data          0x00000000        0x0 /usr/bin/../lib/gcc/arm-none-eabi/4.9.3/../../../../arm-none-eabi/lib/armv7e-m/fpu/libg.a(lib_a-strtod.o)
 .bss           0x00000000        0x0 /usr/bin/../lib/gcc/arm-none-eabi/4.9.3/../../../../arm-none-eabi/lib/armv7e-m/fpu/libg.a(lib_a-strtod.o)
 .text.strtod   0x00000000       0x10 /usr/bin/../lib/gcc/arm-none-eabi/4.9.3/../../../../arm-none-eabi/lib/armv7e-m/fpu/libg.a(lib_a-strtod.o)
 .text.strtof   0x00000000       0x44 /usr/bin/../lib/gcc/arm-none-eabi/4.9.3/../../../../arm-none-eabi/lib/armv7e-m/fpu/libg.a(lib_a-strtod.o)
 .text          0x00000000        0x0 /usr/bin/../lib/gcc/arm-none-eabi/4.9.3/../../../../arm-none-eabi/lib/armv7e-m/fpu/libg.a(lib_a-strtol.o)
 .data          0x00000000        0x0 /usr/bin/../lib/gcc/arm-none-eabi/4.9.3/../../../../arm-none-eabi/lib/armv7e-m/fpu/libg.a(lib_a-strtol.o)
 .bss           0x00000000        0x0 /usr/bin/../lib/gcc/arm-none-eabi/4.9.3/../../../../arm-none-eabi/lib/armv7e-m/fpu/libg.a(lib_a-strtol.o)
 .text.strtol   0x00000000       0x18 /usr/bin/../lib/gcc/arm-none-eabi/4.9.3/../../../../arm-none-eabi/lib/armv7e-m/fpu/libg.a(lib_a-strtol.o)
 .text          0x00000000        0x0 /usr/bin/../lib/gcc/arm-none-eabi/4.9.3/../../../../arm-none-eabi/lib/armv7e-m/fpu/libg.a(lib_a-strtoll_r.o)
 .data          0x00000000        0x0 /usr/bin/../lib/gcc/arm-none-eabi/4.9.3/../../../../arm-none-eabi/lib/armv7e-m/fpu/libg.a(lib_a-strtoll_r.o)
 .bss           0x00000000        0x0 /usr/bin/../lib/gcc/arm-none-eabi/4.9.3/../../../../arm-none-eabi/lib/armv7e-m/fpu/libg.a(lib_a-strtoll_r.o)
 .text          0x00000000        0x0 /usr/bin/../lib/gcc/arm-none-eabi/4.9.3/../../../../arm-none-eabi/lib/armv7e-m/fpu/libg.a(lib_a-strtoul.o)
 .data          0x00000000        0x0 /usr/bin/../lib/gcc/arm-none-eabi/4.9.3/../../../../arm-none-eabi/lib/armv7e-m/fpu/libg.a(lib_a-strtoul.o)
 .bss           0x00000000        0x0 /usr/bin/../lib/gcc/arm-none-eabi/4.9.3/../../../../arm-none-eabi/lib/armv7e-m/fpu/libg.a(lib_a-strtoul.o)
 .text.strtoul  0x00000000       0x18 /usr/bin/../lib/gcc/arm-none-eabi/4.9.3/../../../../arm-none-eabi/lib/armv7e-m/fpu/libg.a(lib_a-strtoul.o)
 .text          0x00000000        0x0 /usr/bin/../lib/gcc/arm-none-eabi/4.9.3/../../../../arm-none-eabi/lib/armv7e-m/fpu/libg.a(lib_a-strtoull_r.o)
 .data          0x00000000        0x0 /usr/bin/../lib/gcc/arm-none-eabi/4.9.3/../../../../arm-none-eabi/lib/armv7e-m/fpu/libg.a(lib_a-strtoull_r.o)
 .bss           0x00000000        0x0 /usr/bin/../lib/gcc/arm-none-eabi/4.9.3/../../../../arm-none-eabi/lib/armv7e-m/fpu/libg.a(lib_a-strtoull_r.o)
 .text          0x00000000        0x0 /usr/bin/../lib/gcc/arm-none-eabi/4.9.3/../../../../arm-none-eabi/lib/armv7e-m/fpu/libg.a(lib_a-svfiscanf.o)
 .data          0x00000000        0x0 /usr/bin/../lib/gcc/arm-none-eabi/4.9.3/../../../../arm-none-eabi/lib/armv7e-m/fpu/libg.a(lib_a-svfiscanf.o)
 .bss           0x00000000        0x0 /usr/bin/../lib/gcc/arm-none-eabi/4.9.3/../../../../arm-none-eabi/lib/armv7e-m/fpu/libg.a(lib_a-svfiscanf.o)
 .text.__ssvfiscanf_r
                0x00000000      0x9b8 /usr/bin/../lib/gcc/arm-none-eabi/4.9.3/../../../../arm-none-eabi/lib/armv7e-m/fpu/libg.a(lib_a-svfiscanf.o)
 .rodata.basefix.6311
                0x00000000       0x22 /usr/bin/../lib/gcc/arm-none-eabi/4.9.3/../../../../arm-none-eabi/lib/armv7e-m/fpu/libg.a(lib_a-svfiscanf.o)
 .text          0x00000000        0x0 /usr/bin/../lib/gcc/arm-none-eabi/4.9.3/../../../../arm-none-eabi/lib/armv7e-m/fpu/libg.a(lib_a-svfprintf.o)
 .data          0x00000000        0x0 /usr/bin/../lib/gcc/arm-none-eabi/4.9.3/../../../../arm-none-eabi/lib/armv7e-m/fpu/libg.a(lib_a-svfprintf.o)
 .bss           0x00000000        0x0 /usr/bin/../lib/gcc/arm-none-eabi/4.9.3/../../../../arm-none-eabi/lib/armv7e-m/fpu/libg.a(lib_a-svfprintf.o)
 .text          0x00000000        0x0 /usr/bin/../lib/gcc/arm-none-eabi/4.9.3/../../../../arm-none-eabi/lib/armv7e-m/fpu/libg.a(lib_a-ungetc.o)
 .data          0x00000000        0x0 /usr/bin/../lib/gcc/arm-none-eabi/4.9.3/../../../../arm-none-eabi/lib/armv7e-m/fpu/libg.a(lib_a-ungetc.o)
 .bss           0x00000000        0x0 /usr/bin/../lib/gcc/arm-none-eabi/4.9.3/../../../../arm-none-eabi/lib/armv7e-m/fpu/libg.a(lib_a-ungetc.o)
 .text._ungetc_r
                0x00000000       0xd4 /usr/bin/../lib/gcc/arm-none-eabi/4.9.3/../../../../arm-none-eabi/lib/armv7e-m/fpu/libg.a(lib_a-ungetc.o)
 .text.ungetc   0x00000000       0x10 /usr/bin/../lib/gcc/arm-none-eabi/4.9.3/../../../../arm-none-eabi/lib/armv7e-m/fpu/libg.a(lib_a-ungetc.o)
 .text          0x00000000        0x0 /usr/bin/../lib/gcc/arm-none-eabi/4.9.3/../../../../arm-none-eabi/lib/armv7e-m/fpu/libg.a(lib_a-dtoa.o)
 .data          0x00000000        0x0 /usr/bin/../lib/gcc/arm-none-eabi/4.9.3/../../../../arm-none-eabi/lib/armv7e-m/fpu/libg.a(lib_a-dtoa.o)
 .bss           0x00000000        0x0 /usr/bin/../lib/gcc/arm-none-eabi/4.9.3/../../../../arm-none-eabi/lib/armv7e-m/fpu/libg.a(lib_a-dtoa.o)
 .text          0x00000000        0x0 /usr/bin/../lib/gcc/arm-none-eabi/4.9.3/../../../../arm-none-eabi/lib/armv7e-m/fpu/libg.a(lib_a-fflush.o)
 .data          0x00000000        0x0 /usr/bin/../lib/gcc/arm-none-eabi/4.9.3/../../../../arm-none-eabi/lib/armv7e-m/fpu/libg.a(lib_a-fflush.o)
 .bss           0x00000000        0x0 /usr/bin/../lib/gcc/arm-none-eabi/4.9.3/../../../../arm-none-eabi/lib/armv7e-m/fpu/libg.a(lib_a-fflush.o)
 .text.__sflush_r
                0x00000000      0x154 /usr/bin/../lib/gcc/arm-none-eabi/4.9.3/../../../../arm-none-eabi/lib/armv7e-m/fpu/libg.a(lib_a-fflush.o)
 .text._fflush_r
                0x00000000       0x2c /usr/bin/../lib/gcc/arm-none-eabi/4.9.3/../../../../arm-none-eabi/lib/armv7e-m/fpu/libg.a(lib_a-fflush.o)
 .text.fflush   0x00000000       0x24 /usr/bin/../lib/gcc/arm-none-eabi/4.9.3/../../../../arm-none-eabi/lib/armv7e-m/fpu/libg.a(lib_a-fflush.o)
 .debug_frame   0x00000000       0x6c /usr/bin/../lib/gcc/arm-none-eabi/4.9.3/../../../../arm-none-eabi/lib/armv7e-m/fpu/libg.a(lib_a-fflush.o)
 .ARM.attributes
                0x00000000       0x34 /usr/bin/../lib/gcc/arm-none-eabi/4.9.3/../../../../arm-none-eabi/lib/armv7e-m/fpu/libg.a(lib_a-fflush.o)
 .text          0x00000000        0x0 /usr/bin/../lib/gcc/arm-none-eabi/4.9.3/../../../../arm-none-eabi/lib/armv7e-m/fpu/libg.a(lib_a-findfp.o)
 .data          0x00000000        0x0 /usr/bin/../lib/gcc/arm-none-eabi/4.9.3/../../../../arm-none-eabi/lib/armv7e-m/fpu/libg.a(lib_a-findfp.o)
 .bss           0x00000000        0x0 /usr/bin/../lib/gcc/arm-none-eabi/4.9.3/../../../../arm-none-eabi/lib/armv7e-m/fpu/libg.a(lib_a-findfp.o)
 .text.__fp_lock
                0x00000000        0x4 /usr/bin/../lib/gcc/arm-none-eabi/4.9.3/../../../../arm-none-eabi/lib/armv7e-m/fpu/libg.a(lib_a-findfp.o)
 .text.__fp_unlock
                0x00000000        0x4 /usr/bin/../lib/gcc/arm-none-eabi/4.9.3/../../../../arm-none-eabi/lib/armv7e-m/fpu/libg.a(lib_a-findfp.o)
 .text._cleanup_r
                0x00000000        0xc /usr/bin/../lib/gcc/arm-none-eabi/4.9.3/../../../../arm-none-eabi/lib/armv7e-m/fpu/libg.a(lib_a-findfp.o)
 .text.__sinit.part.1
                0x00000000       0xf0 /usr/bin/../lib/gcc/arm-none-eabi/4.9.3/../../../../arm-none-eabi/lib/armv7e-m/fpu/libg.a(lib_a-findfp.o)
 .text.__sfmoreglue
                0x00000000       0x30 /usr/bin/../lib/gcc/arm-none-eabi/4.9.3/../../../../arm-none-eabi/lib/armv7e-m/fpu/libg.a(lib_a-findfp.o)
 .text.__sfp    0x00000000       0x88 /usr/bin/../lib/gcc/arm-none-eabi/4.9.3/../../../../arm-none-eabi/lib/armv7e-m/fpu/libg.a(lib_a-findfp.o)
 .text._cleanup
                0x00000000       0x14 /usr/bin/../lib/gcc/arm-none-eabi/4.9.3/../../../../arm-none-eabi/lib/armv7e-m/fpu/libg.a(lib_a-findfp.o)
 .text.__sinit  0x00000000        0xc /usr/bin/../lib/gcc/arm-none-eabi/4.9.3/../../../../arm-none-eabi/lib/armv7e-m/fpu/libg.a(lib_a-findfp.o)
 .text.__sfp_lock_acquire
                0x00000000        0x4 /usr/bin/../lib/gcc/arm-none-eabi/4.9.3/../../../../arm-none-eabi/lib/armv7e-m/fpu/libg.a(lib_a-findfp.o)
 .text.__sfp_lock_release
                0x00000000        0x4 /usr/bin/../lib/gcc/arm-none-eabi/4.9.3/../../../../arm-none-eabi/lib/armv7e-m/fpu/libg.a(lib_a-findfp.o)
 .text.__sinit_lock_acquire
                0x00000000        0x4 /usr/bin/../lib/gcc/arm-none-eabi/4.9.3/../../../../arm-none-eabi/lib/armv7e-m/fpu/libg.a(lib_a-findfp.o)
 .text.__sinit_lock_release
                0x00000000        0x4 /usr/bin/../lib/gcc/arm-none-eabi/4.9.3/../../../../arm-none-eabi/lib/armv7e-m/fpu/libg.a(lib_a-findfp.o)
 .text.__fp_lock_all
                0x00000000       0x14 /usr/bin/../lib/gcc/arm-none-eabi/4.9.3/../../../../arm-none-eabi/lib/armv7e-m/fpu/libg.a(lib_a-findfp.o)
 .text.__fp_unlock_all
                0x00000000       0x14 /usr/bin/../lib/gcc/arm-none-eabi/4.9.3/../../../../arm-none-eabi/lib/armv7e-m/fpu/libg.a(lib_a-findfp.o)
 .debug_frame   0x00000000      0x124 /usr/bin/../lib/gcc/arm-none-eabi/4.9.3/../../../../arm-none-eabi/lib/armv7e-m/fpu/libg.a(lib_a-findfp.o)
 .ARM.attributes
                0x00000000       0x34 /usr/bin/../lib/gcc/arm-none-eabi/4.9.3/../../../../arm-none-eabi/lib/armv7e-m/fpu/libg.a(lib_a-findfp.o)
 .text          0x00000000        0x0 /usr/bin/../lib/gcc/arm-none-eabi/4.9.3/../../../../arm-none-eabi/lib/armv7e-m/fpu/libg.a(lib_a-freer.o)
 .data          0x00000000        0x0 /usr/bin/../lib/gcc/arm-none-eabi/4.9.3/../../../../arm-none-eabi/lib/armv7e-m/fpu/libg.a(lib_a-freer.o)
 .bss           0x00000000        0x0 /usr/bin/../lib/gcc/arm-none-eabi/4.9.3/../../../../arm-none-eabi/lib/armv7e-m/fpu/libg.a(lib_a-freer.o)
 .text          0x00000000        0x0 /usr/bin/../lib/gcc/arm-none-eabi/4.9.3/../../../../arm-none-eabi/lib/armv7e-m/fpu/libg.a(lib_a-fwalk.o)
 .data          0x00000000        0x0 /usr/bin/../lib/gcc/arm-none-eabi/4.9.3/../../../../arm-none-eabi/lib/armv7e-m/fpu/libg.a(lib_a-fwalk.o)
 .bss           0x00000000        0x0 /usr/bin/../lib/gcc/arm-none-eabi/4.9.3/../../../../arm-none-eabi/lib/armv7e-m/fpu/libg.a(lib_a-fwalk.o)
 .text._fwalk   0x00000000       0x4c /usr/bin/../lib/gcc/arm-none-eabi/4.9.3/../../../../arm-none-eabi/lib/armv7e-m/fpu/libg.a(lib_a-fwalk.o)
 .text._fwalk_reent
                0x00000000       0x54 /usr/bin/../lib/gcc/arm-none-eabi/4.9.3/../../../../arm-none-eabi/lib/armv7e-m/fpu/libg.a(lib_a-fwalk.o)
 .debug_frame   0x00000000       0x54 /usr/bin/../lib/gcc/arm-none-eabi/4.9.3/../../../../arm-none-eabi/lib/armv7e-m/fpu/libg.a(lib_a-fwalk.o)
 .ARM.attributes
                0x00000000       0x34 /usr/bin/../lib/gcc/arm-none-eabi/4.9.3/../../../../arm-none-eabi/lib/armv7e-m/fpu/libg.a(lib_a-fwalk.o)
 .text          0x00000000        0x0 /usr/bin/../lib/gcc/arm-none-eabi/4.9.3/../../../../arm-none-eabi/lib/armv7e-m/fpu/libg.a(lib_a-gdtoa-gethex.o)
 .data          0x00000000        0x0 /usr/bin/../lib/gcc/arm-none-eabi/4.9.3/../../../../arm-none-eabi/lib/armv7e-m/fpu/libg.a(lib_a-gdtoa-gethex.o)
 .bss           0x00000000        0x0 /usr/bin/../lib/gcc/arm-none-eabi/4.9.3/../../../../arm-none-eabi/lib/armv7e-m/fpu/libg.a(lib_a-gdtoa-gethex.o)
 .text          0x00000000        0x0 /usr/bin/../lib/gcc/arm-none-eabi/4.9.3/../../../../arm-none-eabi/lib/armv7e-m/fpu/libg.a(lib_a-gdtoa-hexnan.o)
 .data          0x00000000        0x0 /usr/bin/../lib/gcc/arm-none-eabi/4.9.3/../../../../arm-none-eabi/lib/armv7e-m/fpu/libg.a(lib_a-gdtoa-hexnan.o)
 .bss           0x00000000        0x0 /usr/bin/../lib/gcc/arm-none-eabi/4.9.3/../../../../arm-none-eabi/lib/armv7e-m/fpu/libg.a(lib_a-gdtoa-hexnan.o)
 .text          0x00000000        0x0 /usr/bin/../lib/gcc/arm-none-eabi/4.9.3/../../../../arm-none-eabi/lib/armv7e-m/fpu/libg.a(lib_a-mallocr.o)
 .data          0x00000000        0x0 /usr/bin/../lib/gcc/arm-none-eabi/4.9.3/../../../../arm-none-eabi/lib/armv7e-m/fpu/libg.a(lib_a-mallocr.o)
 .bss           0x00000000        0x0 /usr/bin/../lib/gcc/arm-none-eabi/4.9.3/../../../../arm-none-eabi/lib/armv7e-m/fpu/libg.a(lib_a-mallocr.o)
 .text          0x00000000        0x0 /usr/bin/../lib/gcc/arm-none-eabi/4.9.3/../../../../arm-none-eabi/lib/armv7e-m/fpu/libg.a(lib_a-memchr.o)
 .data          0x00000000        0x0 /usr/bin/../lib/gcc/arm-none-eabi/4.9.3/../../../../arm-none-eabi/lib/armv7e-m/fpu/libg.a(lib_a-memchr.o)
 .bss           0x00000000        0x0 /usr/bin/../lib/gcc/arm-none-eabi/4.9.3/../../../../arm-none-eabi/lib/armv7e-m/fpu/libg.a(lib_a-memchr.o)
 .text          0x00000000        0x0 /usr/bin/../lib/gcc/arm-none-eabi/4.9.3/../../../../arm-none-eabi/lib/armv7e-m/fpu/libg.a(lib_a-mlock.o)
 .data          0x00000000        0x0 /usr/bin/../lib/gcc/arm-none-eabi/4.9.3/../../../../arm-none-eabi/lib/armv7e-m/fpu/libg.a(lib_a-mlock.o)
 .bss           0x00000000        0x0 /usr/bin/../lib/gcc/arm-none-eabi/4.9.3/../../../../arm-none-eabi/lib/armv7e-m/fpu/libg.a(lib_a-mlock.o)
 .text          0x00000000        0x0 /usr/bin/../lib/gcc/arm-none-eabi/4.9.3/../../../../arm-none-eabi/lib/armv7e-m/fpu/libg.a(lib_a-mprec.o)
 .data          0x00000000        0x0 /usr/bin/../lib/gcc/arm-none-eabi/4.9.3/../../../../arm-none-eabi/lib/armv7e-m/fpu/libg.a(lib_a-mprec.o)
 .bss           0x00000000        0x0 /usr/bin/../lib/gcc/arm-none-eabi/4.9.3/../../../../arm-none-eabi/lib/armv7e-m/fpu/libg.a(lib_a-mprec.o)
 .text._mprec_log10
                0x00000000       0x38 /usr/bin/../lib/gcc/arm-none-eabi/4.9.3/../../../../arm-none-eabi/lib/armv7e-m/fpu/libg.a(lib_a-mprec.o)
 .rodata.__mprec_tinytens
                0x00000000       0x28 /usr/bin/../lib/gcc/arm-none-eabi/4.9.3/../../../../arm-none-eabi/lib/armv7e-m/fpu/libg.a(lib_a-mprec.o)
 .text          0x00000000        0x0 /usr/bin/../lib/gcc/arm-none-eabi/4.9.3/../../../../arm-none-eabi/lib/armv7e-m/fpu/libg.a(lib_a-reallocr.o)
 .data          0x00000000        0x0 /usr/bin/../lib/gcc/arm-none-eabi/4.9.3/../../../../arm-none-eabi/lib/armv7e-m/fpu/libg.a(lib_a-reallocr.o)
 .bss           0x00000000        0x0 /usr/bin/../lib/gcc/arm-none-eabi/4.9.3/../../../../arm-none-eabi/lib/armv7e-m/fpu/libg.a(lib_a-reallocr.o)
 .text          0x00000000        0x0 /usr/bin/../lib/gcc/arm-none-eabi/4.9.3/../../../../arm-none-eabi/lib/armv7e-m/fpu/libg.a(lib_a-strncmp.o)
 .data          0x00000000        0x0 /usr/bin/../lib/gcc/arm-none-eabi/4.9.3/../../../../arm-none-eabi/lib/armv7e-m/fpu/libg.a(lib_a-strncmp.o)
 .bss           0x00000000        0x0 /usr/bin/../lib/gcc/arm-none-eabi/4.9.3/../../../../arm-none-eabi/lib/armv7e-m/fpu/libg.a(lib_a-strncmp.o)
 .text          0x00000000        0x0 /usr/bin/../lib/gcc/arm-none-eabi/4.9.3/../../../../arm-none-eabi/lib/armv7e-m/fpu/libg.a(lib_a-svfiprintf.o)
 .data          0x00000000        0x0 /usr/bin/../lib/gcc/arm-none-eabi/4.9.3/../../../../arm-none-eabi/lib/armv7e-m/fpu/libg.a(lib_a-svfiprintf.o)
 .bss           0x00000000        0x0 /usr/bin/../lib/gcc/arm-none-eabi/4.9.3/../../../../arm-none-eabi/lib/armv7e-m/fpu/libg.a(lib_a-svfiprintf.o)
 .text._svfiprintf_r
                0x00000000      0xaa0 /usr/bin/../lib/gcc/arm-none-eabi/4.9.3/../../../../arm-none-eabi/lib/armv7e-m/fpu/libg.a(lib_a-svfiprintf.o)
 .rodata.blanks.6854
                0x00000000       0x10 /usr/bin/../lib/gcc/arm-none-eabi/4.9.3/../../../../arm-none-eabi/lib/armv7e-m/fpu/libg.a(lib_a-svfiprintf.o)
 .rodata.str1.4
                0x00000000       0x2f /usr/bin/../lib/gcc/arm-none-eabi/4.9.3/../../../../arm-none-eabi/lib/armv7e-m/fpu/libg.a(lib_a-svfiprintf.o)
 .rodata.zeroes.6855
                0x00000000       0x10 /usr/bin/../lib/gcc/arm-none-eabi/4.9.3/../../../../arm-none-eabi/lib/armv7e-m/fpu/libg.a(lib_a-svfiprintf.o)
 .text          0x00000000        0x0 /usr/bin/../lib/gcc/arm-none-eabi/4.9.3/../../../../arm-none-eabi/lib/armv7e-m/fpu/libg.a(lib_a-callocr.o)
 .data          0x00000000        0x0 /usr/bin/../lib/gcc/arm-none-eabi/4.9.3/../../../../arm-none-eabi/lib/armv7e-m/fpu/libg.a(lib_a-callocr.o)
 .bss           0x00000000        0x0 /usr/bin/../lib/gcc/arm-none-eabi/4.9.3/../../../../arm-none-eabi/lib/armv7e-m/fpu/libg.a(lib_a-callocr.o)
 .text          0x00000000        0x0 /usr/bin/../lib/gcc/arm-none-eabi/4.9.3/../../../../arm-none-eabi/lib/armv7e-m/fpu/libg.a(lib_a-fclose.o)
 .data          0x00000000        0x0 /usr/bin/../lib/gcc/arm-none-eabi/4.9.3/../../../../arm-none-eabi/lib/armv7e-m/fpu/libg.a(lib_a-fclose.o)
 .bss           0x00000000        0x0 /usr/bin/../lib/gcc/arm-none-eabi/4.9.3/../../../../arm-none-eabi/lib/armv7e-m/fpu/libg.a(lib_a-fclose.o)
 .text._fclose_r
                0x00000000       0x84 /usr/bin/../lib/gcc/arm-none-eabi/4.9.3/../../../../arm-none-eabi/lib/armv7e-m/fpu/libg.a(lib_a-fclose.o)
 .text.fclose   0x00000000       0x10 /usr/bin/../lib/gcc/arm-none-eabi/4.9.3/../../../../arm-none-eabi/lib/armv7e-m/fpu/libg.a(lib_a-fclose.o)
 .debug_frame   0x00000000       0x44 /usr/bin/../lib/gcc/arm-none-eabi/4.9.3/../../../../arm-none-eabi/lib/armv7e-m/fpu/libg.a(lib_a-fclose.o)
 .ARM.attributes
                0x00000000       0x34 /usr/bin/../lib/gcc/arm-none-eabi/4.9.3/../../../../arm-none-eabi/lib/armv7e-m/fpu/libg.a(lib_a-fclose.o)
 .text          0x00000000        0x0 /usr/bin/../lib/gcc/arm-none-eabi/4.9.3/../../../../arm-none-eabi/lib/armv7e-m/fpu/libg.a(lib_a-memmove.o)
 .data          0x00000000        0x0 /usr/bin/../lib/gcc/arm-none-eabi/4.9.3/../../../../arm-none-eabi/lib/armv7e-m/fpu/libg.a(lib_a-memmove.o)
 .bss           0x00000000        0x0 /usr/bin/../lib/gcc/arm-none-eabi/4.9.3/../../../../arm-none-eabi/lib/armv7e-m/fpu/libg.a(lib_a-memmove.o)
 .data          0x00000000        0x0 /usr/bin/../lib/gcc/arm-none-eabi/4.9.3/armv7e-m/fpu/libgcc.a(_arm_fixunsdfsi.o)
 .bss           0x00000000        0x0 /usr/bin/../lib/gcc/arm-none-eabi/4.9.3/armv7e-m/fpu/libgcc.a(_arm_fixunsdfsi.o)
 .data          0x00000000        0x0 /usr/bin/../lib/gcc/arm-none-eabi/4.9.3/armv7e-m/fpu/libgcc.a(_aeabi_uldivmod.o)
 .bss           0x00000000        0x0 /usr/bin/../lib/gcc/arm-none-eabi/4.9.3/armv7e-m/fpu/libgcc.a(_aeabi_uldivmod.o)
 .data          0x00000000        0x0 /usr/bin/../lib/gcc/arm-none-eabi/4.9.3/armv7e-m/fpu/libgcc.a(bpabi.o)
 .bss           0x00000000        0x0 /usr/bin/../lib/gcc/arm-none-eabi/4.9.3/armv7e-m/fpu/libgcc.a(bpabi.o)
 .data          0x00000000        0x0 /usr/bin/../lib/gcc/arm-none-eabi/4.9.3/armv7e-m/fpu/libgcc.a(_dvmd_tls.o)
 .bss           0x00000000        0x0 /usr/bin/../lib/gcc/arm-none-eabi/4.9.3/armv7e-m/fpu/libgcc.a(_dvmd_tls.o)
 .data          0x00000000        0x0 /usr/bin/../lib/gcc/arm-none-eabi/4.9.3/armv7e-m/fpu/libgcc.a(_divdi3.o)
 .bss           0x00000000        0x0 /usr/bin/../lib/gcc/arm-none-eabi/4.9.3/armv7e-m/fpu/libgcc.a(_divdi3.o)
 .ARM.extab     0x00000000        0x0 /usr/bin/../lib/gcc/arm-none-eabi/4.9.3/armv7e-m/fpu/libgcc.a(_divdi3.o)
 .data          0x00000000        0x0 /usr/bin/../lib/gcc/arm-none-eabi/4.9.3/armv7e-m/fpu/libgcc.a(_udivdi3.o)
 .bss           0x00000000        0x0 /usr/bin/../lib/gcc/arm-none-eabi/4.9.3/armv7e-m/fpu/libgcc.a(_udivdi3.o)
 .ARM.extab     0x00000000        0x0 /usr/bin/../lib/gcc/arm-none-eabi/4.9.3/armv7e-m/fpu/libgcc.a(_udivdi3.o)

Memory Configuration

Name             Origin             Length             Attributes
flash            0x08000000         0x00004000
flash2           0x0800c000         0x00078000
ram0             0x20000000         0x00020000
ram1             0x20000000         0x0001c000
ram2             0x2001c000         0x00004000
ram3             0x00000000         0x00000000
ram4             0x10000000         0x00010000
ram5             0x40024000         0x00001000
ram6             0x00000000         0x00000000
ram7             0x00000000         0x00000000
*default*        0x00000000         0xffffffff

Linker script and memory map

LOAD build/obj/crt0_v7m.o
LOAD build/obj/chcoreasm_v7m.o
LOAD build/obj/crt1.o
LOAD build/obj/vectors.o
LOAD build/obj/chsys.o
LOAD build/obj/chdebug.o
LOAD build/obj/chvt.o
LOAD build/obj/chschd.o
LOAD build/obj/chthreads.o
LOAD build/obj/chtm.o
LOAD build/obj/chdynamic.o
LOAD build/obj/chregistry.o
LOAD build/obj/chsem.o
LOAD build/obj/chmtx.o
LOAD build/obj/chcond.o
LOAD build/obj/chevents.o
LOAD build/obj/chmsg.o
LOAD build/obj/chmboxes.o
LOAD build/obj/chqueues.o
LOAD build/obj/chmemcore.o
LOAD build/obj/chheap.o
LOAD build/obj/chmempools.o
LOAD build/obj/chcore.o
LOAD build/obj/chcore_v7m.o
LOAD build/obj/osal.o
LOAD build/obj/hal.o
LOAD build/obj/st.o
LOAD build/obj/hal_queues.o
LOAD build/obj/hal_mmcsd.o
LOAD build/obj/can.o
LOAD build/obj/i2c.o
LOAD build/obj/icu.o
LOAD build/obj/pal.o
LOAD build/obj/serial_usb.o
LOAD build/obj/spi.o
LOAD build/obj/uart.o
LOAD build/obj/usb.o
LOAD build/obj/nvic.o
LOAD build/obj/stm32_dma.o
LOAD build/obj/hal_lld.o
LOAD build/obj/st_lld.o
LOAD build/obj/can_lld.o
LOAD build/obj/pal_lld.o
LOAD build/obj/i2c_lld.o
LOAD build/obj/usb_lld.o
LOAD build/obj/spi_lld.o
LOAD build/obj/icu_lld.o
LOAD build/obj/uart_lld.o
LOAD build/obj/board.o
LOAD build/obj/chprintf.o
LOAD build/obj/syscalls.o
LOAD build/obj/main.o
LOAD build/obj/comm_usb_serial.o
LOAD build/obj/irq_handlers.o
LOAD build/obj/buffer.o
LOAD build/obj/comm_usb.o
LOAD build/obj/crc.o
LOAD build/obj/digital_filter.o
LOAD build/obj/ledpwm.o
LOAD build/obj/mcpwm.o
LOAD build/obj/servo_dec.o
LOAD build/obj/utils.o
LOAD build/obj/servo.o
LOAD build/obj/servo_simple.o
LOAD build/obj/packet.o
LOAD build/obj/terminal.o
LOAD build/obj/conf_general.o
LOAD build/obj/eeprom.o
LOAD build/obj/commands.o
LOAD build/obj/timeout.o
LOAD build/obj/comm_can.o
LOAD build/obj/ws2811.o
LOAD build/obj/led_external.o
LOAD build/obj/encoder.o
LOAD build/obj/flash_helper.o
LOAD build/obj/mc_interface.o
LOAD build/obj/mcpwm_foc.o
LOAD build/obj/hw_40.o
LOAD build/obj/hw_45.o
LOAD build/obj/hw_r2.o
LOAD build/obj/hw_46.o
LOAD build/obj/hw_48.o
LOAD build/obj/hw_49.o
LOAD build/obj/hw_410.o
LOAD build/obj/hw_victor_r1a.o
LOAD build/obj/app.o
LOAD build/obj/app_ppm.o
LOAD build/obj/app_adc.o
LOAD build/obj/app_sten.o
LOAD build/obj/app_uartcomm.o
LOAD build/obj/app_nunchuk.o
LOAD build/obj/spi_sw.o
LOAD build/obj/rf.o
LOAD build/obj/rfhelp.o
LOAD build/obj/nrf_driver.o
LOAD build/obj/misc.o
LOAD build/obj/stm32f4xx_adc.o
LOAD build/obj/stm32f4xx_dma.o
LOAD build/obj/stm32f4xx_exti.o
LOAD build/obj/stm32f4xx_flash.o
LOAD build/obj/stm32f4xx_rcc.o
LOAD build/obj/stm32f4xx_syscfg.o
LOAD build/obj/stm32f4xx_tim.o
LOAD build/obj/stm32f4xx_wwdg.o
                0x20000000                __ram0_start__ = ORIGIN (ram0)
                0x00020000                __ram0_size__ = 0x20000
                0x20020000                __ram0_end__ = (__ram0_start__ + __ram0_size__)
                0x20000000                __ram1_start__ = ORIGIN (ram1)
                0x0001c000                __ram1_size__ = 0x1c000
                0x2001c000                __ram1_end__ = (__ram1_start__ + __ram1_size__)
                0x2001c000                __ram2_start__ = ORIGIN (ram2)
                0x00004000                __ram2_size__ = 0x4000
                0x20020000                __ram2_end__ = (__ram2_start__ + __ram2_size__)
                0x00000000                __ram3_start__ = ORIGIN (ram3)
                0x00000000                __ram3_size__ = 0x0
                0x00000000                __ram3_end__ = (__ram3_start__ + __ram3_size__)
                0x10000000                __ram4_start__ = ORIGIN (ram4)
                0x00010000                __ram4_size__ = 0x10000
                0x10010000                __ram4_end__ = (__ram4_start__ + __ram4_size__)
                0x40024000                __ram5_start__ = ORIGIN (ram5)
                0x00001000                __ram5_size__ = 0x1000
                0x40025000                __ram5_end__ = (__ram5_start__ + __ram5_size__)
                0x00000000                __ram6_start__ = ORIGIN (ram6)
                0x00000000                __ram6_size__ = 0x0
                0x00000000                __ram6_end__ = (__ram6_start__ + __ram6_size__)
                0x00000000                __ram7_start__ = ORIGIN (ram7)
                0x00000000                __ram7_size__ = 0x0
                0x00000000                __ram7_end__ = (__ram7_start__ + __ram7_size__)
                0x00000000                . = 0x0
                0x00000000                _text = .

startup         0x08000000      0x1c0
 *(.vectors)
 .vectors       0x08000000      0x1c0 build/obj/vectors.o
                0x08000000                _vectors

constructors    0x0800c000        0x0
                0x0800c000                PROVIDE (__init_array_start, .)
 *(SORT(.init_array.*))
 *(.init_array)
                0x0800c000                PROVIDE (__init_array_end, .)

destructors     0x0800c000        0x0
                0x0800c000                PROVIDE (__fini_array_start, .)
 *(.fini_array)
 *(SORT(.fini_array.*))
                0x0800c000                PROVIDE (__fini_array_end, .)

.text           0x0800c000    0x24198
 *(.text)
 .text          0x0800c000      0x108 build/obj/crt0_v7m.o
                0x0800c000                Reset_Handler
 *fill*         0x0800c108        0x8 
 .text          0x0800c110       0x30 build/obj/chcoreasm_v7m.o
                0x0800c110                _port_switch
                0x0800c128                _port_thread_start
                0x0800c138                _port_switch_from_isr
                0x0800c13c                _port_exit_from_isr
 .text          0x0800c140      0x370 /usr/bin/../lib/gcc/arm-none-eabi/4.9.3/armv7e-m/fpu/libgcc.a(_arm_addsubdf3.o)
                0x0800c140                __aeabi_drsub
                0x0800c148                __aeabi_dsub
                0x0800c148                __subdf3
                0x0800c14c                __adddf3
                0x0800c14c                __aeabi_dadd
                0x0800c3c4                __aeabi_ui2d
                0x0800c3c4                __floatunsidf
                0x0800c3e4                __floatsidf
                0x0800c3e4                __aeabi_i2d
                0x0800c408                __extendsfdf2
                0x0800c408                __aeabi_f2d
                0x0800c444                __aeabi_ul2d
                0x0800c444                __floatundidf
                0x0800c454                __floatdidf
                0x0800c454                __aeabi_l2d
 .text          0x0800c4b0      0x424 /usr/bin/../lib/gcc/arm-none-eabi/4.9.3/armv7e-m/fpu/libgcc.a(_arm_muldivdf3.o)
                0x0800c4b0                __aeabi_dmul
                0x0800c4b0                __muldf3
                0x0800c704                __aeabi_ddiv
                0x0800c704                __divdf3
 *fill*         0x0800c8d4        0xc 
 .text          0x0800c8e0      0x110 /usr/bin/../lib/gcc/arm-none-eabi/4.9.3/armv7e-m/fpu/libgcc.a(_arm_cmpdf2.o)
                0x0800c8e0                __gtdf2
                0x0800c8e0                __gedf2
                0x0800c8e8                __ltdf2
                0x0800c8e8                __ledf2
                0x0800c8f0                __cmpdf2
                0x0800c8f0                __eqdf2
                0x0800c8f0                __nedf2
                0x0800c96c                __aeabi_cdrcmple
                0x0800c97c                __aeabi_cdcmple
                0x0800c97c                __aeabi_cdcmpeq
                0x0800c98c                __aeabi_dcmpeq
                0x0800c9a0                __aeabi_dcmplt
                0x0800c9b4                __aeabi_dcmple
                0x0800c9c8                __aeabi_dcmpge
                0x0800c9dc                __aeabi_dcmpgt
 .text          0x0800c9f0       0x50 /usr/bin/../lib/gcc/arm-none-eabi/4.9.3/armv7e-m/fpu/libgcc.a(_arm_fixdfsi.o)
                0x0800c9f0                __fixdfsi
                0x0800c9f0                __aeabi_d2iz
 .text          0x0800ca40       0xa0 /usr/bin/../lib/gcc/arm-none-eabi/4.9.3/armv7e-m/fpu/libgcc.a(_arm_truncdfsf2.o)
                0x0800ca40                __aeabi_d2f
                0x0800ca40                __truncdfsf2
 .text          0x0800cae0      0x134 /usr/bin/../lib/gcc/arm-none-eabi/4.9.3/../../../../arm-none-eabi/lib/armv7e-m/fpu/libg.a(lib_a-memcpy.o)
                0x0800cae0                memcpy
 *fill*         0x0800cc14        0xc 
 .text          0x0800cc20      0x2dc /usr/bin/../lib/gcc/arm-none-eabi/4.9.3/../../../../arm-none-eabi/lib/armv7e-m/fpu/libg.a(lib_a-strcmp.o)
                0x0800cc28                strcmp
 *fill*         0x0800cefc        0x4 
 .text          0x0800cf00       0x40 /usr/bin/../lib/gcc/arm-none-eabi/4.9.3/armv7e-m/fpu/libgcc.a(_arm_fixunsdfsi.o)
                0x0800cf00                __fixunsdfsi
                0x0800cf00                __aeabi_d2uiz
 .text          0x0800cf40       0x30 /usr/bin/../lib/gcc/arm-none-eabi/4.9.3/armv7e-m/fpu/libgcc.a(_aeabi_uldivmod.o)
                0x0800cf40                __aeabi_uldivmod
 .text          0x0800cf70       0x60 /usr/bin/../lib/gcc/arm-none-eabi/4.9.3/armv7e-m/fpu/libgcc.a(bpabi.o)
                0x0800cf70                __gnu_ldivmod_helper
                0x0800cfa0                __gnu_uldivmod_helper
 .text          0x0800cfd0        0x4 /usr/bin/../lib/gcc/arm-none-eabi/4.9.3/armv7e-m/fpu/libgcc.a(_dvmd_tls.o)
                0x0800cfd0                __aeabi_ldiv0
                0x0800cfd0                __aeabi_idiv0
 *fill*         0x0800cfd4        0xc 
 .text          0x0800cfe0      0x29c /usr/bin/../lib/gcc/arm-none-eabi/4.9.3/armv7e-m/fpu/libgcc.a(_divdi3.o)
                0x0800cfe0                __divdi3
 *fill*         0x0800d27c        0x4 
 .text          0x0800d280      0x26c /usr/bin/../lib/gcc/arm-none-eabi/4.9.3/armv7e-m/fpu/libgcc.a(_udivdi3.o)
                0x0800d280                __udivdi3
 *(.text.*)
 *fill*         0x0800d4ec        0x4 
 .text.__core_init
                0x0800d4f0        0x4 build/obj/crt1.o
                0x0800d4f0                __core_init
 *fill*         0x0800d4f4        0xc 
 .text.__late_init
                0x0800d500        0x4 build/obj/crt1.o
                0x0800d500                __late_init
 *fill*         0x0800d504        0xc 
 .text.__default_exit
                0x0800d510        0x4 build/obj/crt1.o
                0x0800d510                __default_exit
 *fill*         0x0800d514        0xc 
 .text._unhandled_exception
                0x0800d520        0x4 build/obj/vectors.o
                0x0800d520                Vector58
                0x0800d520                VectorE8
                0x0800d520                Vector9C
                0x0800d520                VectorAC
                0x0800d520                DebugMon_Handler
                0x0800d520                Vector1A0
                0x0800d520                Vector5C
                0x0800d520                Vector11C
                0x0800d520                HardFault_Handler
                0x0800d520                Vector1B8
                0x0800d520                Vector19C
                0x0800d520                PendSV_Handler
                0x0800d520                Vector168
                0x0800d520                NMI_Handler
                0x0800d520                Vector110
                0x0800d520                VectorA8
                0x0800d520                Vector160
                0x0800d520                Vector1B0
                0x0800d520                UsageFault_Handler
                0x0800d520                VectorEC
                0x0800d520                Vector40
                0x0800d520                VectorF8
                0x0800d520                Vector108
                0x0800d520                VectorBC
                0x0800d520                Vector190
                0x0800d520                Vector148
                0x0800d520                Vector188
                0x0800d520                Vector198
                0x0800d520                Vector118
                0x0800d520                Vector64
                0x0800d520                VectorCC
                0x0800d520                Vector54
                0x0800d520                VectorD8
                0x0800d520                Vector138
                0x0800d520                Vector24
                0x0800d520                Vector1AC
                0x0800d520                Vector178
                0x0800d520                Vector1A4
                0x0800d520                VectorD0
                0x0800d520                Vector1B4
                0x0800d520                Vector140
                0x0800d520                VectorE4
                0x0800d520                VectorC0
                0x0800d520                Vector134
                0x0800d520                VectorF0
                0x0800d520                Vector13C
                0x0800d520                Vector100
                0x0800d520                VectorF4
                0x0800d520                MemManage_Handler
                0x0800d520                VectorA0
                0x0800d520                Vector180
                0x0800d520                VectorB0
                0x0800d520                Vector114
                0x0800d520                Vector164
                0x0800d520                Vector60
                0x0800d520                Vector1C
                0x0800d520                Vector1BC
                0x0800d520                Vector17C
                0x0800d520                Vector48
                0x0800d520                Vector1A8
                0x0800d520                Vector16C
                0x0800d520                VectorD4
                0x0800d520                Vector4C
                0x0800d520                Vector144
                0x0800d520                Vector68
                0x0800d520                _unhandled_exception
                0x0800d520                Vector170
                0x0800d520                Vector104
                0x0800d520                Vector184
                0x0800d520                Vector10C
                0x0800d520                BusFault_Handler
                0x0800d520                Vector50
                0x0800d520                Vector194
                0x0800d520                Vector44
                0x0800d520                Vector28
                0x0800d520                Vector34
                0x0800d520                VectorA4
                0x0800d520                Vector20
                0x0800d520                Vector18C
                0x0800d520                Vector174
 *fill*         0x0800d524        0xc 
 .text._idle_thread
                0x0800d530        0x4 build/obj/chsys.o
 *fill*         0x0800d534        0xc 
 .text.chSysInit
                0x0800d540       0xa4 build/obj/chsys.o
                0x0800d540                chSysInit
 *fill*         0x0800d5e4        0xc 
 .text.chSysHalt
                0x0800d5f0        0xc build/obj/chsys.o
                0x0800d5f0                chSysHalt
 *fill*         0x0800d5fc        0x4 
 .text.chSysTimerHandlerI
                0x0800d600       0x58 build/obj/chsys.o
                0x0800d600                chSysTimerHandlerI
 *fill*         0x0800d658        0x8 
 .text.chSysPolledDelayX
                0x0800d660       0x14 build/obj/chsys.o
                0x0800d660                chSysPolledDelayX
 *fill*         0x0800d674        0xc 
 .text._vt_init
                0x0800d680       0x1c build/obj/chvt.o
                0x0800d680                _vt_init
 *fill*         0x0800d69c        0x4 
 .text.chVTDoSetI
                0x0800d6a0       0x3c build/obj/chvt.o
                0x0800d6a0                chVTDoSetI
 *fill*         0x0800d6dc        0x4 
 .text.chVTDoResetI
                0x0800d6e0       0x28 build/obj/chvt.o
                0x0800d6e0                chVTDoResetI
 *fill*         0x0800d708        0x8 
 .text.wakeup   0x0800d710       0x70 build/obj/chschd.o
 .text._scheduler_init
                0x0800d780       0x14 build/obj/chschd.o
                0x0800d780                _scheduler_init
 *fill*         0x0800d794        0xc 
 .text.chSchReadyI
                0x0800d7a0       0x2c build/obj/chschd.o
                0x0800d7a0                chSchReadyI
 *fill*         0x0800d7cc        0x4 
 .text.chSchGoSleepS
                0x0800d7d0       0x28 build/obj/chschd.o
                0x0800d7d0                chSchGoSleepS
 *fill*         0x0800d7f8        0x8 
 .text.chSchGoSleepTimeoutS
                0x0800d800       0x44 build/obj/chschd.o
                0x0800d800                chSchGoSleepTimeoutS
 *fill*         0x0800d844        0xc 
 .text.chSchWakeupS
                0x0800d850       0x58 build/obj/chschd.o
                0x0800d850                chSchWakeupS
 *fill*         0x0800d8a8        0x8 
 .text.chSchIsPreemptionRequired
                0x0800d8b0       0x28 build/obj/chschd.o
                0x0800d8b0                chSchIsPreemptionRequired
 *fill*         0x0800d8d8        0x8 
 .text.chSchDoRescheduleBehind
                0x0800d8e0       0x40 build/obj/chschd.o
                0x0800d8e0                chSchDoRescheduleBehind
 .text.chSchDoRescheduleAhead
                0x0800d920       0x3c build/obj/chschd.o
                0x0800d920                chSchDoRescheduleAhead
 *fill*         0x0800d95c        0x4 
 .text.chSchRescheduleS
                0x0800d960       0x18 build/obj/chschd.o
                0x0800d960                chSchRescheduleS
 *fill*         0x0800d978        0x8 
 .text.chSchDoReschedule
                0x0800d980       0x14 build/obj/chschd.o
                0x0800d980                chSchDoReschedule
 *fill*         0x0800d994        0xc 
 .text._thread_init
                0x0800d9a0       0x50 build/obj/chthreads.o
                0x0800d9a0                _thread_init
 .text.chThdCreateI
                0x0800d9f0       0x70 build/obj/chthreads.o
                0x0800d9f0                chThdCreateI
 .text.chThdCreateStatic
                0x0800da60       0x80 build/obj/chthreads.o
                0x0800da60                chThdCreateStatic
 .text.chThdSleep
                0x0800dae0       0x18 build/obj/chthreads.o
                0x0800dae0                chThdSleep
 *fill*         0x0800daf8        0x8 
 .text.chThdExitS
                0x0800db00       0x40 build/obj/chthreads.o
                0x0800db00                chThdExitS
 .text.chThdExit
                0x0800db40        0xc build/obj/chthreads.o
                0x0800db40                chThdExit
 *fill*         0x0800db4c        0x4 
 .text.chThdSuspendS
                0x0800db50       0x1c build/obj/chthreads.o
                0x0800db50                chThdSuspendS
 *fill*         0x0800db6c        0x4 
 .text.chThdSuspendTimeoutS
                0x0800db70       0x1c build/obj/chthreads.o
                0x0800db70                chThdSuspendTimeoutS
 *fill*         0x0800db8c        0x4 
 .text.chThdResumeI
                0x0800db90       0x14 build/obj/chthreads.o
                0x0800db90                chThdResumeI
 *fill*         0x0800dba4        0xc 
 .text.chThdEnqueueTimeoutS
                0x0800dbb0       0x28 build/obj/chthreads.o
                0x0800dbb0                chThdEnqueueTimeoutS
 *fill*         0x0800dbd8        0x8 
 .text.chThdDequeueAllI
                0x0800dbe0       0x24 build/obj/chthreads.o
                0x0800dbe0                chThdDequeueAllI
 *fill*         0x0800dc04        0xc 
 .text.chTMStartMeasurementX
                0x0800dc10        0xc build/obj/chtm.o
                0x0800dc10                chTMStartMeasurementX
 *fill*         0x0800dc1c        0x4 
 .text.chTMStopMeasurementX
                0x0800dc20       0x48 build/obj/chtm.o
                0x0800dc20                chTMStopMeasurementX
 *fill*         0x0800dc68        0x8 
 .text._tm_init
                0x0800dc70       0x38 build/obj/chtm.o
                0x0800dc70                _tm_init
 *fill*         0x0800dca8        0x8 
 .text.chThdRelease
                0x0800dcb0       0x50 build/obj/chdynamic.o
                0x0800dcb0                chThdRelease
 .text.chRegFirstThread
                0x0800dd00       0x1c build/obj/chregistry.o
                0x0800dd00                chRegFirstThread
 *fill*         0x0800dd1c        0x4 
 .text.chRegNextThread
                0x0800dd20       0x2c build/obj/chregistry.o
                0x0800dd20                chRegNextThread
 *fill*         0x0800dd4c        0x4 
 .text.chMtxObjectInit
                0x0800dd50        0xc build/obj/chmtx.o
                0x0800dd50                chMtxObjectInit
 *fill*         0x0800dd5c        0x4 
 .text.chMtxLockS
                0x0800dd60       0xc8 build/obj/chmtx.o
                0x0800dd60                chMtxLockS
 *fill*         0x0800de28        0x8 
 .text.chMtxLock
                0x0800de30       0x14 build/obj/chmtx.o
                0x0800de30                chMtxLock
 *fill*         0x0800de44        0xc 
 .text.chMtxUnlock
                0x0800de50       0x64 build/obj/chmtx.o
                0x0800de50                chMtxUnlock
 *fill*         0x0800deb4        0xc 
 .text.chEvtRegisterMaskWithFlags
                0x0800dec0       0x28 build/obj/chevents.o
                0x0800dec0                chEvtRegisterMaskWithFlags
 *fill*         0x0800dee8        0x8 
 .text.chEvtUnregister
                0x0800def0       0x2c build/obj/chevents.o
                0x0800def0                chEvtUnregister
 *fill*         0x0800df1c        0x4 
 .text.chEvtSignalI
                0x0800df20       0x2c build/obj/chevents.o
                0x0800df20                chEvtSignalI
 *fill*         0x0800df4c        0x4 
 .text.chEvtBroadcastFlagsI
                0x0800df50       0x2c build/obj/chevents.o
                0x0800df50                chEvtBroadcastFlagsI
 *fill*         0x0800df7c        0x4 
 .text.chEvtSignal
                0x0800df80       0x18 build/obj/chevents.o
                0x0800df80                chEvtSignal
 *fill*         0x0800df98        0x8 
 .text.chEvtWaitAny
                0x0800dfa0       0x38 build/obj/chevents.o
                0x0800dfa0                chEvtWaitAny
 *fill*         0x0800dfd8        0x8 
 .text.chEvtWaitAnyTimeout
                0x0800dfe0       0x50 build/obj/chevents.o
                0x0800dfe0                chEvtWaitAnyTimeout
 .text.chIQObjectInit
                0x0800e030       0x20 build/obj/chqueues.o
                0x0800e030                chIQObjectInit
 .text.chIQResetI
                0x0800e050       0x14 build/obj/chqueues.o
                0x0800e050                chIQResetI
 *fill*         0x0800e064        0xc 
 .text.chIQGetTimeout
                0x0800e070       0x50 build/obj/chqueues.o
                0x0800e070                chIQGetTimeout
 .text.chIQReadTimeout
                0x0800e0c0       0x78 build/obj/chqueues.o
                0x0800e0c0                chIQReadTimeout
 *fill*         0x0800e138        0x8 
 .text.chOQObjectInit
                0x0800e140       0x1c build/obj/chqueues.o
                0x0800e140                chOQObjectInit
 *fill*         0x0800e15c        0x4 
 .text.chOQResetI
                0x0800e160       0x1c build/obj/chqueues.o
                0x0800e160                chOQResetI
 *fill*         0x0800e17c        0x4 
 .text.chOQPutTimeout
                0x0800e180       0x54 build/obj/chqueues.o
                0x0800e180                chOQPutTimeout
 *fill*         0x0800e1d4        0xc 
 .text.chOQWriteTimeout
                0x0800e1e0       0x84 build/obj/chqueues.o
                0x0800e1e0                chOQWriteTimeout
 *fill*         0x0800e264        0xc 
 .text._core_init
                0x0800e270       0x28 build/obj/chmemcore.o
                0x0800e270                _core_init
 *fill*         0x0800e298        0x8 
 .text.chCoreAlloc
                0x0800e2a0       0x38 build/obj/chmemcore.o
                0x0800e2a0                chCoreAlloc
 *fill*         0x0800e2d8        0x8 
 .text.chCoreGetStatusX
                0x0800e2e0       0x14 build/obj/chmemcore.o
                0x0800e2e0                chCoreGetStatusX
 *fill*         0x0800e2f4        0xc 
 .text._heap_init
                0x0800e300       0x1c build/obj/chheap.o
                0x0800e300                _heap_init
 *fill*         0x0800e31c        0x4 
 .text.chHeapFree
                0x0800e320       0x94 build/obj/chheap.o
                0x0800e320                chHeapFree
 *fill*         0x0800e3b4        0xc 
 .text.chHeapStatus
                0x0800e3c0       0x44 build/obj/chheap.o
                0x0800e3c0                chHeapStatus
 *fill*         0x0800e404        0xc 
 .text.chPoolFree
                0x0800e410       0x14 build/obj/chmempools.o
                0x0800e410                chPoolFree
 *fill*         0x0800e424        0xc 
 .text.SVC_Handler
                0x0800e430       0x20 build/obj/chcore_v7m.o
                0x0800e430                SVC_Handler
 .text._port_irq_epilogue
                0x0800e450       0x60 build/obj/chcore_v7m.o
                0x0800e450                _port_irq_epilogue
 .text.halInit  0x0800e4b0       0x38 build/obj/hal.o
                0x0800e4b0                halInit
 *fill*         0x0800e4e8        0x8 
 .text.stInit   0x0800e4f0        0x4 build/obj/st.o
                0x0800e4f0                stInit
 *fill*         0x0800e4f4        0xc 
 .text.canInit  0x0800e500        0x4 build/obj/can.o
                0x0800e500                canInit
 *fill*         0x0800e504        0xc 
 .text.canObjectInit
                0x0800e510       0x44 build/obj/can.o
                0x0800e510                canObjectInit
 *fill*         0x0800e554        0xc 
 .text.canStart
                0x0800e560       0x20 build/obj/can.o
                0x0800e560                canStart
 .text.canTransmit
                0x0800e580       0x50 build/obj/can.o
                0x0800e580                canTransmit
 .text.canReceive
                0x0800e5d0       0x50 build/obj/can.o
                0x0800e5d0                canReceive
 .text.i2cInit  0x0800e620        0x4 build/obj/i2c.o
                0x0800e620                i2cInit
 *fill*         0x0800e624        0xc 
 .text.i2cObjectInit
                0x0800e630       0x10 build/obj/i2c.o
                0x0800e630                i2cObjectInit
 .text.i2cStart
                0x0800e640       0x1c build/obj/i2c.o
                0x0800e640                i2cStart
 *fill*         0x0800e65c        0x4 
 .text.i2cStop  0x0800e660       0x1c build/obj/i2c.o
                0x0800e660                i2cStop
 *fill*         0x0800e67c        0x4 
 .text.i2cMasterTransmitTimeout
                0x0800e680       0x40 build/obj/i2c.o
                0x0800e680                i2cMasterTransmitTimeout
 .text.i2cMasterReceiveTimeout
                0x0800e6c0       0x30 build/obj/i2c.o
                0x0800e6c0                i2cMasterReceiveTimeout
 .text.i2cAcquireBus
                0x0800e6f0        0x8 build/obj/i2c.o
                0x0800e6f0                i2cAcquireBus
 *fill*         0x0800e6f8        0x8 
 .text.i2cReleaseBus
                0x0800e700        0x8 build/obj/i2c.o
                0x0800e700                i2cReleaseBus
 *fill*         0x0800e708        0x8 
 .text.icuInit  0x0800e710        0x4 build/obj/icu.o
                0x0800e710                icuInit
 *fill*         0x0800e714        0xc 
 .text.icuObjectInit
                0x0800e720        0xc build/obj/icu.o
                0x0800e720                icuObjectInit
 *fill*         0x0800e72c        0x4 
 .text.icuStart
                0x0800e730       0x1c build/obj/icu.o
                0x0800e730                icuStart
 *fill*         0x0800e74c        0x4 
 .text.icuStartCapture
                0x0800e750       0x1c build/obj/icu.o
                0x0800e750                icuStartCapture
 *fill*         0x0800e76c        0x4 
 .text.icuEnableNotifications
                0x0800e770       0x14 build/obj/icu.o
                0x0800e770                icuEnableNotifications
 *fill*         0x0800e784        0xc 
 .text.onotify  0x0800e790       0x5c build/obj/serial_usb.o
 *fill*         0x0800e7ec        0x4 
 .text.inotify  0x0800e7f0       0x6c build/obj/serial_usb.o
 *fill*         0x0800e85c        0x4 
 .text.readt    0x0800e860        0x8 build/obj/serial_usb.o
 *fill*         0x0800e868        0x8 
 .text.read     0x0800e870        0xc build/obj/serial_usb.o
 *fill*         0x0800e87c        0x4 
 .text.writet   0x0800e880        0x8 build/obj/serial_usb.o
 *fill*         0x0800e888        0x8 
 .text.write    0x0800e890        0xc build/obj/serial_usb.o
 *fill*         0x0800e89c        0x4 
 .text.gett     0x0800e8a0        0x8 build/obj/serial_usb.o
 *fill*         0x0800e8a8        0x8 
 .text.get      0x0800e8b0        0xc build/obj/serial_usb.o
 *fill*         0x0800e8bc        0x4 
 .text.putt     0x0800e8c0        0x8 build/obj/serial_usb.o
 *fill*         0x0800e8c8        0x8 
 .text.put      0x0800e8d0        0xc build/obj/serial_usb.o
 *fill*         0x0800e8dc        0x4 
 .text.sduInit  0x0800e8e0        0x4 build/obj/serial_usb.o
                0x0800e8e0                sduInit
 *fill*         0x0800e8e4        0xc 
 .text.sduObjectInit
                0x0800e8f0       0x4c build/obj/serial_usb.o
                0x0800e8f0                sduObjectInit
 *fill*         0x0800e93c        0x4 
 .text.sduStart
                0x0800e940       0x34 build/obj/serial_usb.o
                0x0800e940                sduStart
 *fill*         0x0800e974        0xc 
 .text.sduConfigureHookI
                0x0800e980       0x4c build/obj/serial_usb.o
                0x0800e980                sduConfigureHookI
 *fill*         0x0800e9cc        0x4 
 .text.sduRequestsHook
                0x0800e9d0       0x40 build/obj/serial_usb.o
                0x0800e9d0                sduRequestsHook
 .text.sduDataTransmitted
                0x0800ea10       0x6c build/obj/serial_usb.o
                0x0800ea10                sduDataTransmitted
 *fill*         0x0800ea7c        0x4 
 .text.sduDataReceived
                0x0800ea80       0x6c build/obj/serial_usb.o
                0x0800ea80                sduDataReceived
 *fill*         0x0800eaec        0x4 
 .text.sduInterruptTransmitted
                0x0800eaf0        0x4 build/obj/serial_usb.o
                0x0800eaf0                sduInterruptTransmitted
 *fill*         0x0800eaf4        0xc 
 .text.spiInit  0x0800eb00        0x4 build/obj/spi.o
                0x0800eb00                spiInit
 *fill*         0x0800eb04        0xc 
 .text.spiObjectInit
                0x0800eb10       0x10 build/obj/spi.o
                0x0800eb10                spiObjectInit
 .text.uartInit
                0x0800eb20        0x4 build/obj/uart.o
                0x0800eb20                uartInit
 *fill*         0x0800eb24        0xc 
 .text.uartObjectInit
                0x0800eb30       0x10 build/obj/uart.o
                0x0800eb30                uartObjectInit
 .text.uartStart
                0x0800eb40       0x1c build/obj/uart.o
                0x0800eb40                uartStart
 *fill*         0x0800eb5c        0x4 
 .text.uartStop
                0x0800eb60       0x20 build/obj/uart.o
                0x0800eb60                uartStop
 .text.uartStartSend
                0x0800eb80       0x1c build/obj/uart.o
                0x0800eb80                uartStartSend
 *fill*         0x0800eb9c        0x4 
 .text.usbInit  0x0800eba0        0x4 build/obj/usb.o
                0x0800eba0                usbInit
 *fill*         0x0800eba4        0xc 
 .text.usbObjectInit
                0x0800ebb0       0x1c build/obj/usb.o
                0x0800ebb0                usbObjectInit
 *fill*         0x0800ebcc        0x4 
 .text.usbStart
                0x0800ebd0       0x24 build/obj/usb.o
                0x0800ebd0                usbStart
 *fill*         0x0800ebf4        0xc 
 .text.usbStop  0x0800ec00       0x1c build/obj/usb.o
                0x0800ec00                usbStop
 *fill*         0x0800ec1c        0x4 
 .text.usbInitEndpointI
                0x0800ec20       0x34 build/obj/usb.o
                0x0800ec20                usbInitEndpointI
 *fill*         0x0800ec54        0xc 
 .text.usbPrepareQueuedReceive
                0x0800ec60       0x1c build/obj/usb.o
                0x0800ec60                usbPrepareQueuedReceive
 *fill*         0x0800ec7c        0x4 
 .text.usbPrepareQueuedTransmit
                0x0800ec80       0x1c build/obj/usb.o
                0x0800ec80                usbPrepareQueuedTransmit
 *fill*         0x0800ec9c        0x4 
 .text.usbStartReceiveI
                0x0800eca0       0x24 build/obj/usb.o
                0x0800eca0                usbStartReceiveI
 *fill*         0x0800ecc4        0xc 
 .text.usbStartTransmitI
                0x0800ecd0       0x24 build/obj/usb.o
                0x0800ecd0                usbStartTransmitI
 *fill*         0x0800ecf4        0xc 
 .text._usb_reset
                0x0800ed00       0x28 build/obj/usb.o
                0x0800ed00                _usb_reset
 *fill*         0x0800ed28        0x8 
 .text._usb_ep0setup
                0x0800ed30      0x34c build/obj/usb.o
                0x0800ed30                _usb_ep0setup
 *fill*         0x0800f07c        0x4 
 .text._usb_ep0in
                0x0800f080       0xc4 build/obj/usb.o
                0x0800f080                _usb_ep0in
 *fill*         0x0800f144        0xc 
 .text._usb_ep0out
                0x0800f150       0x88 build/obj/usb.o
                0x0800f150                _usb_ep0out
 *fill*         0x0800f1d8        0x8 
 .text.nvicEnableVector
                0x0800f1e0       0x34 build/obj/nvic.o
                0x0800f1e0                nvicEnableVector
 *fill*         0x0800f214        0xc 
 .text.nvicDisableVector
                0x0800f220       0x28 build/obj/nvic.o
                0x0800f220                nvicDisableVector
 *fill*         0x0800f248        0x8 
 .text.nvicSetSystemHandlerPriority
                0x0800f250       0x10 build/obj/nvic.o
                0x0800f250                nvicSetSystemHandlerPriority
 .text.Vector6C
                0x0800f260       0x28 build/obj/stm32_dma.o
                0x0800f260                Vector6C
 *fill*         0x0800f288        0x8 
 .text.Vector70
                0x0800f290       0x2c build/obj/stm32_dma.o
                0x0800f290                Vector70
 *fill*         0x0800f2bc        0x4 
 .text.Vector74
                0x0800f2c0       0x2c build/obj/stm32_dma.o
                0x0800f2c0                Vector74
 *fill*         0x0800f2ec        0x4 
 .text.Vector78
                0x0800f2f0       0x2c build/obj/stm32_dma.o
                0x0800f2f0                Vector78
 *fill*         0x0800f31c        0x4 
 .text.Vector7C
                0x0800f320       0x28 build/obj/stm32_dma.o
                0x0800f320                Vector7C
 *fill*         0x0800f348        0x8 
 .text.Vector80
                0x0800f350       0x2c build/obj/stm32_dma.o
                0x0800f350                Vector80
 *fill*         0x0800f37c        0x4 
 .text.Vector84
                0x0800f380       0x2c build/obj/stm32_dma.o
                0x0800f380                Vector84
 *fill*         0x0800f3ac        0x4 
 .text.VectorFC
                0x0800f3b0       0x2c build/obj/stm32_dma.o
                0x0800f3b0                VectorFC
 *fill*         0x0800f3dc        0x4 
 .text.Vector120
                0x0800f3e0       0x28 build/obj/stm32_dma.o
                0x0800f3e0                Vector120
 *fill*         0x0800f408        0x8 
 .text.Vector124
                0x0800f410       0x2c build/obj/stm32_dma.o
                0x0800f410                Vector124
 *fill*         0x0800f43c        0x4 
 .text.Vector128
                0x0800f440       0x2c build/obj/stm32_dma.o
                0x0800f440                Vector128
 *fill*         0x0800f46c        0x4 
 .text.Vector12C
                0x0800f470       0x2c build/obj/stm32_dma.o
                0x0800f470                Vector12C
 *fill*         0x0800f49c        0x4 
 .text.Vector130
                0x0800f4a0       0x28 build/obj/stm32_dma.o
                0x0800f4a0                Vector130
 *fill*         0x0800f4c8        0x8 
 .text.Vector150
                0x0800f4d0       0x2c build/obj/stm32_dma.o
                0x0800f4d0                Vector150
 *fill*         0x0800f4fc        0x4 
 .text.Vector154
                0x0800f500       0x2c build/obj/stm32_dma.o
                0x0800f500                Vector154
 *fill*         0x0800f52c        0x4 
 .text.Vector158
                0x0800f530       0x2c build/obj/stm32_dma.o
                0x0800f530                Vector158
 *fill*         0x0800f55c        0x4 
 .text.dmaInit  0x0800f560       0x4c build/obj/stm32_dma.o
                0x0800f560                dmaInit
 *fill*         0x0800f5ac        0x4 
 .text.dmaStreamAllocate
                0x0800f5b0       0x8c build/obj/stm32_dma.o
                0x0800f5b0                dmaStreamAllocate
 *fill*         0x0800f63c        0x4 
 .text.dmaStreamRelease
                0x0800f640       0x44 build/obj/stm32_dma.o
                0x0800f640                dmaStreamRelease
 *fill*         0x0800f684        0xc 
 .text.hal_lld_init
                0x0800f690       0x68 build/obj/hal_lld.o
                0x0800f690                hal_lld_init
 *fill*         0x0800f6f8        0x8 
 .text.stm32_clock_init
                0x0800f700       0xc8 build/obj/hal_lld.o
                0x0800f700                stm32_clock_init
 *fill*         0x0800f7c8        0x8 
 .text.SysTick_Handler
                0x0800f7d0       0x1c build/obj/st_lld.o
                0x0800f7d0                SysTick_Handler
 *fill*         0x0800f7ec        0x4 
 .text.st_lld_init
                0x0800f7f0       0x1c build/obj/st_lld.o
                0x0800f7f0                st_lld_init
 *fill*         0x0800f80c        0x4 
 .text.can_lld_set_filters
                0x0800f810      0x118 build/obj/can_lld.o
 *fill*         0x0800f928        0x8 
 .text.Vector8C
                0x0800f930       0x3c build/obj/can_lld.o
                0x0800f930                Vector8C
 *fill*         0x0800f96c        0x4 
 .text.Vector90
                0x0800f970       0x64 build/obj/can_lld.o
                0x0800f970                Vector90
 *fill*         0x0800f9d4        0xc 
 .text.Vector94
                0x0800f9e0       0x64 build/obj/can_lld.o
                0x0800f9e0                Vector94
 *fill*         0x0800fa44        0xc 
 .text.Vector98
                0x0800fa50       0x78 build/obj/can_lld.o
                0x0800fa50                Vector98
 *fill*         0x0800fac8        0x8 
 .text.can_lld_init
                0x0800fad0       0x24 build/obj/can_lld.o
                0x0800fad0                can_lld_init
 *fill*         0x0800faf4        0xc 
 .text.can_lld_start
                0x0800fb00       0x70 build/obj/can_lld.o
                0x0800fb00                can_lld_start
 .text.can_lld_is_tx_empty
                0x0800fb70       0x40 build/obj/can_lld.o
                0x0800fb70                can_lld_is_tx_empty
 .text.can_lld_transmit
                0x0800fbb0       0x78 build/obj/can_lld.o
                0x0800fbb0                can_lld_transmit
 *fill*         0x0800fc28        0x8 
 .text.can_lld_is_rx_nonempty
                0x0800fc30       0x38 build/obj/can_lld.o
                0x0800fc30                can_lld_is_rx_nonempty
 *fill*         0x0800fc68        0x8 
 .text.can_lld_receive
                0x0800fc70       0xc8 build/obj/can_lld.o
                0x0800fc70                can_lld_receive
 *fill*         0x0800fd38        0x8 
 .text._pal_lld_init
                0x0800fd40      0x1cc build/obj/pal_lld.o
                0x0800fd40                _pal_lld_init
 *fill*         0x0800ff0c        0x4 
 .text._pal_lld_setgroupmode
                0x0800ff10       0xac build/obj/pal_lld.o
                0x0800ff10                _pal_lld_setgroupmode
 *fill*         0x0800ffbc        0x4 
 .text.i2c_lld_serve_tx_end_irq
                0x0800ffc0       0x40 build/obj/i2c_lld.o
 .text.i2c_lld_serve_rx_end_irq
                0x08010000       0x64 build/obj/i2c_lld.o
 *fill*         0x08010064        0xc 
 .text.VectorC4
                0x08010070       0xf8 build/obj/i2c_lld.o
                0x08010070                VectorC4
 *fill*         0x08010168        0x8 
 .text.VectorC8
                0x08010170       0xdc build/obj/i2c_lld.o
                0x08010170                VectorC8
 *fill*         0x0801024c        0x4 
 .text.i2c_lld_init
                0x08010250       0x2c build/obj/i2c_lld.o
                0x08010250                i2c_lld_init
 *fill*         0x0801027c        0x4 
 .text.i2c_lld_start
                0x08010280      0x180 build/obj/i2c_lld.o
                0x08010280                i2c_lld_start
 .text.i2c_lld_stop
                0x08010400       0x88 build/obj/i2c_lld.o
                0x08010400                i2c_lld_stop
 *fill*         0x08010488        0x8 
 .text.i2c_lld_master_receive_timeout
                0x08010490       0x74 build/obj/i2c_lld.o
                0x08010490                i2c_lld_master_receive_timeout
 *fill*         0x08010504        0xc 
 .text.i2c_lld_master_transmit_timeout
                0x08010510       0x90 build/obj/i2c_lld.o
                0x08010510                i2c_lld_master_transmit_timeout
 .text.usb_lld_pump
                0x080105a0      0x328 build/obj/usb_lld.o
                0x080105a0                usb_lld_pump
 *fill*         0x080108c8        0x8 
 .text.otg_disable_ep.isra.0
                0x080108d0       0x74 build/obj/usb_lld.o
 *fill*         0x08010944        0xc 
 .text.usb_lld_init
                0x08010950       0x24 build/obj/usb_lld.o
                0x08010950                usb_lld_init
 *fill*         0x08010974        0xc 
 .text.usb_lld_start
                0x08010980       0xe8 build/obj/usb_lld.o
                0x08010980                usb_lld_start
 *fill*         0x08010a68        0x8 
 .text.usb_lld_stop
                0x08010a70       0x44 build/obj/usb_lld.o
                0x08010a70                usb_lld_stop
 *fill*         0x08010ab4        0xc 
 .text.usb_lld_reset
                0x08010ac0       0xc4 build/obj/usb_lld.o
                0x08010ac0                usb_lld_reset
 *fill*         0x08010b84        0xc 
 .text.usb_lld_set_address
                0x08010b90       0x18 build/obj/usb_lld.o
                0x08010b90                usb_lld_set_address
 *fill*         0x08010ba8        0x8 
 .text.usb_lld_init_endpoint
                0x08010bb0      0x160 build/obj/usb_lld.o
                0x08010bb0                usb_lld_init_endpoint
 .text.usb_lld_get_status_out
                0x08010d10       0x1c build/obj/usb_lld.o
                0x08010d10                usb_lld_get_status_out
 *fill*         0x08010d2c        0x4 
 .text.usb_lld_get_status_in
                0x08010d30       0x1c build/obj/usb_lld.o
                0x08010d30                usb_lld_get_status_in
 *fill*         0x08010d4c        0x4 
 .text.usb_lld_read_setup
                0x08010d50       0x14 build/obj/usb_lld.o
                0x08010d50                usb_lld_read_setup
 *fill*         0x08010d64        0xc 
 .text.usb_lld_prepare_receive
                0x08010d70       0x44 build/obj/usb_lld.o
                0x08010d70                usb_lld_prepare_receive
 *fill*         0x08010db4        0xc 
 .text.otg_epout_handler.constprop.7
                0x08010dc0       0xa4 build/obj/usb_lld.o
 *fill*         0x08010e64        0xc 
 .text.usb_lld_prepare_transmit
                0x08010e70       0x50 build/obj/usb_lld.o
                0x08010e70                usb_lld_prepare_transmit
 .text.otg_epin_handler.constprop.8
                0x08010ec0       0xd0 build/obj/usb_lld.o
 .text.Vector14C
                0x08010f90       0xf4 build/obj/usb_lld.o
                0x08010f90                Vector14C
 *fill*         0x08011084        0xc 
 .text.usb_lld_start_out
                0x08011090       0x14 build/obj/usb_lld.o
                0x08011090                usb_lld_start_out
 *fill*         0x080110a4        0xc 
 .text.usb_lld_start_in
                0x080110b0       0x28 build/obj/usb_lld.o
                0x080110b0                usb_lld_start_in
 *fill*         0x080110d8        0x8 
 .text.usb_lld_stall_out
                0x080110e0       0x14 build/obj/usb_lld.o
                0x080110e0                usb_lld_stall_out
 *fill*         0x080110f4        0xc 
 .text.usb_lld_stall_in
                0x08011100       0x14 build/obj/usb_lld.o
                0x08011100                usb_lld_stall_in
 *fill*         0x08011114        0xc 
 .text.usb_lld_clear_out
                0x08011120       0x14 build/obj/usb_lld.o
                0x08011120                usb_lld_clear_out
 *fill*         0x08011134        0xc 
 .text.usb_lld_clear_in
                0x08011140       0x14 build/obj/usb_lld.o
                0x08011140                usb_lld_clear_in
 *fill*         0x08011154        0xc 
 .text.spi_lld_init
                0x08011160       0x44 build/obj/spi_lld.o
                0x08011160                spi_lld_init
 *fill*         0x080111a4        0xc 
 .text.VectorB4
                0x080111b0       0x9c build/obj/icu_lld.o
                0x080111b0                VectorB4
 *fill*         0x0801124c        0x4 
 .text.icu_lld_init
                0x08011250       0x18 build/obj/icu_lld.o
                0x08011250                icu_lld_init
 *fill*         0x08011268        0x8 
 .text.icu_lld_start
                0x08011270       0xbc build/obj/icu_lld.o
                0x08011270                icu_lld_start
 *fill*         0x0801132c        0x4 
 .text.icu_lld_start_capture
                0x08011330       0x14 build/obj/icu_lld.o
                0x08011330                icu_lld_start_capture
 *fill*         0x08011344        0xc 
 .text.icu_lld_enable_notifications
                0x08011350       0x40 build/obj/icu_lld.o
                0x08011350                icu_lld_enable_notifications
 .text.usart_stop
                0x08011390       0x48 build/obj/uart_lld.o
 *fill*         0x080113d8        0x8 
 .text.serve_usart_irq
                0x080113e0       0x78 build/obj/uart_lld.o
 *fill*         0x08011458        0x8 
 .text.uart_lld_serve_tx_end_irq
                0x08011460       0x50 build/obj/uart_lld.o
 .text.uart_lld_serve_rx_end_irq
                0x080114b0       0x90 build/obj/uart_lld.o
 .text.VectorDC
                0x08011540       0x14 build/obj/uart_lld.o
                0x08011540                VectorDC
 *fill*         0x08011554        0xc 
 .text.Vector15C
                0x08011560       0x14 build/obj/uart_lld.o
                0x08011560                Vector15C
 *fill*         0x08011574        0xc 
 .text.uart_lld_init
                0x08011580       0x48 build/obj/uart_lld.o
                0x08011580                uart_lld_init
 *fill*         0x080115c8        0x8 
 .text.uart_lld_start
                0x080115d0      0x15c build/obj/uart_lld.o
                0x080115d0                uart_lld_start
 *fill*         0x0801172c        0x4 
 .text.uart_lld_stop
                0x08011730       0x5c build/obj/uart_lld.o
                0x08011730                uart_lld_stop
 *fill*         0x0801178c        0x4 
 .text.uart_lld_start_send
                0x08011790       0x34 build/obj/uart_lld.o
                0x08011790                uart_lld_start_send
 *fill*         0x080117c4        0xc 
 .text.__early_init
                0x080117d0        0x4 build/obj/board.o
                0x080117d0                __early_init
 *fill*         0x080117d4        0xc 
 .text.boardInit
                0x080117e0        0x4 build/obj/board.o
                0x080117e0                boardInit
 *fill*         0x080117e4        0xc 
 .text._sbrk_r  0x080117f0       0x18 build/obj/syscalls.o
                0x080117f0                _sbrk_r
 *fill*         0x08011808        0x8 
 .text.timer_thread
                0x08011810       0x20 build/obj/main.o
 .text.periodic_thread
                0x08011830      0x12c build/obj/main.o
 *fill*         0x0801195c        0x4 
 .text.startup.main
                0x08011960       0xa0 build/obj/main.o
                0x08011960                main
 .text.get_descriptor
                0x08011a00       0x30 build/obj/comm_usb_serial.o
 .text.usb_event
                0x08011a30       0x40 build/obj/comm_usb_serial.o
 .text.comm_usb_serial_init
                0x08011a70       0x4c build/obj/comm_usb_serial.o
                0x08011a70                comm_usb_serial_init
 *fill*         0x08011abc        0x4 
 .text.Vector88
                0x08011ac0       0x1c build/obj/irq_handlers.o
                0x08011ac0                Vector88
 *fill*         0x08011adc        0x4 
 .text.VectorE0
                0x08011ae0       0x20 build/obj/irq_handlers.o
                0x08011ae0                VectorE0
 .text.VectorB8
                0x08011b00       0x24 build/obj/irq_handlers.o
                0x08011b00                VectorB8
 *fill*         0x08011b24        0xc 
 .text.buffer_append_int16
                0x08011b30       0x18 build/obj/buffer.o
                0x08011b30                buffer_append_int16
 *fill*         0x08011b48        0x8 
 .text.buffer_append_uint16
                0x08011b50       0x18 build/obj/buffer.o
                0x08011b50                buffer_append_uint16
 *fill*         0x08011b68        0x8 
 .text.buffer_append_int32
                0x08011b70       0x2c build/obj/buffer.o
                0x08011b70                buffer_append_int32
 *fill*         0x08011b9c        0x4 
 .text.buffer_append_uint32
                0x08011ba0       0x2c build/obj/buffer.o
                0x08011ba0                buffer_append_uint32
 *fill*         0x08011bcc        0x4 
 .text.buffer_append_float16
                0x08011bd0       0x30 build/obj/buffer.o
                0x08011bd0                buffer_append_float16
 .text.buffer_append_float32
                0x08011c00       0x14 build/obj/buffer.o
                0x08011c00                buffer_append_float32
 *fill*         0x08011c14        0xc 
 .text.buffer_get_int16
                0x08011c20       0x14 build/obj/buffer.o
                0x08011c20                buffer_get_int16
 *fill*         0x08011c34        0xc 
 .text.buffer_get_uint16
                0x08011c40       0x14 build/obj/buffer.o
                0x08011c40                buffer_get_uint16
 *fill*         0x08011c54        0xc 
 .text.buffer_get_int32
                0x08011c60       0x24 build/obj/buffer.o
                0x08011c60                buffer_get_int32
 *fill*         0x08011c84        0xc 
 .text.buffer_get_uint32
                0x08011c90       0x24 build/obj/buffer.o
                0x08011c90                buffer_get_uint32
 *fill*         0x08011cb4        0xc 
 .text.buffer_get_float16
                0x08011cc0       0x20 build/obj/buffer.o
                0x08011cc0                buffer_get_float16
 .text.buffer_get_float32
                0x08011ce0       0x20 build/obj/buffer.o
                0x08011ce0                buffer_get_float32
 .text.send_packet
                0x08011d00       0x1c build/obj/comm_usb.o
 *fill*         0x08011d1c        0x4 
 .text.serial_process_thread
                0x08011d20       0x60 build/obj/comm_usb.o
 .text.serial_read_thread
                0x08011d80       0x74 build/obj/comm_usb.o
 *fill*         0x08011df4        0xc 
 .text.process_packet
                0x08011e00       0x1c build/obj/comm_usb.o
 *fill*         0x08011e1c        0x4 
 .text.send_packet_wrapper
                0x08011e20       0x28 build/obj/comm_usb.o
 *fill*         0x08011e48        0x8 
 .text.comm_usb_init
                0x08011e50       0x5c build/obj/comm_usb.o
                0x08011e50                comm_usb_init
 *fill*         0x08011eac        0x4 
 .text.crc16    0x08011eb0       0x30 build/obj/crc.o
                0x08011eb0                crc16
 .text.filter_fft
                0x08011ee0      0x1f0 build/obj/digital_filter.o
                0x08011ee0                filter_fft
 .text.filter_hamming
                0x080120d0       0xd4 build/obj/digital_filter.o
                0x080120d0                filter_hamming
 *fill*         0x080121a4        0xc 
 .text.filter_create_fir_lowpass
                0x080121b0       0xc4 build/obj/digital_filter.o
                0x080121b0                filter_create_fir_lowpass
 *fill*         0x08012274        0xc 
 .text.filter_run_fir_iteration
                0x08012280       0x40 build/obj/digital_filter.o
                0x08012280                filter_run_fir_iteration
 .text.filter_add_sample
                0x080122c0       0x24 build/obj/digital_filter.o
                0x080122c0                filter_add_sample
 *fill*         0x080122e4        0xc 
 .text.ledpwm_init
                0x080122f0       0x58 build/obj/ledpwm.o
                0x080122f0                ledpwm_init
 *fill*         0x08012348        0x8 
 .text.ledpwm_set_intensity
                0x08012350       0x50 build/obj/ledpwm.o
                0x08012350                ledpwm_set_intensity
 .text.ledpwm_update_pwm
                0x080123a0       0x40 build/obj/ledpwm.o
                0x080123a0                ledpwm_update_pwm
 .text.update_adc_sample_pos
                0x080123e0      0x200 build/obj/mcpwm.o
 .text.update_rpm_tacho
                0x080125e0       0x9c build/obj/mcpwm.o
 *fill*         0x0801267c        0x4 
 .text.update_sensor_mode
                0x08012680       0x58 build/obj/mcpwm.o
 *fill*         0x080126d8        0x8 
 .text.update_timer_attempt
                0x080126e0       0x78 build/obj/mcpwm.o
 *fill*         0x08012758        0x8 
 .text.set_next_timer_settings
                0x08012760       0x2c build/obj/mcpwm.o
 *fill*         0x0801278c        0x4 
 .text.set_duty_cycle_hw
                0x08012790      0x12c build/obj/mcpwm.o
 *fill*         0x080128bc        0x4 
 .text.rpm_thread
                0x080128c0      0x418 build/obj/mcpwm.o
 *fill*         0x08012cd8        0x8 
 .text.timer_thread
                0x08012ce0      0x250 build/obj/mcpwm.o
 .text.set_next_comm_step
                0x08012f30      0x538 build/obj/mcpwm.o
 *fill*         0x08013468        0x8 
 .text.commutate
                0x08013470       0xdc build/obj/mcpwm.o
 *fill*         0x0801354c        0x4 
 .text.set_switching_frequency.constprop.0
                0x08013550       0x58 build/obj/mcpwm.o
 *fill*         0x080135a8        0x8 
 .text.full_brake_hw
                0x080135b0       0x74 build/obj/mcpwm.o
 *fill*         0x08013624        0xc 
 .text.stop_pwm_hw
                0x08013630       0x74 build/obj/mcpwm.o
 *fill*         0x080136a4        0xc 
 .text.mcpwm_deinit
                0x080136b0       0x74 build/obj/mcpwm.o
                0x080136b0                mcpwm_deinit
 *fill*         0x08013724        0xc 
 .text.mcpwm_init_hall_table
                0x08013730       0x4c build/obj/mcpwm.o
                0x08013730                mcpwm_init_hall_table
 *fill*         0x0801377c        0x4 
 .text.mcpwm_init
                0x08013780      0x670 build/obj/mcpwm.o
                0x08013780                mcpwm_init
 .text.mcpwm_set_configuration
                0x08013df0       0x44 build/obj/mcpwm.o
                0x08013df0                mcpwm_set_configuration
 *fill*         0x08013e34        0xc 
 .text.mcpwm_set_brake_current
                0x08013e40       0xdc build/obj/mcpwm.o
                0x08013e40                mcpwm_set_brake_current
 *fill*         0x08013f1c        0x4 
 .text.mcpwm_get_comm_step
                0x08013f20        0xc build/obj/mcpwm.o
                0x08013f20                mcpwm_get_comm_step
 *fill*         0x08013f2c        0x4 
 .text.mcpwm_get_duty_cycle_now
                0x08013f30        0xc build/obj/mcpwm.o
                0x08013f30                mcpwm_get_duty_cycle_now
 *fill*         0x08013f3c        0x4 
 .text.mcpwm_get_switching_frequency_now
                0x08013f40        0xc build/obj/mcpwm.o
                0x08013f40                mcpwm_get_switching_frequency_now
 *fill*         0x08013f4c        0x4 
 .text.mcpwm_get_rpm
                0x08013f50       0x24 build/obj/mcpwm.o
                0x08013f50                mcpwm_get_rpm
 *fill*         0x08013f74        0xc 
 .text.mcpwm_get_state
                0x08013f80        0xc build/obj/mcpwm.o
                0x08013f80                mcpwm_get_state
 *fill*         0x08013f8c        0x4 
 .text.mcpwm_get_kv_filtered
                0x08013f90       0x1c build/obj/mcpwm.o
                0x08013f90                mcpwm_get_kv_filtered
 *fill*         0x08013fac        0x4 
 .text.mcpwm_get_tot_current
                0x08013fb0        0xc build/obj/mcpwm.o
                0x08013fb0                mcpwm_get_tot_current
 *fill*         0x08013fbc        0x4 
 .text.mcpwm_get_tot_current_filtered
                0x08013fc0        0xc build/obj/mcpwm.o
                0x08013fc0                mcpwm_get_tot_current_filtered
 *fill*         0x08013fcc        0x4 
 .text.mcpwm_get_tot_current_directional
                0x08013fd0       0x24 build/obj/mcpwm.o
                0x08013fd0                mcpwm_get_tot_current_directional
 *fill*         0x08013ff4        0xc 
 .text.mcpwm_get_tot_current_directional_filtered
                0x08014000       0x24 build/obj/mcpwm.o
                0x08014000                mcpwm_get_tot_current_directional_filtered
 *fill*         0x08014024        0xc 
 .text.mcpwm_get_tot_current_in_filtered
                0x08014030       0x20 build/obj/mcpwm.o
                0x08014030                mcpwm_get_tot_current_in_filtered
 .text.mcpwm_get_tachometer_value
                0x08014050       0x14 build/obj/mcpwm.o
                0x08014050                mcpwm_get_tachometer_value
 *fill*         0x08014064        0xc 
 .text.mcpwm_get_tachometer_abs_value
                0x08014070       0x14 build/obj/mcpwm.o
                0x08014070                mcpwm_get_tachometer_abs_value
 *fill*         0x08014084        0xc 
 .text.mcpwm_stop_pwm
                0x08014090       0x28 build/obj/mcpwm.o
                0x08014090                mcpwm_stop_pwm
 *fill*         0x080140b8        0x8 
 .text.mcpwm_adc_inj_int_handler
                0x080140c0      0x494 build/obj/mcpwm.o
                0x080140c0                mcpwm_adc_inj_int_handler
 *fill*         0x08014554        0xc 
 .text.mcpwm_set_detect
                0x08014560       0x54 build/obj/mcpwm.o
                0x08014560                mcpwm_set_detect
 *fill*         0x080145b4        0xc 
 .text.mcpwm_get_detect_pos
                0x080145c0      0x110 build/obj/mcpwm.o
                0x080145c0                mcpwm_get_detect_pos
 .text.mcpwm_read_reset_avg_cycle_integrator
                0x080146d0       0x20 build/obj/mcpwm.o
                0x080146d0                mcpwm_read_reset_avg_cycle_integrator
 .text.mcpwm_get_last_adc_isr_duration
                0x080146f0        0xc build/obj/mcpwm.o
                0x080146f0                mcpwm_get_last_adc_isr_duration
 *fill*         0x080146fc        0x4 
 .text.mcpwm_get_last_inj_adc_isr_duration
                0x08014700        0xc build/obj/mcpwm.o
                0x08014700                mcpwm_get_last_inj_adc_isr_duration
 *fill*         0x0801470c        0x4 
 .text.mcpwm_get_rpm_dep
                0x08014710       0x20 build/obj/mcpwm.o
                0x08014710                mcpwm_get_rpm_dep
 .text.mcpwm_is_dccal_done
                0x08014730        0xc build/obj/mcpwm.o
                0x08014730                mcpwm_is_dccal_done
 *fill*         0x0801473c        0x4 
 .text.mcpwm_reset_hall_detect_table
                0x08014740       0x10 build/obj/mcpwm.o
                0x08014740                mcpwm_reset_hall_detect_table
 .text.mcpwm_get_hall_detect_result
                0x08014750       0xb0 build/obj/mcpwm.o
                0x08014750                mcpwm_get_hall_detect_result
 .text.mcpwm_read_hall_phase
                0x08014800       0x48 build/obj/mcpwm.o
                0x08014800                mcpwm_read_hall_phase
 *fill*         0x08014848        0x8 
 .text.set_duty_cycle_ll
                0x08014850      0x1b0 build/obj/mcpwm.o
 .text.set_duty_cycle_hl
                0x08014a00      0x10c build/obj/mcpwm.o
 *fill*         0x08014b0c        0x4 
 .text.mcpwm_set_duty
                0x08014b10       0x10 build/obj/mcpwm.o
                0x08014b10                mcpwm_set_duty
 .text.mcpwm_set_pid_speed
                0x08014b20       0x44 build/obj/mcpwm.o
                0x08014b20                mcpwm_set_pid_speed
 *fill*         0x08014b64        0xc 
 .text.mcpwm_set_pid_speed_and_watt
                0x08014b70       0x48 build/obj/mcpwm.o
                0x08014b70                mcpwm_set_pid_speed_and_watt
 *fill*         0x08014bb8        0x8 
 .text.mcpwm_set_pid_pos
                0x08014bc0       0x34 build/obj/mcpwm.o
                0x08014bc0                mcpwm_set_pid_pos
 *fill*         0x08014bf4        0xc 
 .text.mcpwm_set_current
                0x08014c00       0x98 build/obj/mcpwm.o
                0x08014c00                mcpwm_set_current
 *fill*         0x08014c98        0x8 
 .text.mcpwm_adc_int_handler
                0x08014ca0      0xcf8 build/obj/mcpwm.o
                0x08014ca0                mcpwm_adc_int_handler
 *fill*         0x08015998        0x8 
 .text.icuperiodcb
                0x080159a0        0x4 build/obj/servo_dec.o
 *fill*         0x080159a4        0xc 
 .text.icuwidthcb
                0x080159b0      0x194 build/obj/servo_dec.o
 *fill*         0x08015b44        0xc 
 .text.servodec_init
                0x08015b50       0x50 build/obj/servo_dec.o
                0x08015b50                servodec_init
 .text.servodec_set_pulse_options
                0x08015ba0       0x30 build/obj/servo_dec.o
                0x08015ba0                servodec_set_pulse_options
 .text.servodec_get_servo
                0x08015bd0       0x1c build/obj/servo_dec.o
                0x08015bd0                servodec_get_servo
 *fill*         0x08015bec        0x4 
 .text.servodec_get_time_since_update
                0x08015bf0       0x20 build/obj/servo_dec.o
                0x08015bf0                servodec_get_time_since_update
 .text.servodec_get_last_pulse_len
                0x08015c10       0x1c build/obj/servo_dec.o
                0x08015c10                servodec_get_last_pulse_len
 *fill*         0x08015c2c        0x4 
 .text.utils_step_towards
                0x08015c30       0x38 build/obj/utils.o
                0x08015c30                utils_step_towards
 *fill*         0x08015c68        0x8 
 .text.utils_norm_angle
                0x08015c70       0x34 build/obj/utils.o
                0x08015c70                utils_norm_angle
 *fill*         0x08015ca4        0xc 
 .text.utils_norm_angle_rad
                0x08015cb0       0x5c build/obj/utils.o
                0x08015cb0                utils_norm_angle_rad
 *fill*         0x08015d0c        0x4 
 .text.utils_truncate_number
                0x08015d10       0x2c build/obj/utils.o
                0x08015d10                utils_truncate_number
 *fill*         0x08015d3c        0x4 
 .text.utils_map
                0x08015d40       0x1c build/obj/utils.o
                0x08015d40                utils_map
 *fill*         0x08015d5c        0x4 
 .text.utils_deadband
                0x08015d60       0x48 build/obj/utils.o
                0x08015d60                utils_deadband
 *fill*         0x08015da8        0x8 
 .text.utils_angle_difference
                0x08015db0       0x54 build/obj/utils.o
                0x08015db0                utils_angle_difference
 *fill*         0x08015e04        0xc 
 .text.utils_angle_difference_rad
                0x08015e10       0x54 build/obj/utils.o
                0x08015e10                utils_angle_difference_rad
 *fill*         0x08015e64        0xc 
 .text.utils_middle_of_3
                0x08015e70       0x80 build/obj/utils.o
                0x08015e70                utils_middle_of_3
 .text.utils_fast_atan2
                0x08015ef0       0x78 build/obj/utils.o
                0x08015ef0                utils_fast_atan2
 *fill*         0x08015f68        0x8 
 .text.utils_saturate_vector_2d
                0x08015f70       0x94 build/obj/utils.o
                0x08015f70                utils_saturate_vector_2d
 *fill*         0x08016004        0xc 
 .text.utils_fast_sincos_better
                0x08016010      0x130 build/obj/utils.o
                0x08016010                utils_fast_sincos_better
 .text.utils_sys_lock_cnt
                0x08016140       0x18 build/obj/utils.o
                0x08016140                utils_sys_lock_cnt
 *fill*         0x08016158        0x8 
 .text.utils_sys_unlock_cnt
                0x08016160       0x1c build/obj/utils.o
                0x08016160                utils_sys_unlock_cnt
 *fill*         0x0801617c        0x4 
 .text.packet_init
                0x08016180       0x14 build/obj/packet.o
                0x08016180                packet_init
 *fill*         0x08016194        0xc 
 .text.packet_send_packet
                0x080161a0       0x84 build/obj/packet.o
                0x080161a0                packet_send_packet
 *fill*         0x08016224        0xc 
 .text.packet_timerfunc
                0x08016230       0x48 build/obj/packet.o
                0x08016230                packet_timerfunc
 *fill*         0x08016278        0x8 
 .text.packet_process_byte
                0x08016280      0x148 build/obj/packet.o
                0x08016280                packet_process_byte
 *fill*         0x080163c8        0x8 
 .text.terminal_process_string
                0x080163d0      0xe30 build/obj/terminal.o
                0x080163d0                terminal_process_string
 .text.terminal_add_fault_data
                0x08017200       0x40 build/obj/terminal.o
                0x08017200                terminal_add_fault_data
 .text.conf_general_init
                0x08017240       0x58 build/obj/conf_general.o
                0x08017240                conf_general_init
 *fill*         0x08017298        0x8 
 .text.conf_general_get_default_app_configuration
                0x080172a0      0x1a0 build/obj/conf_general.o
                0x080172a0                conf_general_get_default_app_configuration
 .text.conf_general_get_default_mc_configuration
                0x08017440      0x298 build/obj/conf_general.o
                0x08017440                conf_general_get_default_mc_configuration
 *fill*         0x080176d8        0x8 
 .text.conf_general_read_app_configuration
                0x080176e0       0x40 build/obj/conf_general.o
                0x080176e0                conf_general_read_app_configuration
 .text.conf_general_store_app_configuration
                0x08017720       0x64 build/obj/conf_general.o
                0x08017720                conf_general_store_app_configuration
 *fill*         0x08017784        0xc 
 .text.conf_general_read_mc_configuration
                0x08017790       0x40 build/obj/conf_general.o
                0x08017790                conf_general_read_mc_configuration
 .text.conf_general_store_mc_configuration
                0x080177d0       0x64 build/obj/conf_general.o
                0x080177d0                conf_general_store_mc_configuration
 *fill*         0x08017834        0xc 
 .text.conf_general_detect_motor_param
                0x08017840      0x1f0 build/obj/conf_general.o
                0x08017840                conf_general_detect_motor_param
 .text.conf_general_measure_flux_linkage
                0x08017a30      0x19c build/obj/conf_general.o
                0x08017a30                conf_general_measure_flux_linkage
 *fill*         0x08017bcc        0x4 
 .text.EE_VerifyPageFullWriteVariable
                0x08017bd0       0x7c build/obj/eeprom.o
 *fill*         0x08017c4c        0x4 
 .text.EE_EraseSectorIfNotEmpty.constprop.1
                0x08017c50       0x30 build/obj/eeprom.o
 .text.EE_Format
                0x08017c80       0x2c build/obj/eeprom.o
 *fill*         0x08017cac        0x4 
 .text.EE_ReadVariable
                0x08017cb0       0x70 build/obj/eeprom.o
                0x08017cb0                EE_ReadVariable
 .text.EE_Init  0x08017d20      0x140 build/obj/eeprom.o
                0x08017d20                EE_Init
 .text.EE_WriteVariable
                0x08017e60       0xbc build/obj/eeprom.o
                0x08017e60                EE_WriteVariable
 *fill*         0x08017f1c        0x4 
 .text.detect_thread
                0x08017f20      0x100 build/obj/commands.o
 .text.commands_init
                0x08018020       0x2c build/obj/commands.o
                0x08018020                commands_init
 *fill*         0x0801804c        0x4 
 .text.commands_set_send_func
                0x08018050        0xc build/obj/commands.o
                0x08018050                commands_set_send_func
 *fill*         0x0801805c        0x4 
 .text.commands_send_packet
                0x08018060       0x10 build/obj/commands.o
                0x08018060                commands_send_packet
 .text.commands_process_packet
                0x08018070     0x252c build/obj/commands.o
                0x08018070                commands_process_packet
 *fill*         0x0801a59c        0x4 
 .text.commands_printf
                0x0801a5a0       0x44 build/obj/commands.o
                0x0801a5a0                commands_printf
 *fill*         0x0801a5e4        0xc 
 .text.commands_send_samples
                0x0801a5f0       0x4c build/obj/commands.o
                0x0801a5f0                commands_send_samples
 *fill*         0x0801a63c        0x4 
 .text.commands_send_rotor_pos
                0x0801a640       0x40 build/obj/commands.o
                0x0801a640                commands_send_rotor_pos
 .text.commands_get_disp_pos_mode
                0x0801a680        0xc build/obj/commands.o
                0x0801a680                commands_get_disp_pos_mode
 *fill*         0x0801a68c        0x4 
 .text.timeout_thread
                0x0801a690       0x80 build/obj/timeout.o
 .text.timeout_init
                0x0801a710       0x54 build/obj/timeout.o
                0x0801a710                timeout_init
 *fill*         0x0801a764        0xc 
 .text.timeout_configure
                0x0801a770       0x14 build/obj/timeout.o
                0x0801a770                timeout_configure
 *fill*         0x0801a784        0xc 
 .text.timeout_reset
                0x0801a790       0x20 build/obj/timeout.o
                0x0801a790                timeout_reset
 .text.timeout_has_timeout
                0x0801a7b0        0xc build/obj/timeout.o
                0x0801a7b0                timeout_has_timeout
 *fill*         0x0801a7bc        0x4 
 .text.timeout_get_timeout_msec
                0x0801a7c0        0xc build/obj/timeout.o
                0x0801a7c0                timeout_get_timeout_msec
 *fill*         0x0801a7cc        0x4 
 .text.timeout_get_brake_current
                0x0801a7d0        0xc build/obj/timeout.o
                0x0801a7d0                timeout_get_brake_current
 *fill*         0x0801a7dc        0x4 
 .text.cancom_process_thread
                0x0801a7e0      0x370 build/obj/comm_can.o
 .text.cancom_read_thread
                0x0801ab50       0xc8 build/obj/comm_can.o
 *fill*         0x0801ac18        0x8 
 .text.comm_can_init
                0x0801ac20       0xb0 build/obj/comm_can.o
                0x0801ac20                comm_can_init
 .text.comm_can_transmit
                0x0801acd0       0x50 build/obj/comm_can.o
                0x0801acd0                comm_can_transmit
 .text.cancom_status_thread
                0x0801ad20       0x98 build/obj/comm_can.o
 *fill*         0x0801adb8        0x8 
 .text.comm_can_send_buffer
                0x0801adc0      0x160 build/obj/comm_can.o
                0x0801adc0                comm_can_send_buffer
 .text.send_packet_wrapper
                0x0801af20       0x14 build/obj/comm_can.o
 *fill*         0x0801af34        0xc 
 .text.comm_can_set_duty
                0x0801af40       0x38 build/obj/comm_can.o
                0x0801af40                comm_can_set_duty
 *fill*         0x0801af78        0x8 
 .text.comm_can_set_current
                0x0801af80       0x38 build/obj/comm_can.o
                0x0801af80                comm_can_set_current
 *fill*         0x0801afb8        0x8 
 .text.comm_can_set_current_brake
                0x0801afc0       0x38 build/obj/comm_can.o
                0x0801afc0                comm_can_set_current_brake
 *fill*         0x0801aff8        0x8 
 .text.comm_can_set_rpm_and_watt
                0x0801b000       0x48 build/obj/comm_can.o
                0x0801b000                comm_can_set_rpm_and_watt
 *fill*         0x0801b048        0x8 
 .text.comm_can_get_status_msg_index
                0x0801b050       0x18 build/obj/comm_can.o
                0x0801b050                comm_can_get_status_msg_index
 *fill*         0x0801b068        0x8 
 .text.led_external_set_state
                0x0801b070        0xc build/obj/led_external.o
                0x0801b070                led_external_set_state
 *fill*         0x0801b07c        0x4 
 .text.led_external_set_reversed
                0x0801b080        0xc build/obj/led_external.o
                0x0801b080                led_external_set_reversed
 *fill*         0x0801b08c        0x4 
 .text.spi_transfer.isra.0.constprop.1
                0x0801b090       0x48 build/obj/encoder.o
 *fill*         0x0801b0d8        0x8 
 .text.encoder_deinit
                0x0801b0e0       0x74 build/obj/encoder.o
                0x0801b0e0                encoder_deinit
 *fill*         0x0801b154        0xc 
 .text.encoder_init_abi
                0x0801b160       0xa0 build/obj/encoder.o
                0x0801b160                encoder_init_abi
 .text.encoder_init_as5047p_spi
                0x0801b200       0x90 build/obj/encoder.o
                0x0801b200                encoder_init_as5047p_spi
 .text.encoder_is_configured
                0x0801b290       0x10 build/obj/encoder.o
                0x0801b290                encoder_is_configured
 .text.encoder_read_deg
                0x0801b2a0       0x64 build/obj/encoder.o
                0x0801b2a0                encoder_read_deg
 *fill*         0x0801b304        0xc 
 .text.encoder_reset
                0x0801b310       0x18 build/obj/encoder.o
                0x0801b310                encoder_reset
 *fill*         0x0801b328        0x8 
 .text.encoder_tim_isr
                0x0801b330       0x50 build/obj/encoder.o
                0x0801b330                encoder_tim_isr
 .text.encoder_set_counts
                0x0801b380       0x2c build/obj/encoder.o
                0x0801b380                encoder_set_counts
 *fill*         0x0801b3ac        0x4 
 .text.encoder_index_found
                0x0801b3b0        0xc build/obj/encoder.o
                0x0801b3b0                encoder_index_found
 *fill*         0x0801b3bc        0x4 
 .text.flash_helper_erase_new_app
                0x0801b3c0       0x70 build/obj/flash_helper.o
                0x0801b3c0                flash_helper_erase_new_app
 .text.flash_helper_write_new_app_data
                0x0801b430       0x60 build/obj/flash_helper.o
                0x0801b430                flash_helper_write_new_app_data
 .text.flash_helper_jump_to_bootloader
                0x0801b490       0x8c build/obj/flash_helper.o
                0x0801b490                flash_helper_jump_to_bootloader
 *fill*         0x0801b51c        0x4 
 .text.flash_helper_get_sector_address
                0x0801b520       0x28 build/obj/flash_helper.o
                0x0801b520                flash_helper_get_sector_address
 *fill*         0x0801b548        0x8 
 .text.sample_send_thread
                0x0801b550      0x130 build/obj/mc_interface.o
 .text.mc_interface_init
                0x0801b680      0x1a4 build/obj/mc_interface.o
                0x0801b680                mc_interface_init
 *fill*         0x0801b824        0xc 
 .text.mc_interface_get_configuration
                0x0801b830        0x8 build/obj/mc_interface.o
                0x0801b830                mc_interface_get_configuration
 *fill*         0x0801b838        0x8 
 .text.mc_interface_dccal_done
                0x0801b840       0x20 build/obj/mc_interface.o
                0x0801b840                mc_interface_dccal_done
 .text.mc_interface_lock
                0x0801b860        0xc build/obj/mc_interface.o
                0x0801b860                mc_interface_lock
 *fill*         0x0801b86c        0x4 
 .text.mc_interface_unlock
                0x0801b870        0xc build/obj/mc_interface.o
                0x0801b870                mc_interface_unlock
 *fill*         0x0801b87c        0x4 
 .text.mc_interface_lock_override_once
                0x0801b880        0xc build/obj/mc_interface.o
                0x0801b880                mc_interface_lock_override_once
 *fill*         0x0801b88c        0x4 
 .text.mc_interface_get_fault
                0x0801b890        0xc build/obj/mc_interface.o
                0x0801b890                mc_interface_get_fault
 *fill*         0x0801b89c        0x4 
 .text.mc_interface_fault_to_string
                0x0801b8a0       0x18 build/obj/mc_interface.o
                0x0801b8a0                mc_interface_fault_to_string
 *fill*         0x0801b8b8        0x8 
 .text.mc_interface_get_state
                0x0801b8c0       0x20 build/obj/mc_interface.o
                0x0801b8c0                mc_interface_get_state
 .text.mc_interface_get_cruise_control_status
                0x0801b8e0        0xc build/obj/mc_interface.o
                0x0801b8e0                mc_interface_get_cruise_control_status
 *fill*         0x0801b8ec        0x4 
 .text.mc_interface_set_cruise_control_status
                0x0801b8f0        0xc build/obj/mc_interface.o
                0x0801b8f0                mc_interface_set_cruise_control_status
 *fill*         0x0801b8fc        0x4 
 .text.mc_interface_get_duty_cycle_now
                0x0801b900       0x24 build/obj/mc_interface.o
                0x0801b900                mc_interface_get_duty_cycle_now
 *fill*         0x0801b924        0xc 
 .text.mc_interface_get_sampling_frequency_now
                0x0801b930       0x34 build/obj/mc_interface.o
                0x0801b930                mc_interface_get_sampling_frequency_now
 *fill*         0x0801b964        0xc 
 .text.mc_interface_get_rpm
                0x0801b970       0x24 build/obj/mc_interface.o
                0x0801b970                mc_interface_get_rpm
 *fill*         0x0801b994        0xc 
 .text.mc_interface_get_amp_hours
                0x0801b9a0       0x20 build/obj/mc_interface.o
                0x0801b9a0                mc_interface_get_amp_hours
 .text.mc_interface_get_amp_hours_charged
                0x0801b9c0       0x20 build/obj/mc_interface.o
                0x0801b9c0                mc_interface_get_amp_hours_charged
 .text.mc_interface_get_watt_hours
                0x0801b9e0       0x24 build/obj/mc_interface.o
                0x0801b9e0                mc_interface_get_watt_hours
 *fill*         0x0801ba04        0xc 
 .text.mc_interface_get_watt_hours_charged
                0x0801ba10       0x20 build/obj/mc_interface.o
                0x0801ba10                mc_interface_get_watt_hours_charged
 .text.mc_interface_get_tot_current
                0x0801ba30       0x24 build/obj/mc_interface.o
                0x0801ba30                mc_interface_get_tot_current
 *fill*         0x0801ba54        0xc 
 .text.mc_interface_get_tot_current_filtered
                0x0801ba60       0x24 build/obj/mc_interface.o
                0x0801ba60                mc_interface_get_tot_current_filtered
 *fill*         0x0801ba84        0xc 
 .text.mc_interface_get_tot_current_directional
                0x0801ba90       0x24 build/obj/mc_interface.o
                0x0801ba90                mc_interface_get_tot_current_directional
 *fill*         0x0801bab4        0xc 
 .text.mc_interface_get_tot_current_directional_filtered
                0x0801bac0       0x24 build/obj/mc_interface.o
                0x0801bac0                mc_interface_get_tot_current_directional_filtered
 *fill*         0x0801bae4        0xc 
 .text.mc_interface_get_tot_current_in_filtered
                0x0801baf0       0x24 build/obj/mc_interface.o
                0x0801baf0                mc_interface_get_tot_current_in_filtered
 *fill*         0x0801bb14        0xc 
 .text.mc_interface_get_tachometer_value
                0x0801bb20       0x20 build/obj/mc_interface.o
                0x0801bb20                mc_interface_get_tachometer_value
 .text.mc_interface_get_tachometer_abs_value
                0x0801bb40       0x20 build/obj/mc_interface.o
                0x0801bb40                mc_interface_get_tachometer_abs_value
 .text.mc_interface_get_last_inj_adc_isr_duration
                0x0801bb60       0x24 build/obj/mc_interface.o
                0x0801bb60                mc_interface_get_last_inj_adc_isr_duration
 *fill*         0x0801bb84        0xc 
 .text.mc_interface_read_reset_avg_motor_current
                0x0801bb90       0x20 build/obj/mc_interface.o
                0x0801bb90                mc_interface_read_reset_avg_motor_current
 .text.mc_interface_read_reset_avg_input_current
                0x0801bbb0       0x20 build/obj/mc_interface.o
                0x0801bbb0                mc_interface_read_reset_avg_input_current
 .text.mc_interface_get_pid_pos_set
                0x0801bbd0        0xc build/obj/mc_interface.o
                0x0801bbd0                mc_interface_get_pid_pos_set
 *fill*         0x0801bbdc        0x4 
 .text.mc_interface_get_pid_pos_now
                0x0801bbe0       0x24 build/obj/mc_interface.o
                0x0801bbe0                mc_interface_get_pid_pos_now
 *fill*         0x0801bc04        0xc 
 .text.mc_interface_get_motor_voltage
                0x0801bc10       0x70 build/obj/mc_interface.o
                0x0801bc10                mc_interface_get_motor_voltage
 .text.mc_interface_get_max_current_at_current_motor_voltage
                0x0801bc80       0x7c build/obj/mc_interface.o
                0x0801bc80                mc_interface_get_max_current_at_current_motor_voltage
 *fill*         0x0801bcfc        0x4 
 .text.mc_interface_get_last_sample_adc_isr_duration
                0x0801bd00        0xc build/obj/mc_interface.o
                0x0801bd00                mc_interface_get_last_sample_adc_isr_duration
 *fill*         0x0801bd0c        0x4 
 .text.mc_interface_sample_print_data
                0x0801bd10       0x48 build/obj/mc_interface.o
                0x0801bd10                mc_interface_sample_print_data
 *fill*         0x0801bd58        0x8 
 .text.mc_interface_try_input
                0x0801bd60       0x40 build/obj/mc_interface.o
                0x0801bd60                mc_interface_try_input
 .text.mc_interface_set_duty
                0x0801bda0       0x48 build/obj/mc_interface.o
                0x0801bda0                mc_interface_set_duty
 *fill*         0x0801bde8        0x8 
 .text.mc_interface_set_pid_speed
                0x0801bdf0       0x48 build/obj/mc_interface.o
                0x0801bdf0                mc_interface_set_pid_speed
 *fill*         0x0801be38        0x8 
 .text.mc_interface_set_pid_speed_and_watt
                0x0801be40       0x54 build/obj/mc_interface.o
                0x0801be40                mc_interface_set_pid_speed_and_watt
 *fill*         0x0801be94        0xc 
 .text.mc_interface_set_pid_pos
                0x0801bea0       0x54 build/obj/mc_interface.o
                0x0801bea0                mc_interface_set_pid_pos
 *fill*         0x0801bef4        0xc 
 .text.mc_interface_set_current
                0x0801bf00       0x48 build/obj/mc_interface.o
                0x0801bf00                mc_interface_set_current
 *fill*         0x0801bf48        0x8 
 .text.mc_interface_release_motor
                0x0801bf50        0xc build/obj/mc_interface.o
                0x0801bf50                mc_interface_release_motor
 *fill*         0x0801bf5c        0x4 
 .text.mc_interface_set_brake_current
                0x0801bf60       0x48 build/obj/mc_interface.o
                0x0801bf60                mc_interface_set_brake_current
 *fill*         0x0801bfa8        0x8 
 .text.mc_interface_fault_stop
                0x0801bfb0      0x144 build/obj/mc_interface.o
                0x0801bfb0                mc_interface_fault_stop
 *fill*         0x0801c0f4        0xc 
 .text.update_override_limits.constprop.3
                0x0801c100      0x1c8 build/obj/mc_interface.o
 *fill*         0x0801c2c8        0x8 
 .text.mc_interface_set_configuration
                0x0801c2d0       0xd0 build/obj/mc_interface.o
                0x0801c2d0                mc_interface_set_configuration
 .text.timer_thread
                0x0801c3a0       0x60 build/obj/mc_interface.o
 .text.mc_interface_mc_timer_isr
                0x0801c400      0x4a4 build/obj/mc_interface.o
                0x0801c400                mc_interface_mc_timer_isr
 *fill*         0x0801c8a4        0xc 
 .text.mc_interface_adc_inj_int_handler
                0x0801c8b0       0x1c build/obj/mc_interface.o
                0x0801c8b0                mc_interface_adc_inj_int_handler
 *fill*         0x0801c8cc        0x4 
 .text.correct_encoder
                0x0801c8d0       0x64 build/obj/mcpwm_foc.o
 *fill*         0x0801c934        0xc 
 .text.stop_pwm_hw
                0x0801c940       0x78 build/obj/mcpwm_foc.o
 *fill*         0x0801c9b8        0x8 
 .text.start_pwm_hw
                0x0801c9c0       0x78 build/obj/mcpwm_foc.o
 *fill*         0x0801ca38        0x8 
 .text.correct_hall
                0x0801ca40      0x21c build/obj/mcpwm_foc.o
 *fill*         0x0801cc5c        0x4 
 .text.timer_thread
                0x0801cc60      0x494 build/obj/mcpwm_foc.o
 *fill*         0x0801d0f4        0xc 
 .text.mcpwm_foc_init
                0x0801d100      0x5b0 build/obj/mcpwm_foc.o
                0x0801d100                mcpwm_foc_init
 .text.mcpwm_foc_deinit
                0x0801d6b0       0x60 build/obj/mcpwm_foc.o
                0x0801d6b0                mcpwm_foc_deinit
 .text.mcpwm_foc_set_configuration
                0x0801d710       0x74 build/obj/mcpwm_foc.o
                0x0801d710                mcpwm_foc_set_configuration
 *fill*         0x0801d784        0xc 
 .text.mcpwm_foc_get_state
                0x0801d790        0xc build/obj/mcpwm_foc.o
                0x0801d790                mcpwm_foc_get_state
 *fill*         0x0801d79c        0x4 
 .text.mcpwm_foc_is_dccal_done
                0x0801d7a0        0xc build/obj/mcpwm_foc.o
                0x0801d7a0                mcpwm_foc_is_dccal_done
 *fill*         0x0801d7ac        0x4 
 .text.mcpwm_foc_set_duty
                0x0801d7b0       0x28 build/obj/mcpwm_foc.o
                0x0801d7b0                mcpwm_foc_set_duty
 *fill*         0x0801d7d8        0x8 
 .text.mcpwm_foc_set_pid_speed
                0x0801d7e0       0x34 build/obj/mcpwm_foc.o
                0x0801d7e0                mcpwm_foc_set_pid_speed
 *fill*         0x0801d814        0xc 
 .text.mcpwm_foc_set_pid_speed_and_watt
                0x0801d820       0x38 build/obj/mcpwm_foc.o
                0x0801d820                mcpwm_foc_set_pid_speed_and_watt
 *fill*         0x0801d858        0x8 
 .text.mcpwm_foc_set_pid_pos
                0x0801d860       0x28 build/obj/mcpwm_foc.o
                0x0801d860                mcpwm_foc_set_pid_pos
 *fill*         0x0801d888        0x8 
 .text.mcpwm_foc_set_current
                0x0801d890       0x6c build/obj/mcpwm_foc.o
                0x0801d890                mcpwm_foc_set_current
 *fill*         0x0801d8fc        0x4 
 .text.mcpwm_foc_stop_pwm
                0x0801d900        0xc build/obj/mcpwm_foc.o
                0x0801d900                mcpwm_foc_stop_pwm
 *fill*         0x0801d90c        0x4 
 .text.mcpwm_foc_set_brake_current
                0x0801d910       0x6c build/obj/mcpwm_foc.o
                0x0801d910                mcpwm_foc_set_brake_current
 *fill*         0x0801d97c        0x4 
 .text.mcpwm_foc_get_duty_cycle_now
                0x0801d980        0xc build/obj/mcpwm_foc.o
                0x0801d980                mcpwm_foc_get_duty_cycle_now
 *fill*         0x0801d98c        0x4 
 .text.mcpwm_foc_get_pid_pos_now
                0x0801d990        0xc build/obj/mcpwm_foc.o
                0x0801d990                mcpwm_foc_get_pid_pos_now
 *fill*         0x0801d99c        0x4 
 .text.mcpwm_foc_get_switching_frequency_now
                0x0801d9a0       0x10 build/obj/mcpwm_foc.o
                0x0801d9a0                mcpwm_foc_get_switching_frequency_now
 .text.mcpwm_foc_get_rpm
                0x0801d9b0       0x18 build/obj/mcpwm_foc.o
                0x0801d9b0                mcpwm_foc_get_rpm
 *fill*         0x0801d9c8        0x8 
 .text.mcpwm_foc_get_tot_current
                0x0801d9d0       0x2c build/obj/mcpwm_foc.o
                0x0801d9d0                mcpwm_foc_get_tot_current
 *fill*         0x0801d9fc        0x4 
 .text.mcpwm_foc_get_tot_current_filtered
                0x0801da00       0x2c build/obj/mcpwm_foc.o
                0x0801da00                mcpwm_foc_get_tot_current_filtered
 *fill*         0x0801da2c        0x4 
 .text.mcpwm_foc_get_abs_motor_current
                0x0801da30        0xc build/obj/mcpwm_foc.o
                0x0801da30                mcpwm_foc_get_abs_motor_current
 *fill*         0x0801da3c        0x4 
 .text.mcpwm_foc_get_abs_motor_current_filtered
                0x0801da40        0xc build/obj/mcpwm_foc.o
                0x0801da40                mcpwm_foc_get_abs_motor_current_filtered
 *fill*         0x0801da4c        0x4 
 .text.mcpwm_foc_get_tot_current_directional
                0x0801da50        0xc build/obj/mcpwm_foc.o
                0x0801da50                mcpwm_foc_get_tot_current_directional
 *fill*         0x0801da5c        0x4 
 .text.mcpwm_foc_get_tot_current_directional_filtered
                0x0801da60        0xc build/obj/mcpwm_foc.o
                0x0801da60                mcpwm_foc_get_tot_current_directional_filtered
 *fill*         0x0801da6c        0x4 
 .text.mcpwm_foc_get_tot_current_in_filtered
                0x0801da70        0xc build/obj/mcpwm_foc.o
                0x0801da70                mcpwm_foc_get_tot_current_in_filtered
 *fill*         0x0801da7c        0x4 
 .text.mcpwm_foc_get_tachometer_value
                0x0801da80       0x14 build/obj/mcpwm_foc.o
                0x0801da80                mcpwm_foc_get_tachometer_value
 *fill*         0x0801da94        0xc 
 .text.mcpwm_foc_get_tachometer_abs_value
                0x0801daa0       0x14 build/obj/mcpwm_foc.o
                0x0801daa0                mcpwm_foc_get_tachometer_abs_value
 *fill*         0x0801dab4        0xc 
 .text.mcpwm_foc_get_phase_observer
                0x0801dac0       0x30 build/obj/mcpwm_foc.o
                0x0801dac0                mcpwm_foc_get_phase_observer
 .text.mcpwm_foc_get_phase_encoder
                0x0801daf0       0x30 build/obj/mcpwm_foc.o
                0x0801daf0                mcpwm_foc_get_phase_encoder
 .text.mcpwm_foc_get_vq
                0x0801db20        0xc build/obj/mcpwm_foc.o
                0x0801db20                mcpwm_foc_get_vq
 *fill*         0x0801db2c        0x4 
 .text.mcpwm_foc_encoder_detect
                0x0801db30      0x5e8 build/obj/mcpwm_foc.o
                0x0801db30                mcpwm_foc_encoder_detect
 *fill*         0x0801e118        0x8 
 .text.mcpwm_foc_measure_resistance
                0x0801e120      0x110 build/obj/mcpwm_foc.o
                0x0801e120                mcpwm_foc_measure_resistance
 .text.mcpwm_foc_measure_inductance
                0x0801e230      0x104 build/obj/mcpwm_foc.o
                0x0801e230                mcpwm_foc_measure_inductance
 *fill*         0x0801e334        0xc 
 .text.mcpwm_foc_measure_res_ind
                0x0801e340      0x210 build/obj/mcpwm_foc.o
                0x0801e340                mcpwm_foc_measure_res_ind
 .text.mcpwm_foc_hall_detect
                0x0801e550      0x2b0 build/obj/mcpwm_foc.o
                0x0801e550                mcpwm_foc_hall_detect
 .text.mcpwm_foc_print_state
                0x0801e800      0x180 build/obj/mcpwm_foc.o
                0x0801e800                mcpwm_foc_print_state
 .text.mcpwm_foc_get_last_inj_adc_isr_duration
                0x0801e980        0xc build/obj/mcpwm_foc.o
                0x0801e980                mcpwm_foc_get_last_inj_adc_isr_duration
 *fill*         0x0801e98c        0x4 
 .text.observer_update
                0x0801e990      0x124 build/obj/mcpwm_foc.o
                0x0801e990                observer_update
 *fill*         0x0801eab4        0xc 
 .text.mcpwm_foc_adc_inj_int_handler
                0x0801eac0     0x1274 build/obj/mcpwm_foc.o
                0x0801eac0                mcpwm_foc_adc_inj_int_handler
 *fill*         0x0801fd34        0xc 
 .text.hw_init_gpio
                0x0801fd40      0x154 build/obj/hw_410.o
                0x0801fd40                hw_init_gpio
 *fill*         0x0801fe94        0xc 
 .text.hw_setup_adc_channels
                0x0801fea0       0xd8 build/obj/hw_410.o
                0x0801fea0                hw_setup_adc_channels
 *fill*         0x0801ff78        0x8 
 .text.hw_start_i2c
                0x0801ff80       0x50 build/obj/hw_410.o
                0x0801ff80                hw_start_i2c
 .text.hw_stop_i2c
                0x0801ffd0       0x48 build/obj/hw_410.o
                0x0801ffd0                hw_stop_i2c
 *fill*         0x08020018        0x8 
 .text.hw_try_restore_i2c
                0x08020020       0xc4 build/obj/hw_410.o
                0x08020020                hw_try_restore_i2c
 *fill*         0x080200e4        0xc 
 .text.app_get_configuration
                0x080200f0        0x8 build/obj/app.o
                0x080200f0                app_get_configuration
 *fill*         0x080200f8        0x8 
 .text.app_set_configuration
                0x08020100       0x48 build/obj/app.o
                0x08020100                app_set_configuration
 *fill*         0x08020148        0x8 
 .text.app_init
                0x08020150       0x78 build/obj/app.o
                0x08020150                app_init
 *fill*         0x080201c8        0x8 
 .text.servodec_func
                0x080201d0       0x24 build/obj/app_ppm.o
 *fill*         0x080201f4        0xc 
 .text.update   0x08020200       0x40 build/obj/app_ppm.o
 .text.calculate_throttle_curve_ppm
                0x08020240      0x158 build/obj/app_ppm.o
                0x08020240                calculate_throttle_curve_ppm
 *fill*         0x08020398        0x8 
 .text.ppm_thread
                0x080203a0      0xa6c build/obj/app_ppm.o
 *fill*         0x08020e0c        0x4 
 .text.app_ppm_configure
                0x08020e10      0x114 build/obj/app_ppm.o
                0x08020e10                app_ppm_configure
 *fill*         0x08020f24        0xc 
 .text.app_ppm_start
                0x08020f30       0x50 build/obj/app_ppm.o
                0x08020f30                app_ppm_start
 .text.adc_thread
                0x08020f80      0x9b8 build/obj/app_adc.o
 *fill*         0x08021938        0x8 
 .text.app_adc_configure
                0x08021940       0x28 build/obj/app_adc.o
                0x08021940                app_adc_configure
 *fill*         0x08021968        0x8 
 .text.app_adc_start
                0x08021970       0x2c build/obj/app_adc.o
                0x08021970                app_adc_start
 *fill*         0x0802199c        0x4 
 .text.app_adc_get_decoded_level
                0x080219a0        0xc build/obj/app_adc.o
                0x080219a0                app_adc_get_decoded_level
 *fill*         0x080219ac        0x4 
 .text.app_adc_get_voltage
                0x080219b0        0xc build/obj/app_adc.o
                0x080219b0                app_adc_get_voltage
 *fill*         0x080219bc        0x4 
 .text.app_adc_get_decoded_level2
                0x080219c0        0xc build/obj/app_adc.o
                0x080219c0                app_adc_get_decoded_level2
 *fill*         0x080219cc        0x4 
 .text.app_adc_get_voltage2
                0x080219d0        0xc build/obj/app_adc.o
                0x080219d0                app_adc_get_voltage2
 *fill*         0x080219dc        0x4 
 .text.txend1   0x080219e0        0x4 build/obj/app_uartcomm.o
 *fill*         0x080219e4        0xc 
 .text.txend2   0x080219f0        0x4 build/obj/app_uartcomm.o
 *fill*         0x080219f4        0xc 
 .text.rxerr    0x08021a00        0x4 build/obj/app_uartcomm.o
 *fill*         0x08021a04        0xc 
 .text.rxend    0x08021a10        0x4 build/obj/app_uartcomm.o
 *fill*         0x08021a14        0xc 
 .text.packet_process_thread
                0x08021a20       0x60 build/obj/app_uartcomm.o
 .text.rxchar   0x08021a80       0x3c build/obj/app_uartcomm.o
 *fill*         0x08021abc        0x4 
 .text.process_packet
                0x08021ac0       0x1c build/obj/app_uartcomm.o
 *fill*         0x08021adc        0x4 
 .text.send_packet_wrapper
                0x08021ae0        0x8 build/obj/app_uartcomm.o
 *fill*         0x08021ae8        0x8 
 .text.send_packet
                0x08021af0       0x3c build/obj/app_uartcomm.o
 *fill*         0x08021b2c        0x4 
 .text.app_uartcomm_start
                0x08021b30       0x6c build/obj/app_uartcomm.o
                0x08021b30                app_uartcomm_start
 *fill*         0x08021b9c        0x4 
 .text.app_uartcomm_configure
                0x08021ba0       0x20 build/obj/app_uartcomm.o
                0x08021ba0                app_uartcomm_configure
 .text.calculate_throttle_curve_chuk
                0x08021bc0      0x158 build/obj/app_nunchuk.o
                0x08021bc0                calculate_throttle_curve_chuk
 *fill*         0x08021d18        0x8 
 .text.output_thread
                0x08021d20      0x854 build/obj/app_nunchuk.o
 *fill*         0x08022574        0xc 
 .text.app_nunchuk_configure
                0x08022580       0xd4 build/obj/app_nunchuk.o
                0x08022580                app_nunchuk_configure
 *fill*         0x08022654        0xc 
 .text.app_nunchuk_start
                0x08022660       0x2c build/obj/app_nunchuk.o
                0x08022660                app_nunchuk_start
 *fill*         0x0802268c        0x4 
 .text.app_nunchuk_get_decoded_chuk
                0x08022690       0x28 build/obj/app_nunchuk.o
                0x08022690                app_nunchuk_get_decoded_chuk
 *fill*         0x080226b8        0x8 
 .text.app_nunchuk_update_output
                0x080226c0       0x54 build/obj/app_nunchuk.o
                0x080226c0                app_nunchuk_update_output
 *fill*         0x08022714        0xc 
 .text.chuk_thread
                0x08022720      0x1ac build/obj/app_nunchuk.o
 *fill*         0x080228cc        0x4 
 .text.spi_sw_init
                0x080228d0       0x48 build/obj/spi_sw.o
                0x080228d0                spi_sw_init
 *fill*         0x08022918        0x8 
 .text.spi_sw_transfer
                0x08022920       0xc8 build/obj/spi_sw.o
                0x08022920                spi_sw_transfer
 *fill*         0x080229e8        0x8 
 .text.spi_sw_begin
                0x080229f0       0x28 build/obj/spi_sw.o
                0x080229f0                spi_sw_begin
 *fill*         0x08022a18        0x8 
 .text.spi_sw_end
                0x08022a20       0x28 build/obj/spi_sw.o
                0x08022a20                spi_sw_end
 *fill*         0x08022a48        0x8 
 .text.rf_init  0x08022a50        0x4 build/obj/rf.o
                0x08022a50                rf_init
 *fill*         0x08022a54        0xc 
 .text.rf_write_tx_payload
                0x08022a60       0x30 build/obj/rf.o
                0x08022a60                rf_write_tx_payload
 .text.rf_write_tx_payload_no_ack
                0x08022a90       0x30 build/obj/rf.o
                0x08022a90                rf_write_tx_payload_no_ack
 .text.rf_read_rx_payload
                0x08022ac0       0x30 build/obj/rf.o
                0x08022ac0                rf_read_rx_payload
 .text.rf_flush_tx
                0x08022af0       0x24 build/obj/rf.o
                0x08022af0                rf_flush_tx
 *fill*         0x08022b14        0xc 
 .text.rf_flush_rx
                0x08022b20       0x24 build/obj/rf.o
                0x08022b20                rf_flush_rx
 *fill*         0x08022b44        0xc 
 .text.rf_flush_all
                0x08022b50       0x10 build/obj/rf.o
                0x08022b50                rf_flush_all
 .text.rf_get_payload_width
                0x08022b60       0x34 build/obj/rf.o
                0x08022b60                rf_get_payload_width
 *fill*         0x08022b94        0xc 
 .text.rf_status
                0x08022ba0       0x28 build/obj/rf.o
                0x08022ba0                rf_status
 *fill*         0x08022bc8        0x8 
 .text.rf_write_reg
                0x08022bd0       0x34 build/obj/rf.o
                0x08022bd0                rf_write_reg
 *fill*         0x08022c04        0xc 
 .text.rf_set_rx_addr
                0x08022c10        0x8 build/obj/rf.o
                0x08022c10                rf_set_rx_addr
 *fill*         0x08022c18        0x8 
 .text.rf_set_tx_addr
                0x08022c20        0xc build/obj/rf.o
                0x08022c20                rf_set_tx_addr
 *fill*         0x08022c2c        0x4 
 .text.rf_set_address_width
                0x08022c30       0x1c build/obj/rf.o
                0x08022c30                rf_set_address_width
 *fill*         0x08022c4c        0x4 
 .text.rf_set_frequency
                0x08022c50       0x20 build/obj/rf.o
                0x08022c50                rf_set_frequency
 .text.rf_clear_irq
                0x08022c70       0x1c build/obj/rf.o
                0x08022c70                rf_clear_irq
 *fill*         0x08022c8c        0x4 
 .text.rf_clear_rx_irq
                0x08022c90       0x1c build/obj/rf.o
                0x08022c90                rf_clear_rx_irq
 *fill*         0x08022cac        0x4 
 .text.rf_clear_maxrt_irq
                0x08022cb0       0x1c build/obj/rf.o
                0x08022cb0                rf_clear_maxrt_irq
 *fill*         0x08022ccc        0x4 
 .text.rf_write_reg_byte
                0x08022cd0       0x18 build/obj/rf.o
                0x08022cd0                rf_write_reg_byte
 *fill*         0x08022ce8        0x8 
 .text.rf_read_reg
                0x08022cf0       0x30 build/obj/rf.o
                0x08022cf0                rf_read_reg
 .text.rf_set_speed
                0x08022d20       0x44 build/obj/rf.o
                0x08022d20                rf_set_speed
 *fill*         0x08022d64        0xc 
 .text.rf_set_power
                0x08022d70       0x44 build/obj/rf.o
                0x08022d70                rf_set_power
 *fill*         0x08022db4        0xc 
 .text.rf_set_crc_type
                0x08022dc0       0x48 build/obj/rf.o
                0x08022dc0                rf_set_crc_type
 *fill*         0x08022e08        0x8 
 .text.rf_set_retr_retries
                0x08022e10       0x38 build/obj/rf.o
                0x08022e10                rf_set_retr_retries
 *fill*         0x08022e48        0x8 
 .text.rf_set_retr_delay
                0x08022e50       0x38 build/obj/rf.o
                0x08022e50                rf_set_retr_delay
 *fill*         0x08022e88        0x8 
 .text.rf_power_up
                0x08022e90       0x38 build/obj/rf.o
                0x08022e90                rf_power_up
 *fill*         0x08022ec8        0x8 
 .text.rf_power_down
                0x08022ed0       0x34 build/obj/rf.o
                0x08022ed0                rf_power_down
 *fill*         0x08022f04        0xc 
 .text.rf_mode_tx
                0x08022f10       0x34 build/obj/rf.o
                0x08022f10                rf_mode_tx
 *fill*         0x08022f44        0xc 
 .text.rf_mode_rx
                0x08022f50       0x34 build/obj/rf.o
                0x08022f50                rf_mode_rx
 *fill*         0x08022f84        0xc 
 .text.rf_enable_pipe_autoack
                0x08022f90       0x34 build/obj/rf.o
                0x08022f90                rf_enable_pipe_autoack
 *fill*         0x08022fc4        0xc 
 .text.rf_enable_pipe_address
                0x08022fd0       0x38 build/obj/rf.o
                0x08022fd0                rf_enable_pipe_address
 *fill*         0x08023008        0x8 
 .text.rf_enable_pipe_dlp
                0x08023010       0x38 build/obj/rf.o
                0x08023010                rf_enable_pipe_dlp
 *fill*         0x08023048        0x8 
 .text.rf_enable_features
                0x08023050       0x38 build/obj/rf.o
                0x08023050                rf_enable_features
 *fill*         0x08023088        0x8 
 .text.rfhelp_init
                0x08023090       0x7c build/obj/rfhelp.o
                0x08023090                rfhelp_init
 *fill*         0x0802310c        0x4 
 .text.rfhelp_restart
                0x08023110       0xcc build/obj/rfhelp.o
                0x08023110                rfhelp_restart
 *fill*         0x080231dc        0x4 
 .text.rfhelp_update_conf
                0x080231e0       0x28 build/obj/rfhelp.o
                0x080231e0                rfhelp_update_conf
 *fill*         0x08023208        0x8 
 .text.rfhelp_send_data
                0x08023210       0xac build/obj/rfhelp.o
                0x08023210                rfhelp_send_data
 *fill*         0x080232bc        0x4 
 .text.rfhelp_send_data_crc
                0x080232c0       0x44 build/obj/rfhelp.o
                0x080232c0                rfhelp_send_data_crc
 *fill*         0x08023304        0xc 
 .text.rfhelp_read_rx_data
                0x08023310       0x64 build/obj/rfhelp.o
                0x08023310                rfhelp_read_rx_data
 *fill*         0x08023374        0xc 
 .text.rfhelp_read_rx_data_crc
                0x08023380       0x44 build/obj/rfhelp.o
                0x08023380                rfhelp_read_rx_data_crc
 *fill*         0x080233c4        0xc 
 .text.rfhelp_power_up
                0x080233d0       0x1c build/obj/rfhelp.o
                0x080233d0                rfhelp_power_up
 *fill*         0x080233ec        0x4 
 .text.tx_thread
                0x080233f0       0x50 build/obj/nrf_driver.o
 .text.nrf_driver_send_buffer
                0x08023440      0x1c4 build/obj/nrf_driver.o
                0x08023440                nrf_driver_send_buffer
 *fill*         0x08023604        0xc 
 .text.rx_thread
                0x08023610      0x1c8 build/obj/nrf_driver.o
 *fill*         0x080237d8        0x8 
 .text.nrf_driver_init
                0x080237e0       0x58 build/obj/nrf_driver.o
                0x080237e0                nrf_driver_init
 *fill*         0x08023838        0x8 
 .text.ADC_DeInit
                0x08023840       0x1c build/obj/stm32f4xx_adc.o
                0x08023840                ADC_DeInit
 *fill*         0x0802385c        0x4 
 .text.ADC_Init
                0x08023860       0x50 build/obj/stm32f4xx_adc.o
                0x08023860                ADC_Init
 .text.ADC_CommonInit
                0x080238b0       0x28 build/obj/stm32f4xx_adc.o
                0x080238b0                ADC_CommonInit
 *fill*         0x080238d8        0x8 
 .text.ADC_Cmd  0x080238e0       0x14 build/obj/stm32f4xx_adc.o
                0x080238e0                ADC_Cmd
 *fill*         0x080238f4        0xc 
 .text.ADC_TempSensorVrefintCmd
                0x08023900       0x1c build/obj/stm32f4xx_adc.o
                0x08023900                ADC_TempSensorVrefintCmd
 *fill*         0x0802391c        0x4 
 .text.ADC_RegularChannelConfig
                0x08023920       0x8c build/obj/stm32f4xx_adc.o
                0x08023920                ADC_RegularChannelConfig
 *fill*         0x080239ac        0x4 
 .text.ADC_MultiModeDMARequestAfterLastTransferCmd
                0x080239b0       0x1c build/obj/stm32f4xx_adc.o
                0x080239b0                ADC_MultiModeDMARequestAfterLastTransferCmd
 *fill*         0x080239cc        0x4 
 .text.ADC_InjectedChannelConfig
                0x080239d0       0x58 build/obj/stm32f4xx_adc.o
                0x080239d0                ADC_InjectedChannelConfig
 *fill*         0x08023a28        0x8 
 .text.ADC_InjectedSequencerLengthConfig
                0x08023a30       0x10 build/obj/stm32f4xx_adc.o
                0x08023a30                ADC_InjectedSequencerLengthConfig
 .text.ADC_ExternalTrigInjectedConvConfig
                0x08023a40        0xc build/obj/stm32f4xx_adc.o
                0x08023a40                ADC_ExternalTrigInjectedConvConfig
 *fill*         0x08023a4c        0x4 
 .text.ADC_ExternalTrigInjectedConvEdgeConfig
                0x08023a50        0xc build/obj/stm32f4xx_adc.o
                0x08023a50                ADC_ExternalTrigInjectedConvEdgeConfig
 *fill*         0x08023a5c        0x4 
 .text.ADC_GetInjectedConversionValue
                0x08023a60       0x1c build/obj/stm32f4xx_adc.o
                0x08023a60                ADC_GetInjectedConversionValue
 *fill*         0x08023a7c        0x4 
 .text.ADC_ITConfig
                0x08023a80       0x1c build/obj/stm32f4xx_adc.o
                0x08023a80                ADC_ITConfig
 *fill*         0x08023a9c        0x4 
 .text.ADC_ClearITPendingBit
                0x08023aa0        0x8 build/obj/stm32f4xx_adc.o
                0x08023aa0                ADC_ClearITPendingBit
 *fill*         0x08023aa8        0x8 
 .text.DMA_DeInit
                0x08023ab0      0x130 build/obj/stm32f4xx_dma.o
                0x08023ab0                DMA_DeInit
 .text.DMA_Init
                0x08023be0       0x70 build/obj/stm32f4xx_dma.o
                0x08023be0                DMA_Init
 .text.DMA_Cmd  0x08023c50       0x14 build/obj/stm32f4xx_dma.o
                0x08023c50                DMA_Cmd
 *fill*         0x08023c64        0xc 
 .text.DMA_ITConfig
                0x08023c70       0x40 build/obj/stm32f4xx_dma.o
                0x08023c70                DMA_ITConfig
 .text.EXTI_Init
                0x08023cb0       0x7c build/obj/stm32f4xx_exti.o
                0x08023cb0                EXTI_Init
 *fill*         0x08023d2c        0x4 
 .text.EXTI_GetITStatus
                0x08023d30       0x14 build/obj/stm32f4xx_exti.o
                0x08023d30                EXTI_GetITStatus
 *fill*         0x08023d44        0xc 
 .text.EXTI_ClearITPendingBit
                0x08023d50        0xc build/obj/stm32f4xx_exti.o
                0x08023d50                EXTI_ClearITPendingBit
 *fill*         0x08023d5c        0x4 
 .text.FLASH_Unlock
                0x08023d60       0x20 build/obj/stm32f4xx_flash.o
                0x08023d60                FLASH_Unlock
 .text.FLASH_ClearFlag
                0x08023d80        0xc build/obj/stm32f4xx_flash.o
                0x08023d80                FLASH_ClearFlag
 *fill*         0x08023d8c        0x4 
 .text.FLASH_GetStatus
                0x08023d90       0x40 build/obj/stm32f4xx_flash.o
                0x08023d90                FLASH_GetStatus
 .text.FLASH_WaitForLastOperation
                0x08023dd0       0x28 build/obj/stm32f4xx_flash.o
                0x08023dd0                FLASH_WaitForLastOperation
 *fill*         0x08023df8        0x8 
 .text.FLASH_EraseSector
                0x08023e00       0x74 build/obj/stm32f4xx_flash.o
                0x08023e00                FLASH_EraseSector
 *fill*         0x08023e74        0xc 
 .text.FLASH_ProgramHalfWord
                0x08023e80       0x40 build/obj/stm32f4xx_flash.o
                0x08023e80                FLASH_ProgramHalfWord
 .text.FLASH_ProgramByte
                0x08023ec0       0x3c build/obj/stm32f4xx_flash.o
                0x08023ec0                FLASH_ProgramByte
 *fill*         0x08023efc        0x4 
 .text.RCC_AHB1PeriphClockCmd
                0x08023f00       0x18 build/obj/stm32f4xx_rcc.o
                0x08023f00                RCC_AHB1PeriphClockCmd
 *fill*         0x08023f18        0x8 
 .text.RCC_APB1PeriphClockCmd
                0x08023f20       0x18 build/obj/stm32f4xx_rcc.o
                0x08023f20                RCC_APB1PeriphClockCmd
 *fill*         0x08023f38        0x8 
 .text.RCC_APB2PeriphClockCmd
                0x08023f40       0x18 build/obj/stm32f4xx_rcc.o
                0x08023f40                RCC_APB2PeriphClockCmd
 *fill*         0x08023f58        0x8 
 .text.RCC_APB1PeriphResetCmd
                0x08023f60       0x18 build/obj/stm32f4xx_rcc.o
                0x08023f60                RCC_APB1PeriphResetCmd
 *fill*         0x08023f78        0x8 
 .text.RCC_APB2PeriphResetCmd
                0x08023f80       0x18 build/obj/stm32f4xx_rcc.o
                0x08023f80                RCC_APB2PeriphResetCmd
 *fill*         0x08023f98        0x8 
 .text.SYSCFG_EXTILineConfig
                0x08023fa0       0x30 build/obj/stm32f4xx_syscfg.o
                0x08023fa0                SYSCFG_EXTILineConfig
 .text.TIM_DeInit
                0x08023fd0      0x1b8 build/obj/stm32f4xx_tim.o
                0x08023fd0                TIM_DeInit
 *fill*         0x08024188        0x8 
 .text.TIM_TimeBaseInit
                0x08024190       0x98 build/obj/stm32f4xx_tim.o
                0x08024190                TIM_TimeBaseInit
 *fill*         0x08024228        0x8 
 .text.TIM_SetAutoreload
                0x08024230        0x4 build/obj/stm32f4xx_tim.o
                0x08024230                TIM_SetAutoreload
 *fill*         0x08024234        0xc 
 .text.TIM_ARRPreloadConfig
                0x08024240       0x18 build/obj/stm32f4xx_tim.o
                0x08024240                TIM_ARRPreloadConfig
 *fill*         0x08024258        0x8 
 .text.TIM_Cmd  0x08024260       0x18 build/obj/stm32f4xx_tim.o
                0x08024260                TIM_Cmd
 *fill*         0x08024278        0x8 
 .text.TIM_OC1Init
                0x08024280       0x7c build/obj/stm32f4xx_tim.o
                0x08024280                TIM_OC1Init
 *fill*         0x080242fc        0x4 
 .text.TIM_OC2Init
                0x08024300       0x98 build/obj/stm32f4xx_tim.o
                0x08024300                TIM_OC2Init
 *fill*         0x08024398        0x8 
 .text.TIM_OC3Init
                0x080243a0       0x90 build/obj/stm32f4xx_tim.o
                0x080243a0                TIM_OC3Init
 .text.TIM_OC4Init
                0x08024430       0x74 build/obj/stm32f4xx_tim.o
                0x08024430                TIM_OC4Init
 *fill*         0x080244a4        0xc 
 .text.TIM_SelectOCxM
                0x080244b0       0x50 build/obj/stm32f4xx_tim.o
                0x080244b0                TIM_SelectOCxM
 .text.TIM_OC1PreloadConfig
                0x08024500       0x10 build/obj/stm32f4xx_tim.o
                0x08024500                TIM_OC1PreloadConfig
 .text.TIM_OC2PreloadConfig
                0x08024510       0x14 build/obj/stm32f4xx_tim.o
                0x08024510                TIM_OC2PreloadConfig
 *fill*         0x08024524        0xc 
 .text.TIM_OC3PreloadConfig
                0x08024530       0x10 build/obj/stm32f4xx_tim.o
                0x08024530                TIM_OC3PreloadConfig
 .text.TIM_OC4PreloadConfig
                0x08024540       0x14 build/obj/stm32f4xx_tim.o
                0x08024540                TIM_OC4PreloadConfig
 *fill*         0x08024554        0xc 
 .text.TIM_CCxCmd
                0x08024560       0x20 build/obj/stm32f4xx_tim.o
                0x08024560                TIM_CCxCmd
 .text.TIM_CCxNCmd
                0x08024580       0x20 build/obj/stm32f4xx_tim.o
                0x08024580                TIM_CCxNCmd
 .text.TIM_BDTRConfig
                0x080245a0       0x28 build/obj/stm32f4xx_tim.o
                0x080245a0                TIM_BDTRConfig
 *fill*         0x080245c8        0x8 
 .text.TIM_CtrlPWMOutputs
                0x080245d0       0x14 build/obj/stm32f4xx_tim.o
                0x080245d0                TIM_CtrlPWMOutputs
 *fill*         0x080245e4        0xc 
 .text.TIM_CCPreloadControl
                0x080245f0       0x18 build/obj/stm32f4xx_tim.o
                0x080245f0                TIM_CCPreloadControl
 *fill*         0x08024608        0x8 
 .text.TIM_ITConfig
                0x08024610       0x18 build/obj/stm32f4xx_tim.o
                0x08024610                TIM_ITConfig
 *fill*         0x08024628        0x8 
 .text.TIM_GenerateEvent
                0x08024630        0x4 build/obj/stm32f4xx_tim.o
                0x08024630                TIM_GenerateEvent
 *fill*         0x08024634        0xc 
 .text.TIM_GetITStatus
                0x08024640       0x14 build/obj/stm32f4xx_tim.o
                0x08024640                TIM_GetITStatus
 *fill*         0x08024654        0xc 
 .text.TIM_ClearITPendingBit
                0x08024660        0x8 build/obj/stm32f4xx_tim.o
                0x08024660                TIM_ClearITPendingBit
 *fill*         0x08024668        0x8 
 .text.TIM_SelectInputTrigger
                0x08024670       0x10 build/obj/stm32f4xx_tim.o
                0x08024670                TIM_SelectInputTrigger
 .text.TIM_SelectOutputTrigger
                0x08024680       0x14 build/obj/stm32f4xx_tim.o
                0x08024680                TIM_SelectOutputTrigger
 *fill*         0x08024694        0xc 
 .text.TIM_SelectSlaveMode
                0x080246a0       0x14 build/obj/stm32f4xx_tim.o
                0x080246a0                TIM_SelectSlaveMode
 *fill*         0x080246b4        0xc 
 .text.TIM_SelectMasterSlaveMode
                0x080246c0       0x14 build/obj/stm32f4xx_tim.o
                0x080246c0                TIM_SelectMasterSlaveMode
 *fill*         0x080246d4        0xc 
 .text.TIM_EncoderInterfaceConfig
                0x080246e0       0x38 build/obj/stm32f4xx_tim.o
                0x080246e0                TIM_EncoderInterfaceConfig
 *fill*         0x08024718        0x8 
 .text.WWDG_DeInit
                0x08024720       0x1c build/obj/stm32f4xx_wwdg.o
                0x08024720                WWDG_DeInit
 *fill*         0x0802473c        0x4 
 .text.WWDG_SetPrescaler
                0x08024740       0x14 build/obj/stm32f4xx_wwdg.o
                0x08024740                WWDG_SetPrescaler
 *fill*         0x08024754        0xc 
 .text.WWDG_SetWindowValue
                0x08024760       0x28 build/obj/stm32f4xx_wwdg.o
                0x08024760                WWDG_SetWindowValue
 *fill*         0x08024788        0x8 
 .text.WWDG_SetCounter
                0x08024790       0x10 build/obj/stm32f4xx_wwdg.o
                0x08024790                WWDG_SetCounter
 .text.WWDG_Enable
                0x080247a0       0x10 build/obj/stm32f4xx_wwdg.o
                0x080247a0                WWDG_Enable
 .text.cosf     0x080247b0       0x78 /usr/bin/../lib/gcc/arm-none-eabi/4.9.3/../../../../arm-none-eabi/lib/armv7e-m/fpu/libm.a(lib_a-sf_cos.o)
                0x080247b0                cosf
 *fill*         0x08024828        0x8 
 .text.roundf   0x08024830       0x60 /usr/bin/../lib/gcc/arm-none-eabi/4.9.3/../../../../arm-none-eabi/lib/armv7e-m/fpu/libm.a(lib_a-sf_round.o)
                0x08024830                roundf
 .text.sinf     0x08024890       0x7c /usr/bin/../lib/gcc/arm-none-eabi/4.9.3/../../../../arm-none-eabi/lib/armv7e-m/fpu/libm.a(lib_a-sf_sin.o)
                0x08024890                sinf
 *fill*         0x0802490c        0x4 
 .text.sqrt     0x08024910       0xbc /usr/bin/../lib/gcc/arm-none-eabi/4.9.3/../../../../arm-none-eabi/lib/armv7e-m/fpu/libm.a(lib_a-w_sqrt.o)
                0x08024910                sqrt
 *fill*         0x080249cc        0x4 
 .text.asinf    0x080249d0       0xbc /usr/bin/../lib/gcc/arm-none-eabi/4.9.3/../../../../arm-none-eabi/lib/armv7e-m/fpu/libm.a(lib_a-wf_asin.o)
                0x080249d0                asinf
 *fill*         0x08024a8c        0x4 
 .text.atan2f   0x08024a90        0x4 /usr/bin/../lib/gcc/arm-none-eabi/4.9.3/../../../../arm-none-eabi/lib/armv7e-m/fpu/libm.a(lib_a-wf_atan2.o)
                0x08024a90                atan2f
 *fill*         0x08024a94        0xc 
 .text.fmodf    0x08024aa0       0xcc /usr/bin/../lib/gcc/arm-none-eabi/4.9.3/../../../../arm-none-eabi/lib/armv7e-m/fpu/libm.a(lib_a-wf_fmod.o)
                0x08024aa0                fmodf
 *fill*         0x08024b6c        0x4 
 .text.logf     0x08024b70      0x100 /usr/bin/../lib/gcc/arm-none-eabi/4.9.3/../../../../arm-none-eabi/lib/armv7e-m/fpu/libm.a(lib_a-wf_log.o)
                0x08024b70                logf
 .text.powf     0x08024c70      0x344 /usr/bin/../lib/gcc/arm-none-eabi/4.9.3/../../../../arm-none-eabi/lib/armv7e-m/fpu/libm.a(lib_a-wf_pow.o)
                0x08024c70                powf
 *fill*         0x08024fb4        0xc 
 .text.sincosf  0x08024fc0       0x28 /usr/bin/../lib/gcc/arm-none-eabi/4.9.3/../../../../arm-none-eabi/lib/armv7e-m/fpu/libm.a(lib_a-wf_sincos.o)
                0x08024fc0                sincosf
 *fill*         0x08024fe8        0x8 
 .text.sqrtf    0x08024ff0       0xb8 /usr/bin/../lib/gcc/arm-none-eabi/4.9.3/../../../../arm-none-eabi/lib/armv7e-m/fpu/libm.a(lib_a-wf_sqrt.o)
                0x08024ff0                sqrtf
 *fill*         0x080250a8        0x8 
 .text.__ieee754_sqrt
                0x080250b0      0x1a8 /usr/bin/../lib/gcc/arm-none-eabi/4.9.3/../../../../arm-none-eabi/lib/armv7e-m/fpu/libm.a(lib_a-e_sqrt.o)
                0x080250b0                __ieee754_sqrt
 *fill*         0x08025258        0x8 
 .text.__ieee754_asinf
                0x08025260      0x1f8 /usr/bin/../lib/gcc/arm-none-eabi/4.9.3/../../../../arm-none-eabi/lib/armv7e-m/fpu/libm.a(lib_a-ef_asin.o)
                0x08025260                __ieee754_asinf
 *fill*         0x08025458        0x8 
 .text.__ieee754_atan2f
                0x08025460      0x16c /usr/bin/../lib/gcc/arm-none-eabi/4.9.3/../../../../arm-none-eabi/lib/armv7e-m/fpu/libm.a(lib_a-ef_atan2.o)
                0x08025460                __ieee754_atan2f
 *fill*         0x080255cc        0x4 
 .text.__ieee754_fmodf
                0x080255d0      0x11c /usr/bin/../lib/gcc/arm-none-eabi/4.9.3/../../../../arm-none-eabi/lib/armv7e-m/fpu/libm.a(lib_a-ef_fmod.o)
                0x080255d0                __ieee754_fmodf
 *fill*         0x080256ec        0x4 
 .text.__ieee754_logf
                0x080256f0      0x218 /usr/bin/../lib/gcc/arm-none-eabi/4.9.3/../../../../arm-none-eabi/lib/armv7e-m/fpu/libm.a(lib_a-ef_log.o)
                0x080256f0                __ieee754_logf
 *fill*         0x08025908        0x8 
 .text.__ieee754_powf
                0x08025910      0x5f0 /usr/bin/../lib/gcc/arm-none-eabi/4.9.3/../../../../arm-none-eabi/lib/armv7e-m/fpu/libm.a(lib_a-ef_pow.o)
                0x08025910                __ieee754_powf
 .text.__ieee754_rem_pio2f
                0x08025f00      0x290 /usr/bin/../lib/gcc/arm-none-eabi/4.9.3/../../../../arm-none-eabi/lib/armv7e-m/fpu/libm.a(lib_a-ef_rem_pio2.o)
                0x08025f00                __ieee754_rem_pio2f
 .text.__ieee754_sqrtf
                0x08026190       0xa4 /usr/bin/../lib/gcc/arm-none-eabi/4.9.3/../../../../arm-none-eabi/lib/armv7e-m/fpu/libm.a(lib_a-ef_sqrt.o)
                0x08026190                __ieee754_sqrtf
 *fill*         0x08026234        0xc 
 .text.__kernel_cosf
                0x08026240      0x104 /usr/bin/../lib/gcc/arm-none-eabi/4.9.3/../../../../arm-none-eabi/lib/armv7e-m/fpu/libm.a(lib_a-kf_cos.o)
                0x08026240                __kernel_cosf
 *fill*         0x08026344        0xc 
 .text.__kernel_rem_pio2f
                0x08026350      0x5e4 /usr/bin/../lib/gcc/arm-none-eabi/4.9.3/../../../../arm-none-eabi/lib/armv7e-m/fpu/libm.a(lib_a-kf_rem_pio2.o)
                0x08026350                __kernel_rem_pio2f
 *fill*         0x08026934        0xc 
 .text.__kernel_sinf
                0x08026940       0x90 /usr/bin/../lib/gcc/arm-none-eabi/4.9.3/../../../../arm-none-eabi/lib/armv7e-m/fpu/libm.a(lib_a-kf_sin.o)
                0x08026940                __kernel_sinf
 .text.__fpclassifyd
                0x080269d0       0x5c /usr/bin/../lib/gcc/arm-none-eabi/4.9.3/../../../../arm-none-eabi/lib/armv7e-m/fpu/libm.a(lib_a-s_fpclassify.o)
                0x080269d0                __fpclassifyd
 *fill*         0x08026a2c        0x4 
 .text.matherr  0x08026a30        0x4 /usr/bin/../lib/gcc/arm-none-eabi/4.9.3/../../../../arm-none-eabi/lib/armv7e-m/fpu/libm.a(lib_a-s_matherr.o)
                0x08026a30                matherr
 *fill*         0x08026a34        0xc 
 .text.nan      0x08026a40       0x10 /usr/bin/../lib/gcc/arm-none-eabi/4.9.3/../../../../arm-none-eabi/lib/armv7e-m/fpu/libm.a(lib_a-s_nan.o)
                0x08026a40                nan
 .text.rint     0x08026a50      0x124 /usr/bin/../lib/gcc/arm-none-eabi/4.9.3/../../../../arm-none-eabi/lib/armv7e-m/fpu/libm.a(lib_a-s_rint.o)
                0x08026a50                rint
 *fill*         0x08026b74        0xc 
 .text.atanf    0x08026b80      0x1b8 /usr/bin/../lib/gcc/arm-none-eabi/4.9.3/../../../../arm-none-eabi/lib/armv7e-m/fpu/libm.a(lib_a-sf_atan.o)
                0x08026b80                atanf
 *fill*         0x08026d38        0x8 
 .text.fabsf    0x08026d40       0x10 /usr/bin/../lib/gcc/arm-none-eabi/4.9.3/../../../../arm-none-eabi/lib/armv7e-m/fpu/libm.a(lib_a-sf_fabs.o)
                0x08026d40                fabsf
 .text.finitef  0x08026d50       0x14 /usr/bin/../lib/gcc/arm-none-eabi/4.9.3/../../../../arm-none-eabi/lib/armv7e-m/fpu/libm.a(lib_a-sf_finite.o)
                0x08026d50                finitef
 *fill*         0x08026d64        0xc 
 .text.floorf   0x08026d70       0x90 /usr/bin/../lib/gcc/arm-none-eabi/4.9.3/../../../../arm-none-eabi/lib/armv7e-m/fpu/libm.a(lib_a-sf_floor.o)
                0x08026d70                floorf
 .text.__fpclassifyf
                0x08026e00       0x38 /usr/bin/../lib/gcc/arm-none-eabi/4.9.3/../../../../arm-none-eabi/lib/armv7e-m/fpu/libm.a(lib_a-sf_fpclassify.o)
                0x08026e00                __fpclassifyf
 *fill*         0x08026e38        0x8 
 .text.nanf     0x08026e40        0xc /usr/bin/../lib/gcc/arm-none-eabi/4.9.3/../../../../arm-none-eabi/lib/armv7e-m/fpu/libm.a(lib_a-sf_nan.o)
                0x08026e40                nanf
 *fill*         0x08026e4c        0x4 
 .text.scalbnf  0x08026e50       0xd0 /usr/bin/../lib/gcc/arm-none-eabi/4.9.3/../../../../arm-none-eabi/lib/armv7e-m/fpu/libm.a(lib_a-sf_scalbn.o)
                0x08026e50                scalbnf
 .text.copysignf
                0x08026f20       0x18 /usr/bin/../lib/gcc/arm-none-eabi/4.9.3/../../../../arm-none-eabi/lib/armv7e-m/fpu/libm.a(lib_a-sf_copysign.o)
                0x08026f20                copysignf
 *fill*         0x08026f38        0x8 
 .text.__errno  0x08026f40        0xc /usr/bin/../lib/gcc/arm-none-eabi/4.9.3/../../../../arm-none-eabi/lib/armv7e-m/fpu/libg.a(lib_a-errno.o)
                0x08026f40                __errno
 *fill*         0x08026f4c        0x4 
 .text.memcmp   0x08026f50       0x64 /usr/bin/../lib/gcc/arm-none-eabi/4.9.3/../../../../arm-none-eabi/lib/armv7e-m/fpu/libg.a(lib_a-memcmp.o)
                0x08026f50                memcmp
 *fill*         0x08026fb4        0xc 
 .text.memset   0x08026fc0       0x9c /usr/bin/../lib/gcc/arm-none-eabi/4.9.3/../../../../arm-none-eabi/lib/armv7e-m/fpu/libg.a(lib_a-memset.o)
                0x08026fc0                memset
 *fill*         0x0802705c        0x4 
 .text.sscanf   0x08027060       0x58 /usr/bin/../lib/gcc/arm-none-eabi/4.9.3/../../../../arm-none-eabi/lib/armv7e-m/fpu/libg.a(lib_a-sscanf.o)
                0x08027060                sscanf
 *fill*         0x080270b8        0x8 
 .text.__seofread
                0x080270c0        0x4 /usr/bin/../lib/gcc/arm-none-eabi/4.9.3/../../../../arm-none-eabi/lib/armv7e-m/fpu/libg.a(lib_a-stdio.o)
                0x080270c0                __seofread
 *fill*         0x080270c4        0xc 
 .text.strlen   0x080270d0       0x5c /usr/bin/../lib/gcc/arm-none-eabi/4.9.3/../../../../arm-none-eabi/lib/armv7e-m/fpu/libg.a(lib_a-strlen.o)
                0x080270d0                strlen
 *fill*         0x0802712c        0x4 
 .text.strtok   0x08027130       0x10 /usr/bin/../lib/gcc/arm-none-eabi/4.9.3/../../../../arm-none-eabi/lib/armv7e-m/fpu/libg.a(lib_a-strtok.o)
                0x08027130                strtok
 .text.__strtok_r
                0x08027140       0x64 /usr/bin/../lib/gcc/arm-none-eabi/4.9.3/../../../../arm-none-eabi/lib/armv7e-m/fpu/libg.a(lib_a-strtok_r.o)
                0x08027140                __strtok_r
 *fill*         0x080271a4        0xc 
 .text.__ssvfscanf_r
                0x080271b0      0xe5c /usr/bin/../lib/gcc/arm-none-eabi/4.9.3/../../../../arm-none-eabi/lib/armv7e-m/fpu/libg.a(lib_a-svfscanf.o)
                0x080271b0                __ssvfscanf_r
 *fill*         0x0802800c        0x4 
 .text._vsnprintf_r
                0x08028010       0x74 /usr/bin/../lib/gcc/arm-none-eabi/4.9.3/../../../../arm-none-eabi/lib/armv7e-m/fpu/libg.a(lib_a-vsnprintf.o)
                0x08028010                _vsnprintf_r
 *fill*         0x08028084        0xc 
 .text.vsnprintf
                0x08028090       0x20 /usr/bin/../lib/gcc/arm-none-eabi/4.9.3/../../../../arm-none-eabi/lib/armv7e-m/fpu/libg.a(lib_a-vsnprintf.o)
                0x08028090                vsnprintf
 .text.iswspace
                0x080280b0       0x1c /usr/bin/../lib/gcc/arm-none-eabi/4.9.3/../../../../arm-none-eabi/lib/armv7e-m/fpu/libg.a(lib_a-iswspace.o)
                0x080280b0                iswspace
 *fill*         0x080280cc        0x4 
 .text.__locale_charset
                0x080280d0        0x8 /usr/bin/../lib/gcc/arm-none-eabi/4.9.3/../../../../arm-none-eabi/lib/armv7e-m/fpu/libg.a(lib_a-locale.o)
                0x080280d0                __locale_charset
 *fill*         0x080280d8        0x8 
 .text.__locale_mb_cur_max
                0x080280e0        0xc /usr/bin/../lib/gcc/arm-none-eabi/4.9.3/../../../../arm-none-eabi/lib/armv7e-m/fpu/libg.a(lib_a-locale.o)
                0x080280e0                __locale_mb_cur_max
 *fill*         0x080280ec        0x4 
 .text._localeconv_r
                0x080280f0        0x8 /usr/bin/../lib/gcc/arm-none-eabi/4.9.3/../../../../arm-none-eabi/lib/armv7e-m/fpu/libg.a(lib_a-locale.o)
                0x080280f0                _localeconv_r
 *fill*         0x080280f8        0x8 
 .text._mbrtowc_r
                0x08028100       0x5c /usr/bin/../lib/gcc/arm-none-eabi/4.9.3/../../../../arm-none-eabi/lib/armv7e-m/fpu/libg.a(lib_a-mbrtowc.o)
                0x08028100                _mbrtowc_r
 *fill*         0x0802815c        0x4 
 .text.__ascii_mbtowc
                0x08028160       0x2c /usr/bin/../lib/gcc/arm-none-eabi/4.9.3/../../../../arm-none-eabi/lib/armv7e-m/fpu/libg.a(lib_a-mbtowc_r.o)
                0x08028160                __ascii_mbtowc
 *fill*         0x0802818c        0x4 
 .text.__sccl   0x08028190       0x78 /usr/bin/../lib/gcc/arm-none-eabi/4.9.3/../../../../arm-none-eabi/lib/armv7e-m/fpu/libg.a(lib_a-sccl.o)
                0x08028190                __sccl
 *fill*         0x08028208        0x8 
 .text.sprintf  0x08028210       0x4c /usr/bin/../lib/gcc/arm-none-eabi/4.9.3/../../../../arm-none-eabi/lib/armv7e-m/fpu/libg.a(lib_a-sprintf.o)
                0x08028210                sprintf
 *fill*         0x0802825c        0x4 
 .text.sulp     0x08028260       0x40 /usr/bin/../lib/gcc/arm-none-eabi/4.9.3/../../../../arm-none-eabi/lib/armv7e-m/fpu/libg.a(lib_a-strtod.o)
 .text._strtod_r
                0x080282a0      0xf4c /usr/bin/../lib/gcc/arm-none-eabi/4.9.3/../../../../arm-none-eabi/lib/armv7e-m/fpu/libg.a(lib_a-strtod.o)
                0x080282a0                _strtod_r
 *fill*         0x080291ec        0x4 
 .text._strtol_r
                0x080291f0      0x11c /usr/bin/../lib/gcc/arm-none-eabi/4.9.3/../../../../arm-none-eabi/lib/armv7e-m/fpu/libg.a(lib_a-strtol.o)
                0x080291f0                _strtol_r
 *fill*         0x0802930c        0x4 
 .text._strtoll_r
                0x08029310      0x1cc /usr/bin/../lib/gcc/arm-none-eabi/4.9.3/../../../../arm-none-eabi/lib/armv7e-m/fpu/libg.a(lib_a-strtoll_r.o)
                0x08029310                _strtoll_r
 *fill*         0x080294dc        0x4 
 .text._strtoul_r
                0x080294e0      0x128 /usr/bin/../lib/gcc/arm-none-eabi/4.9.3/../../../../arm-none-eabi/lib/armv7e-m/fpu/libg.a(lib_a-strtoul.o)
                0x080294e0                _strtoul_r
 *fill*         0x08029608        0x8 
 .text._strtoull_r
                0x08029610      0x1d8 /usr/bin/../lib/gcc/arm-none-eabi/4.9.3/../../../../arm-none-eabi/lib/armv7e-m/fpu/libg.a(lib_a-strtoull_r.o)
                0x08029610                _strtoull_r
 *fill*         0x080297e8        0x8 
 .text._sungetc_r
                0x080297f0       0x88 /usr/bin/../lib/gcc/arm-none-eabi/4.9.3/../../../../arm-none-eabi/lib/armv7e-m/fpu/libg.a(lib_a-svfiscanf.o)
                0x080297f0                _sungetc_r
 *fill*         0x08029878        0x8 
 .text.__ssrefill_r
                0x08029880       0x3c /usr/bin/../lib/gcc/arm-none-eabi/4.9.3/../../../../arm-none-eabi/lib/armv7e-m/fpu/libg.a(lib_a-svfiscanf.o)
                0x08029880                __ssrefill_r
 *fill*         0x080298bc        0x4 
 .text._sfread_r
                0x080298c0       0x80 /usr/bin/../lib/gcc/arm-none-eabi/4.9.3/../../../../arm-none-eabi/lib/armv7e-m/fpu/libg.a(lib_a-svfiscanf.o)
                0x080298c0                _sfread_r
 .text._svfprintf_r
                0x08029940     0x14cc /usr/bin/../lib/gcc/arm-none-eabi/4.9.3/../../../../arm-none-eabi/lib/armv7e-m/fpu/libg.a(lib_a-svfprintf.o)
                0x08029940                _svfprintf_r
 *fill*         0x0802ae0c        0x4 
 .text.__submore
                0x0802ae10       0x78 /usr/bin/../lib/gcc/arm-none-eabi/4.9.3/../../../../arm-none-eabi/lib/armv7e-m/fpu/libg.a(lib_a-ungetc.o)
                0x0802ae10                __submore
 *fill*         0x0802ae88        0x8 
 .text.quorem   0x0802ae90      0x12c /usr/bin/../lib/gcc/arm-none-eabi/4.9.3/../../../../arm-none-eabi/lib/armv7e-m/fpu/libg.a(lib_a-dtoa.o)
 *fill*         0x0802afbc        0x4 
 .text._dtoa_r  0x0802afc0      0xea4 /usr/bin/../lib/gcc/arm-none-eabi/4.9.3/../../../../arm-none-eabi/lib/armv7e-m/fpu/libg.a(lib_a-dtoa.o)
                0x0802afc0                _dtoa_r
 *fill*         0x0802be64        0xc 
 .text._malloc_trim_r
                0x0802be70       0x9c /usr/bin/../lib/gcc/arm-none-eabi/4.9.3/../../../../arm-none-eabi/lib/armv7e-m/fpu/libg.a(lib_a-freer.o)
                0x0802be70                _malloc_trim_r
 *fill*         0x0802bf0c        0x4 
 .text._free_r  0x0802bf10      0x1b0 /usr/bin/../lib/gcc/arm-none-eabi/4.9.3/../../../../arm-none-eabi/lib/armv7e-m/fpu/libg.a(lib_a-freer.o)
                0x0802bf10                _free_r
 .text.rshift   0x0802c0c0       0xa0 /usr/bin/../lib/gcc/arm-none-eabi/4.9.3/../../../../arm-none-eabi/lib/armv7e-m/fpu/libg.a(lib_a-gdtoa-gethex.o)
 .text.__gethex
                0x0802c160      0x514 /usr/bin/../lib/gcc/arm-none-eabi/4.9.3/../../../../arm-none-eabi/lib/armv7e-m/fpu/libg.a(lib_a-gdtoa-gethex.o)
                0x0802c160                __gethex
 *fill*         0x0802c674        0xc 
 .text.__hexnan
                0x0802c680      0x184 /usr/bin/../lib/gcc/arm-none-eabi/4.9.3/../../../../arm-none-eabi/lib/armv7e-m/fpu/libg.a(lib_a-gdtoa-hexnan.o)
                0x0802c680                __hexnan
 *fill*         0x0802c804        0xc 
 .text._malloc_r
                0x0802c810      0x524 /usr/bin/../lib/gcc/arm-none-eabi/4.9.3/../../../../arm-none-eabi/lib/armv7e-m/fpu/libg.a(lib_a-mallocr.o)
                0x0802c810                _malloc_r
 *fill*         0x0802cd34        0xc 
 .text.memchr   0x0802cd40       0x94 /usr/bin/../lib/gcc/arm-none-eabi/4.9.3/../../../../arm-none-eabi/lib/armv7e-m/fpu/libg.a(lib_a-memchr.o)
                0x0802cd40                memchr
 *fill*         0x0802cdd4        0xc 
 .text.__malloc_lock
                0x0802cde0        0x4 /usr/bin/../lib/gcc/arm-none-eabi/4.9.3/../../../../arm-none-eabi/lib/armv7e-m/fpu/libg.a(lib_a-mlock.o)
                0x0802cde0                __malloc_lock
 *fill*         0x0802cde4        0xc 
 .text.__malloc_unlock
                0x0802cdf0        0x4 /usr/bin/../lib/gcc/arm-none-eabi/4.9.3/../../../../arm-none-eabi/lib/armv7e-m/fpu/libg.a(lib_a-mlock.o)
                0x0802cdf0                __malloc_unlock
 *fill*         0x0802cdf4        0xc 
 .text._Balloc  0x0802ce00       0x4c /usr/bin/../lib/gcc/arm-none-eabi/4.9.3/../../../../arm-none-eabi/lib/armv7e-m/fpu/libg.a(lib_a-mprec.o)
                0x0802ce00                _Balloc
 *fill*         0x0802ce4c        0x4 
 .text._Bfree   0x0802ce50       0x14 /usr/bin/../lib/gcc/arm-none-eabi/4.9.3/../../../../arm-none-eabi/lib/armv7e-m/fpu/libg.a(lib_a-mprec.o)
                0x0802ce50                _Bfree
 *fill*         0x0802ce64        0xc 
 .text.__multadd
                0x0802ce70       0x84 /usr/bin/../lib/gcc/arm-none-eabi/4.9.3/../../../../arm-none-eabi/lib/armv7e-m/fpu/libg.a(lib_a-mprec.o)
                0x0802ce70                __multadd
 *fill*         0x0802cef4        0xc 
 .text.__s2b    0x0802cf00       0x98 /usr/bin/../lib/gcc/arm-none-eabi/4.9.3/../../../../arm-none-eabi/lib/armv7e-m/fpu/libg.a(lib_a-mprec.o)
                0x0802cf00                __s2b
 *fill*         0x0802cf98        0x8 
 .text.__hi0bits
                0x0802cfa0       0x40 /usr/bin/../lib/gcc/arm-none-eabi/4.9.3/../../../../arm-none-eabi/lib/armv7e-m/fpu/libg.a(lib_a-mprec.o)
                0x0802cfa0                __hi0bits
 .text.__lo0bits
                0x0802cfe0       0x5c /usr/bin/../lib/gcc/arm-none-eabi/4.9.3/../../../../arm-none-eabi/lib/armv7e-m/fpu/libg.a(lib_a-mprec.o)
                0x0802cfe0                __lo0bits
 *fill*         0x0802d03c        0x4 
 .text.__i2b    0x0802d040       0x14 /usr/bin/../lib/gcc/arm-none-eabi/4.9.3/../../../../arm-none-eabi/lib/armv7e-m/fpu/libg.a(lib_a-mprec.o)
                0x0802d040                __i2b
 *fill*         0x0802d054        0xc 
 .text.__multiply
                0x0802d060      0x134 /usr/bin/../lib/gcc/arm-none-eabi/4.9.3/../../../../arm-none-eabi/lib/armv7e-m/fpu/libg.a(lib_a-mprec.o)
                0x0802d060                __multiply
 *fill*         0x0802d194        0xc 
 .text.__pow5mult
                0x0802d1a0       0xa0 /usr/bin/../lib/gcc/arm-none-eabi/4.9.3/../../../../arm-none-eabi/lib/armv7e-m/fpu/libg.a(lib_a-mprec.o)
                0x0802d1a0                __pow5mult
 .text.__lshift
                0x0802d240       0xac /usr/bin/../lib/gcc/arm-none-eabi/4.9.3/../../../../arm-none-eabi/lib/armv7e-m/fpu/libg.a(lib_a-mprec.o)
                0x0802d240                __lshift
 *fill*         0x0802d2ec        0x4 
 .text.__mcmp   0x0802d2f0       0x48 /usr/bin/../lib/gcc/arm-none-eabi/4.9.3/../../../../arm-none-eabi/lib/armv7e-m/fpu/libg.a(lib_a-mprec.o)
                0x0802d2f0                __mcmp
 *fill*         0x0802d338        0x8 
 .text.__mdiff  0x0802d340       0xd4 /usr/bin/../lib/gcc/arm-none-eabi/4.9.3/../../../../arm-none-eabi/lib/armv7e-m/fpu/libg.a(lib_a-mprec.o)
                0x0802d340                __mdiff
 *fill*         0x0802d414        0xc 
 .text.__ulp    0x0802d420       0x50 /usr/bin/../lib/gcc/arm-none-eabi/4.9.3/../../../../arm-none-eabi/lib/armv7e-m/fpu/libg.a(lib_a-mprec.o)
                0x0802d420                __ulp
 .text.__b2d    0x0802d470       0xc4 /usr/bin/../lib/gcc/arm-none-eabi/4.9.3/../../../../arm-none-eabi/lib/armv7e-m/fpu/libg.a(lib_a-mprec.o)
                0x0802d470                __b2d
 *fill*         0x0802d534        0xc 
 .text.__d2b    0x0802d540       0xbc /usr/bin/../lib/gcc/arm-none-eabi/4.9.3/../../../../arm-none-eabi/lib/armv7e-m/fpu/libg.a(lib_a-mprec.o)
                0x0802d540                __d2b
 *fill*         0x0802d5fc        0x4 
 .text.__ratio  0x0802d600       0x60 /usr/bin/../lib/gcc/arm-none-eabi/4.9.3/../../../../arm-none-eabi/lib/armv7e-m/fpu/libg.a(lib_a-mprec.o)
                0x0802d600                __ratio
 .text.__copybits
                0x0802d660       0x48 /usr/bin/../lib/gcc/arm-none-eabi/4.9.3/../../../../arm-none-eabi/lib/armv7e-m/fpu/libg.a(lib_a-mprec.o)
                0x0802d660                __copybits
 *fill*         0x0802d6a8        0x8 
 .text.__any_on
                0x0802d6b0       0x60 /usr/bin/../lib/gcc/arm-none-eabi/4.9.3/../../../../arm-none-eabi/lib/armv7e-m/fpu/libg.a(lib_a-mprec.o)
                0x0802d6b0                __any_on
 .text._realloc_r
                0x0802d710      0x3ec /usr/bin/../lib/gcc/arm-none-eabi/4.9.3/../../../../arm-none-eabi/lib/armv7e-m/fpu/libg.a(lib_a-reallocr.o)
                0x0802d710                _realloc_r
 *fill*         0x0802dafc        0x4 
 .text.strncmp  0x0802db00       0x98 /usr/bin/../lib/gcc/arm-none-eabi/4.9.3/../../../../arm-none-eabi/lib/armv7e-m/fpu/libg.a(lib_a-strncmp.o)
                0x0802db00                strncmp
 *fill*         0x0802db98        0x8 
 .text.__ssprint_r
                0x0802dba0      0x104 /usr/bin/../lib/gcc/arm-none-eabi/4.9.3/../../../../arm-none-eabi/lib/armv7e-m/fpu/libg.a(lib_a-svfiprintf.o)
                0x0802dba0                __ssprint_r
 *fill*         0x0802dca4        0xc 
 .text._calloc_r
                0x0802dcb0       0x60 /usr/bin/../lib/gcc/arm-none-eabi/4.9.3/../../../../arm-none-eabi/lib/armv7e-m/fpu/libg.a(lib_a-callocr.o)
                0x0802dcb0                _calloc_r
 .text.memmove  0x0802dd10       0xc8 /usr/bin/../lib/gcc/arm-none-eabi/4.9.3/../../../../arm-none-eabi/lib/armv7e-m/fpu/libg.a(lib_a-memmove.o)
                0x0802dd10                memmove
 *(.rodata)
 *fill*         0x0802ddd8        0x8 
 .rodata        0x0802dde0       0x1c build/obj/mcpwm.o
 *(.rodata.*)
 *fill*         0x0802ddfc        0x4 
 .rodata.str1.4
                0x0802de00        0x5 build/obj/chsys.o
 *fill*         0x0802de05        0xb 
 .rodata.ch_debug
                0x0802de10       0x16 build/obj/chregistry.o
                0x0802de10                ch_debug
 *fill*         0x0802de26        0xa 
 .rodata.vmt    0x0802de30       0x20 build/obj/serial_usb.o
 .rodata.zero_status
                0x0802de50        0x2 build/obj/usb.o
 *fill*         0x0802de52        0xe 
 .rodata.active_status
                0x0802de60        0x2 build/obj/usb.o
 *fill*         0x0802de62        0xe 
 .rodata.halted_status
                0x0802de70        0x2 build/obj/usb.o
 *fill*         0x0802de72        0xe 
 .rodata._stm32_dma_streams
                0x0802de80       0xc0 build/obj/stm32_dma.o
                0x0802de80                _stm32_dma_streams
 .rodata.str1.4
                0x0802df40        0xc build/obj/i2c_lld.o
 *fill*         0x0802df4c        0x4 
 .rodata.fsparams
                0x0802df50        0xc build/obj/usb_lld.o
 *fill*         0x0802df5c        0x4 
 .rodata.str1.4
                0x0802df60        0xd build/obj/usb_lld.o
 *fill*         0x0802df6d        0x3 
 .rodata.ep0config
                0x0802df70       0x24 build/obj/usb_lld.o
 .rodata.str1.4
                0x00000000        0xc build/obj/uart_lld.o
 *fill*         0x0802df94        0xc 
 .rodata.pal_default_config
                0x0802dfa0       0xfc build/obj/board.o
                0x0802dfa0                pal_default_config
 *fill*         0x0802e09c        0x4 
 .rodata.str1.4
                0x0802e0a0       0x1a build/obj/main.o
 *fill*         0x0802e0ba        0x6 
 .rodata.ep1config
                0x0802e0c0       0x24 build/obj/comm_usb_serial.o
 *fill*         0x0802e0e4        0xc 
 .rodata.vcom_configuration_descriptor
                0x0802e0f0        0x8 build/obj/comm_usb_serial.o
 *fill*         0x0802e0f8        0x8 
 .rodata.ep2config
                0x0802e100       0x24 build/obj/comm_usb_serial.o
 *fill*         0x0802e124        0xc 
 .rodata.usbcfg
                0x0802e130       0x10 build/obj/comm_usb_serial.o
 .rodata.vcom_configuration_descriptor_data
                0x0802e140       0x43 build/obj/comm_usb_serial.o
 *fill*         0x0802e183        0xd 
 .rodata.vcom_device_descriptor_data
                0x0802e190       0x12 build/obj/comm_usb_serial.o
 *fill*         0x0802e1a2        0xe 
 .rodata.vcom_string0
                0x0802e1b0        0x4 build/obj/comm_usb_serial.o
 *fill*         0x0802e1b4        0xc 
 .rodata.vcom_string1
                0x0802e1c0       0x26 build/obj/comm_usb_serial.o
 *fill*         0x0802e1e6        0xa 
 .rodata.vcom_string2
                0x0802e1f0       0x38 build/obj/comm_usb_serial.o
 *fill*         0x0802e228        0x8 
 .rodata.vcom_string3
                0x0802e230        0x8 build/obj/comm_usb_serial.o
 *fill*         0x0802e238        0x8 
 .rodata.vcom_strings
                0x0802e240       0x20 build/obj/comm_usb_serial.o
 .rodata.serusbcfg
                0x0802e260        0x8 build/obj/comm_usb_serial.o
                0x0802e260                serusbcfg
 *fill*         0x0802e268        0x8 
 .rodata.vcom_device_descriptor
                0x0802e270        0x8 build/obj/comm_usb_serial.o
 *fill*         0x0802e278        0x8 
 .rodata.str1.4
                0x0802e280       0x24 build/obj/comm_usb.o
 *fill*         0x0802e2a4        0xc 
 .rodata.crc16_tab
                0x0802e2b0      0x200 build/obj/crc.o
                0x0802e2b0                crc16_tab
 .rodata.str1.4
                0x0802e4b0       0x18 build/obj/mcpwm.o
 *fill*         0x0802e4c8        0x8 
 .rodata.str1.4
                0x0802e4d0      0xf52 build/obj/terminal.o
                                0xf6a (size before relaxing)
 *fill*         0x0802f422        0xe 
 .rodata.states.11184
                0x0802f430       0x40 build/obj/terminal.o
 .rodata.str1.4
                0x0802f470        0x7 build/obj/commands.o
 *fill*         0x0802f477        0x9 
 .rodata.str1.4
                0x0802f480        0x8 build/obj/timeout.o
 *fill*         0x0802f488        0x8 
 .rodata.cancfg
                0x0802f490        0x8 build/obj/comm_can.o
 *fill*         0x0802f498        0x8 
 .rodata.str1.4
                0x0802f4a0       0x1f build/obj/comm_can.o
 *fill*         0x0802f4bf        0x1 
 .rodata.flash_sector
                0x0802f4c0       0x18 build/obj/flash_helper.o
 *fill*         0x0802f4d8        0x8 
 .rodata.flash_addr
                0x0802f4e0       0x30 build/obj/flash_helper.o
 .rodata.CSWTCH.124
                0x0802f510       0x1c build/obj/mc_interface.o
 *fill*         0x0802f52c        0x4 
 .rodata.str1.4
                0x0802f530       0xd7 build/obj/mc_interface.o
 *fill*         0x0802f607        0x9 
 .rodata.str1.4
                0x0802f610      0x1df build/obj/mcpwm_foc.o
                                0x1e7 (size before relaxing)
 *fill*         0x0802f7ef        0x1 
 .rodata.i2cfg  0x0802f7f0        0xc build/obj/hw_410.o
 *fill*         0x0802f7fc        0x4 
 .rodata.str1.4
                0x0802f800        0x8 build/obj/app_ppm.o
 *fill*         0x0802f808        0x8 
 .rodata.str1.4
                0x0802f810        0x8 build/obj/app_adc.o
 *fill*         0x0802f818        0x8 
 .rodata.str1.4
                0x0802f820       0x11 build/obj/app_uartcomm.o
 *fill*         0x0802f831        0xf 
 .rodata.str1.4
                0x0802f840       0x1c build/obj/app_nunchuk.o
 *fill*         0x0802f85c        0x4 
 .rodata.str1.4
                0x0802f860        0xf build/obj/nrf_driver.o
 *fill*         0x0802f86f        0x1 
 .rodata.str1.4
                0x0802f870        0x5 /usr/bin/../lib/gcc/arm-none-eabi/4.9.3/../../../../arm-none-eabi/lib/armv7e-m/fpu/libm.a(lib_a-w_sqrt.o)
 *fill*         0x0802f875        0xb 
 .rodata.str1.4
                0x0802f880        0x6 /usr/bin/../lib/gcc/arm-none-eabi/4.9.3/../../../../arm-none-eabi/lib/armv7e-m/fpu/libm.a(lib_a-wf_asin.o)
                                  0x9 (size before relaxing)
 *fill*         0x0802f886        0xa 
 .rodata.str1.4
                0x0802f890        0x6 /usr/bin/../lib/gcc/arm-none-eabi/4.9.3/../../../../arm-none-eabi/lib/armv7e-m/fpu/libm.a(lib_a-wf_fmod.o)
 *fill*         0x0802f896        0xa 
 .rodata.str1.4
                0x0802f8a0        0x5 /usr/bin/../lib/gcc/arm-none-eabi/4.9.3/../../../../arm-none-eabi/lib/armv7e-m/fpu/libm.a(lib_a-wf_log.o)
                                  0x9 (size before relaxing)
 *fill*         0x0802f8a5        0xb 
 .rodata.str1.4
                0x0802f8b0        0x5 /usr/bin/../lib/gcc/arm-none-eabi/4.9.3/../../../../arm-none-eabi/lib/armv7e-m/fpu/libm.a(lib_a-wf_pow.o)
 *fill*         0x0802f8b5        0xb 
 .rodata.str1.4
                0x0802f8c0        0x6 /usr/bin/../lib/gcc/arm-none-eabi/4.9.3/../../../../arm-none-eabi/lib/armv7e-m/fpu/libm.a(lib_a-wf_sqrt.o)
 *fill*         0x0802f8c6        0xa 
 .rodata.Zero   0x0802f8d0        0x8 /usr/bin/../lib/gcc/arm-none-eabi/4.9.3/../../../../arm-none-eabi/lib/armv7e-m/fpu/libm.a(lib_a-ef_fmod.o)
 *fill*         0x0802f8d8        0x8 
 .rodata.dp_h   0x0802f8e0        0x8 /usr/bin/../lib/gcc/arm-none-eabi/4.9.3/../../../../arm-none-eabi/lib/armv7e-m/fpu/libm.a(lib_a-ef_pow.o)
 *fill*         0x0802f8e8        0x8 
 .rodata.dp_l   0x0802f8f0        0x8 /usr/bin/../lib/gcc/arm-none-eabi/4.9.3/../../../../arm-none-eabi/lib/armv7e-m/fpu/libm.a(lib_a-ef_pow.o)
 *fill*         0x0802f8f8        0x8 
 .rodata.bp     0x0802f900        0x8 /usr/bin/../lib/gcc/arm-none-eabi/4.9.3/../../../../arm-none-eabi/lib/armv7e-m/fpu/libm.a(lib_a-ef_pow.o)
 .rodata.str1.4
                0x00000000        0x1 /usr/bin/../lib/gcc/arm-none-eabi/4.9.3/../../../../arm-none-eabi/lib/armv7e-m/fpu/libm.a(lib_a-ef_pow.o)
 *fill*         0x0802f908        0x8 
 .rodata.npio2_hw
                0x0802f910       0x80 /usr/bin/../lib/gcc/arm-none-eabi/4.9.3/../../../../arm-none-eabi/lib/armv7e-m/fpu/libm.a(lib_a-ef_rem_pio2.o)
 .rodata.two_over_pi
                0x0802f990      0x318 /usr/bin/../lib/gcc/arm-none-eabi/4.9.3/../../../../arm-none-eabi/lib/armv7e-m/fpu/libm.a(lib_a-ef_rem_pio2.o)
 *fill*         0x0802fca8        0x8 
 .rodata.init_jk
                0x0802fcb0        0xc /usr/bin/../lib/gcc/arm-none-eabi/4.9.3/../../../../arm-none-eabi/lib/armv7e-m/fpu/libm.a(lib_a-kf_rem_pio2.o)
 *fill*         0x0802fcbc        0x4 
 .rodata.PIo2   0x0802fcc0       0x2c /usr/bin/../lib/gcc/arm-none-eabi/4.9.3/../../../../arm-none-eabi/lib/armv7e-m/fpu/libm.a(lib_a-kf_rem_pio2.o)
 *fill*         0x0802fcec        0x4 
 .rodata.TWO52  0x0802fcf0       0x10 /usr/bin/../lib/gcc/arm-none-eabi/4.9.3/../../../../arm-none-eabi/lib/armv7e-m/fpu/libm.a(lib_a-s_rint.o)
 .rodata.atanlo
                0x0802fd00       0x10 /usr/bin/../lib/gcc/arm-none-eabi/4.9.3/../../../../arm-none-eabi/lib/armv7e-m/fpu/libm.a(lib_a-sf_atan.o)
 .rodata.atanhi
                0x0802fd10       0x10 /usr/bin/../lib/gcc/arm-none-eabi/4.9.3/../../../../arm-none-eabi/lib/armv7e-m/fpu/libm.a(lib_a-sf_atan.o)
 .rodata.str1.4
                0x0802fd20        0x2 /usr/bin/../lib/gcc/arm-none-eabi/4.9.3/../../../../arm-none-eabi/lib/armv7e-m/fpu/libg.a(lib_a-impure.o)
 *fill*         0x0802fd22        0xe 
 .rodata.str1.4
                0x0802fd30        0x5 /usr/bin/../lib/gcc/arm-none-eabi/4.9.3/../../../../arm-none-eabi/lib/armv7e-m/fpu/libg.a(lib_a-svfscanf.o)
 *fill*         0x0802fd35        0xb 
 .rodata.basefix.6862
                0x0802fd40       0x22 /usr/bin/../lib/gcc/arm-none-eabi/4.9.3/../../../../arm-none-eabi/lib/armv7e-m/fpu/libg.a(lib_a-svfscanf.o)
 *fill*         0x0802fd62        0xe 
 .rodata._ctype_
                0x0802fd70      0x101 /usr/bin/../lib/gcc/arm-none-eabi/4.9.3/../../../../arm-none-eabi/lib/armv7e-m/fpu/libg.a(lib_a-ctype_.o)
                0x0802fd70                _ctype_
 *fill*         0x0802fe71        0xf 
 .rodata.str1.4
                0x0802fe80        0x6 /usr/bin/../lib/gcc/arm-none-eabi/4.9.3/../../../../arm-none-eabi/lib/armv7e-m/fpu/libg.a(lib_a-locale.o)
                                 0x12 (size before relaxing)
 .rodata.str1.4
                0x00000000        0x1 /usr/bin/../lib/gcc/arm-none-eabi/4.9.3/../../../../arm-none-eabi/lib/armv7e-m/fpu/libg.a(lib_a-mbrtowc.o)
 *fill*         0x0802fe86        0xa 
 .rodata.tinytens
                0x0802fe90       0x28 /usr/bin/../lib/gcc/arm-none-eabi/4.9.3/../../../../arm-none-eabi/lib/armv7e-m/fpu/libg.a(lib_a-strtod.o)
 *fill*         0x0802feb8        0x8 
 .rodata.fpinan.5307
                0x0802fec0       0x14 /usr/bin/../lib/gcc/arm-none-eabi/4.9.3/../../../../arm-none-eabi/lib/armv7e-m/fpu/libg.a(lib_a-strtod.o)
 *fill*         0x0802fed4        0xc 
 .rodata.str1.4
                0x0802fee0        0xf /usr/bin/../lib/gcc/arm-none-eabi/4.9.3/../../../../arm-none-eabi/lib/armv7e-m/fpu/libg.a(lib_a-strtod.o)
 *fill*         0x0802feef        0x1 
 .rodata.fpi.5271
                0x0802fef0       0x14 /usr/bin/../lib/gcc/arm-none-eabi/4.9.3/../../../../arm-none-eabi/lib/armv7e-m/fpu/libg.a(lib_a-strtod.o)
 *fill*         0x0802ff04        0xc 
 .rodata.zeroes.6911
                0x0802ff10       0x10 /usr/bin/../lib/gcc/arm-none-eabi/4.9.3/../../../../arm-none-eabi/lib/armv7e-m/fpu/libg.a(lib_a-svfprintf.o)
 .rodata.blanks.6910
                0x0802ff20       0x10 /usr/bin/../lib/gcc/arm-none-eabi/4.9.3/../../../../arm-none-eabi/lib/armv7e-m/fpu/libg.a(lib_a-svfprintf.o)
 .rodata.str1.4
                0x0802ff30       0x42 /usr/bin/../lib/gcc/arm-none-eabi/4.9.3/../../../../arm-none-eabi/lib/armv7e-m/fpu/libg.a(lib_a-svfprintf.o)
 *fill*         0x0802ff72        0xe 
 .rodata.str1.4
                0x0802ff80       0x10 /usr/bin/../lib/gcc/arm-none-eabi/4.9.3/../../../../arm-none-eabi/lib/armv7e-m/fpu/libg.a(lib_a-dtoa.o)
                                 0x12 (size before relaxing)
 .rodata.__hexdig
                0x0802ff90      0x100 /usr/bin/../lib/gcc/arm-none-eabi/4.9.3/../../../../arm-none-eabi/lib/armv7e-m/fpu/libg.a(lib_a-gdtoa-gethex.o)
                0x0802ff90                __hexdig
 .rodata.__mprec_tens
                0x08030090       0xc8 /usr/bin/../lib/gcc/arm-none-eabi/4.9.3/../../../../arm-none-eabi/lib/armv7e-m/fpu/libg.a(lib_a-mprec.o)
                0x08030090                __mprec_tens
 *fill*         0x08030158        0x8 
 .rodata.p05.5302
                0x08030160        0xc /usr/bin/../lib/gcc/arm-none-eabi/4.9.3/../../../../arm-none-eabi/lib/armv7e-m/fpu/libg.a(lib_a-mprec.o)
 *fill*         0x0803016c        0x4 
 .rodata.__mprec_bigtens
                0x08030170       0x28 /usr/bin/../lib/gcc/arm-none-eabi/4.9.3/../../../../arm-none-eabi/lib/armv7e-m/fpu/libg.a(lib_a-mprec.o)
                0x08030170                __mprec_bigtens
 *(.glue_7t)
 .glue_7t       0x00000000        0x0 linker stubs
 *(.glue_7)
 .glue_7        0x00000000        0x0 linker stubs
 *(.gcc*)

.vfp11_veneer   0x08030198        0x0
 .vfp11_veneer  0x00000000        0x0 linker stubs

.v4_bx          0x08030198        0x0
 .v4_bx         0x00000000        0x0 linker stubs

.iplt           0x08030198        0x0
 .iplt          0x00000000        0x0 build/obj/crt0_v7m.o

.ARM.extab
 *(.ARM.extab* .gnu.linkonce.armextab.*)

.ARM.exidx      0x08030198        0x8
                0x08030198                PROVIDE (__exidx_start, .)
 *(.ARM.exidx* .gnu.linkonce.armexidx.*)
 .ARM.exidx     0x08030198        0x8 /usr/bin/../lib/gcc/arm-none-eabi/4.9.3/armv7e-m/fpu/libgcc.a(_divdi3.o)
 .ARM.exidx     0x080301a0        0x0 /usr/bin/../lib/gcc/arm-none-eabi/4.9.3/armv7e-m/fpu/libgcc.a(_udivdi3.o)
                                  0x8 (size before relaxing)
                0x080301a0                PROVIDE (__exidx_end, .)

.rel.dyn        0x080301a0        0x0
 .rel.iplt      0x00000000        0x0 build/obj/crt0_v7m.o

.eh_frame_hdr
 *(.eh_frame_hdr)

.eh_frame
 *(.eh_frame)

.textalign      0x080301a0        0x0
                0x080301a0                . = ALIGN (0x8)
                0x080301a0                . = ALIGN (0x4)
                0x080301a0                _etext = .
                0x080301a0                _textdata = _etext

.mstack         0x20000000      0x400
                0x20000000                . = ALIGN (0x8)
                0x20000000                __main_stack_base__ = .
                0x20000400                . = (. + __main_stack_size__)
 *fill*         0x20000000      0x400 
                0x20000400                . = ALIGN (0x8)
                0x20000400                __main_stack_end__ = .

.pstack         0x20000400      0x400
                0x20000400                __process_stack_base__ = .
                0x20000400                __main_thread_stack_base__ = .
                0x20000800                . = (. + __process_stack_size__)
 *fill*         0x20000400      0x400 
                0x20000800                . = ALIGN (0x8)
                0x20000800                __process_stack_end__ = .
                0x20000800                __main_thread_stack_end__ = .

.data           0x20000800      0x910 load address 0x080301a0
                0x20000800                . = ALIGN (0x4)
                0x20000800                PROVIDE (_data, .)
 *(.data)
 *(.data.*)
 .data.linecoding
                0x20000800        0x7 build/obj/serial_usb.o
 *fill*         0x20000807        0x1 
 .data.comm_step_prev.11789
                0x20000808        0x4 build/obj/mcpwm.o
 .data.direction_before.11813
                0x2000080c        0x4 build/obj/mcpwm.o
 .data.c2.9172  0x20000810        0x4 build/obj/servo_dec.o
 .data.c1.9171  0x20000814        0x4 build/obj/servo_dec.o
 .data.pulse_end
                0x20000818        0x4 build/obj/servo_dec.o
 .data.pulse_center
                0x2000081c        0x4 build/obj/servo_dec.o
 .data.pulse_start
                0x20000820        0x4 build/obj/servo_dec.o
 .data.icucfg   0x20000824       0x1c build/obj/servo_dec.o
 .data.enc_counts
                0x20000840        0x4 build/obj/encoder.o
 .data.using_hall.11326
                0x20000844        0x1 build/obj/mcpwm_foc.o
 .data.using_encoder.11317
                0x20000845        0x1 build/obj/mcpwm_foc.o
 *fill*         0x20000846        0x2 
 .data.ang_hall_int_prev.11324
                0x20000848        0x4 build/obj/mcpwm_foc.o
 .data.uart_cfg
                0x2000084c       0x20 build/obj/app_uartcomm.o
 .data.__fdlib_version
                0x2000086c        0x1 /usr/bin/../lib/gcc/arm-none-eabi/4.9.3/../../../../arm-none-eabi/lib/armv7e-m/fpu/libm.a(lib_a-s_lib_ver.o)
                0x2000086c                __fdlib_version
 *fill*         0x2000086d        0x3 
 .data.impure_data
                0x20000870      0x428 /usr/bin/../lib/gcc/arm-none-eabi/4.9.3/../../../../arm-none-eabi/lib/armv7e-m/fpu/libg.a(lib_a-impure.o)
 .data._impure_ptr
                0x20000c98        0x4 /usr/bin/../lib/gcc/arm-none-eabi/4.9.3/../../../../arm-none-eabi/lib/armv7e-m/fpu/libg.a(lib_a-impure.o)
                0x20000c98                _impure_ptr
 .data.__ctype_ptr__
                0x20000c9c        0x4 /usr/bin/../lib/gcc/arm-none-eabi/4.9.3/../../../../arm-none-eabi/lib/armv7e-m/fpu/libg.a(lib_a-ctype_.o)
                0x20000c9c                __ctype_ptr__
 .data.lconv    0x20000ca0       0x38 /usr/bin/../lib/gcc/arm-none-eabi/4.9.3/../../../../arm-none-eabi/lib/armv7e-m/fpu/libg.a(lib_a-locale.o)
 .data.lc_ctype_charset
                0x20000cd8       0x20 /usr/bin/../lib/gcc/arm-none-eabi/4.9.3/../../../../arm-none-eabi/lib/armv7e-m/fpu/libg.a(lib_a-locale.o)
 .data.__mb_cur_max
                0x20000cf8        0x4 /usr/bin/../lib/gcc/arm-none-eabi/4.9.3/../../../../arm-none-eabi/lib/armv7e-m/fpu/libg.a(lib_a-locale.o)
                0x20000cf8                __mb_cur_max
 .data.__mbtowc
                0x20000cfc        0x4 /usr/bin/../lib/gcc/arm-none-eabi/4.9.3/../../../../arm-none-eabi/lib/armv7e-m/fpu/libg.a(lib_a-mbtowc_r.o)
                0x20000cfc                __mbtowc
 .data.__malloc_av_
                0x20000d00      0x408 /usr/bin/../lib/gcc/arm-none-eabi/4.9.3/../../../../arm-none-eabi/lib/armv7e-m/fpu/libg.a(lib_a-mallocr.o)
                0x20000d00                __malloc_av_
 .data.__malloc_trim_threshold
                0x20001108        0x4 /usr/bin/../lib/gcc/arm-none-eabi/4.9.3/../../../../arm-none-eabi/lib/armv7e-m/fpu/libg.a(lib_a-mallocr.o)
                0x20001108                __malloc_trim_threshold
 .data.__malloc_sbrk_base
                0x2000110c        0x4 /usr/bin/../lib/gcc/arm-none-eabi/4.9.3/../../../../arm-none-eabi/lib/armv7e-m/fpu/libg.a(lib_a-mallocr.o)
                0x2000110c                __malloc_sbrk_base
 *(.ramtext)
                0x20001110                . = ALIGN (0x4)
                0x20001110                PROVIDE (_edata, .)

.igot.plt       0x20001110        0x0 load address 0x08030ab0
 .igot.plt      0x00000000        0x0 build/obj/crt0_v7m.o

.bss            0x20001110    0x18494 load address 0x08030ab0
                0x20001110                . = ALIGN (0x4)
                0x20001110                PROVIDE (_bss_start, .)
 *(.bss)
 *(.bss.*)
 .bss.ch        0x20001110      0x258 build/obj/chschd.o
                0x20001110                ch
 .bss.endmem    0x20001368        0x4 build/obj/chmemcore.o
 .bss.nextmem   0x2000136c        0x4 build/obj/chmemcore.o
 .bss.default_heap
                0x20001370       0x20 build/obj/chheap.o
 .bss.dma_isr_redir
                0x20001390       0x80 build/obj/stm32_dma.o
 .bss.dma_streams_mask
                0x20001410        0x4 build/obj/stm32_dma.o
 .bss.CAND1     0x20001414       0x30 build/obj/can_lld.o
                0x20001414                CAND1
 .bss.I2CD2     0x20001444       0x38 build/obj/i2c_lld.o
                0x20001444                I2CD2
 *fill*         0x2000147c        0x4 
 .bss.USBD1     0x20001480      0x280 build/obj/usb_lld.o
                0x20001480                USBD1
 .bss.ep0_state
                0x20001700       0x14 build/obj/usb_lld.o
 .bss.ep0setup_buffer
                0x20001714        0x8 build/obj/usb_lld.o
 .bss.dummytx   0x2000171c        0x2 build/obj/spi_lld.o
 *fill*         0x2000171e        0x2 
 .bss.SPID1     0x20001720       0x30 build/obj/spi_lld.o
                0x20001720                SPID1
 .bss.ICUD3     0x20001750       0x18 build/obj/icu_lld.o
                0x20001750                ICUD3
 .bss.UARTD3    0x20001768       0x1c build/obj/uart_lld.o
                0x20001768                UARTD3
 .bss.UARTD6    0x20001784       0x1c build/obj/uart_lld.o
                0x20001784                UARTD6
 .bss.timer_thread_wa
                0x200017a0      0x218 build/obj/main.o
 .bss.periodic_thread_wa
                0x200019b8      0x598 build/obj/main.o
 .bss.ep2instate
                0x20001f50       0x14 build/obj/comm_usb_serial.o
 .bss.SDU1      0x20001f64      0x258 build/obj/comm_usb_serial.o
                0x20001f64                SDU1
 .bss.ep1instate
                0x200021bc       0x14 build/obj/comm_usb_serial.o
 .bss.ep1outstate
                0x200021d0       0x14 build/obj/comm_usb_serial.o
 .bss.serial_rx_write_pos
                0x200021e4        0x4 build/obj/comm_usb.o
 .bss.send_mutex
                0x200021e8       0x10 build/obj/comm_usb.o
 .bss.serial_process_thread_wa
                0x200021f8     0x1198 build/obj/comm_usb.o
 .bss.serial_rx_buffer
                0x20003390      0x800 build/obj/comm_usb.o
 .bss.serial_read_thread_wa
                0x20003b90      0x398 build/obj/comm_usb.o
 .bss.serial_rx_read_pos
                0x20003f28        0x4 build/obj/comm_usb.o
 .bss.process_tp
                0x20003f2c        0x4 build/obj/comm_usb.o
 .bss.led_values
                0x20003f30        0x8 build/obj/ledpwm.o
 .bss.cnt.9958  0x20003f38        0x4 build/obj/ledpwm.o
 .bss.gamma_table
                0x20003f3c       0xc9 build/obj/ledpwm.o
 *fill*         0x20004005        0x3 
 .bss.cycles_running
                0x20004008        0x4 build/obj/mcpwm.o
 .bss.i_term.11720
                0x2000400c        0x4 build/obj/mcpwm.o
 .bss.last_current_sample_filtered
                0x20004010        0x4 build/obj/mcpwm.o
 .bss.amp_fir_index
                0x20004014        0x4 build/obj/mcpwm.o
 .bss.detect_step
                0x20004018        0x4 build/obj/mcpwm.o
 .bss.switching_frequency_now
                0x2000401c        0x4 build/obj/mcpwm.o
 .bss.mcpwm_detect_currents
                0x20004020       0x18 build/obj/mcpwm.o
                0x20004020                mcpwm_detect_currents
 .bss.curr1_sum
                0x20004038        0x4 build/obj/mcpwm.o
 .bss.last_pwm_cycles_sums
                0x2000403c       0x18 build/obj/mcpwm.o
 .bss.mcpwm_detect_avg_samples
                0x20004054       0x18 build/obj/mcpwm.o
 .bss.hall_to_phase_table
                0x2000406c       0x40 build/obj/mcpwm.o
 .bss.last_current_sample
                0x200040ac        0x4 build/obj/mcpwm.o
 .bss.curr1_offset
                0x200040b0        0x4 build/obj/mcpwm.o
 .bss.amp_fir_samples
                0x200040b4      0x200 build/obj/mcpwm.o
 .bss.sensorless_now
                0x200042b4        0x1 build/obj/mcpwm.o
 *fill*         0x200042b5        0x3 
 .bss.last_pwm_cycles_sum
                0x200042b8        0x4 build/obj/mcpwm.o
 .bss.dccal_done
                0x200042bc        0x1 build/obj/mcpwm.o
 *fill*         0x200042bd        0x3 
 .bss.curr_start_samples
                0x200042c0        0x4 build/obj/mcpwm.o
 .bss.conf      0x200042c4        0x4 build/obj/mcpwm.o
 .bss.rpm_dep   0x200042c8       0x1c build/obj/mcpwm.o
 .bss.curr0_offset
                0x200042e4        0x4 build/obj/mcpwm.o
 .bss.timer_struct
                0x200042e8       0x18 build/obj/mcpwm.o
 .bss.max_pid_watt
                0x20004300        0x4 build/obj/mcpwm.o
 .bss.limit_delay.11844
                0x20004304        0x4 build/obj/mcpwm.o
 .bss.mcpwm_vzero
                0x20004308        0x4 build/obj/mcpwm.o
                0x20004308                mcpwm_vzero
 .bss.state     0x2000430c        0x1 build/obj/mcpwm.o
 *fill*         0x2000430d        0x3 
 .bss.detect_now.11768
                0x20004310        0x4 build/obj/mcpwm.o
 .bss.dutycycle_set
                0x20004314        0x4 build/obj/mcpwm.o
 .bss.tachometer_for_direction
                0x20004318        0x4 build/obj/mcpwm.o
 .bss.mcpwm_detect_voltages
                0x2000431c       0x18 build/obj/mcpwm.o
                0x2000431c                mcpwm_detect_voltages
 .bss.current_set
                0x20004334        0x4 build/obj/mcpwm.o
 .bss.kv_fir_index
                0x20004338        0x4 build/obj/mcpwm.o
 .bss.kv_fir_samples
                0x2000433c      0x200 build/obj/mcpwm.o
 .bss.cycle_sum.11828
                0x2000453c        0x4 build/obj/mcpwm.o
 .bss.tachometer
                0x20004540        0x4 build/obj/mcpwm.o
 .bss.cycle_integrator_sum
                0x20004544        0x4 build/obj/mcpwm.o
 .bss.tachometer_abs
                0x20004548        0x4 build/obj/mcpwm.o
 .bss.last_adc_isr_duration
                0x2000454c        0x4 build/obj/mcpwm.o
 .bss.mcpwm_detect_currents_diff
                0x20004550       0x18 build/obj/mcpwm.o
                0x20004550                mcpwm_detect_currents_diff
 .bss.current_fir_index
                0x20004568        0x4 build/obj/mcpwm.o
 .bss.comm_step
                0x2000456c        0x4 build/obj/mcpwm.o
 .bss.mcpwm_detect_currents_avg
                0x20004570       0x18 build/obj/mcpwm.o
 .bss.pwm_cycles_sum
                0x20004588        0x4 build/obj/mcpwm.o
 .bss.cnt_tmp.11756
                0x2000458c        0x4 build/obj/mcpwm.o
 .bss.last_inj_adc_isr_duration
                0x20004590        0x4 build/obj/mcpwm.o
 .bss.slow_ramping_cycles
                0x20004594        0x4 build/obj/mcpwm.o
 .bss.curr_samp_volt
                0x20004598        0x4 build/obj/mcpwm.o
 .bss.hall_detect_table
                0x2000459c       0xe0 build/obj/mcpwm.o
 .bss.last_step.11956
                0x2000467c        0x4 build/obj/mcpwm.o
 .bss.cycle_integrator_iterations
                0x20004680        0x4 build/obj/mcpwm.o
 .bss.pwm_cycles
                0x20004684        0x4 build/obj/mcpwm.o
 .bss.rpm_thd_stop
                0x20004688        0x1 build/obj/mcpwm.o
 *fill*         0x20004689        0x3 
 .bss.rpm_p1.11743
                0x2000468c        0x4 build/obj/mcpwm.o
 .bss.i_term.11731
                0x20004690        0x4 build/obj/mcpwm.o
 *fill*         0x20004694        0x4 
 .bss.rpm_thread_wa
                0x20004698      0x598 build/obj/mcpwm.o
 .bss.cycle_integrator.11815
                0x20004c30        0x4 build/obj/mcpwm.o
 .bss.ignore_iterations
                0x20004c34        0x4 build/obj/mcpwm.o
 .bss.amp_fir_coeffs
                0x20004c38      0x200 build/obj/mcpwm.o
 .bss.direction
                0x20004e38        0x4 build/obj/mcpwm.o
 .bss.kv_fir_coeffs
                0x20004e3c      0x200 build/obj/mcpwm.o
 .bss.has_commutated
                0x2000503c        0x4 build/obj/mcpwm.o
 .bss.curr0_sum
                0x20005040        0x4 build/obj/mcpwm.o
 .bss.current_fir_samples
                0x20005044       0x40 build/obj/mcpwm.o
 .bss.timer_thd_stop
                0x20005084        0x1 build/obj/mcpwm.o
 .bss.control_mode
                0x20005085        0x1 build/obj/mcpwm.o
 *fill*         0x20005086        0x2 
 .bss.pos_pid_set_pos
                0x20005088        0x4 build/obj/mcpwm.o
 .bss.speed_pid_set_rpm
                0x2000508c        0x4 build/obj/mcpwm.o
 .bss.prev_error.11721
                0x20005090        0x4 build/obj/mcpwm.o
 .bss.prev_tot_sample.11790
                0x20005094        0x4 build/obj/mcpwm.o
 .bss.dutycycle_now
                0x20005098        0x4 build/obj/mcpwm.o
 *fill*         0x2000509c        0x4 
 .bss.timer_thread_wa
                0x200050a0      0x998 build/obj/mcpwm.o
 .bss.rpm_now   0x20005a38        0x4 build/obj/mcpwm.o
 .bss.current_fir_coeffs
                0x20005a3c       0x40 build/obj/mcpwm.o
 .bss.prev_error.11732
                0x20005a7c        0x4 build/obj/mcpwm.o
 .bss.servo_pos
                0x20005a80        0x4 build/obj/servo_dec.o
 .bss.last_update_time
                0x20005a84        0x4 build/obj/servo_dec.o
 .bss.last_len_received
                0x20005a88        0x4 build/obj/servo_dec.o
 .bss.use_median_filter
                0x20005a8c        0x1 build/obj/servo_dec.o
 *fill*         0x20005a8d        0x3 
 .bss.done_func
                0x20005a90        0x4 build/obj/servo_dec.o
 .bss.sys_lock_cnt
                0x20005a94        0x4 build/obj/utils.o
 .bss.handler_states
                0x20005a98     0x1040 build/obj/packet.o
 .bss.mcconf_old.11180
                0x20006ad8      0x138 build/obj/terminal.o
 .bss.mcconf.11179
                0x20006c10      0x138 build/obj/terminal.o
 .bss.fault_vec_write
                0x20006d48        0x4 build/obj/terminal.o
 .bss.fault_vec
                0x20006d4c      0x514 build/obj/terminal.o
 .bss.mcconf    0x20007260      0x138 build/obj/conf_general.o
                0x20007260                mcconf
 .bss.mcconf_old
                0x20007398      0x138 build/obj/conf_general.o
                0x20007398                mcconf_old
 .bss.VirtAddVarTab
                0x200074d0      0x140 build/obj/conf_general.o
                0x200074d0                VirtAddVarTab
 .bss.DataVar   0x20007610        0x2 build/obj/eeprom.o
                0x20007610                DataVar
 *fill*         0x20007612        0x2 
 .bss.send_func
                0x20007614        0x4 build/obj/commands.o
 .bss.detect_min_rpm
                0x20007618        0x4 build/obj/commands.o
 .bss.appdata_func
                0x2000761c        0x4 build/obj/commands.o
 .bss.detect_hall_table
                0x20007620        0x8 build/obj/commands.o
 .bss.remote_Mode
                0x20007628        0x1 build/obj/commands.o
 *fill*         0x20007629        0x3 
 .bss.mcconf.11352
                0x2000762c      0x138 build/obj/commands.o
 .bss.mcconf_old.11353
                0x20007764      0x138 build/obj/commands.o
 .bss.detect_hall_res
                0x2000789c        0x4 build/obj/commands.o
 .bss.detect_thread_wa
                0x200078a0      0x998 build/obj/commands.o
 .bss.send_buffer
                0x20008238      0x400 build/obj/commands.o
 .bss.detect_tp
                0x20008638        0x4 build/obj/commands.o
 .bss.detect_low_duty
                0x2000863c        0x4 build/obj/commands.o
 .bss.print_buffer.11457
                0x20008640       0xff build/obj/commands.o
 *fill*         0x2000873f        0x1 
 .bss.detect_current
                0x20008740        0x4 build/obj/commands.o
 .bss.detect_coupling_k
                0x20008744        0x4 build/obj/commands.o
 .bss.detect_cycle_int_limit
                0x20008748        0x4 build/obj/commands.o
 .bss.display_position_mode
                0x2000874c        0x1 build/obj/commands.o
 *fill*         0x2000874d        0x3 
 .bss.timeout_thread_wa
                0x20008750      0x398 build/obj/timeout.o
 .bss.last_update_time
                0x20008ae8        0x4 build/obj/timeout.o
 .bss.timeout_brake_current
                0x20008aec        0x4 build/obj/timeout.o
 .bss.has_timeout
                0x20008af0        0x1 build/obj/timeout.o
 *fill*         0x20008af1        0x3 
 .bss.timeout_msec
                0x20008af4        0x4 build/obj/timeout.o
 .bss.cancom_process_thread_wa
                0x20008af8     0x1198 build/obj/comm_can.o
 .bss.rx_frame_read
                0x20009c90        0x4 build/obj/comm_can.o
 .bss.rx_buffer
                0x20009c94      0x400 build/obj/comm_can.o
 *fill*         0x2000a094        0x4 
 .bss.cancom_status_thread_wa
                0x2000a098      0x598 build/obj/comm_can.o
 .bss.stat_msgs
                0x2000a630       0x48 build/obj/comm_can.o
 .bss.rx_frames
                0x2000a678      0x7d0 build/obj/comm_can.o
 .bss.can_mtx   0x2000ae48       0x10 build/obj/comm_can.o
 .bss.cancom_read_thread_wa
                0x2000ae58      0x398 build/obj/comm_can.o
 .bss.process_tp
                0x2000b1f0        0x4 build/obj/comm_can.o
 .bss.rx_buffer_last_id
                0x2000b1f4        0x4 build/obj/comm_can.o
 .bss.rx_frame_write
                0x2000b1f8        0x4 build/obj/comm_can.o
 .bss.reverse_leds
                0x2000b1fc        0x1 build/obj/led_external.o
 .bss.state     0x2000b1fd        0x1 build/obj/led_external.o
 *fill*         0x2000b1fe        0x2 
 .bss.angle.9216
                0x2000b200        0x4 build/obj/encoder.o
 .bss.index_found
                0x2000b204        0x1 build/obj/encoder.o
 .bss.mode      0x2000b205        0x1 build/obj/encoder.o
 *fill*         0x2000b206        0x2 
 .bss.last_enc_angle
                0x2000b208        0x4 build/obj/encoder.o
 .bss.m_sample_int
                0x2000b20c        0x4 build/obj/mc_interface.o
 .bss.m_amp_seconds
                0x2000b210        0x4 build/obj/mc_interface.o
 *fill*         0x2000b214        0x4 
 .bss.timer_thread_wa
                0x2000b218      0x598 build/obj/mc_interface.o
 .bss.ADC_Value
                0x2000b7b0       0x18 build/obj/mc_interface.o
                0x2000b7b0                ADC_Value
 .bss.wrong_voltage_iterations.10556
                0x2000b7c8        0x4 build/obj/mc_interface.o
 .bss.m_cycles_running
                0x2000b7cc        0x4 build/obj/mc_interface.o
 .bss.m_input_current_iterations
                0x2000b7d0        0x4 build/obj/mc_interface.o
 .bss.m_curr0_samples
                0x2000b7d4      0xfa0 build/obj/mc_interface.o
 .bss.m_lock_override_once
                0x2000c774        0x1 build/obj/mc_interface.o
 .bss.m_lock_enabled
                0x2000c775        0x1 build/obj/mc_interface.o
 *fill*         0x2000c776        0x2 
 .bss.m_input_current_sum
                0x2000c778        0x4 build/obj/mc_interface.o
 .bss.m_amp_seconds_charged
                0x2000c77c        0x4 build/obj/mc_interface.o
 .bss.m_motor_current_iterations
                0x2000c780        0x4 build/obj/mc_interface.o
 .bss.m_last_adc_duration_sample
                0x2000c784        0x4 build/obj/mc_interface.o
 .bss.pwn_done_func
                0x2000c788        0x4 build/obj/mc_interface.o
 .bss.m_conf    0x2000c78c      0x138 build/obj/mc_interface.o
 .bss.m_sample_now
                0x2000c8c4        0x4 build/obj/mc_interface.o
 .bss.m_curr1_samples
                0x2000c8c8      0xfa0 build/obj/mc_interface.o
 .bss.is_cruise_control_active
                0x2000d868        0x4 build/obj/mc_interface.o
 .bss.max_watt  0x2000d86c        0x4 build/obj/mc_interface.o
 .bss.m_watt_seconds_charged
                0x2000d870        0x4 build/obj/mc_interface.o
 .bss.m_watt_seconds
                0x2000d874        0x4 build/obj/mc_interface.o
 .bss.ADC_curr_norm_value
                0x2000d878        0xc build/obj/mc_interface.o
                0x2000d878                ADC_curr_norm_value
 .bss.m_fault_now
                0x2000d884        0x1 build/obj/mc_interface.o
 *fill*         0x2000d885        0x3 
 .bss.m_sample_ready
                0x2000d888        0x4 build/obj/mc_interface.o
 .bss.m_sample_len
                0x2000d88c        0x4 build/obj/mc_interface.o
 .bss.m_motor_current_sum
                0x2000d890        0x4 build/obj/mc_interface.o
 .bss.m_start_comm
                0x2000d894        0x4 build/obj/mc_interface.o
 .bss.m_conf_original
                0x2000d898      0x138 build/obj/mc_interface.o
 .bss.curr_diff_samples.10563
                0x2000d9d0        0x4 build/obj/mc_interface.o
 .bss.curr_diff_sum.10562
                0x2000d9d4        0x4 build/obj/mc_interface.o
 .bss.m_ph2_samples
                0x2000d9d8      0xfa0 build/obj/mc_interface.o
 .bss.m_vzero_samples
                0x2000e978      0xfa0 build/obj/mc_interface.o
 .bss.sample_send_thread_wa
                0x2000f918      0x598 build/obj/mc_interface.o
 .bss.m_sample_at_start
                0x2000feb0        0x4 build/obj/mc_interface.o
 .bss.m_position_set
                0x2000feb4        0x4 build/obj/mc_interface.o
 .bss.m_ph3_samples
                0x2000feb8      0xfa0 build/obj/mc_interface.o
 .bss.sample_send_tp
                0x20010e58        0x4 build/obj/mc_interface.o
 .bss.a.10564   0x20010e5c        0x4 build/obj/mc_interface.o
 .bss.m_ph1_samples
                0x20010e60      0xfa0 build/obj/mc_interface.o
 .bss.m_ignore_iterations
                0x20011e00        0x4 build/obj/mc_interface.o
 .bss.m_curr_fir_samples
                0x20011e04      0xfa0 build/obj/mc_interface.o
 .bss.m_f_sw_samples
                0x20012da4      0xfa0 build/obj/mc_interface.o
 .bss.m_status_samples
                0x20013d44      0x7d0 build/obj/mc_interface.o
 .bss.angle_last.11170
                0x20014514        0x4 build/obj/mcpwm_foc.o
 .bss.i_term.11294
                0x20014518        0x4 build/obj/mcpwm_foc.o
 .bss.m_dccal_done
                0x2001451c        0x1 build/obj/mcpwm_foc.o
 *fill*         0x2001451d        0x3 
 .bss.m_curr1_offset
                0x20014520        0x4 build/obj/mcpwm_foc.o
 .bss.m_control_mode
                0x20014524        0x1 build/obj/mcpwm_foc.o
 *fill*         0x20014525        0x3 
 .bss.i_term.11284
                0x20014528        0x4 build/obj/mcpwm_foc.o
 .bss.m_curr0_sum
                0x2001452c        0x4 build/obj/mcpwm_foc.o
 .bss.m_samples
                0x20014530       0x14 build/obj/mcpwm_foc.o
 .bss.m_tachometer_abs
                0x20014544        0x4 build/obj/mcpwm_foc.o
 .bss.m_state   0x20014548        0x1 build/obj/mcpwm_foc.o
 *fill*         0x20014549        0x3 
 .bss.m_id_set  0x2001454c        0x4 build/obj/mcpwm_foc.o
 .bss.max_pid_watt
                0x20014550        0x4 build/obj/mcpwm_foc.o
 .bss.m_conf    0x20014554        0x4 build/obj/mcpwm_foc.o
 .bss.m_tachometer
                0x20014558        0x4 build/obj/mcpwm_foc.o
 .bss.m_phase_now_observer
                0x2001455c        0x4 build/obj/mcpwm_foc.o
 .bss.m_pos_pid_set
                0x20014560        0x4 build/obj/mcpwm_foc.o
 .bss.m_curr1_sum
                0x20014564        0x4 build/obj/mcpwm_foc.o
 .bss.m_iq_set  0x20014568        0x4 build/obj/mcpwm_foc.o
 .bss.m_observer_x1
                0x2001456c        0x4 build/obj/mcpwm_foc.o
 .bss.m_observer_x2
                0x20014570        0x4 build/obj/mcpwm_foc.o
 .bss.prev_error.11295
                0x20014574        0x4 build/obj/mcpwm_foc.o
 .bss.phase_last.11167
                0x20014578        0x4 build/obj/mcpwm_foc.o
 .bss.min_rpm_timer.11179
                0x2001457c        0x4 build/obj/mcpwm_foc.o
 .bss.m_phase_now_encoder_no_index
                0x20014580        0x4 build/obj/mcpwm_foc.o
 .bss.m_curr0_offset
                0x20014584        0x4 build/obj/mcpwm_foc.o
 .bss.min_rpm_hyst_timer.11178
                0x20014588        0x4 build/obj/mcpwm_foc.o
 .bss.last_inj_adc_isr_duration
                0x2001458c        0x4 build/obj/mcpwm_foc.o
 .bss.m_speed_pid_set_rpm
                0x20014590        0x4 build/obj/mcpwm_foc.o
 .bss.m_output_on
                0x20014594        0x1 build/obj/mcpwm_foc.o
 *fill*         0x20014595        0x3 
 .bss.m_pll_phase
                0x20014598        0x4 build/obj/mcpwm_foc.o
 .bss.m_phase_override
                0x2001459c        0x1 build/obj/mcpwm_foc.o
 *fill*         0x2001459d        0x3 
 .bss.m_motor_state
                0x200145a0       0x54 build/obj/mcpwm_foc.o
 .bss.m_phase_now_override
                0x200145f4        0x4 build/obj/mcpwm_foc.o
 .bss.m_phase_now_observer_override
                0x200145f8        0x4 build/obj/mcpwm_foc.o
 .bss.dt_int.11289
                0x200145fc        0x4 build/obj/mcpwm_foc.o
 .bss.m_phase_now_encoder
                0x20014600        0x4 build/obj/mcpwm_foc.o
 .bss.m_duty_cycle_set
                0x20014604        0x4 build/obj/mcpwm_foc.o
 .bss.m_curr_samples
                0x20014608        0x4 build/obj/mcpwm_foc.o
 .bss.m_phase_observer_override
                0x2001460c        0x1 build/obj/mcpwm_foc.o
 *fill*         0x2001460d        0x3 
 .bss.inductance_state.11135
                0x20014610        0x4 build/obj/mcpwm_foc.o
 .bss.phase_before.11140
                0x20014614        0x4 build/obj/mcpwm_foc.o
 .bss.m_pll_speed
                0x20014618        0x4 build/obj/mcpwm_foc.o
 .bss.timer_thd_stop
                0x2001461c        0x1 build/obj/mcpwm_foc.o
 *fill*         0x2001461d        0x3 
 .bss.duty_filtered.11145
                0x20014620        0x4 build/obj/mcpwm_foc.o
 .bss.prev_error.11285
                0x20014624        0x4 build/obj/mcpwm_foc.o
 .bss.m_pos_pid_now
                0x20014628        0x4 build/obj/mcpwm_foc.o
 *fill*         0x2001462c        0x4 
 .bss.timer_thread_wa
                0x20014630      0x998 build/obj/mcpwm_foc.o
 .bss.duty_i_term.11148
                0x20014fc8        0x4 build/obj/mcpwm_foc.o
 .bss.ang_hall.11329
                0x20014fcc        0x4 build/obj/mcpwm_foc.o
 .bss.i2c_running
                0x20014fd0        0x1 build/obj/hw_410.o
 *fill*         0x20014fd1        0x3 
 .bss.appconf   0x20014fd4      0x100 build/obj/app.o
 .bss.is_running
                0x200150d4        0x1 build/obj/app_ppm.o
 *fill*         0x200150d5        0x3 
 .bss.throt_config
                0x200150d8       0x3c build/obj/app_ppm.o
 .bss.mode_switch_pulses
                0x20015114        0x4 build/obj/app_ppm.o
 .bss.nx        0x20015118       0x14 build/obj/app_ppm.o
 .bss.ppm_tp    0x2001512c        0x4 build/obj/app_ppm.o
 .bss.pid_rpm   0x20015130        0x4 build/obj/app_ppm.o
 .bss.pulses_without_power_before.10133
                0x20015134        0x4 build/obj/app_ppm.o
 .bss.filter_buffer
                0x20015138       0x20 build/obj/app_ppm.o
 .bss.pulses_without_power
                0x20015158        0x4 build/obj/app_ppm.o
 .bss.ny        0x2001515c       0x14 build/obj/app_ppm.o
 .bss.has_enough_pid_filter_data
                0x20015170        0x1 build/obj/app_ppm.o
 *fill*         0x20015171        0x3 
 .bss.vt        0x20015174       0x14 build/obj/app_ppm.o
                0x20015174                vt
 .bss.config    0x20015188       0x3c build/obj/app_ppm.o
 *fill*         0x200151c4        0x4 
 .bss.ppm_thread_wa
                0x200151c8      0x598 build/obj/app_ppm.o
 .bss.filter_ptr
                0x20015760        0x4 build/obj/app_ppm.o
 .bss.px        0x20015764       0x14 build/obj/app_ppm.o
 .bss.py        0x20015778       0x14 build/obj/app_ppm.o
 .bss.filter_ptr2.10068
                0x2001578c        0x4 build/obj/app_adc.o
 .bss.pulses_without_power_before.10101
                0x20015790        0x4 build/obj/app_adc.o
 .bss.read_voltage2
                0x20015794        0x4 build/obj/app_adc.o
 .bss.was_pid.10107
                0x20015798        0x1 build/obj/app_adc.o
 *fill*         0x20015799        0x3 
 .bss.read_voltage
                0x2001579c        0x4 build/obj/app_adc.o
 .bss.ms_without_power
                0x200157a0        0x4 build/obj/app_adc.o
 .bss.pid_rpm.10115
                0x200157a4        0x4 build/obj/app_adc.o
 .bss.filter_buffer2.10067
                0x200157a8       0x14 build/obj/app_adc.o
 .bss.decoded_level2
                0x200157bc        0x4 build/obj/app_adc.o
 .bss.filter_ptr.10061
                0x200157c0        0x4 build/obj/app_adc.o
 .bss.config    0x200157c4       0x2c build/obj/app_adc.o
 .bss.filter_buffer.10060
                0x200157f0       0x14 build/obj/app_adc.o
 .bss.use_rx_tx_as_buttons
                0x20015804        0x1 build/obj/app_adc.o
 *fill*         0x20015805        0x3 
 .bss.filter_buffer.10108
                0x20015808       0x20 build/obj/app_adc.o
 .bss.filter_ptr.10109
                0x20015828        0x4 build/obj/app_adc.o
 .bss.decoded_level
                0x2001582c        0x4 build/obj/app_adc.o
 .bss.adc_thread_wa
                0x20015830      0x598 build/obj/app_adc.o
 .bss.serial_rx_write_pos
                0x20015dc8        0x4 build/obj/app_uartcomm.o
 .bss.is_running
                0x20015dcc        0x4 build/obj/app_uartcomm.o
 .bss.packet_process_thread_wa
                0x20015dd0     0x1198 build/obj/app_uartcomm.o
 .bss.serial_rx_buffer
                0x20016f68      0x400 build/obj/app_uartcomm.o
 .bss.serial_rx_read_pos
                0x20017368        0x4 build/obj/app_uartcomm.o
 .bss.buffer.9539
                0x2001736c      0x405 build/obj/app_uartcomm.o
 *fill*         0x20017771        0x3 
 .bss.process_tp
                0x20017774        0x4 build/obj/app_uartcomm.o
 .bss.prev_current.10298
                0x20017778        0x4 build/obj/app_nunchuk.o
 *fill*         0x2001777c        0x4 
 .bss.chuk_thread_wa
                0x20017780      0x598 build/obj/app_nunchuk.o
 .bss.throt_config
                0x20017d18       0x3c build/obj/app_nunchuk.o
 *fill*         0x20017d54        0x4 
 .bss.output_thread_wa
                0x20017d58      0x598 build/obj/app_nunchuk.o
 .bss.is_reverse.10295
                0x200182f0        0x1 build/obj/app_nunchuk.o
 *fill*         0x200182f1        0x3 
 .bss.nx        0x200182f4       0x14 build/obj/app_nunchuk.o
 .bss.filter_ptr.10304
                0x20018308        0x4 build/obj/app_nunchuk.o
 .bss.filter_buffer.10303
                0x2001830c       0x20 build/obj/app_nunchuk.o
 .bss.is_running
                0x2001832c        0x1 build/obj/app_nunchuk.o
 *fill*         0x2001832d        0x3 
 .bss.chuck_d   0x20018330       0x18 build/obj/app_nunchuk.o
 .bss.was_z.10296
                0x20018348        0x1 build/obj/app_nunchuk.o
 .bss.was_pid.10301
                0x20018349        0x1 build/obj/app_nunchuk.o
 *fill*         0x2001834a        0x2 
 .bss.ny        0x2001834c       0x14 build/obj/app_nunchuk.o
 .bss.last_buffer.10284
                0x20018360        0x6 build/obj/app_nunchuk.o
 *fill*         0x20018366        0x2 
 .bss.chuck_error
                0x20018368        0x4 build/obj/app_nunchuk.o
 .bss.config    0x2001836c       0x34 build/obj/app_nunchuk.o
 .bss.output_running
                0x200183a0        0x1 build/obj/app_nunchuk.o
 *fill*         0x200183a1        0x3 
 .bss.pid_rpm.10310
                0x200183a4        0x4 build/obj/app_nunchuk.o
 .bss.px        0x200183a8       0x14 build/obj/app_nunchuk.o
 .bss.py        0x200183bc       0x14 build/obj/app_nunchuk.o
 .bss.init_done
                0x200183d0        0x1 build/obj/spi_sw.o
 .bss.init_done
                0x200183d1        0x1 build/obj/rfhelp.o
 *fill*         0x200183d2        0x2 
 .bss.tx_addr   0x200183d4        0x5 build/obj/rfhelp.o
 *fill*         0x200183d9        0x3 
 .bss.nrf_conf  0x200183dc        0xa build/obj/rfhelp.o
 *fill*         0x200183e6        0x2 
 .bss.rx_addr_set
                0x200183e8        0x6 build/obj/rfhelp.o
 *fill*         0x200183ee        0x2 
 .bss.rf_mutex  0x200183f0       0x10 build/obj/rfhelp.o
 .bss.rx_addr   0x20018400       0x1e build/obj/rfhelp.o
 *fill*         0x2001841e        0x2 
 .bss.address_length
                0x20018420        0x4 build/obj/rfhelp.o
 .bss.tx_pipe0_addr_eq
                0x20018424        0x1 build/obj/rfhelp.o
 *fill*         0x20018425        0x3 
 .bss.nosend_cnt
                0x20018428        0x4 build/obj/nrf_driver.o
 .bss.nrf_restart_tx_time
                0x2001842c        0x4 build/obj/nrf_driver.o
 .bss.rx_thread_wa
                0x20018430      0x998 build/obj/nrf_driver.o
 .bss.nrf_restart_rx_time
                0x20018dc8        0x4 build/obj/nrf_driver.o
 .bss.rx_buffer
                0x20018dcc      0x400 build/obj/nrf_driver.o
 .bss.mstate    0x200191cc        0xc build/obj/nrf_driver.o
 .bss.tx_thread_wa
                0x200191d8      0x398 build/obj/nrf_driver.o
 .bss.__malloc_max_total_mem
                0x20019570        0x4 /usr/bin/../lib/gcc/arm-none-eabi/4.9.3/../../../../arm-none-eabi/lib/armv7e-m/fpu/libg.a(lib_a-mallocr.o)
                0x20019570                __malloc_max_total_mem
 .bss.__malloc_max_sbrked_mem
                0x20019574        0x4 /usr/bin/../lib/gcc/arm-none-eabi/4.9.3/../../../../arm-none-eabi/lib/armv7e-m/fpu/libg.a(lib_a-mallocr.o)
                0x20019574                __malloc_max_sbrked_mem
 .bss.__malloc_top_pad
                0x20019578        0x4 /usr/bin/../lib/gcc/arm-none-eabi/4.9.3/../../../../arm-none-eabi/lib/armv7e-m/fpu/libg.a(lib_a-mallocr.o)
                0x20019578                __malloc_top_pad
 .bss.__malloc_current_mallinfo
                0x2001957c       0x28 /usr/bin/../lib/gcc/arm-none-eabi/4.9.3/../../../../arm-none-eabi/lib/armv7e-m/fpu/libg.a(lib_a-mallocr.o)
                0x2001957c                __malloc_current_mallinfo
 *(COMMON)
                0x200195a4                . = ALIGN (0x4)
                0x200195a4                PROVIDE (_bss_end, .)
                0x200195a4                PROVIDE (end, .)

.ram0           0x200195a4        0x0 load address 0x08030ab0
                0x200195a4                . = ALIGN (0x4)
 *(.ram0)
 *(.ram0.*)
                0x200195a4                . = ALIGN (0x4)
                0x200195a4                __ram0_free__ = .

.ram1           0x20000000        0x0
                0x20000000                . = ALIGN (0x4)
 *(.ram1)
 *(.ram1.*)
                0x20000000                . = ALIGN (0x4)
                0x20000000                __ram1_free__ = .

.ram2           0x2001c000        0x0
                0x2001c000                . = ALIGN (0x4)
 *(.ram2)
 *(.ram2.*)
                0x2001c000                . = ALIGN (0x4)
                0x2001c000                __ram2_free__ = .

.ram3           0x00000000        0x0
                0x00000000                . = ALIGN (0x4)
 *(.ram3)
 *(.ram3.*)
                0x00000000                . = ALIGN (0x4)
                0x00000000                __ram3_free__ = .

.ram4           0x10000000        0x0
                0x10000000                . = ALIGN (0x4)
 *(.ram4)
 *(.ram4.*)
                0x10000000                . = ALIGN (0x4)
                0x10000000                __ram4_free__ = .

.ram5           0x40024000        0x0
                0x40024000                . = ALIGN (0x4)
 *(.ram5)
 *(.ram5.*)
                0x40024000                . = ALIGN (0x4)
                0x40024000                __ram5_free__ = .

.ram6           0x00000000        0x0
                0x00000000                . = ALIGN (0x4)
 *(.ram6)
 *(.ram6.*)
                0x00000000                . = ALIGN (0x4)
                0x00000000                __ram6_free__ = .

.ram7           0x00000000        0x0
                0x00000000                . = ALIGN (0x4)
 *(.ram7)
 *(.ram7.*)
                0x00000000                . = ALIGN (0x4)
                0x00000000                __ram7_free__ = .
                0x200195a4                __heap_base__ = __ram0_free__
                0x20020000                __heap_end__ = __ram0_end__
                0x00000400                __process_stack_size__ = 0x400
                0x00000400                __main_stack_size__ = 0x400
LOAD /usr/bin/../lib/gcc/arm-none-eabi/4.9.3/../../../../arm-none-eabi/lib/armv7e-m/fpu/libm.a
START GROUP
LOAD /usr/bin/../lib/gcc/arm-none-eabi/4.9.3/armv7e-m/fpu/libgcc.a
LOAD /usr/bin/../lib/gcc/arm-none-eabi/4.9.3/../../../../arm-none-eabi/lib/armv7e-m/fpu/libg.a
LOAD /usr/bin/../lib/gcc/arm-none-eabi/4.9.3/../../../../arm-none-eabi/lib/armv7e-m/fpu/libc.a
END GROUP
OUTPUT(build/BLDC_4_ChibiOS.elf elf32-littlearm)

.ARM.attributes
                0x00000000       0x35
 .ARM.attributes
                0x00000000       0x25 build/obj/crt0_v7m.o
 .ARM.attributes
                0x00000025       0x25 build/obj/chcoreasm_v7m.o
 .ARM.attributes
                0x0000004a       0x39 build/obj/crt1.o
 .ARM.attributes
                0x00000083       0x39 build/obj/vectors.o
 .ARM.attributes
                0x000000bc       0x39 build/obj/chsys.o
 .ARM.attributes
                0x000000f5       0x39 build/obj/chvt.o
 .ARM.attributes
                0x0000012e       0x39 build/obj/chschd.o
 .ARM.attributes
                0x00000167       0x39 build/obj/chthreads.o
 .ARM.attributes
                0x000001a0       0x39 build/obj/chtm.o
 .ARM.attributes
                0x000001d9       0x39 build/obj/chdynamic.o
 .ARM.attributes
                0x00000212       0x39 build/obj/chregistry.o
 .ARM.attributes
                0x0000024b       0x39 build/obj/chmtx.o
 .ARM.attributes
                0x00000284       0x39 build/obj/chevents.o
 .ARM.attributes
                0x000002bd       0x39 build/obj/chqueues.o
 .ARM.attributes
                0x000002f6       0x39 build/obj/chmemcore.o
 .ARM.attributes
                0x0000032f       0x39 build/obj/chheap.o
 .ARM.attributes
                0x00000368       0x39 build/obj/chmempools.o
 .ARM.attributes
                0x000003a1       0x39 build/obj/chcore_v7m.o
 .ARM.attributes
                0x000003da       0x39 build/obj/hal.o
 .ARM.attributes
                0x00000413       0x39 build/obj/st.o
 .ARM.attributes
                0x0000044c       0x39 build/obj/can.o
 .ARM.attributes
                0x00000485       0x39 build/obj/i2c.o
 .ARM.attributes
                0x000004be       0x39 build/obj/icu.o
 .ARM.attributes
                0x000004f7       0x39 build/obj/serial_usb.o
 .ARM.attributes
                0x00000530       0x39 build/obj/spi.o
 .ARM.attributes
                0x00000569       0x39 build/obj/uart.o
 .ARM.attributes
                0x000005a2       0x39 build/obj/usb.o
 .ARM.attributes
                0x000005db       0x39 build/obj/nvic.o
 .ARM.attributes
                0x00000614       0x39 build/obj/stm32_dma.o
 .ARM.attributes
                0x0000064d       0x39 build/obj/hal_lld.o
 .ARM.attributes
                0x00000686       0x39 build/obj/st_lld.o
 .ARM.attributes
                0x000006bf       0x39 build/obj/can_lld.o
 .ARM.attributes
                0x000006f8       0x39 build/obj/pal_lld.o
 .ARM.attributes
                0x00000731       0x39 build/obj/i2c_lld.o
 .ARM.attributes
                0x0000076a       0x39 build/obj/usb_lld.o
 .ARM.attributes
                0x000007a3       0x39 build/obj/spi_lld.o
 .ARM.attributes
                0x000007dc       0x39 build/obj/icu_lld.o
 .ARM.attributes
                0x00000815       0x39 build/obj/uart_lld.o
 .ARM.attributes
                0x0000084e       0x39 build/obj/board.o
 .ARM.attributes
                0x00000887       0x39 build/obj/syscalls.o
 .ARM.attributes
                0x000008c0       0x39 build/obj/main.o
 .ARM.attributes
                0x000008f9       0x39 build/obj/comm_usb_serial.o
 .ARM.attributes
                0x00000932       0x39 build/obj/irq_handlers.o
 .ARM.attributes
                0x0000096b       0x39 build/obj/buffer.o
 .ARM.attributes
                0x000009a4       0x39 build/obj/comm_usb.o
 .ARM.attributes
                0x000009dd       0x39 build/obj/crc.o
 .ARM.attributes
                0x00000a16       0x39 build/obj/digital_filter.o
 .ARM.attributes
                0x00000a4f       0x39 build/obj/ledpwm.o
 .ARM.attributes
                0x00000a88       0x39 build/obj/mcpwm.o
 .ARM.attributes
                0x00000ac1       0x39 build/obj/servo_dec.o
 .ARM.attributes
                0x00000afa       0x39 build/obj/utils.o
 .ARM.attributes
                0x00000b33       0x39 build/obj/packet.o
 .ARM.attributes
                0x00000b6c       0x39 build/obj/terminal.o
 .ARM.attributes
                0x00000ba5       0x39 build/obj/conf_general.o
 .ARM.attributes
                0x00000bde       0x39 build/obj/eeprom.o
 .ARM.attributes
                0x00000c17       0x39 build/obj/commands.o
 .ARM.attributes
                0x00000c50       0x39 build/obj/timeout.o
 .ARM.attributes
                0x00000c89       0x39 build/obj/comm_can.o
 .ARM.attributes
                0x00000cc2       0x39 build/obj/led_external.o
 .ARM.attributes
                0x00000cfb       0x39 build/obj/encoder.o
 .ARM.attributes
                0x00000d34       0x39 build/obj/flash_helper.o
 .ARM.attributes
                0x00000d6d       0x39 build/obj/mc_interface.o
 .ARM.attributes
                0x00000da6       0x39 build/obj/mcpwm_foc.o
 .ARM.attributes
                0x00000ddf       0x39 build/obj/hw_410.o
 .ARM.attributes
                0x00000e18       0x39 build/obj/app.o
 .ARM.attributes
                0x00000e51       0x39 build/obj/app_ppm.o
 .ARM.attributes
                0x00000e8a       0x39 build/obj/app_adc.o
 .ARM.attributes
                0x00000ec3       0x39 build/obj/app_uartcomm.o
 .ARM.attributes
                0x00000efc       0x39 build/obj/app_nunchuk.o
 .ARM.attributes
                0x00000f35       0x39 build/obj/spi_sw.o
 .ARM.attributes
                0x00000f6e       0x39 build/obj/rf.o
 .ARM.attributes
                0x00000fa7       0x39 build/obj/rfhelp.o
 .ARM.attributes
                0x00000fe0       0x39 build/obj/nrf_driver.o
 .ARM.attributes
                0x00001019       0x39 build/obj/stm32f4xx_adc.o
 .ARM.attributes
                0x00001052       0x39 build/obj/stm32f4xx_dma.o
 .ARM.attributes
                0x0000108b       0x39 build/obj/stm32f4xx_exti.o
 .ARM.attributes
                0x000010c4       0x39 build/obj/stm32f4xx_flash.o
 .ARM.attributes
                0x000010fd       0x39 build/obj/stm32f4xx_rcc.o
 .ARM.attributes
                0x00001136       0x39 build/obj/stm32f4xx_syscfg.o
 .ARM.attributes
                0x0000116f       0x39 build/obj/stm32f4xx_tim.o
 .ARM.attributes
                0x000011a8       0x39 build/obj/stm32f4xx_wwdg.o
 .ARM.attributes
                0x000011e1       0x34 /usr/bin/../lib/gcc/arm-none-eabi/4.9.3/../../../../arm-none-eabi/lib/armv7e-m/fpu/libm.a(lib_a-sf_cos.o)
 .ARM.attributes
                0x00001215       0x34 /usr/bin/../lib/gcc/arm-none-eabi/4.9.3/../../../../arm-none-eabi/lib/armv7e-m/fpu/libm.a(lib_a-sf_round.o)
 .ARM.attributes
                0x00001249       0x34 /usr/bin/../lib/gcc/arm-none-eabi/4.9.3/../../../../arm-none-eabi/lib/armv7e-m/fpu/libm.a(lib_a-sf_sin.o)
 .ARM.attributes
                0x0000127d       0x34 /usr/bin/../lib/gcc/arm-none-eabi/4.9.3/../../../../arm-none-eabi/lib/armv7e-m/fpu/libm.a(lib_a-w_sqrt.o)
 .ARM.attributes
                0x000012b1       0x34 /usr/bin/../lib/gcc/arm-none-eabi/4.9.3/../../../../arm-none-eabi/lib/armv7e-m/fpu/libm.a(lib_a-wf_asin.o)
 .ARM.attributes
                0x000012e5       0x34 /usr/bin/../lib/gcc/arm-none-eabi/4.9.3/../../../../arm-none-eabi/lib/armv7e-m/fpu/libm.a(lib_a-wf_atan2.o)
 .ARM.attributes
                0x00001319       0x34 /usr/bin/../lib/gcc/arm-none-eabi/4.9.3/../../../../arm-none-eabi/lib/armv7e-m/fpu/libm.a(lib_a-wf_fmod.o)
 .ARM.attributes
                0x0000134d       0x34 /usr/bin/../lib/gcc/arm-none-eabi/4.9.3/../../../../arm-none-eabi/lib/armv7e-m/fpu/libm.a(lib_a-wf_log.o)
 .ARM.attributes
                0x00001381       0x34 /usr/bin/../lib/gcc/arm-none-eabi/4.9.3/../../../../arm-none-eabi/lib/armv7e-m/fpu/libm.a(lib_a-wf_pow.o)
 .ARM.attributes
                0x000013b5       0x34 /usr/bin/../lib/gcc/arm-none-eabi/4.9.3/../../../../arm-none-eabi/lib/armv7e-m/fpu/libm.a(lib_a-wf_sincos.o)
 .ARM.attributes
                0x000013e9       0x34 /usr/bin/../lib/gcc/arm-none-eabi/4.9.3/../../../../arm-none-eabi/lib/armv7e-m/fpu/libm.a(lib_a-wf_sqrt.o)
 .ARM.attributes
                0x0000141d       0x34 /usr/bin/../lib/gcc/arm-none-eabi/4.9.3/../../../../arm-none-eabi/lib/armv7e-m/fpu/libm.a(lib_a-e_sqrt.o)
 .ARM.attributes
                0x00001451       0x34 /usr/bin/../lib/gcc/arm-none-eabi/4.9.3/../../../../arm-none-eabi/lib/armv7e-m/fpu/libm.a(lib_a-ef_asin.o)
 .ARM.attributes
                0x00001485       0x34 /usr/bin/../lib/gcc/arm-none-eabi/4.9.3/../../../../arm-none-eabi/lib/armv7e-m/fpu/libm.a(lib_a-ef_atan2.o)
 .ARM.attributes
                0x000014b9       0x34 /usr/bin/../lib/gcc/arm-none-eabi/4.9.3/../../../../arm-none-eabi/lib/armv7e-m/fpu/libm.a(lib_a-ef_fmod.o)
 .ARM.attributes
                0x000014ed       0x34 /usr/bin/../lib/gcc/arm-none-eabi/4.9.3/../../../../arm-none-eabi/lib/armv7e-m/fpu/libm.a(lib_a-ef_log.o)
 .ARM.attributes
                0x00001521       0x34 /usr/bin/../lib/gcc/arm-none-eabi/4.9.3/../../../../arm-none-eabi/lib/armv7e-m/fpu/libm.a(lib_a-ef_pow.o)
 .ARM.attributes
                0x00001555       0x34 /usr/bin/../lib/gcc/arm-none-eabi/4.9.3/../../../../arm-none-eabi/lib/armv7e-m/fpu/libm.a(lib_a-ef_rem_pio2.o)
 .ARM.attributes
                0x00001589       0x34 /usr/bin/../lib/gcc/arm-none-eabi/4.9.3/../../../../arm-none-eabi/lib/armv7e-m/fpu/libm.a(lib_a-ef_sqrt.o)
 .ARM.attributes
                0x000015bd       0x34 /usr/bin/../lib/gcc/arm-none-eabi/4.9.3/../../../../arm-none-eabi/lib/armv7e-m/fpu/libm.a(lib_a-kf_cos.o)
 .ARM.attributes
                0x000015f1       0x34 /usr/bin/../lib/gcc/arm-none-eabi/4.9.3/../../../../arm-none-eabi/lib/armv7e-m/fpu/libm.a(lib_a-kf_rem_pio2.o)
 .ARM.attributes
                0x00001625       0x34 /usr/bin/../lib/gcc/arm-none-eabi/4.9.3/../../../../arm-none-eabi/lib/armv7e-m/fpu/libm.a(lib_a-kf_sin.o)
 .ARM.attributes
                0x00001659       0x34 /usr/bin/../lib/gcc/arm-none-eabi/4.9.3/../../../../arm-none-eabi/lib/armv7e-m/fpu/libm.a(lib_a-s_fpclassify.o)
 .ARM.attributes
                0x0000168d       0x34 /usr/bin/../lib/gcc/arm-none-eabi/4.9.3/../../../../arm-none-eabi/lib/armv7e-m/fpu/libm.a(lib_a-s_lib_ver.o)
 .ARM.attributes
                0x000016c1       0x34 /usr/bin/../lib/gcc/arm-none-eabi/4.9.3/../../../../arm-none-eabi/lib/armv7e-m/fpu/libm.a(lib_a-s_matherr.o)
 .ARM.attributes
                0x000016f5       0x34 /usr/bin/../lib/gcc/arm-none-eabi/4.9.3/../../../../arm-none-eabi/lib/armv7e-m/fpu/libm.a(lib_a-s_nan.o)
 .ARM.attributes
                0x00001729       0x34 /usr/bin/../lib/gcc/arm-none-eabi/4.9.3/../../../../arm-none-eabi/lib/armv7e-m/fpu/libm.a(lib_a-s_rint.o)
 .ARM.attributes
                0x0000175d       0x34 /usr/bin/../lib/gcc/arm-none-eabi/4.9.3/../../../../arm-none-eabi/lib/armv7e-m/fpu/libm.a(lib_a-sf_atan.o)
 .ARM.attributes
                0x00001791       0x34 /usr/bin/../lib/gcc/arm-none-eabi/4.9.3/../../../../arm-none-eabi/lib/armv7e-m/fpu/libm.a(lib_a-sf_fabs.o)
 .ARM.attributes
                0x000017c5       0x34 /usr/bin/../lib/gcc/arm-none-eabi/4.9.3/../../../../arm-none-eabi/lib/armv7e-m/fpu/libm.a(lib_a-sf_finite.o)
 .ARM.attributes
                0x000017f9       0x34 /usr/bin/../lib/gcc/arm-none-eabi/4.9.3/../../../../arm-none-eabi/lib/armv7e-m/fpu/libm.a(lib_a-sf_floor.o)
 .ARM.attributes
                0x0000182d       0x34 /usr/bin/../lib/gcc/arm-none-eabi/4.9.3/../../../../arm-none-eabi/lib/armv7e-m/fpu/libm.a(lib_a-sf_fpclassify.o)
 .ARM.attributes
                0x00001861       0x34 /usr/bin/../lib/gcc/arm-none-eabi/4.9.3/../../../../arm-none-eabi/lib/armv7e-m/fpu/libm.a(lib_a-sf_nan.o)
 .ARM.attributes
                0x00001895       0x34 /usr/bin/../lib/gcc/arm-none-eabi/4.9.3/../../../../arm-none-eabi/lib/armv7e-m/fpu/libm.a(lib_a-sf_scalbn.o)
 .ARM.attributes
                0x000018c9       0x34 /usr/bin/../lib/gcc/arm-none-eabi/4.9.3/../../../../arm-none-eabi/lib/armv7e-m/fpu/libm.a(lib_a-sf_copysign.o)
 .ARM.attributes
                0x000018fd       0x22 /usr/bin/../lib/gcc/arm-none-eabi/4.9.3/armv7e-m/fpu/libgcc.a(_arm_addsubdf3.o)
 .ARM.attributes
                0x0000191f       0x22 /usr/bin/../lib/gcc/arm-none-eabi/4.9.3/armv7e-m/fpu/libgcc.a(_arm_muldivdf3.o)
 .ARM.attributes
                0x00001941       0x22 /usr/bin/../lib/gcc/arm-none-eabi/4.9.3/armv7e-m/fpu/libgcc.a(_arm_cmpdf2.o)
 .ARM.attributes
                0x00001963       0x22 /usr/bin/../lib/gcc/arm-none-eabi/4.9.3/armv7e-m/fpu/libgcc.a(_arm_fixdfsi.o)
 .ARM.attributes
                0x00001985       0x22 /usr/bin/../lib/gcc/arm-none-eabi/4.9.3/armv7e-m/fpu/libgcc.a(_arm_truncdfsf2.o)
 .ARM.attributes
                0x000019a7       0x34 /usr/bin/../lib/gcc/arm-none-eabi/4.9.3/../../../../arm-none-eabi/lib/armv7e-m/fpu/libg.a(lib_a-errno.o)
 .ARM.attributes
                0x000019db       0x34 /usr/bin/../lib/gcc/arm-none-eabi/4.9.3/../../../../arm-none-eabi/lib/armv7e-m/fpu/libg.a(lib_a-impure.o)
 .ARM.attributes
                0x00001a0f       0x34 /usr/bin/../lib/gcc/arm-none-eabi/4.9.3/../../../../arm-none-eabi/lib/armv7e-m/fpu/libg.a(lib_a-memcmp.o)
 .ARM.attributes
                0x00001a43       0x20 /usr/bin/../lib/gcc/arm-none-eabi/4.9.3/../../../../arm-none-eabi/lib/armv7e-m/fpu/libg.a(lib_a-memcpy.o)
 .ARM.attributes
                0x00001a63       0x34 /usr/bin/../lib/gcc/arm-none-eabi/4.9.3/../../../../arm-none-eabi/lib/armv7e-m/fpu/libg.a(lib_a-memset.o)
 .ARM.attributes
                0x00001a97       0x34 /usr/bin/../lib/gcc/arm-none-eabi/4.9.3/../../../../arm-none-eabi/lib/armv7e-m/fpu/libg.a(lib_a-sscanf.o)
 .ARM.attributes
                0x00001acb       0x34 /usr/bin/../lib/gcc/arm-none-eabi/4.9.3/../../../../arm-none-eabi/lib/armv7e-m/fpu/libg.a(lib_a-stdio.o)
 .ARM.attributes
                0x00001aff       0x20 /usr/bin/../lib/gcc/arm-none-eabi/4.9.3/../../../../arm-none-eabi/lib/armv7e-m/fpu/libg.a(lib_a-strcmp.o)
 .ARM.attributes
                0x00001b1f       0x34 /usr/bin/../lib/gcc/arm-none-eabi/4.9.3/../../../../arm-none-eabi/lib/armv7e-m/fpu/libg.a(lib_a-strlen.o)
 .ARM.attributes
                0x00001b53       0x34 /usr/bin/../lib/gcc/arm-none-eabi/4.9.3/../../../../arm-none-eabi/lib/armv7e-m/fpu/libg.a(lib_a-strtok.o)
 .ARM.attributes
                0x00001b87       0x34 /usr/bin/../lib/gcc/arm-none-eabi/4.9.3/../../../../arm-none-eabi/lib/armv7e-m/fpu/libg.a(lib_a-strtok_r.o)
 .ARM.attributes
                0x00001bbb       0x34 /usr/bin/../lib/gcc/arm-none-eabi/4.9.3/../../../../arm-none-eabi/lib/armv7e-m/fpu/libg.a(lib_a-svfscanf.o)
 .ARM.attributes
                0x00001bef       0x34 /usr/bin/../lib/gcc/arm-none-eabi/4.9.3/../../../../arm-none-eabi/lib/armv7e-m/fpu/libg.a(lib_a-vsnprintf.o)
 .ARM.attributes
                0x00001c23       0x34 /usr/bin/../lib/gcc/arm-none-eabi/4.9.3/../../../../arm-none-eabi/lib/armv7e-m/fpu/libg.a(lib_a-ctype_.o)
 .ARM.attributes
                0x00001c57       0x34 /usr/bin/../lib/gcc/arm-none-eabi/4.9.3/../../../../arm-none-eabi/lib/armv7e-m/fpu/libg.a(lib_a-iswspace.o)
 .ARM.attributes
                0x00001c8b       0x34 /usr/bin/../lib/gcc/arm-none-eabi/4.9.3/../../../../arm-none-eabi/lib/armv7e-m/fpu/libg.a(lib_a-locale.o)
 .ARM.attributes
                0x00001cbf       0x34 /usr/bin/../lib/gcc/arm-none-eabi/4.9.3/../../../../arm-none-eabi/lib/armv7e-m/fpu/libg.a(lib_a-mbrtowc.o)
 .ARM.attributes
                0x00001cf3       0x34 /usr/bin/../lib/gcc/arm-none-eabi/4.9.3/../../../../arm-none-eabi/lib/armv7e-m/fpu/libg.a(lib_a-mbtowc_r.o)
 .ARM.attributes
                0x00001d27       0x34 /usr/bin/../lib/gcc/arm-none-eabi/4.9.3/../../../../arm-none-eabi/lib/armv7e-m/fpu/libg.a(lib_a-sccl.o)
 .ARM.attributes
                0x00001d5b       0x34 /usr/bin/../lib/gcc/arm-none-eabi/4.9.3/../../../../arm-none-eabi/lib/armv7e-m/fpu/libg.a(lib_a-sprintf.o)
 .ARM.attributes
                0x00001d8f       0x34 /usr/bin/../lib/gcc/arm-none-eabi/4.9.3/../../../../arm-none-eabi/lib/armv7e-m/fpu/libg.a(lib_a-strtod.o)
 .ARM.attributes
                0x00001dc3       0x34 /usr/bin/../lib/gcc/arm-none-eabi/4.9.3/../../../../arm-none-eabi/lib/armv7e-m/fpu/libg.a(lib_a-strtol.o)
 .ARM.attributes
                0x00001df7       0x34 /usr/bin/../lib/gcc/arm-none-eabi/4.9.3/../../../../arm-none-eabi/lib/armv7e-m/fpu/libg.a(lib_a-strtoll_r.o)
 .ARM.attributes
                0x00001e2b       0x34 /usr/bin/../lib/gcc/arm-none-eabi/4.9.3/../../../../arm-none-eabi/lib/armv7e-m/fpu/libg.a(lib_a-strtoul.o)
 .ARM.attributes
                0x00001e5f       0x34 /usr/bin/../lib/gcc/arm-none-eabi/4.9.3/../../../../arm-none-eabi/lib/armv7e-m/fpu/libg.a(lib_a-strtoull_r.o)
 .ARM.attributes
                0x00001e93       0x34 /usr/bin/../lib/gcc/arm-none-eabi/4.9.3/../../../../arm-none-eabi/lib/armv7e-m/fpu/libg.a(lib_a-svfiscanf.o)
 .ARM.attributes
                0x00001ec7       0x34 /usr/bin/../lib/gcc/arm-none-eabi/4.9.3/../../../../arm-none-eabi/lib/armv7e-m/fpu/libg.a(lib_a-svfprintf.o)
 .ARM.attributes
                0x00001efb       0x34 /usr/bin/../lib/gcc/arm-none-eabi/4.9.3/../../../../arm-none-eabi/lib/armv7e-m/fpu/libg.a(lib_a-ungetc.o)
 .ARM.attributes
                0x00001f2f       0x34 /usr/bin/../lib/gcc/arm-none-eabi/4.9.3/../../../../arm-none-eabi/lib/armv7e-m/fpu/libg.a(lib_a-dtoa.o)
 .ARM.attributes
                0x00001f63       0x34 /usr/bin/../lib/gcc/arm-none-eabi/4.9.3/../../../../arm-none-eabi/lib/armv7e-m/fpu/libg.a(lib_a-freer.o)
 .ARM.attributes
                0x00001f97       0x34 /usr/bin/../lib/gcc/arm-none-eabi/4.9.3/../../../../arm-none-eabi/lib/armv7e-m/fpu/libg.a(lib_a-gdtoa-gethex.o)
 .ARM.attributes
                0x00001fcb       0x34 /usr/bin/../lib/gcc/arm-none-eabi/4.9.3/../../../../arm-none-eabi/lib/armv7e-m/fpu/libg.a(lib_a-gdtoa-hexnan.o)
 .ARM.attributes
                0x00001fff       0x34 /usr/bin/../lib/gcc/arm-none-eabi/4.9.3/../../../../arm-none-eabi/lib/armv7e-m/fpu/libg.a(lib_a-mallocr.o)
 .ARM.attributes
                0x00002033       0x34 /usr/bin/../lib/gcc/arm-none-eabi/4.9.3/../../../../arm-none-eabi/lib/armv7e-m/fpu/libg.a(lib_a-memchr.o)
 .ARM.attributes
                0x00002067       0x34 /usr/bin/../lib/gcc/arm-none-eabi/4.9.3/../../../../arm-none-eabi/lib/armv7e-m/fpu/libg.a(lib_a-mlock.o)
 .ARM.attributes
                0x0000209b       0x34 /usr/bin/../lib/gcc/arm-none-eabi/4.9.3/../../../../arm-none-eabi/lib/armv7e-m/fpu/libg.a(lib_a-mprec.o)
 .ARM.attributes
                0x000020cf       0x34 /usr/bin/../lib/gcc/arm-none-eabi/4.9.3/../../../../arm-none-eabi/lib/armv7e-m/fpu/libg.a(lib_a-reallocr.o)
 .ARM.attributes
                0x00002103       0x34 /usr/bin/../lib/gcc/arm-none-eabi/4.9.3/../../../../arm-none-eabi/lib/armv7e-m/fpu/libg.a(lib_a-strncmp.o)
 .ARM.attributes
                0x00002137       0x34 /usr/bin/../lib/gcc/arm-none-eabi/4.9.3/../../../../arm-none-eabi/lib/armv7e-m/fpu/libg.a(lib_a-svfiprintf.o)
 .ARM.attributes
                0x0000216b       0x34 /usr/bin/../lib/gcc/arm-none-eabi/4.9.3/../../../../arm-none-eabi/lib/armv7e-m/fpu/libg.a(lib_a-callocr.o)
 .ARM.attributes
                0x0000219f       0x34 /usr/bin/../lib/gcc/arm-none-eabi/4.9.3/../../../../arm-none-eabi/lib/armv7e-m/fpu/libg.a(lib_a-memmove.o)
 .ARM.attributes
                0x000021d3       0x22 /usr/bin/../lib/gcc/arm-none-eabi/4.9.3/armv7e-m/fpu/libgcc.a(_arm_fixunsdfsi.o)
 .ARM.attributes
                0x000021f5       0x22 /usr/bin/../lib/gcc/arm-none-eabi/4.9.3/armv7e-m/fpu/libgcc.a(_aeabi_uldivmod.o)
 .ARM.attributes
                0x00002217       0x34 /usr/bin/../lib/gcc/arm-none-eabi/4.9.3/armv7e-m/fpu/libgcc.a(bpabi.o)
 .ARM.attributes
                0x0000224b       0x22 /usr/bin/../lib/gcc/arm-none-eabi/4.9.3/armv7e-m/fpu/libgcc.a(_dvmd_tls.o)
 .ARM.attributes
                0x0000226d       0x34 /usr/bin/../lib/gcc/arm-none-eabi/4.9.3/armv7e-m/fpu/libgcc.a(_divdi3.o)
 .ARM.attributes
                0x000022a1       0x34 /usr/bin/../lib/gcc/arm-none-eabi/4.9.3/armv7e-m/fpu/libgcc.a(_udivdi3.o)

.comment        0x00000000       0x70
 .comment       0x00000000       0x70 build/obj/crt1.o
                                 0x71 (size before relaxing)
 .comment       0x00000000       0x71 build/obj/vectors.o
 .comment       0x00000000       0x71 build/obj/chsys.o
 .comment       0x00000000       0x71 build/obj/chvt.o
 .comment       0x00000000       0x71 build/obj/chschd.o
 .comment       0x00000000       0x71 build/obj/chthreads.o
 .comment       0x00000000       0x71 build/obj/chtm.o
 .comment       0x00000000       0x71 build/obj/chdynamic.o
 .comment       0x00000000       0x71 build/obj/chregistry.o
 .comment       0x00000000       0x71 build/obj/chmtx.o
 .comment       0x00000000       0x71 build/obj/chevents.o
 .comment       0x00000000       0x71 build/obj/chqueues.o
 .comment       0x00000000       0x71 build/obj/chmemcore.o
 .comment       0x00000000       0x71 build/obj/chheap.o
 .comment       0x00000000       0x71 build/obj/chmempools.o
 .comment       0x00000000       0x71 build/obj/chcore_v7m.o
 .comment       0x00000000       0x71 build/obj/hal.o
 .comment       0x00000000       0x71 build/obj/st.o
 .comment       0x00000000       0x71 build/obj/can.o
 .comment       0x00000000       0x71 build/obj/i2c.o
 .comment       0x00000000       0x71 build/obj/icu.o
 .comment       0x00000000       0x71 build/obj/serial_usb.o
 .comment       0x00000000       0x71 build/obj/spi.o
 .comment       0x00000000       0x71 build/obj/uart.o
 .comment       0x00000000       0x71 build/obj/usb.o
 .comment       0x00000000       0x71 build/obj/nvic.o
 .comment       0x00000000       0x71 build/obj/stm32_dma.o
 .comment       0x00000000       0x71 build/obj/hal_lld.o
 .comment       0x00000000       0x71 build/obj/st_lld.o
 .comment       0x00000000       0x71 build/obj/can_lld.o
 .comment       0x00000000       0x71 build/obj/pal_lld.o
 .comment       0x00000000       0x71 build/obj/i2c_lld.o
 .comment       0x00000000       0x71 build/obj/usb_lld.o
 .comment       0x00000000       0x71 build/obj/spi_lld.o
 .comment       0x00000000       0x71 build/obj/icu_lld.o
 .comment       0x00000000       0x71 build/obj/uart_lld.o
 .comment       0x00000000       0x71 build/obj/board.o
 .comment       0x00000000       0x71 build/obj/syscalls.o
 .comment       0x00000000       0x71 build/obj/main.o
 .comment       0x00000000       0x71 build/obj/comm_usb_serial.o
 .comment       0x00000000       0x71 build/obj/irq_handlers.o
 .comment       0x00000000       0x71 build/obj/buffer.o
 .comment       0x00000000       0x71 build/obj/comm_usb.o
 .comment       0x00000000       0x71 build/obj/crc.o
 .comment       0x00000000       0x71 build/obj/digital_filter.o
 .comment       0x00000000       0x71 build/obj/ledpwm.o
 .comment       0x00000000       0x71 build/obj/mcpwm.o
 .comment       0x00000000       0x71 build/obj/servo_dec.o
 .comment       0x00000000       0x71 build/obj/utils.o
 .comment       0x00000000       0x71 build/obj/packet.o
 .comment       0x00000000       0x71 build/obj/terminal.o
 .comment       0x00000000       0x71 build/obj/conf_general.o
 .comment       0x00000000       0x71 build/obj/eeprom.o
 .comment       0x00000000       0x71 build/obj/commands.o
 .comment       0x00000000       0x71 build/obj/timeout.o
 .comment       0x00000000       0x71 build/obj/comm_can.o
 .comment       0x00000000       0x71 build/obj/led_external.o
 .comment       0x00000000       0x71 build/obj/encoder.o
 .comment       0x00000000       0x71 build/obj/flash_helper.o
 .comment       0x00000000       0x71 build/obj/mc_interface.o
 .comment       0x00000000       0x71 build/obj/mcpwm_foc.o
 .comment       0x00000000       0x71 build/obj/hw_410.o
 .comment       0x00000000       0x71 build/obj/app.o
 .comment       0x00000000       0x71 build/obj/app_ppm.o
 .comment       0x00000000       0x71 build/obj/app_adc.o
 .comment       0x00000000       0x71 build/obj/app_uartcomm.o
 .comment       0x00000000       0x71 build/obj/app_nunchuk.o
 .comment       0x00000000       0x71 build/obj/spi_sw.o
 .comment       0x00000000       0x71 build/obj/rf.o
 .comment       0x00000000       0x71 build/obj/rfhelp.o
 .comment       0x00000000       0x71 build/obj/nrf_driver.o
 .comment       0x00000000       0x71 build/obj/stm32f4xx_adc.o
 .comment       0x00000000       0x71 build/obj/stm32f4xx_dma.o
 .comment       0x00000000       0x71 build/obj/stm32f4xx_exti.o
 .comment       0x00000000       0x71 build/obj/stm32f4xx_flash.o
 .comment       0x00000000       0x71 build/obj/stm32f4xx_rcc.o
 .comment       0x00000000       0x71 build/obj/stm32f4xx_syscfg.o
 .comment       0x00000000       0x71 build/obj/stm32f4xx_tim.o
 .comment       0x00000000       0x71 build/obj/stm32f4xx_wwdg.o

.debug_info     0x00000000    0x66ef9
 .debug_info    0x00000000       0xde build/obj/crt1.o
 .debug_info    0x000000de      0x1e7 build/obj/vectors.o
 .debug_info    0x000002c5     0x17e3 build/obj/chsys.o
 .debug_info    0x00001aa8      0x7fd build/obj/chvt.o
 .debug_info    0x000022a5      0xe6f build/obj/chschd.o
 .debug_info    0x00003114     0x1b65 build/obj/chthreads.o
 .debug_info    0x00004c79      0xaac build/obj/chtm.o
 .debug_info    0x00005725      0xdca build/obj/chdynamic.o
 .debug_info    0x000064ef      0xa5c build/obj/chregistry.o
 .debug_info    0x00006f4b     0x10e3 build/obj/chmtx.o
 .debug_info    0x0000802e     0x16a1 build/obj/chevents.o
 .debug_info    0x000096cf     0x123c build/obj/chqueues.o
 .debug_info    0x0000a90b      0x947 build/obj/chmemcore.o
 .debug_info    0x0000b252      0xaab build/obj/chheap.o
 .debug_info    0x0000bcfd      0xcaa build/obj/chmempools.o
 .debug_info    0x0000c9a7      0xcc7 build/obj/chcore_v7m.o
 .debug_info    0x0000d66e      0x905 build/obj/hal.o
 .debug_info    0x0000df73      0x9e5 build/obj/st.o
 .debug_info    0x0000e958     0x1ac4 build/obj/can.o
 .debug_info    0x0001041c     0x1232 build/obj/i2c.o
 .debug_info    0x0001164e     0x1232 build/obj/icu.o
 .debug_info    0x00012880     0x2832 build/obj/serial_usb.o
 .debug_info    0x000150b2     0x1bb9 build/obj/spi.o
 .debug_info    0x00016c6b     0x1411 build/obj/uart.o
 .debug_info    0x0001807c     0x2977 build/obj/usb.o
 .debug_info    0x0001a9f3      0xabd build/obj/nvic.o
 .debug_info    0x0001b4b0     0x10dc build/obj/stm32_dma.o
 .debug_info    0x0001c58c      0x9e1 build/obj/hal_lld.o
 .debug_info    0x0001cf6d      0x92b build/obj/st_lld.o
 .debug_info    0x0001d898     0x1e5e build/obj/can_lld.o
 .debug_info    0x0001f6f6      0xd5b build/obj/pal_lld.o
 .debug_info    0x00020451     0x1e09 build/obj/i2c_lld.o
 .debug_info    0x0002225a     0x31d8 build/obj/usb_lld.o
 .debug_info    0x00025432     0x1267 build/obj/spi_lld.o
 .debug_info    0x00026699      0xfd6 build/obj/icu_lld.o
 .debug_info    0x0002766f     0x139a build/obj/uart_lld.o
 .debug_info    0x00028a09      0x869 build/obj/board.o
 .debug_info    0x00029272     0x12bc build/obj/syscalls.o
 .debug_info    0x0002a52e     0x1ac5 build/obj/main.o
 .debug_info    0x0002bff3     0x1abd build/obj/comm_usb_serial.o
 .debug_info    0x0002dab0      0xb03 build/obj/irq_handlers.o
 .debug_info    0x0002e5b3      0x4f0 build/obj/buffer.o
 .debug_info    0x0002eaa3     0x1b08 build/obj/comm_usb.o
 .debug_info    0x000305ab       0xbf build/obj/crc.o
 .debug_info    0x0003066a      0x782 build/obj/digital_filter.o
 .debug_info    0x00030dec      0x9b6 build/obj/ledpwm.o
 .debug_info    0x000317a2     0x55c8 build/obj/mcpwm.o
 .debug_info    0x00036d6a     0x1020 build/obj/servo_dec.o
 .debug_info    0x00037d8a      0xf01 build/obj/utils.o
 .debug_info    0x00038c8b      0x33a build/obj/packet.o
 .debug_info    0x00038fc5     0x2c50 build/obj/terminal.o
 .debug_info    0x0003bc15     0x2039 build/obj/conf_general.o
 .debug_info    0x0003dc4e      0xe99 build/obj/eeprom.o
 .debug_info    0x0003eae7     0x5357 build/obj/commands.o
 .debug_info    0x00043e3e      0xacf build/obj/timeout.o
 .debug_info    0x0004490d     0x2ae5 build/obj/comm_can.o
 .debug_info    0x000473f2     0x1243 build/obj/led_external.o
 .debug_info    0x00048635     0x14a4 build/obj/encoder.o
 .debug_info    0x00049ad9     0x1f58 build/obj/flash_helper.o
 .debug_info    0x0004ba31     0x2b1f build/obj/mc_interface.o
 .debug_info    0x0004e550     0x50a0 build/obj/mcpwm_foc.o
 .debug_info    0x000535f0     0x1654 build/obj/hw_410.o
 .debug_info    0x00054c44     0x1073 build/obj/app.o
 .debug_info    0x00055cb7     0x1fbb build/obj/app_ppm.o
 .debug_info    0x00057c72     0x1b65 build/obj/app_adc.o
 .debug_info    0x000597d7     0x124c build/obj/app_uartcomm.o
 .debug_info    0x0005aa23     0x219b build/obj/app_nunchuk.o
 .debug_info    0x0005cbbe      0xadd build/obj/spi_sw.o
 .debug_info    0x0005d69b     0x1c11 build/obj/rf.o
 .debug_info    0x0005f2ac     0x1459 build/obj/rfhelp.o
 .debug_info    0x00060705     0x1133 build/obj/nrf_driver.o
 .debug_info    0x00061838      0xc6c build/obj/stm32f4xx_adc.o
 .debug_info    0x000624a4      0x73a build/obj/stm32f4xx_dma.o
 .debug_info    0x00062bde      0x33b build/obj/stm32f4xx_exti.o
 .debug_info    0x00062f19      0xa5f build/obj/stm32f4xx_flash.o
 .debug_info    0x00063978      0xc05 build/obj/stm32f4xx_rcc.o
 .debug_info    0x0006457d      0x2d8 build/obj/stm32f4xx_syscfg.o
 .debug_info    0x00064855     0x2406 build/obj/stm32f4xx_tim.o
 .debug_info    0x00066c5b      0x29e build/obj/stm32f4xx_wwdg.o

.debug_abbrev   0x00000000     0xef43
 .debug_abbrev  0x00000000       0x67 build/obj/crt1.o
 .debug_abbrev  0x00000067       0xc7 build/obj/vectors.o
 .debug_abbrev  0x0000012e      0x4e9 build/obj/chsys.o
 .debug_abbrev  0x00000617      0x1b1 build/obj/chvt.o
 .debug_abbrev  0x000007c8      0x3d3 build/obj/chschd.o
 .debug_abbrev  0x00000b9b      0x475 build/obj/chthreads.o
 .debug_abbrev  0x00001010      0x277 build/obj/chtm.o
 .debug_abbrev  0x00001287      0x304 build/obj/chdynamic.o
 .debug_abbrev  0x0000158b      0x238 build/obj/chregistry.o
 .debug_abbrev  0x000017c3      0x3d2 build/obj/chmtx.o
 .debug_abbrev  0x00001b95      0x3b8 build/obj/chevents.o
 .debug_abbrev  0x00001f4d      0x3e0 build/obj/chqueues.o
 .debug_abbrev  0x0000232d      0x282 build/obj/chmemcore.o
 .debug_abbrev  0x000025af      0x292 build/obj/chheap.o
 .debug_abbrev  0x00002841      0x31b build/obj/chmempools.o
 .debug_abbrev  0x00002b5c      0x231 build/obj/chcore_v7m.o
 .debug_abbrev  0x00002d8d      0x1a0 build/obj/hal.o
 .debug_abbrev  0x00002f2d      0x217 build/obj/st.o
 .debug_abbrev  0x00003144      0x430 build/obj/can.o
 .debug_abbrev  0x00003574      0x345 build/obj/i2c.o
 .debug_abbrev  0x000038b9      0x2c9 build/obj/icu.o
 .debug_abbrev  0x00003b82      0x541 build/obj/serial_usb.o
 .debug_abbrev  0x000040c3      0x36c build/obj/spi.o
 .debug_abbrev  0x0000442f      0x392 build/obj/uart.o
 .debug_abbrev  0x000047c1      0x469 build/obj/usb.o
 .debug_abbrev  0x00004c2a      0x1ba build/obj/nvic.o
 .debug_abbrev  0x00004de4      0x278 build/obj/stm32_dma.o
 .debug_abbrev  0x0000505c      0x1c3 build/obj/hal_lld.o
 .debug_abbrev  0x0000521f      0x208 build/obj/st_lld.o
 .debug_abbrev  0x00005427      0x481 build/obj/can_lld.o
 .debug_abbrev  0x000058a8      0x20c build/obj/pal_lld.o
 .debug_abbrev  0x00005ab4      0x40e build/obj/i2c_lld.o
 .debug_abbrev  0x00005ec2      0x51c build/obj/usb_lld.o
 .debug_abbrev  0x000063de      0x36c build/obj/spi_lld.o
 .debug_abbrev  0x0000674a      0x39d build/obj/icu_lld.o
 .debug_abbrev  0x00006ae7      0x428 build/obj/uart_lld.o
 .debug_abbrev  0x00006f0f      0x18b build/obj/board.o
 .debug_abbrev  0x0000709a      0x24b build/obj/syscalls.o
 .debug_abbrev  0x000072e5      0x2f3 build/obj/main.o
 .debug_abbrev  0x000075d8      0x364 build/obj/comm_usb_serial.o
 .debug_abbrev  0x0000793c      0x23f build/obj/irq_handlers.o
 .debug_abbrev  0x00007b7b      0x16e build/obj/buffer.o
 .debug_abbrev  0x00007ce9      0x356 build/obj/comm_usb.o
 .debug_abbrev  0x0000803f       0x9b build/obj/crc.o
 .debug_abbrev  0x000080da      0x249 build/obj/digital_filter.o
 .debug_abbrev  0x00008323      0x1fb build/obj/ledpwm.o
 .debug_abbrev  0x0000851e      0x50b build/obj/mcpwm.o
 .debug_abbrev  0x00008a29      0x3bb build/obj/servo_dec.o
 .debug_abbrev  0x00008de4      0x356 build/obj/utils.o
 .debug_abbrev  0x0000913a      0x17a build/obj/packet.o
 .debug_abbrev  0x000092b4      0x400 build/obj/terminal.o
 .debug_abbrev  0x000096b4      0x384 build/obj/conf_general.o
 .debug_abbrev  0x00009a38      0x336 build/obj/eeprom.o
 .debug_abbrev  0x00009d6e      0x4ff build/obj/commands.o
 .debug_abbrev  0x0000a26d      0x352 build/obj/timeout.o
 .debug_abbrev  0x0000a5bf      0x510 build/obj/comm_can.o
 .debug_abbrev  0x0000aacf      0x3bf build/obj/led_external.o
 .debug_abbrev  0x0000ae8e      0x35b build/obj/encoder.o
 .debug_abbrev  0x0000b1e9      0x3b5 build/obj/flash_helper.o
 .debug_abbrev  0x0000b59e      0x59c build/obj/mc_interface.o
 .debug_abbrev  0x0000bb3a      0x551 build/obj/mcpwm_foc.o
 .debug_abbrev  0x0000c08b      0x247 build/obj/hw_410.o
 .debug_abbrev  0x0000c2d2      0x251 build/obj/app.o
 .debug_abbrev  0x0000c523      0x42e build/obj/app_ppm.o
 .debug_abbrev  0x0000c951      0x3cf build/obj/app_adc.o
 .debug_abbrev  0x0000cd20      0x331 build/obj/app_uartcomm.o
 .debug_abbrev  0x0000d051      0x3f3 build/obj/app_nunchuk.o
 .debug_abbrev  0x0000d444      0x266 build/obj/spi_sw.o
 .debug_abbrev  0x0000d6aa      0x39f build/obj/rf.o
 .debug_abbrev  0x0000da49      0x314 build/obj/rfhelp.o
 .debug_abbrev  0x0000dd5d      0x383 build/obj/nrf_driver.o
 .debug_abbrev  0x0000e0e0      0x1a5 build/obj/stm32f4xx_adc.o
 .debug_abbrev  0x0000e285      0x175 build/obj/stm32f4xx_dma.o
 .debug_abbrev  0x0000e3fa      0x1b8 build/obj/stm32f4xx_exti.o
 .debug_abbrev  0x0000e5b2      0x1bf build/obj/stm32f4xx_flash.o
 .debug_abbrev  0x0000e771      0x260 build/obj/stm32f4xx_rcc.o
 .debug_abbrev  0x0000e9d1      0x169 build/obj/stm32f4xx_syscfg.o
 .debug_abbrev  0x0000eb3a      0x291 build/obj/stm32f4xx_tim.o
 .debug_abbrev  0x0000edcb      0x178 build/obj/stm32f4xx_wwdg.o

.debug_aranges  0x00000000     0x2618
 .debug_aranges
                0x00000000       0x38 build/obj/crt1.o
 .debug_aranges
                0x00000038       0x20 build/obj/vectors.o
 .debug_aranges
                0x00000058       0x60 build/obj/chsys.o
 .debug_aranges
                0x000000b8       0x30 build/obj/chvt.o
 .debug_aranges
                0x000000e8       0x70 build/obj/chschd.o
 .debug_aranges
                0x00000158       0xc0 build/obj/chthreads.o
 .debug_aranges
                0x00000218       0x40 build/obj/chtm.o
 .debug_aranges
                0x00000258       0x38 build/obj/chdynamic.o
 .debug_aranges
                0x00000290       0x28 build/obj/chregistry.o
 .debug_aranges
                0x000002b8       0x58 build/obj/chmtx.o
 .debug_aranges
                0x00000310       0xa0 build/obj/chevents.o
 .debug_aranges
                0x000003b0       0x68 build/obj/chqueues.o
 .debug_aranges
                0x00000418       0x38 build/obj/chmemcore.o
 .debug_aranges
                0x00000450       0x40 build/obj/chheap.o
 .debug_aranges
                0x00000490       0x48 build/obj/chmempools.o
 .debug_aranges
                0x000004d8       0x28 build/obj/chcore_v7m.o
 .debug_aranges
                0x00000500       0x20 build/obj/hal.o
 .debug_aranges
                0x00000520       0x40 build/obj/st.o
 .debug_aranges
                0x00000560       0x58 build/obj/can.o
 .debug_aranges
                0x000005b8       0x60 build/obj/i2c.o
 .debug_aranges
                0x00000618       0x60 build/obj/icu.o
 .debug_aranges
                0x00000678       0xb0 build/obj/serial_usb.o
 .debug_aranges
                0x00000728       0x98 build/obj/spi.o
 .debug_aranges
                0x000007c0       0x78 build/obj/uart.o
 .debug_aranges
                0x00000838       0xa8 build/obj/usb.o
 .debug_aranges
                0x000008e0       0x38 build/obj/nvic.o
 .debug_aranges
                0x00000918       0xb0 build/obj/stm32_dma.o
 .debug_aranges
                0x000009c8       0x28 build/obj/hal_lld.o
 .debug_aranges
                0x000009f0       0x28 build/obj/st_lld.o
 .debug_aranges
                0x00000a18       0x90 build/obj/can_lld.o
 .debug_aranges
                0x00000aa8       0x28 build/obj/pal_lld.o
 .debug_aranges
                0x00000ad0       0x60 build/obj/i2c_lld.o
 .debug_aranges
                0x00000b30       0xd0 build/obj/usb_lld.o
 .debug_aranges
                0x00000c00       0x78 build/obj/spi_lld.o
 .debug_aranges
                0x00000c78       0x68 build/obj/icu_lld.o
 .debug_aranges
                0x00000ce0       0x80 build/obj/uart_lld.o
 .debug_aranges
                0x00000d60       0x28 build/obj/board.o
 .debug_aranges
                0x00000d88       0x50 build/obj/syscalls.o
 .debug_aranges
                0x00000dd8       0x30 build/obj/main.o
 .debug_aranges
                0x00000e08       0x38 build/obj/comm_usb_serial.o
 .debug_aranges
                0x00000e40       0x30 build/obj/irq_handlers.o
 .debug_aranges
                0x00000e70       0x78 build/obj/buffer.o
 .debug_aranges
                0x00000ee8       0x48 build/obj/comm_usb.o
 .debug_aranges
                0x00000f30       0x20 build/obj/crc.o
 .debug_aranges
                0x00000f50       0x58 build/obj/digital_filter.o
 .debug_aranges
                0x00000fa8       0x40 build/obj/ledpwm.o
 .debug_aranges
                0x00000fe8      0x1e0 build/obj/mcpwm.o
 .debug_aranges
                0x000011c8       0x50 build/obj/servo_dec.o
 .debug_aranges
                0x00001218       0xb8 build/obj/utils.o
 .debug_aranges
                0x000012d0       0x38 build/obj/packet.o
 .debug_aranges
                0x00001308       0x28 build/obj/terminal.o
 .debug_aranges
                0x00001330       0x60 build/obj/conf_general.o
 .debug_aranges
                0x00001390       0x48 build/obj/eeprom.o
 .debug_aranges
                0x000013d8       0x78 build/obj/commands.o
 .debug_aranges
                0x00001450       0x50 build/obj/timeout.o
 .debug_aranges
                0x000014a0       0x90 build/obj/comm_can.o
 .debug_aranges
                0x00001530       0x48 build/obj/led_external.o
 .debug_aranges
                0x00001578       0x70 build/obj/encoder.o
 .debug_aranges
                0x000015e8       0x38 build/obj/flash_helper.o
 .debug_aranges
                0x00001620      0x1d0 build/obj/mc_interface.o
 .debug_aranges
                0x000017f0      0x198 build/obj/mcpwm_foc.o
 .debug_aranges
                0x00001988       0x48 build/obj/hw_410.o
 .debug_aranges
                0x000019d0       0x30 build/obj/app.o
 .debug_aranges
                0x00001a00       0x48 build/obj/app_ppm.o
 .debug_aranges
                0x00001a48       0x50 build/obj/app_adc.o
 .debug_aranges
                0x00001a98       0x70 build/obj/app_uartcomm.o
 .debug_aranges
                0x00001b08       0x50 build/obj/app_nunchuk.o
 .debug_aranges
                0x00001b58       0x38 build/obj/spi_sw.o
 .debug_aranges
                0x00001b90      0x150 build/obj/rf.o
 .debug_aranges
                0x00001ce0       0x78 build/obj/rfhelp.o
 .debug_aranges
                0x00001d58       0x38 build/obj/nrf_driver.o
 .debug_aranges
                0x00001d90      0x148 build/obj/stm32f4xx_adc.o
 .debug_aranges
                0x00001ed8       0xb0 build/obj/stm32f4xx_dma.o
 .debug_aranges
                0x00001f88       0x58 build/obj/stm32f4xx_exti.o
 .debug_aranges
                0x00001fe0      0x158 build/obj/stm32f4xx_flash.o
 .debug_aranges
                0x00002138      0x160 build/obj/stm32f4xx_rcc.o
 .debug_aranges
                0x00002298       0x50 build/obj/stm32f4xx_syscfg.o
 .debug_aranges
                0x000022e8      0x2d8 build/obj/stm32f4xx_tim.o
 .debug_aranges
                0x000025c0       0x58 build/obj/stm32f4xx_wwdg.o

.debug_ranges   0x00000000     0x58d0
 .debug_ranges  0x00000000       0x28 build/obj/crt1.o
 .debug_ranges  0x00000028       0x10 build/obj/vectors.o
 .debug_ranges  0x00000038      0x148 build/obj/chsys.o
 .debug_ranges  0x00000180       0x20 build/obj/chvt.o
 .debug_ranges  0x000001a0      0x1c0 build/obj/chschd.o
 .debug_ranges  0x00000360      0x218 build/obj/chthreads.o
 .debug_ranges  0x00000578       0xc0 build/obj/chtm.o
 .debug_ranges  0x00000638       0x28 build/obj/chdynamic.o
 .debug_ranges  0x00000660       0x18 build/obj/chregistry.o
 .debug_ranges  0x00000678      0x1a0 build/obj/chmtx.o
 .debug_ranges  0x00000818       0xd8 build/obj/chevents.o
 .debug_ranges  0x000008f0      0x148 build/obj/chqueues.o
 .debug_ranges  0x00000a38       0x28 build/obj/chmemcore.o
 .debug_ranges  0x00000a60       0x30 build/obj/chheap.o
 .debug_ranges  0x00000a90       0xe0 build/obj/chmempools.o
 .debug_ranges  0x00000b70       0x18 build/obj/chcore_v7m.o
 .debug_ranges  0x00000b88       0x10 build/obj/hal.o
 .debug_ranges  0x00000b98       0x30 build/obj/st.o
 .debug_ranges  0x00000bc8       0xd8 build/obj/can.o
 .debug_ranges  0x00000ca0       0x80 build/obj/i2c.o
 .debug_ranges  0x00000d20       0xc8 build/obj/icu.o
 .debug_ranges  0x00000de8       0xd8 build/obj/serial_usb.o
 .debug_ranges  0x00000ec0      0x100 build/obj/spi.o
 .debug_ranges  0x00000fc0       0xf8 build/obj/uart.o
 .debug_ranges  0x000010b8      0x170 build/obj/usb.o
 .debug_ranges  0x00001228       0x28 build/obj/nvic.o
 .debug_ranges  0x00001250       0xa0 build/obj/stm32_dma.o
 .debug_ranges  0x000012f0       0x38 build/obj/hal_lld.o
 .debug_ranges  0x00001328       0x18 build/obj/st_lld.o
 .debug_ranges  0x00001340       0xf8 build/obj/can_lld.o
 .debug_ranges  0x00001438      0x120 build/obj/pal_lld.o
 .debug_ranges  0x00001558      0x1d8 build/obj/i2c_lld.o
 .debug_ranges  0x00001730      0x358 build/obj/usb_lld.o
 .debug_ranges  0x00001a88       0x68 build/obj/spi_lld.o
 .debug_ranges  0x00001af0       0x70 build/obj/icu_lld.o
 .debug_ranges  0x00001b60      0x118 build/obj/uart_lld.o
 .debug_ranges  0x00001c78       0x18 build/obj/board.o
 .debug_ranges  0x00001c90       0x40 build/obj/syscalls.o
 .debug_ranges  0x00001cd0       0x50 build/obj/main.o
 .debug_ranges  0x00001d20       0x28 build/obj/comm_usb_serial.o
 .debug_ranges  0x00001d48       0x20 build/obj/irq_handlers.o
 .debug_ranges  0x00001d68       0x98 build/obj/buffer.o
 .debug_ranges  0x00001e00       0x58 build/obj/comm_usb.o
 .debug_ranges  0x00001e58       0x10 build/obj/crc.o
 .debug_ranges  0x00001e68       0xc8 build/obj/digital_filter.o
 .debug_ranges  0x00001f30       0x48 build/obj/ledpwm.o
 .debug_ranges  0x00001f78      0x848 build/obj/mcpwm.o
 .debug_ranges  0x000027c0       0xf8 build/obj/servo_dec.o
 .debug_ranges  0x000028b8      0x108 build/obj/utils.o
 .debug_ranges  0x000029c0       0x28 build/obj/packet.o
 .debug_ranges  0x000029e8      0x148 build/obj/terminal.o
 .debug_ranges  0x00002b30       0xb0 build/obj/conf_general.o
 .debug_ranges  0x00002be0       0x80 build/obj/eeprom.o
 .debug_ranges  0x00002c60      0x480 build/obj/commands.o
 .debug_ranges  0x000030e0       0xa0 build/obj/timeout.o
 .debug_ranges  0x00003180      0x218 build/obj/comm_can.o
 .debug_ranges  0x00003398      0x180 build/obj/led_external.o
 .debug_ranges  0x00003518       0xa8 build/obj/encoder.o
 .debug_ranges  0x000035c0       0x58 build/obj/flash_helper.o
 .debug_ranges  0x00003618      0x288 build/obj/mc_interface.o
 .debug_ranges  0x000038a0      0x768 build/obj/mcpwm_foc.o
 .debug_ranges  0x00004008       0x50 build/obj/hw_410.o
 .debug_ranges  0x00004058       0x20 build/obj/app.o
 .debug_ranges  0x00004078      0x3a8 build/obj/app_ppm.o
 .debug_ranges  0x00004420      0x370 build/obj/app_adc.o
 .debug_ranges  0x00004790       0x80 build/obj/app_uartcomm.o
 .debug_ranges  0x00004810      0x2d8 build/obj/app_nunchuk.o
 .debug_ranges  0x00004ae8       0xd0 build/obj/spi_sw.o
 .debug_ranges  0x00004bb8      0x1f0 build/obj/rf.o
 .debug_ranges  0x00004da8       0xa0 build/obj/rfhelp.o
 .debug_ranges  0x00004e48      0x1c8 build/obj/nrf_driver.o
 .debug_ranges  0x00005010      0x138 build/obj/stm32f4xx_adc.o
 .debug_ranges  0x00005148       0xa0 build/obj/stm32f4xx_dma.o
 .debug_ranges  0x000051e8       0x48 build/obj/stm32f4xx_exti.o
 .debug_ranges  0x00005230      0x148 build/obj/stm32f4xx_flash.o
 .debug_ranges  0x00005378      0x170 build/obj/stm32f4xx_rcc.o
 .debug_ranges  0x000054e8       0x40 build/obj/stm32f4xx_syscfg.o
 .debug_ranges  0x00005528      0x360 build/obj/stm32f4xx_tim.o
 .debug_ranges  0x00005888       0x48 build/obj/stm32f4xx_wwdg.o

.debug_line     0x00000000    0x16bcf
 .debug_line    0x00000000      0x131 build/obj/crt1.o
 .debug_line    0x00000131      0x106 build/obj/vectors.o
 .debug_line    0x00000237      0x492 build/obj/chsys.o
 .debug_line    0x000006c9      0x212 build/obj/chvt.o
 .debug_line    0x000008db      0x490 build/obj/chschd.o
 .debug_line    0x00000d6b      0x67a build/obj/chthreads.o
 .debug_line    0x000013e5      0x290 build/obj/chtm.o
 .debug_line    0x00001675      0x2f4 build/obj/chdynamic.o
 .debug_line    0x00001969      0x270 build/obj/chregistry.o
 .debug_line    0x00001bd9      0x431 build/obj/chmtx.o
 .debug_line    0x0000200a      0x4c3 build/obj/chevents.o
 .debug_line    0x000024cd      0x473 build/obj/chqueues.o
 .debug_line    0x00002940      0x268 build/obj/chmemcore.o
 .debug_line    0x00002ba8      0x2d1 build/obj/chheap.o
 .debug_line    0x00002e79      0x2fb build/obj/chmempools.o
 .debug_line    0x00003174      0x215 build/obj/chcore_v7m.o
 .debug_line    0x00003389      0x307 build/obj/hal.o
 .debug_line    0x00003690      0x259 build/obj/st.o
 .debug_line    0x000038e9      0x436 build/obj/can.o
 .debug_line    0x00003d1f      0x40c build/obj/i2c.o
 .debug_line    0x0000412b      0x3ac build/obj/icu.o
 .debug_line    0x000044d7      0x57b build/obj/serial_usb.o
 .debug_line    0x00004a52      0x571 build/obj/spi.o
 .debug_line    0x00004fc3      0x49b build/obj/uart.o
 .debug_line    0x0000545e      0x668 build/obj/usb.o
 .debug_line    0x00005ac6      0x207 build/obj/nvic.o
 .debug_line    0x00005ccd      0x4a0 build/obj/stm32_dma.o
 .debug_line    0x0000616d      0x2b6 build/obj/hal_lld.o
 .debug_line    0x00006423      0x270 build/obj/st_lld.o
 .debug_line    0x00006693      0x5c3 build/obj/can_lld.o
 .debug_line    0x00006c56      0x29f build/obj/pal_lld.o
 .debug_line    0x00006ef5      0x672 build/obj/i2c_lld.o
 .debug_line    0x00007567      0x8e0 build/obj/usb_lld.o
 .debug_line    0x00007e47      0x4fc build/obj/spi_lld.o
 .debug_line    0x00008343      0x417 build/obj/icu_lld.o
 .debug_line    0x0000875a      0x636 build/obj/uart_lld.o
 .debug_line    0x00008d90      0x285 build/obj/board.o
 .debug_line    0x00009015      0x2ad build/obj/syscalls.o
 .debug_line    0x000092c2      0x3f1 build/obj/main.o
 .debug_line    0x000096b3      0x2fb build/obj/comm_usb_serial.o
 .debug_line    0x000099ae      0x28e build/obj/irq_handlers.o
 .debug_line    0x00009c3c      0x19d build/obj/buffer.o
 .debug_line    0x00009dd9      0x364 build/obj/comm_usb.o
 .debug_line    0x0000a13d       0x4d build/obj/crc.o
 .debug_line    0x0000a18a      0x38f build/obj/digital_filter.o
 .debug_line    0x0000a519      0x2a4 build/obj/ledpwm.o
 .debug_line    0x0000a7bd     0x1392 build/obj/mcpwm.o
 .debug_line    0x0000bb4f      0x3ad build/obj/servo_dec.o
 .debug_line    0x0000befc      0x494 build/obj/utils.o
 .debug_line    0x0000c390      0x144 build/obj/packet.o
 .debug_line    0x0000c4d4      0x660 build/obj/terminal.o
 .debug_line    0x0000cb34      0x63a build/obj/conf_general.o
 .debug_line    0x0000d16e      0x39d build/obj/eeprom.o
 .debug_line    0x0000d50b      0xcc6 build/obj/commands.o
 .debug_line    0x0000e1d1      0x313 build/obj/timeout.o
 .debug_line    0x0000e4e4      0x62a build/obj/comm_can.o
 .debug_line    0x0000eb0e      0x471 build/obj/led_external.o
 .debug_line    0x0000ef7f      0x463 build/obj/encoder.o
 .debug_line    0x0000f3e2      0x47b build/obj/flash_helper.o
 .debug_line    0x0000f85d      0xb3b build/obj/mc_interface.o
 .debug_line    0x00010398     0x1221 build/obj/mcpwm_foc.o
 .debug_line    0x000115b9      0x452 build/obj/hw_410.o
 .debug_line    0x00011a0b      0x286 build/obj/app.o
 .debug_line    0x00011c91      0x7d6 build/obj/app_ppm.o
 .debug_line    0x00012467      0x682 build/obj/app_adc.o
 .debug_line    0x00012ae9      0x450 build/obj/app_uartcomm.o
 .debug_line    0x00012f39      0x750 build/obj/app_nunchuk.o
 .debug_line    0x00013689      0x310 build/obj/spi_sw.o
 .debug_line    0x00013999      0x5fb build/obj/rf.o
 .debug_line    0x00013f94      0x3e2 build/obj/rfhelp.o
 .debug_line    0x00014376      0x3d0 build/obj/nrf_driver.o
 .debug_line    0x00014746      0x50d build/obj/stm32f4xx_adc.o
 .debug_line    0x00014c53      0x3be build/obj/stm32f4xx_dma.o
 .debug_line    0x00015011      0x22c build/obj/stm32f4xx_exti.o
 .debug_line    0x0001523d      0x50f build/obj/stm32f4xx_flash.o
 .debug_line    0x0001574c      0x4ee build/obj/stm32f4xx_rcc.o
 .debug_line    0x00015c3a      0x1f0 build/obj/stm32f4xx_syscfg.o
 .debug_line    0x00015e2a      0xba8 build/obj/stm32f4xx_tim.o
 .debug_line    0x000169d2      0x1fd build/obj/stm32f4xx_wwdg.o

.debug_str      0x00000000     0xc2f0
 .debug_str     0x00000000      0x233 build/obj/crt1.o
                                0x26f (size before relaxing)
 .debug_str     0x00000233      0x16a build/obj/vectors.o
                                0x37c (size before relaxing)
 .debug_str     0x0000039d      0xdb1 build/obj/chsys.o
                               0x1069 (size before relaxing)
 .debug_str     0x0000114e       0x3e build/obj/chvt.o
                                0x5e3 (size before relaxing)
 .debug_str     0x0000118c      0x138 build/obj/chschd.o
                                0x790 (size before relaxing)
 .debug_str     0x000012c4      0x21f build/obj/chthreads.o
                                0x8cc (size before relaxing)
 .debug_str     0x000014e3       0xb7 build/obj/chtm.o
                                0x721 (size before relaxing)
 .debug_str     0x0000159a      0x128 build/obj/chdynamic.o
                                0x747 (size before relaxing)
 .debug_str     0x000016c2       0x46 build/obj/chregistry.o
                                0x72d (size before relaxing)
 .debug_str     0x00001708       0xae build/obj/chmtx.o
                                0x6f1 (size before relaxing)
 .debug_str     0x000017b6      0x1f5 build/obj/chevents.o
                                0x81e (size before relaxing)
 .debug_str     0x000019ab      0x177 build/obj/chqueues.o
                                0x7a9 (size before relaxing)
 .debug_str     0x00001b22       0x78 build/obj/chmemcore.o
                                0x65f (size before relaxing)
 .debug_str     0x00001b9a       0x52 build/obj/chheap.o
                                0x697 (size before relaxing)
 .debug_str     0x00001bec       0x69 build/obj/chmempools.o
                                0x6bc (size before relaxing)
 .debug_str     0x00001c55       0xd0 build/obj/chcore_v7m.o
                                0x72e (size before relaxing)
 .debug_str     0x00001d25      0x129 build/obj/hal.o
                                0x6b6 (size before relaxing)
 .debug_str     0x00001e4e       0xe4 build/obj/st.o
                                0x686 (size before relaxing)
 .debug_str     0x00001f32      0x354 build/obj/can.o
                                0xa95 (size before relaxing)
 .debug_str     0x00002286      0x2ff build/obj/i2c.o
                                0x96d (size before relaxing)
 .debug_str     0x00002585      0x245 build/obj/icu.o
                                0x8a2 (size before relaxing)
 .debug_str     0x000027ca      0x814 build/obj/serial_usb.o
                               0x10ed (size before relaxing)
 .debug_str     0x00002fde      0x256 build/obj/spi.o
                                0x97d (size before relaxing)
 .debug_str     0x00003234      0x27e build/obj/uart.o
                                0x91e (size before relaxing)
 .debug_str     0x000034b2      0x2c2 build/obj/usb.o
                               0x1077 (size before relaxing)
 .debug_str     0x00003774       0x81 build/obj/nvic.o
                                0x6db (size before relaxing)
 .debug_str     0x000037f5      0x242 build/obj/stm32_dma.o
                                0xdbc (size before relaxing)
 .debug_str     0x00003a37       0xa0 build/obj/hal_lld.o
                                0x74a (size before relaxing)
 .debug_str     0x00003ad7       0x70 build/obj/st_lld.o
                                0x6ef (size before relaxing)
 .debug_str     0x00003b47      0x12a build/obj/can_lld.o
                                0xc19 (size before relaxing)
 .debug_str     0x00003c71       0x7f build/obj/pal_lld.o
                                0x80e (size before relaxing)
 .debug_str     0x00003cf0      0x178 build/obj/i2c_lld.o
                               0x1154 (size before relaxing)
 .debug_str     0x00003e68      0x201 build/obj/usb_lld.o
                               0x132e (size before relaxing)
 .debug_str     0x00004069       0x9f build/obj/spi_lld.o
                                0xaa7 (size before relaxing)
 .debug_str     0x00004108       0x6e build/obj/icu_lld.o
                                0x99a (size before relaxing)
 .debug_str     0x00004176       0xd6 build/obj/uart_lld.o
                                0xa81 (size before relaxing)
 .debug_str     0x0000424c       0x39 build/obj/board.o
                                0x689 (size before relaxing)
 .debug_str     0x00004285      0x487 build/obj/syscalls.o
                                0xaba (size before relaxing)
 .debug_str     0x0000470c     0x1370 build/obj/main.o
                               0x1ade (size before relaxing)
 .debug_str     0x00005a7c      0x166 build/obj/comm_usb_serial.o
                                0xfd9 (size before relaxing)
 .debug_str     0x00005be2      0x145 build/obj/irq_handlers.o
                                0x733 (size before relaxing)
 .debug_str     0x00005d27       0xfd build/obj/buffer.o
                                0x34a (size before relaxing)
 .debug_str     0x00005e24      0x130 build/obj/comm_usb.o
                                0xfa6 (size before relaxing)
 .debug_str     0x00005f54       0x1c build/obj/crc.o
                                0x1a8 (size before relaxing)
 .debug_str     0x00005f70       0xf9 build/obj/digital_filter.o
                                0x350 (size before relaxing)
 .debug_str     0x00006069       0x5b build/obj/ledpwm.o
                                0x696 (size before relaxing)
 .debug_str     0x000060c4     0x13d4 build/obj/mcpwm.o
                               0x2a71 (size before relaxing)
 .debug_str     0x00007498      0x13a build/obj/servo_dec.o
                                0x9af (size before relaxing)
 .debug_str     0x000075d2      0x183 build/obj/utils.o
                                0x855 (size before relaxing)
 .debug_str     0x00007755       0x9e build/obj/packet.o
                                0x309 (size before relaxing)
 .debug_str     0x000077f3      0x39b build/obj/terminal.o
                               0x1487 (size before relaxing)
 .debug_str     0x00007b8e      0x2ac build/obj/conf_general.o
                               0x1b62 (size before relaxing)
 .debug_str     0x00007e3a      0x178 build/obj/eeprom.o
                                0x82f (size before relaxing)
 .debug_str     0x00007fb2      0x870 build/obj/commands.o
                               0x2650 (size before relaxing)
 .debug_str     0x00008822       0x3f build/obj/timeout.o
                                0x791 (size before relaxing)
 .debug_str     0x00008861      0x38a build/obj/comm_can.o
                               0x191f (size before relaxing)
 .debug_str     0x00008beb      0x19a build/obj/led_external.o
                                0x902 (size before relaxing)
 .debug_str     0x00008d85      0x25a build/obj/encoder.o
                                0xf3b (size before relaxing)
 .debug_str     0x00008fdf       0x9e build/obj/flash_helper.o
                               0x121b (size before relaxing)
 .debug_str     0x0000907d      0x864 build/obj/mc_interface.o
                               0x2163 (size before relaxing)
 .debug_str     0x000098e1      0x6c6 build/obj/mcpwm_foc.o
                               0x2a68 (size before relaxing)
 .debug_str     0x00009fa7       0xa5 build/obj/hw_410.o
                                0x99a (size before relaxing)
 .debug_str     0x0000a04c       0xd7 build/obj/app.o
                                0xfee (size before relaxing)
 .debug_str     0x0000a123      0x1ab build/obj/app_ppm.o
                               0x1694 (size before relaxing)
 .debug_str     0x0000a2ce       0xb3 build/obj/app_adc.o
                               0x1433 (size before relaxing)
 .debug_str     0x0000a381       0x75 build/obj/app_uartcomm.o
                                0xa82 (size before relaxing)
 .debug_str     0x0000a3f6      0x155 build/obj/app_nunchuk.o
                               0x1793 (size before relaxing)
 .debug_str     0x0000a54b       0x58 build/obj/spi_sw.o
                                0x6a8 (size before relaxing)
 .debug_str     0x0000a5a3      0x2c9 build/obj/rf.o
                                0xafa (size before relaxing)
 .debug_str     0x0000a86c      0x107 build/obj/rfhelp.o
                                0xbbf (size before relaxing)
 .debug_str     0x0000a973      0x184 build/obj/nrf_driver.o
                                0x8d6 (size before relaxing)
 .debug_str     0x0000aaf7      0x3ba build/obj/stm32f4xx_adc.o
                                0x8e3 (size before relaxing)
 .debug_str     0x0000aeb1      0x205 build/obj/stm32f4xx_dma.o
                                0x60a (size before relaxing)
 .debug_str     0x0000b0b6       0xbd build/obj/stm32f4xx_exti.o
                                0x414 (size before relaxing)
 .debug_str     0x0000b173      0x388 build/obj/stm32f4xx_flash.o
                                0x767 (size before relaxing)
 .debug_str     0x0000b4fb      0x496 build/obj/stm32f4xx_rcc.o
                                0x89d (size before relaxing)
 .debug_str     0x0000b991      0x156 build/obj/stm32f4xx_syscfg.o
                                0x3ed (size before relaxing)
 .debug_str     0x0000bae7      0x784 build/obj/stm32f4xx_tim.o
                                0xe2b (size before relaxing)
 .debug_str     0x0000c26b       0x85 build/obj/stm32f4xx_wwdg.o
                                0x366 (size before relaxing)

.debug_frame    0x00000000     0x8fc8
 .debug_frame   0x00000000       0x50 build/obj/crt1.o
 .debug_frame   0x00000050       0x20 build/obj/vectors.o
 .debug_frame   0x00000070       0xfc build/obj/chsys.o
 .debug_frame   0x0000016c       0x68 build/obj/chvt.o
 .debug_frame   0x000001d4      0x164 build/obj/chschd.o
 .debug_frame   0x00000338      0x274 build/obj/chthreads.o
 .debug_frame   0x000005ac       0xc8 build/obj/chtm.o
 .debug_frame   0x00000674       0x84 build/obj/chdynamic.o
 .debug_frame   0x000006f8       0x3c build/obj/chregistry.o
 .debug_frame   0x00000734       0xf8 build/obj/chmtx.o
 .debug_frame   0x0000082c      0x1d0 build/obj/chevents.o
 .debug_frame   0x000009fc      0x168 build/obj/chqueues.o
 .debug_frame   0x00000b64       0x68 build/obj/chmemcore.o
 .debug_frame   0x00000bcc       0xc0 build/obj/chheap.o
 .debug_frame   0x00000c8c       0x8c build/obj/chmempools.o
 .debug_frame   0x00000d18       0x3c build/obj/chcore_v7m.o
 .debug_frame   0x00000d54       0x30 build/obj/hal.o
 .debug_frame   0x00000d84       0x60 build/obj/st.o
 .debug_frame   0x00000de4      0x104 build/obj/can.o
 .debug_frame   0x00000ee8       0xe8 build/obj/i2c.o
 .debug_frame   0x00000fd0       0xf4 build/obj/icu.o
 .debug_frame   0x000010c4      0x1d8 build/obj/serial_usb.o
 .debug_frame   0x0000129c      0x1a8 build/obj/spi.o
 .debug_frame   0x00001444      0x148 build/obj/uart.o
 .debug_frame   0x0000158c      0x234 build/obj/usb.o
 .debug_frame   0x000017c0       0x68 build/obj/nvic.o
 .debug_frame   0x00001828      0x274 build/obj/stm32_dma.o
 .debug_frame   0x00001a9c       0x3c build/obj/hal_lld.o
 .debug_frame   0x00001ad8       0x40 build/obj/st_lld.o
 .debug_frame   0x00001b18      0x1d4 build/obj/can_lld.o
 .debug_frame   0x00001cec       0x70 build/obj/pal_lld.o
 .debug_frame   0x00001d5c      0x1d0 build/obj/i2c_lld.o
 .debug_frame   0x00001f2c      0x2c4 build/obj/usb_lld.o
 .debug_frame   0x000021f0      0x168 build/obj/spi_lld.o
 .debug_frame   0x00002358      0x130 build/obj/icu_lld.o
 .debug_frame   0x00002488      0x1d4 build/obj/uart_lld.o
 .debug_frame   0x0000265c       0x30 build/obj/board.o
 .debug_frame   0x0000268c       0x98 build/obj/syscalls.o
 .debug_frame   0x00002724       0x78 build/obj/main.o
 .debug_frame   0x0000279c       0x7c build/obj/comm_usb_serial.o
 .debug_frame   0x00002818       0x70 build/obj/irq_handlers.o
 .debug_frame   0x00002888      0x178 build/obj/buffer.o
 .debug_frame   0x00002a00       0xec build/obj/comm_usb.o
 .debug_frame   0x00002aec       0x38 build/obj/crc.o
 .debug_frame   0x00002b24      0x218 build/obj/digital_filter.o
 .debug_frame   0x00002d3c       0x84 build/obj/ledpwm.o
 .debug_frame   0x00002dc0      0x894 build/obj/mcpwm.o
 .debug_frame   0x00003654       0xd8 build/obj/servo_dec.o
 .debug_frame   0x0000372c      0x1f4 build/obj/utils.o
 .debug_frame   0x00003920       0xa0 build/obj/packet.o
 .debug_frame   0x000039c0       0xf0 build/obj/terminal.o
 .debug_frame   0x00003ab0      0x1fc build/obj/conf_general.o
 .debug_frame   0x00003cac      0x110 build/obj/eeprom.o
 .debug_frame   0x00003dbc      0x2c8 build/obj/commands.o
 .debug_frame   0x00004084       0xac build/obj/timeout.o
 .debug_frame   0x00004130      0x248 build/obj/comm_can.o
 .debug_frame   0x00004378       0xdc build/obj/led_external.o
 .debug_frame   0x00004454      0x134 build/obj/encoder.o
 .debug_frame   0x00004588       0x90 build/obj/flash_helper.o
 .debug_frame   0x00004618      0x760 build/obj/mc_interface.o
 .debug_frame   0x00004d78      0x790 build/obj/mcpwm_foc.o
 .debug_frame   0x00005508      0x114 build/obj/hw_410.o
 .debug_frame   0x0000561c       0xb0 build/obj/app.o
 .debug_frame   0x000056cc      0x138 build/obj/app_ppm.o
 .debug_frame   0x00005804       0xf0 build/obj/app_adc.o
 .debug_frame   0x000058f4      0x124 build/obj/app_uartcomm.o
 .debug_frame   0x00005a18      0x174 build/obj/app_nunchuk.o
 .debug_frame   0x00005b8c       0x94 build/obj/spi_sw.o
 .debug_frame   0x00005c20      0x4b8 build/obj/rf.o
 .debug_frame   0x000060d8      0x200 build/obj/rfhelp.o
 .debug_frame   0x000062d8       0xdc build/obj/nrf_driver.o
 .debug_frame   0x000063b4      0x308 build/obj/stm32f4xx_adc.o
 .debug_frame   0x000066bc      0x1d0 build/obj/stm32f4xx_dma.o
 .debug_frame   0x0000688c       0xc4 build/obj/stm32f4xx_exti.o
 .debug_frame   0x00006950      0x380 build/obj/stm32f4xx_flash.o
 .debug_frame   0x00006cd0      0x2b8 build/obj/stm32f4xx_rcc.o
 .debug_frame   0x00006f88       0x9c build/obj/stm32f4xx_syscfg.o
 .debug_frame   0x00007024      0x770 build/obj/stm32f4xx_tim.o
 .debug_frame   0x00007794       0xa8 build/obj/stm32f4xx_wwdg.o
 .debug_frame   0x0000783c       0x34 /usr/bin/../lib/gcc/arm-none-eabi/4.9.3/../../../../arm-none-eabi/lib/armv7e-m/fpu/libm.a(lib_a-sf_cos.o)
 .debug_frame   0x00007870       0x38 /usr/bin/../lib/gcc/arm-none-eabi/4.9.3/../../../../arm-none-eabi/lib/armv7e-m/fpu/libm.a(lib_a-sf_round.o)
 .debug_frame   0x000078a8       0x34 /usr/bin/../lib/gcc/arm-none-eabi/4.9.3/../../../../arm-none-eabi/lib/armv7e-m/fpu/libm.a(lib_a-sf_sin.o)
 .debug_frame   0x000078dc       0x60 /usr/bin/../lib/gcc/arm-none-eabi/4.9.3/../../../../arm-none-eabi/lib/armv7e-m/fpu/libm.a(lib_a-w_sqrt.o)
 .debug_frame   0x0000793c       0x50 /usr/bin/../lib/gcc/arm-none-eabi/4.9.3/../../../../arm-none-eabi/lib/armv7e-m/fpu/libm.a(lib_a-wf_asin.o)
 .debug_frame   0x0000798c       0x20 /usr/bin/../lib/gcc/arm-none-eabi/4.9.3/../../../../arm-none-eabi/lib/armv7e-m/fpu/libm.a(lib_a-wf_atan2.o)
 .debug_frame   0x000079ac       0x50 /usr/bin/../lib/gcc/arm-none-eabi/4.9.3/../../../../arm-none-eabi/lib/armv7e-m/fpu/libm.a(lib_a-wf_fmod.o)
 .debug_frame   0x000079fc       0x50 /usr/bin/../lib/gcc/arm-none-eabi/4.9.3/../../../../arm-none-eabi/lib/armv7e-m/fpu/libm.a(lib_a-wf_log.o)
 .debug_frame   0x00007a4c       0x64 /usr/bin/../lib/gcc/arm-none-eabi/4.9.3/../../../../arm-none-eabi/lib/armv7e-m/fpu/libm.a(lib_a-wf_pow.o)
 .debug_frame   0x00007ab0       0x3c /usr/bin/../lib/gcc/arm-none-eabi/4.9.3/../../../../arm-none-eabi/lib/armv7e-m/fpu/libm.a(lib_a-wf_sincos.o)
 .debug_frame   0x00007aec       0x50 /usr/bin/../lib/gcc/arm-none-eabi/4.9.3/../../../../arm-none-eabi/lib/armv7e-m/fpu/libm.a(lib_a-wf_sqrt.o)
 .debug_frame   0x00007b3c       0x30 /usr/bin/../lib/gcc/arm-none-eabi/4.9.3/../../../../arm-none-eabi/lib/armv7e-m/fpu/libm.a(lib_a-e_sqrt.o)
 .debug_frame   0x00007b6c       0x70 /usr/bin/../lib/gcc/arm-none-eabi/4.9.3/../../../../arm-none-eabi/lib/armv7e-m/fpu/libm.a(lib_a-ef_asin.o)
 .debug_frame   0x00007bdc       0x48 /usr/bin/../lib/gcc/arm-none-eabi/4.9.3/../../../../arm-none-eabi/lib/armv7e-m/fpu/libm.a(lib_a-ef_atan2.o)
 .debug_frame   0x00007c24       0x3c /usr/bin/../lib/gcc/arm-none-eabi/4.9.3/../../../../arm-none-eabi/lib/armv7e-m/fpu/libm.a(lib_a-ef_fmod.o)
 .debug_frame   0x00007c60       0x4c /usr/bin/../lib/gcc/arm-none-eabi/4.9.3/../../../../arm-none-eabi/lib/armv7e-m/fpu/libm.a(lib_a-ef_log.o)
 .debug_frame   0x00007cac       0x7c /usr/bin/../lib/gcc/arm-none-eabi/4.9.3/../../../../arm-none-eabi/lib/armv7e-m/fpu/libm.a(lib_a-ef_pow.o)
 .debug_frame   0x00007d28       0x3c /usr/bin/../lib/gcc/arm-none-eabi/4.9.3/../../../../arm-none-eabi/lib/armv7e-m/fpu/libm.a(lib_a-ef_rem_pio2.o)
 .debug_frame   0x00007d64       0x3c /usr/bin/../lib/gcc/arm-none-eabi/4.9.3/../../../../arm-none-eabi/lib/armv7e-m/fpu/libm.a(lib_a-ef_sqrt.o)
 .debug_frame   0x00007da0       0x20 /usr/bin/../lib/gcc/arm-none-eabi/4.9.3/../../../../arm-none-eabi/lib/armv7e-m/fpu/libm.a(lib_a-kf_cos.o)
 .debug_frame   0x00007dc0       0x5c /usr/bin/../lib/gcc/arm-none-eabi/4.9.3/../../../../arm-none-eabi/lib/armv7e-m/fpu/libm.a(lib_a-kf_rem_pio2.o)
 .debug_frame   0x00007e1c       0x20 /usr/bin/../lib/gcc/arm-none-eabi/4.9.3/../../../../arm-none-eabi/lib/armv7e-m/fpu/libm.a(lib_a-kf_sin.o)
 .debug_frame   0x00007e3c       0x34 /usr/bin/../lib/gcc/arm-none-eabi/4.9.3/../../../../arm-none-eabi/lib/armv7e-m/fpu/libm.a(lib_a-s_fpclassify.o)
 .debug_frame   0x00007e70       0x20 /usr/bin/../lib/gcc/arm-none-eabi/4.9.3/../../../../arm-none-eabi/lib/armv7e-m/fpu/libm.a(lib_a-s_matherr.o)
 .debug_frame   0x00007e90       0x20 /usr/bin/../lib/gcc/arm-none-eabi/4.9.3/../../../../arm-none-eabi/lib/armv7e-m/fpu/libm.a(lib_a-s_nan.o)
 .debug_frame   0x00007eb0       0x3c /usr/bin/../lib/gcc/arm-none-eabi/4.9.3/../../../../arm-none-eabi/lib/armv7e-m/fpu/libm.a(lib_a-s_rint.o)
 .debug_frame   0x00007eec       0x2c /usr/bin/../lib/gcc/arm-none-eabi/4.9.3/../../../../arm-none-eabi/lib/armv7e-m/fpu/libm.a(lib_a-sf_atan.o)
 .debug_frame   0x00007f18       0x20 /usr/bin/../lib/gcc/arm-none-eabi/4.9.3/../../../../arm-none-eabi/lib/armv7e-m/fpu/libm.a(lib_a-sf_fabs.o)
 .debug_frame   0x00007f38       0x20 /usr/bin/../lib/gcc/arm-none-eabi/4.9.3/../../../../arm-none-eabi/lib/armv7e-m/fpu/libm.a(lib_a-sf_finite.o)
 .debug_frame   0x00007f58       0x20 /usr/bin/../lib/gcc/arm-none-eabi/4.9.3/../../../../arm-none-eabi/lib/armv7e-m/fpu/libm.a(lib_a-sf_floor.o)
 .debug_frame   0x00007f78       0x20 /usr/bin/../lib/gcc/arm-none-eabi/4.9.3/../../../../arm-none-eabi/lib/armv7e-m/fpu/libm.a(lib_a-sf_fpclassify.o)
 .debug_frame   0x00007f98       0x20 /usr/bin/../lib/gcc/arm-none-eabi/4.9.3/../../../../arm-none-eabi/lib/armv7e-m/fpu/libm.a(lib_a-sf_nan.o)
 .debug_frame   0x00007fb8       0x44 /usr/bin/../lib/gcc/arm-none-eabi/4.9.3/../../../../arm-none-eabi/lib/armv7e-m/fpu/libm.a(lib_a-sf_scalbn.o)
 .debug_frame   0x00007ffc       0x20 /usr/bin/../lib/gcc/arm-none-eabi/4.9.3/../../../../arm-none-eabi/lib/armv7e-m/fpu/libm.a(lib_a-sf_copysign.o)
 .debug_frame   0x0000801c       0x20 /usr/bin/../lib/gcc/arm-none-eabi/4.9.3/../../../../arm-none-eabi/lib/armv7e-m/fpu/libg.a(lib_a-errno.o)
 .debug_frame   0x0000803c       0x38 /usr/bin/../lib/gcc/arm-none-eabi/4.9.3/../../../../arm-none-eabi/lib/armv7e-m/fpu/libg.a(lib_a-memcmp.o)
 .debug_frame   0x00008074       0x34 /usr/bin/../lib/gcc/arm-none-eabi/4.9.3/../../../../arm-none-eabi/lib/armv7e-m/fpu/libg.a(lib_a-memset.o)
 .debug_frame   0x000080a8       0x84 /usr/bin/../lib/gcc/arm-none-eabi/4.9.3/../../../../arm-none-eabi/lib/armv7e-m/fpu/libg.a(lib_a-sscanf.o)
 .debug_frame   0x0000812c       0x88 /usr/bin/../lib/gcc/arm-none-eabi/4.9.3/../../../../arm-none-eabi/lib/armv7e-m/fpu/libg.a(lib_a-stdio.o)
 .debug_frame   0x000081b4       0x20 /usr/bin/../lib/gcc/arm-none-eabi/4.9.3/../../../../arm-none-eabi/lib/armv7e-m/fpu/libg.a(lib_a-strlen.o)
 .debug_frame   0x000081d4       0x20 /usr/bin/../lib/gcc/arm-none-eabi/4.9.3/../../../../arm-none-eabi/lib/armv7e-m/fpu/libg.a(lib_a-strtok.o)
 .debug_frame   0x000081f4       0x48 /usr/bin/../lib/gcc/arm-none-eabi/4.9.3/../../../../arm-none-eabi/lib/armv7e-m/fpu/libg.a(lib_a-strtok_r.o)
 .debug_frame   0x0000823c       0x70 /usr/bin/../lib/gcc/arm-none-eabi/4.9.3/../../../../arm-none-eabi/lib/armv7e-m/fpu/libg.a(lib_a-svfscanf.o)
 .debug_frame   0x000082ac       0x60 /usr/bin/../lib/gcc/arm-none-eabi/4.9.3/../../../../arm-none-eabi/lib/armv7e-m/fpu/libg.a(lib_a-vsnprintf.o)
 .debug_frame   0x0000830c       0x20 /usr/bin/../lib/gcc/arm-none-eabi/4.9.3/../../../../arm-none-eabi/lib/armv7e-m/fpu/libg.a(lib_a-iswspace.o)
 .debug_frame   0x0000832c       0x9c /usr/bin/../lib/gcc/arm-none-eabi/4.9.3/../../../../arm-none-eabi/lib/armv7e-m/fpu/libg.a(lib_a-locale.o)
 .debug_frame   0x000083c8       0x68 /usr/bin/../lib/gcc/arm-none-eabi/4.9.3/../../../../arm-none-eabi/lib/armv7e-m/fpu/libg.a(lib_a-mbrtowc.o)
 .debug_frame   0x00008430       0x58 /usr/bin/../lib/gcc/arm-none-eabi/4.9.3/../../../../arm-none-eabi/lib/armv7e-m/fpu/libg.a(lib_a-mbtowc_r.o)
 .debug_frame   0x00008488       0x44 /usr/bin/../lib/gcc/arm-none-eabi/4.9.3/../../../../arm-none-eabi/lib/armv7e-m/fpu/libg.a(lib_a-sccl.o)
 .debug_frame   0x000084cc       0x84 /usr/bin/../lib/gcc/arm-none-eabi/4.9.3/../../../../arm-none-eabi/lib/armv7e-m/fpu/libg.a(lib_a-sprintf.o)
 .debug_frame   0x00008550       0xa4 /usr/bin/../lib/gcc/arm-none-eabi/4.9.3/../../../../arm-none-eabi/lib/armv7e-m/fpu/libg.a(lib_a-strtod.o)
 .debug_frame   0x000085f4       0x54 /usr/bin/../lib/gcc/arm-none-eabi/4.9.3/../../../../arm-none-eabi/lib/armv7e-m/fpu/libg.a(lib_a-strtol.o)
 .debug_frame   0x00008648       0x40 /usr/bin/../lib/gcc/arm-none-eabi/4.9.3/../../../../arm-none-eabi/lib/armv7e-m/fpu/libg.a(lib_a-strtoll_r.o)
 .debug_frame   0x00008688       0x54 /usr/bin/../lib/gcc/arm-none-eabi/4.9.3/../../../../arm-none-eabi/lib/armv7e-m/fpu/libg.a(lib_a-strtoul.o)
 .debug_frame   0x000086dc       0x40 /usr/bin/../lib/gcc/arm-none-eabi/4.9.3/../../../../arm-none-eabi/lib/armv7e-m/fpu/libg.a(lib_a-strtoull_r.o)
 .debug_frame   0x0000871c       0xd0 /usr/bin/../lib/gcc/arm-none-eabi/4.9.3/../../../../arm-none-eabi/lib/armv7e-m/fpu/libg.a(lib_a-svfiscanf.o)
 .debug_frame   0x000087ec       0x40 /usr/bin/../lib/gcc/arm-none-eabi/4.9.3/../../../../arm-none-eabi/lib/armv7e-m/fpu/libg.a(lib_a-svfprintf.o)
 .debug_frame   0x0000882c       0x5c /usr/bin/../lib/gcc/arm-none-eabi/4.9.3/../../../../arm-none-eabi/lib/armv7e-m/fpu/libg.a(lib_a-ungetc.o)
 .debug_frame   0x00008888       0x88 /usr/bin/../lib/gcc/arm-none-eabi/4.9.3/../../../../arm-none-eabi/lib/armv7e-m/fpu/libg.a(lib_a-dtoa.o)
 .debug_frame   0x00008910       0x74 /usr/bin/../lib/gcc/arm-none-eabi/4.9.3/../../../../arm-none-eabi/lib/armv7e-m/fpu/libg.a(lib_a-freer.o)
 .debug_frame   0x00008984       0x6c /usr/bin/../lib/gcc/arm-none-eabi/4.9.3/../../../../arm-none-eabi/lib/armv7e-m/fpu/libg.a(lib_a-gdtoa-gethex.o)
 .debug_frame   0x000089f0       0x4c /usr/bin/../lib/gcc/arm-none-eabi/4.9.3/../../../../arm-none-eabi/lib/armv7e-m/fpu/libg.a(lib_a-gdtoa-hexnan.o)
 .debug_frame   0x00008a3c       0x58 /usr/bin/../lib/gcc/arm-none-eabi/4.9.3/../../../../arm-none-eabi/lib/armv7e-m/fpu/libg.a(lib_a-mallocr.o)
 .debug_frame   0x00008a94       0x3c /usr/bin/../lib/gcc/arm-none-eabi/4.9.3/../../../../arm-none-eabi/lib/armv7e-m/fpu/libg.a(lib_a-memchr.o)
 .debug_frame   0x00008ad0       0x30 /usr/bin/../lib/gcc/arm-none-eabi/4.9.3/../../../../arm-none-eabi/lib/armv7e-m/fpu/libg.a(lib_a-mlock.o)
 .debug_frame   0x00008b00      0x268 /usr/bin/../lib/gcc/arm-none-eabi/4.9.3/../../../../arm-none-eabi/lib/armv7e-m/fpu/libg.a(lib_a-mprec.o)
 .debug_frame   0x00008d68       0x60 /usr/bin/../lib/gcc/arm-none-eabi/4.9.3/../../../../arm-none-eabi/lib/armv7e-m/fpu/libg.a(lib_a-reallocr.o)
 .debug_frame   0x00008dc8       0x54 /usr/bin/../lib/gcc/arm-none-eabi/4.9.3/../../../../arm-none-eabi/lib/armv7e-m/fpu/libg.a(lib_a-strncmp.o)
 .debug_frame   0x00008e1c       0x78 /usr/bin/../lib/gcc/arm-none-eabi/4.9.3/../../../../arm-none-eabi/lib/armv7e-m/fpu/libg.a(lib_a-svfiprintf.o)
 .debug_frame   0x00008e94       0x28 /usr/bin/../lib/gcc/arm-none-eabi/4.9.3/../../../../arm-none-eabi/lib/armv7e-m/fpu/libg.a(lib_a-callocr.o)
 .debug_frame   0x00008ebc       0x30 /usr/bin/../lib/gcc/arm-none-eabi/4.9.3/../../../../arm-none-eabi/lib/armv7e-m/fpu/libg.a(lib_a-memmove.o)
 .debug_frame   0x00008eec       0x28 /usr/bin/../lib/gcc/arm-none-eabi/4.9.3/armv7e-m/fpu/libgcc.a(_aeabi_uldivmod.o)
 .debug_frame   0x00008f14       0x50 /usr/bin/../lib/gcc/arm-none-eabi/4.9.3/armv7e-m/fpu/libgcc.a(bpabi.o)
 .debug_frame   0x00008f64       0x34 /usr/bin/../lib/gcc/arm-none-eabi/4.9.3/armv7e-m/fpu/libgcc.a(_divdi3.o)
 .debug_frame   0x00008f98       0x30 /usr/bin/../lib/gcc/arm-none-eabi/4.9.3/armv7e-m/fpu/libgcc.a(_udivdi3.o)

.debug_loc      0x00000000    0x1b013
 .debug_loc     0x00000000      0x303 build/obj/chsys.o
 .debug_loc     0x00000303       0x9f build/obj/chvt.o
 .debug_loc     0x000003a2      0x371 build/obj/chschd.o
 .debug_loc     0x00000713      0xa5a build/obj/chthreads.o
 .debug_loc     0x0000116d       0xb7 build/obj/chtm.o
 .debug_loc     0x00001224      0x223 build/obj/chdynamic.o
 .debug_loc     0x00001447       0x3f build/obj/chregistry.o
 .debug_loc     0x00001486      0x5d6 build/obj/chmtx.o
 .debug_loc     0x00001a5c      0x61d build/obj/chevents.o
 .debug_loc     0x00002079      0x653 build/obj/chqueues.o
 .debug_loc     0x000026cc       0xb0 build/obj/chmemcore.o
 .debug_loc     0x0000277c      0x387 build/obj/chheap.o
 .debug_loc     0x00002b03      0x1f7 build/obj/chmempools.o
 .debug_loc     0x00002cfa       0xc7 build/obj/chcore_v7m.o
 .debug_loc     0x00002dc1      0x2bc build/obj/can.o
 .debug_loc     0x0000307d      0x29a build/obj/i2c.o
 .debug_loc     0x00003317       0xf9 build/obj/icu.o
 .debug_loc     0x00003410      0x92d build/obj/serial_usb.o
 .debug_loc     0x00003d3d      0x4cd build/obj/spi.o
 .debug_loc     0x0000420a      0x335 build/obj/uart.o
 .debug_loc     0x0000453f      0xde1 build/obj/usb.o
 .debug_loc     0x00005320       0xee build/obj/nvic.o
 .debug_loc     0x0000540e      0x276 build/obj/stm32_dma.o
 .debug_loc     0x00005684      0x636 build/obj/can_lld.o
 .debug_loc     0x00005cba      0x129 build/obj/pal_lld.o
 .debug_loc     0x00005de3      0xaa9 build/obj/i2c_lld.o
 .debug_loc     0x0000688c     0x112c build/obj/usb_lld.o
 .debug_loc     0x000079b8      0x2ab build/obj/spi_lld.o
 .debug_loc     0x00007c63      0x2a3 build/obj/icu_lld.o
 .debug_loc     0x00007f06      0x3ee build/obj/uart_lld.o
 .debug_loc     0x000082f4      0x183 build/obj/syscalls.o
 .debug_loc     0x00008477       0xcb build/obj/main.o
 .debug_loc     0x00008542      0x124 build/obj/comm_usb_serial.o
 .debug_loc     0x00008666      0x258 build/obj/buffer.o
 .debug_loc     0x000088be      0x1d6 build/obj/comm_usb.o
 .debug_loc     0x00008a94       0xa6 build/obj/crc.o
 .debug_loc     0x00008b3a      0xac4 build/obj/digital_filter.o
 .debug_loc     0x000095fe       0x5b build/obj/ledpwm.o
 .debug_loc     0x00009659     0x1baa build/obj/mcpwm.o
 .debug_loc     0x0000b203      0x174 build/obj/servo_dec.o
 .debug_loc     0x0000b377      0x8e1 build/obj/utils.o
 .debug_loc     0x0000bc58      0x2e3 build/obj/packet.o
 .debug_loc     0x0000bf3b      0x499 build/obj/terminal.o
 .debug_loc     0x0000c3d4      0x910 build/obj/conf_general.o
 .debug_loc     0x0000cce4      0x8a1 build/obj/eeprom.o
 .debug_loc     0x0000d585     0x110d build/obj/commands.o
 .debug_loc     0x0000e692       0x34 build/obj/timeout.o
 .debug_loc     0x0000e6c6      0x882 build/obj/comm_can.o
 .debug_loc     0x0000ef48      0x4c8 build/obj/led_external.o
 .debug_loc     0x0000f410      0x12a build/obj/encoder.o
 .debug_loc     0x0000f53a      0x24c build/obj/flash_helper.o
 .debug_loc     0x0000f786      0xaae build/obj/mc_interface.o
 .debug_loc     0x00010234     0x2612 build/obj/mcpwm_foc.o
 .debug_loc     0x00012846       0x41 build/obj/hw_410.o
 .debug_loc     0x00012887       0x4d build/obj/app.o
 .debug_loc     0x000128d4      0xec9 build/obj/app_ppm.o
 .debug_loc     0x0001379d      0xc85 build/obj/app_adc.o
 .debug_loc     0x00014422      0x1a6 build/obj/app_uartcomm.o
 .debug_loc     0x000145c8      0xc97 build/obj/app_nunchuk.o
 .debug_loc     0x0001525f       0xc2 build/obj/spi_sw.o
 .debug_loc     0x00015321      0x98b build/obj/rf.o
 .debug_loc     0x00015cac      0x553 build/obj/rfhelp.o
 .debug_loc     0x000161ff      0x5b7 build/obj/nrf_driver.o
 .debug_loc     0x000167b6      0xa81 build/obj/stm32f4xx_adc.o
 .debug_loc     0x00017237      0x480 build/obj/stm32f4xx_dma.o
 .debug_loc     0x000176b7      0x1a1 build/obj/stm32f4xx_exti.o
 .debug_loc     0x00017858      0x8b7 build/obj/stm32f4xx_flash.o
 .debug_loc     0x0001810f      0x9f2 build/obj/stm32f4xx_rcc.o
 .debug_loc     0x00018b01       0xa6 build/obj/stm32f4xx_syscfg.o
 .debug_loc     0x00018ba7     0x239b build/obj/stm32f4xx_tim.o
 .debug_loc     0x0001af42       0xd1 build/obj/stm32f4xx_wwdg.o

Cross Reference Table

Symbol                                            File
ADC_AnalogWatchdogCmd                             build/obj/stm32f4xx_adc.o
ADC_AnalogWatchdogSingleChannelConfig             build/obj/stm32f4xx_adc.o
ADC_AnalogWatchdogThresholdsConfig                build/obj/stm32f4xx_adc.o
ADC_AutoInjectedConvCmd                           build/obj/stm32f4xx_adc.o
ADC_ClearFlag                                     build/obj/stm32f4xx_adc.o
ADC_ClearITPendingBit                             build/obj/stm32f4xx_adc.o
                                                  build/obj/irq_handlers.o
ADC_Cmd                                           build/obj/stm32f4xx_adc.o
                                                  build/obj/mcpwm_foc.o
                                                  build/obj/mcpwm.o
ADC_CommonInit                                    build/obj/stm32f4xx_adc.o
                                                  build/obj/mcpwm_foc.o
                                                  build/obj/mcpwm.o
ADC_CommonStructInit                              build/obj/stm32f4xx_adc.o
ADC_ContinuousModeCmd                             build/obj/stm32f4xx_adc.o
ADC_DMACmd                                        build/obj/stm32f4xx_adc.o
ADC_DMARequestAfterLastTransferCmd                build/obj/stm32f4xx_adc.o
ADC_DeInit                                        build/obj/stm32f4xx_adc.o
                                                  build/obj/mcpwm_foc.o
                                                  build/obj/mcpwm.o
ADC_DiscModeChannelCountConfig                    build/obj/stm32f4xx_adc.o
ADC_DiscModeCmd                                   build/obj/stm32f4xx_adc.o
ADC_EOCOnEachRegularChannelCmd                    build/obj/stm32f4xx_adc.o
ADC_ExternalTrigInjectedConvConfig                build/obj/stm32f4xx_adc.o
                                                  build/obj/mcpwm_foc.o
                                                  build/obj/mcpwm.o
ADC_ExternalTrigInjectedConvEdgeConfig            build/obj/stm32f4xx_adc.o
                                                  build/obj/mcpwm_foc.o
                                                  build/obj/mcpwm.o
ADC_GetConversionValue                            build/obj/stm32f4xx_adc.o
ADC_GetFlagStatus                                 build/obj/stm32f4xx_adc.o
ADC_GetITStatus                                   build/obj/stm32f4xx_adc.o
ADC_GetInjectedConversionValue                    build/obj/stm32f4xx_adc.o
                                                  build/obj/mcpwm_foc.o
                                                  build/obj/mcpwm.o
ADC_GetMultiModeConversionValue                   build/obj/stm32f4xx_adc.o
ADC_GetSoftwareStartConvStatus                    build/obj/stm32f4xx_adc.o
ADC_GetSoftwareStartInjectedConvCmdStatus         build/obj/stm32f4xx_adc.o
ADC_ITConfig                                      build/obj/stm32f4xx_adc.o
                                                  build/obj/mcpwm_foc.o
                                                  build/obj/mcpwm.o
ADC_Init                                          build/obj/stm32f4xx_adc.o
                                                  build/obj/mcpwm_foc.o
                                                  build/obj/mcpwm.o
ADC_InjectedChannelConfig                         build/obj/stm32f4xx_adc.o
                                                  build/obj/hw_410.o
ADC_InjectedDiscModeCmd                           build/obj/stm32f4xx_adc.o
ADC_InjectedSequencerLengthConfig                 build/obj/stm32f4xx_adc.o
                                                  build/obj/mcpwm_foc.o
                                                  build/obj/mcpwm.o
ADC_MultiModeDMARequestAfterLastTransferCmd       build/obj/stm32f4xx_adc.o
                                                  build/obj/mcpwm_foc.o
                                                  build/obj/mcpwm.o
ADC_RegularChannelConfig                          build/obj/stm32f4xx_adc.o
                                                  build/obj/hw_410.o
ADC_SetInjectedOffset                             build/obj/stm32f4xx_adc.o
ADC_SoftwareStartConv                             build/obj/stm32f4xx_adc.o
ADC_SoftwareStartInjectedConv                     build/obj/stm32f4xx_adc.o
ADC_StructInit                                    build/obj/stm32f4xx_adc.o
ADC_TempSensorVrefintCmd                          build/obj/stm32f4xx_adc.o
                                                  build/obj/mcpwm_foc.o
                                                  build/obj/mcpwm.o
ADC_VBATCmd                                       build/obj/stm32f4xx_adc.o
ADC_Value                                         build/obj/mc_interface.o
                                                  build/obj/app_adc.o
                                                  build/obj/mcpwm_foc.o
                                                  build/obj/led_external.o
                                                  build/obj/commands.o
                                                  build/obj/conf_general.o
                                                  build/obj/terminal.o
                                                  build/obj/mcpwm.o
ADC_curr_norm_value                               build/obj/mc_interface.o
                                                  build/obj/mcpwm_foc.o
                                                  build/obj/mcpwm.o
BusFault_Handler                                  build/obj/vectors.o
CAND1                                             build/obj/can_lld.o
                                                  build/obj/comm_can.o
DMA_ClearFlag                                     build/obj/stm32f4xx_dma.o
DMA_ClearITPendingBit                             build/obj/stm32f4xx_dma.o
DMA_Cmd                                           build/obj/stm32f4xx_dma.o
                                                  build/obj/mcpwm_foc.o
                                                  build/obj/ws2811.o
                                                  build/obj/mcpwm.o
DMA_DeInit                                        build/obj/stm32f4xx_dma.o
                                                  build/obj/mcpwm_foc.o
                                                  build/obj/ws2811.o
                                                  build/obj/mcpwm.o
DMA_DoubleBufferModeCmd                           build/obj/stm32f4xx_dma.o
DMA_DoubleBufferModeConfig                        build/obj/stm32f4xx_dma.o
DMA_FlowControllerConfig                          build/obj/stm32f4xx_dma.o
DMA_GetCmdStatus                                  build/obj/stm32f4xx_dma.o
DMA_GetCurrDataCounter                            build/obj/stm32f4xx_dma.o
DMA_GetCurrentMemoryTarget                        build/obj/stm32f4xx_dma.o
DMA_GetFIFOStatus                                 build/obj/stm32f4xx_dma.o
DMA_GetFlagStatus                                 build/obj/stm32f4xx_dma.o
DMA_GetITStatus                                   build/obj/stm32f4xx_dma.o
DMA_ITConfig                                      build/obj/stm32f4xx_dma.o
                                                  build/obj/mcpwm.o
DMA_Init                                          build/obj/stm32f4xx_dma.o
                                                  build/obj/mcpwm_foc.o
                                                  build/obj/ws2811.o
                                                  build/obj/mcpwm.o
DMA_MemoryTargetConfig                            build/obj/stm32f4xx_dma.o
DMA_PeriphIncOffsetSizeConfig                     build/obj/stm32f4xx_dma.o
DMA_SetCurrDataCounter                            build/obj/stm32f4xx_dma.o
DMA_StructInit                                    build/obj/stm32f4xx_dma.o
DataVar                                           build/obj/eeprom.o
DebugMon_Handler                                  build/obj/vectors.o
EE_Init                                           build/obj/eeprom.o
                                                  build/obj/conf_general.o
EE_ReadVariable                                   build/obj/eeprom.o
                                                  build/obj/conf_general.o
EE_WriteVariable                                  build/obj/eeprom.o
                                                  build/obj/conf_general.o
EXTI_ClearFlag                                    build/obj/stm32f4xx_exti.o
EXTI_ClearITPendingBit                            build/obj/stm32f4xx_exti.o
                                                  build/obj/irq_handlers.o
EXTI_DeInit                                       build/obj/stm32f4xx_exti.o
EXTI_GenerateSWInterrupt                          build/obj/stm32f4xx_exti.o
EXTI_GetFlagStatus                                build/obj/stm32f4xx_exti.o
EXTI_GetITStatus                                  build/obj/stm32f4xx_exti.o
                                                  build/obj/irq_handlers.o
EXTI_Init                                         build/obj/stm32f4xx_exti.o
                                                  build/obj/encoder.o
EXTI_StructInit                                   build/obj/stm32f4xx_exti.o
FLASH_ClearFlag                                   build/obj/stm32f4xx_flash.o
                                                  build/obj/flash_helper.o
                                                  build/obj/conf_general.o
FLASH_DataCacheCmd                                build/obj/stm32f4xx_flash.o
FLASH_DataCacheReset                              build/obj/stm32f4xx_flash.o
FLASH_EraseAllBank1Sectors                        build/obj/stm32f4xx_flash.o
FLASH_EraseAllBank2Sectors                        build/obj/stm32f4xx_flash.o
FLASH_EraseAllSectors                             build/obj/stm32f4xx_flash.o
FLASH_EraseSector                                 build/obj/stm32f4xx_flash.o
                                                  build/obj/flash_helper.o
                                                  build/obj/eeprom.o
FLASH_GetFlagStatus                               build/obj/stm32f4xx_flash.o
FLASH_GetStatus                                   build/obj/stm32f4xx_flash.o
FLASH_ITConfig                                    build/obj/stm32f4xx_flash.o
FLASH_InstructionCacheCmd                         build/obj/stm32f4xx_flash.o
FLASH_InstructionCacheReset                       build/obj/stm32f4xx_flash.o
FLASH_Lock                                        build/obj/stm32f4xx_flash.o
FLASH_OB_BORConfig                                build/obj/stm32f4xx_flash.o
FLASH_OB_BootConfig                               build/obj/stm32f4xx_flash.o
FLASH_OB_GetBOR                                   build/obj/stm32f4xx_flash.o
FLASH_OB_GetPCROP                                 build/obj/stm32f4xx_flash.o
FLASH_OB_GetPCROP1                                build/obj/stm32f4xx_flash.o
FLASH_OB_GetRDP                                   build/obj/stm32f4xx_flash.o
FLASH_OB_GetUser                                  build/obj/stm32f4xx_flash.o
FLASH_OB_GetWRP                                   build/obj/stm32f4xx_flash.o
FLASH_OB_GetWRP1                                  build/obj/stm32f4xx_flash.o
FLASH_OB_Launch                                   build/obj/stm32f4xx_flash.o
FLASH_OB_Lock                                     build/obj/stm32f4xx_flash.o
FLASH_OB_PCROP1Config                             build/obj/stm32f4xx_flash.o
FLASH_OB_PCROPConfig                              build/obj/stm32f4xx_flash.o
FLASH_OB_PCROPSelectionConfig                     build/obj/stm32f4xx_flash.o
FLASH_OB_RDPConfig                                build/obj/stm32f4xx_flash.o
FLASH_OB_Unlock                                   build/obj/stm32f4xx_flash.o
FLASH_OB_UserConfig                               build/obj/stm32f4xx_flash.o
FLASH_OB_WRP1Config                               build/obj/stm32f4xx_flash.o
FLASH_OB_WRPConfig                                build/obj/stm32f4xx_flash.o
FLASH_PrefetchBufferCmd                           build/obj/stm32f4xx_flash.o
FLASH_ProgramByte                                 build/obj/stm32f4xx_flash.o
                                                  build/obj/flash_helper.o
FLASH_ProgramDoubleWord                           build/obj/stm32f4xx_flash.o
FLASH_ProgramHalfWord                             build/obj/stm32f4xx_flash.o
                                                  build/obj/eeprom.o
FLASH_ProgramWord                                 build/obj/stm32f4xx_flash.o
FLASH_SetLatency                                  build/obj/stm32f4xx_flash.o
FLASH_Unlock                                      build/obj/stm32f4xx_flash.o
                                                  build/obj/flash_helper.o
                                                  build/obj/conf_general.o
FLASH_WaitForLastOperation                        build/obj/stm32f4xx_flash.o
HardFault_Handler                                 build/obj/vectors.o
I2CD2                                             build/obj/i2c_lld.o
                                                  build/obj/app_nunchuk.o
                                                  build/obj/hw_410.o
ICUD3                                             build/obj/icu_lld.o
                                                  build/obj/servo_dec.o
MemManage_Handler                                 build/obj/vectors.o
NMI_Handler                                       build/obj/vectors.o
NVIC_Init                                         build/obj/misc.o
NVIC_PriorityGroupConfig                          build/obj/misc.o
NVIC_SetVectorTable                               build/obj/misc.o
NVIC_SystemLPConfig                               build/obj/misc.o
PendSV_Handler                                    build/obj/vectors.o
RCC_AHB1PeriphClockCmd                            build/obj/stm32f4xx_rcc.o
                                                  build/obj/hw_410.o
                                                  build/obj/mcpwm_foc.o
                                                  build/obj/ws2811.o
                                                  build/obj/mcpwm.o
RCC_AHB1PeriphClockLPModeCmd                      build/obj/stm32f4xx_rcc.o
RCC_AHB1PeriphResetCmd                            build/obj/stm32f4xx_rcc.o
RCC_AHB2PeriphClockCmd                            build/obj/stm32f4xx_rcc.o
RCC_AHB2PeriphClockLPModeCmd                      build/obj/stm32f4xx_rcc.o
RCC_AHB2PeriphResetCmd                            build/obj/stm32f4xx_rcc.o
RCC_APB1PeriphClockCmd                            build/obj/stm32f4xx_rcc.o
                                                  build/obj/mcpwm_foc.o
                                                  build/obj/flash_helper.o
                                                  build/obj/encoder.o
                                                  build/obj/ws2811.o
                                                  build/obj/conf_general.o
                                                  build/obj/mcpwm.o
RCC_APB1PeriphClockLPModeCmd                      build/obj/stm32f4xx_rcc.o
RCC_APB1PeriphResetCmd                            build/obj/stm32f4xx_rcc.o
                                                  build/obj/stm32f4xx_wwdg.o
                                                  build/obj/stm32f4xx_tim.o
RCC_APB2PeriphClockCmd                            build/obj/stm32f4xx_rcc.o
                                                  build/obj/mcpwm_foc.o
                                                  build/obj/encoder.o
                                                  build/obj/mcpwm.o
RCC_APB2PeriphClockLPModeCmd                      build/obj/stm32f4xx_rcc.o
RCC_APB2PeriphResetCmd                            build/obj/stm32f4xx_rcc.o
                                                  build/obj/stm32f4xx_tim.o
                                                  build/obj/stm32f4xx_syscfg.o
                                                  build/obj/stm32f4xx_adc.o
RCC_AdjustHSICalibrationValue                     build/obj/stm32f4xx_rcc.o
RCC_BackupResetCmd                                build/obj/stm32f4xx_rcc.o
RCC_ClearFlag                                     build/obj/stm32f4xx_rcc.o
RCC_ClearITPendingBit                             build/obj/stm32f4xx_rcc.o
RCC_ClockSecuritySystemCmd                        build/obj/stm32f4xx_rcc.o
RCC_DeInit                                        build/obj/stm32f4xx_rcc.o
RCC_GetClocksFreq                                 build/obj/stm32f4xx_rcc.o
RCC_GetFlagStatus                                 build/obj/stm32f4xx_rcc.o
RCC_GetITStatus                                   build/obj/stm32f4xx_rcc.o
RCC_GetSYSCLKSource                               build/obj/stm32f4xx_rcc.o
RCC_HCLKConfig                                    build/obj/stm32f4xx_rcc.o
RCC_HSEConfig                                     build/obj/stm32f4xx_rcc.o
RCC_HSICmd                                        build/obj/stm32f4xx_rcc.o
RCC_ITConfig                                      build/obj/stm32f4xx_rcc.o
RCC_LSEConfig                                     build/obj/stm32f4xx_rcc.o
RCC_LSEModeConfig                                 build/obj/stm32f4xx_rcc.o
RCC_LSICmd                                        build/obj/stm32f4xx_rcc.o
RCC_MCO1Config                                    build/obj/stm32f4xx_rcc.o
RCC_MCO2Config                                    build/obj/stm32f4xx_rcc.o
RCC_PCLK1Config                                   build/obj/stm32f4xx_rcc.o
RCC_PCLK2Config                                   build/obj/stm32f4xx_rcc.o
RCC_PLLCmd                                        build/obj/stm32f4xx_rcc.o
RCC_PLLI2SCmd                                     build/obj/stm32f4xx_rcc.o
RCC_PLLSAICmd                                     build/obj/stm32f4xx_rcc.o
RCC_RTCCLKCmd                                     build/obj/stm32f4xx_rcc.o
RCC_RTCCLKConfig                                  build/obj/stm32f4xx_rcc.o
RCC_SYSCLKConfig                                  build/obj/stm32f4xx_rcc.o
RCC_TIMCLKPresConfig                              build/obj/stm32f4xx_rcc.o
RCC_WaitForHSEStartUp                             build/obj/stm32f4xx_rcc.o
Reset_Handler                                     build/obj/crt0_v7m.o
SDU1                                              build/obj/comm_usb_serial.o
                                                  build/obj/comm_usb.o
SPID1                                             build/obj/spi_lld.o
SVC_Handler                                       build/obj/chcore_v7m.o
                                                  build/obj/vectors.o
SYSCFG_CompensationCellCmd                        build/obj/stm32f4xx_syscfg.o
SYSCFG_DeInit                                     build/obj/stm32f4xx_syscfg.o
SYSCFG_ETH_MediaInterfaceConfig                   build/obj/stm32f4xx_syscfg.o
SYSCFG_EXTILineConfig                             build/obj/stm32f4xx_syscfg.o
                                                  build/obj/encoder.o
SYSCFG_GetCompensationCellStatus                  build/obj/stm32f4xx_syscfg.o
SYSCFG_MemoryRemapConfig                          build/obj/stm32f4xx_syscfg.o
SYSCFG_MemorySwappingBank                         build/obj/stm32f4xx_syscfg.o
SysTick_CLKSourceConfig                           build/obj/misc.o
SysTick_Handler                                   build/obj/st_lld.o
                                                  build/obj/vectors.o
SystemCoreClock                                   build/obj/hal_lld.o
TIM_ARRPreloadConfig                              build/obj/stm32f4xx_tim.o
                                                  build/obj/mcpwm_foc.o
                                                  build/obj/mcpwm.o
TIM_BDTRConfig                                    build/obj/stm32f4xx_tim.o
                                                  build/obj/mcpwm_foc.o
                                                  build/obj/mcpwm.o
TIM_BDTRStructInit                                build/obj/stm32f4xx_tim.o
TIM_CCPreloadControl                              build/obj/stm32f4xx_tim.o
                                                  build/obj/mcpwm_foc.o
                                                  build/obj/mcpwm.o
TIM_CCxCmd                                        build/obj/stm32f4xx_tim.o
                                                  build/obj/mcpwm_foc.o
                                                  build/obj/mcpwm.o
TIM_CCxNCmd                                       build/obj/stm32f4xx_tim.o
                                                  build/obj/mcpwm_foc.o
                                                  build/obj/mcpwm.o
TIM_ClearFlag                                     build/obj/stm32f4xx_tim.o
TIM_ClearITPendingBit                             build/obj/stm32f4xx_tim.o
                                                  build/obj/irq_handlers.o
TIM_ClearOC1Ref                                   build/obj/stm32f4xx_tim.o
TIM_ClearOC2Ref                                   build/obj/stm32f4xx_tim.o
TIM_ClearOC3Ref                                   build/obj/stm32f4xx_tim.o
TIM_ClearOC4Ref                                   build/obj/stm32f4xx_tim.o
TIM_Cmd                                           build/obj/stm32f4xx_tim.o
                                                  build/obj/mcpwm_foc.o
                                                  build/obj/encoder.o
                                                  build/obj/ws2811.o
                                                  build/obj/mcpwm.o
TIM_CounterModeConfig                             build/obj/stm32f4xx_tim.o
TIM_CtrlPWMOutputs                                build/obj/stm32f4xx_tim.o
                                                  build/obj/mcpwm_foc.o
                                                  build/obj/ws2811.o
                                                  build/obj/mcpwm.o
TIM_DMACmd                                        build/obj/stm32f4xx_tim.o
                                                  build/obj/ws2811.o
TIM_DMAConfig                                     build/obj/stm32f4xx_tim.o
TIM_DeInit                                        build/obj/stm32f4xx_tim.o
                                                  build/obj/mcpwm_foc.o
                                                  build/obj/encoder.o
                                                  build/obj/mcpwm.o
TIM_ETRClockMode1Config                           build/obj/stm32f4xx_tim.o
TIM_ETRClockMode2Config                           build/obj/stm32f4xx_tim.o
TIM_ETRConfig                                     build/obj/stm32f4xx_tim.o
TIM_EncoderInterfaceConfig                        build/obj/stm32f4xx_tim.o
                                                  build/obj/encoder.o
TIM_ForcedOC1Config                               build/obj/stm32f4xx_tim.o
TIM_ForcedOC2Config                               build/obj/stm32f4xx_tim.o
TIM_ForcedOC3Config                               build/obj/stm32f4xx_tim.o
TIM_ForcedOC4Config                               build/obj/stm32f4xx_tim.o
TIM_GenerateEvent                                 build/obj/stm32f4xx_tim.o
                                                  build/obj/mcpwm_foc.o
                                                  build/obj/mcpwm.o
TIM_GetCapture1                                   build/obj/stm32f4xx_tim.o
TIM_GetCapture2                                   build/obj/stm32f4xx_tim.o
TIM_GetCapture3                                   build/obj/stm32f4xx_tim.o
TIM_GetCapture4                                   build/obj/stm32f4xx_tim.o
TIM_GetCounter                                    build/obj/stm32f4xx_tim.o
TIM_GetFlagStatus                                 build/obj/stm32f4xx_tim.o
TIM_GetITStatus                                   build/obj/stm32f4xx_tim.o
                                                  build/obj/irq_handlers.o
TIM_GetPrescaler                                  build/obj/stm32f4xx_tim.o
TIM_ICInit                                        build/obj/stm32f4xx_tim.o
TIM_ICStructInit                                  build/obj/stm32f4xx_tim.o
TIM_ITConfig                                      build/obj/stm32f4xx_tim.o
                                                  build/obj/encoder.o
TIM_ITRxExternalClockConfig                       build/obj/stm32f4xx_tim.o
TIM_InternalClockConfig                           build/obj/stm32f4xx_tim.o
TIM_OC1FastConfig                                 build/obj/stm32f4xx_tim.o
TIM_OC1Init                                       build/obj/stm32f4xx_tim.o
                                                  build/obj/mcpwm_foc.o
                                                  build/obj/mcpwm.o
TIM_OC1NPolarityConfig                            build/obj/stm32f4xx_tim.o
TIM_OC1PolarityConfig                             build/obj/stm32f4xx_tim.o
TIM_OC1PreloadConfig                              build/obj/stm32f4xx_tim.o
                                                  build/obj/mcpwm_foc.o
                                                  build/obj/mcpwm.o
TIM_OC2FastConfig                                 build/obj/stm32f4xx_tim.o
TIM_OC2Init                                       build/obj/stm32f4xx_tim.o
                                                  build/obj/mcpwm_foc.o
                                                  build/obj/ws2811.o
                                                  build/obj/mcpwm.o
TIM_OC2NPolarityConfig                            build/obj/stm32f4xx_tim.o
TIM_OC2PolarityConfig                             build/obj/stm32f4xx_tim.o
TIM_OC2PreloadConfig                              build/obj/stm32f4xx_tim.o
                                                  build/obj/mcpwm_foc.o
                                                  build/obj/ws2811.o
                                                  build/obj/mcpwm.o
TIM_OC3FastConfig                                 build/obj/stm32f4xx_tim.o
TIM_OC3Init                                       build/obj/stm32f4xx_tim.o
                                                  build/obj/mcpwm_foc.o
                                                  build/obj/mcpwm.o
TIM_OC3NPolarityConfig                            build/obj/stm32f4xx_tim.o
TIM_OC3PolarityConfig                             build/obj/stm32f4xx_tim.o
TIM_OC3PreloadConfig                              build/obj/stm32f4xx_tim.o
                                                  build/obj/mcpwm_foc.o
                                                  build/obj/mcpwm.o
TIM_OC4FastConfig                                 build/obj/stm32f4xx_tim.o
TIM_OC4Init                                       build/obj/stm32f4xx_tim.o
                                                  build/obj/mcpwm_foc.o
                                                  build/obj/mcpwm.o
TIM_OC4PolarityConfig                             build/obj/stm32f4xx_tim.o
TIM_OC4PreloadConfig                              build/obj/stm32f4xx_tim.o
                                                  build/obj/mcpwm_foc.o
                                                  build/obj/mcpwm.o
TIM_OCStructInit                                  build/obj/stm32f4xx_tim.o
TIM_PWMIConfig                                    build/obj/stm32f4xx_tim.o
TIM_PrescalerConfig                               build/obj/stm32f4xx_tim.o
TIM_RemapConfig                                   build/obj/stm32f4xx_tim.o
TIM_SelectCCDMA                                   build/obj/stm32f4xx_tim.o
TIM_SelectCOM                                     build/obj/stm32f4xx_tim.o
TIM_SelectHallSensor                              build/obj/stm32f4xx_tim.o
TIM_SelectInputTrigger                            build/obj/stm32f4xx_tim.o
                                                  build/obj/mcpwm_foc.o
                                                  build/obj/mcpwm.o
TIM_SelectMasterSlaveMode                         build/obj/stm32f4xx_tim.o
                                                  build/obj/mcpwm_foc.o
                                                  build/obj/mcpwm.o
TIM_SelectOCxM                                    build/obj/stm32f4xx_tim.o
                                                  build/obj/mcpwm_foc.o
                                                  build/obj/mcpwm.o
TIM_SelectOnePulseMode                            build/obj/stm32f4xx_tim.o
TIM_SelectOutputTrigger                           build/obj/stm32f4xx_tim.o
                                                  build/obj/mcpwm_foc.o
                                                  build/obj/mcpwm.o
TIM_SelectSlaveMode                               build/obj/stm32f4xx_tim.o
                                                  build/obj/mcpwm_foc.o
                                                  build/obj/mcpwm.o
TIM_SetAutoreload                                 build/obj/stm32f4xx_tim.o
                                                  build/obj/encoder.o
TIM_SetClockDivision                              build/obj/stm32f4xx_tim.o
TIM_SetCompare1                                   build/obj/stm32f4xx_tim.o
TIM_SetCompare2                                   build/obj/stm32f4xx_tim.o
TIM_SetCompare3                                   build/obj/stm32f4xx_tim.o
TIM_SetCompare4                                   build/obj/stm32f4xx_tim.o
TIM_SetCounter                                    build/obj/stm32f4xx_tim.o
TIM_SetIC1Prescaler                               build/obj/stm32f4xx_tim.o
TIM_SetIC2Prescaler                               build/obj/stm32f4xx_tim.o
TIM_SetIC3Prescaler                               build/obj/stm32f4xx_tim.o
TIM_SetIC4Prescaler                               build/obj/stm32f4xx_tim.o
TIM_TIxExternalClockConfig                        build/obj/stm32f4xx_tim.o
TIM_TimeBaseInit                                  build/obj/stm32f4xx_tim.o
                                                  build/obj/mcpwm_foc.o
                                                  build/obj/encoder.o
                                                  build/obj/ws2811.o
                                                  build/obj/mcpwm.o
TIM_TimeBaseStructInit                            build/obj/stm32f4xx_tim.o
TIM_UpdateDisableConfig                           build/obj/stm32f4xx_tim.o
TIM_UpdateRequestConfig                           build/obj/stm32f4xx_tim.o
UARTD3                                            build/obj/uart_lld.o
UARTD6                                            build/obj/uart_lld.o
                                                  build/obj/app_uartcomm.o
                                                  build/obj/flash_helper.o
USBD1                                             build/obj/usb_lld.o
                                                  build/obj/flash_helper.o
                                                  build/obj/comm_usb_serial.o
UsageFault_Handler                                build/obj/vectors.o
Vector100                                         build/obj/vectors.o
Vector104                                         build/obj/vectors.o
Vector108                                         build/obj/vectors.o
Vector10C                                         build/obj/vectors.o
Vector110                                         build/obj/vectors.o
Vector114                                         build/obj/vectors.o
Vector118                                         build/obj/vectors.o
Vector11C                                         build/obj/vectors.o
Vector120                                         build/obj/stm32_dma.o
                                                  build/obj/vectors.o
Vector124                                         build/obj/stm32_dma.o
                                                  build/obj/vectors.o
Vector128                                         build/obj/stm32_dma.o
                                                  build/obj/vectors.o
Vector12C                                         build/obj/stm32_dma.o
                                                  build/obj/vectors.o
Vector130                                         build/obj/stm32_dma.o
                                                  build/obj/vectors.o
Vector134                                         build/obj/vectors.o
Vector138                                         build/obj/vectors.o
Vector13C                                         build/obj/vectors.o
Vector140                                         build/obj/vectors.o
Vector144                                         build/obj/vectors.o
Vector148                                         build/obj/vectors.o
Vector14C                                         build/obj/usb_lld.o
                                                  build/obj/vectors.o
Vector150                                         build/obj/stm32_dma.o
                                                  build/obj/vectors.o
Vector154                                         build/obj/stm32_dma.o
                                                  build/obj/vectors.o
Vector158                                         build/obj/stm32_dma.o
                                                  build/obj/vectors.o
Vector15C                                         build/obj/uart_lld.o
                                                  build/obj/vectors.o
Vector160                                         build/obj/vectors.o
Vector164                                         build/obj/vectors.o
Vector168                                         build/obj/vectors.o
Vector16C                                         build/obj/vectors.o
Vector170                                         build/obj/vectors.o
Vector174                                         build/obj/vectors.o
Vector178                                         build/obj/vectors.o
Vector17C                                         build/obj/vectors.o
Vector180                                         build/obj/vectors.o
Vector184                                         build/obj/vectors.o
Vector188                                         build/obj/vectors.o
Vector18C                                         build/obj/vectors.o
Vector190                                         build/obj/vectors.o
Vector194                                         build/obj/vectors.o
Vector198                                         build/obj/vectors.o
Vector19C                                         build/obj/vectors.o
Vector1A0                                         build/obj/vectors.o
Vector1A4                                         build/obj/vectors.o
Vector1A8                                         build/obj/vectors.o
Vector1AC                                         build/obj/vectors.o
Vector1B0                                         build/obj/vectors.o
Vector1B4                                         build/obj/vectors.o
Vector1B8                                         build/obj/vectors.o
Vector1BC                                         build/obj/vectors.o
Vector1C                                          build/obj/vectors.o
Vector20                                          build/obj/vectors.o
Vector24                                          build/obj/vectors.o
Vector28                                          build/obj/vectors.o
Vector34                                          build/obj/vectors.o
Vector40                                          build/obj/vectors.o
Vector44                                          build/obj/vectors.o
Vector48                                          build/obj/vectors.o
Vector4C                                          build/obj/vectors.o
Vector50                                          build/obj/vectors.o
Vector54                                          build/obj/vectors.o
Vector58                                          build/obj/vectors.o
Vector5C                                          build/obj/vectors.o
Vector60                                          build/obj/vectors.o
Vector64                                          build/obj/vectors.o
Vector68                                          build/obj/vectors.o
Vector6C                                          build/obj/stm32_dma.o
                                                  build/obj/vectors.o
Vector70                                          build/obj/stm32_dma.o
                                                  build/obj/vectors.o
Vector74                                          build/obj/stm32_dma.o
                                                  build/obj/vectors.o
Vector78                                          build/obj/stm32_dma.o
                                                  build/obj/vectors.o
Vector7C                                          build/obj/stm32_dma.o
                                                  build/obj/vectors.o
Vector80                                          build/obj/stm32_dma.o
                                                  build/obj/vectors.o
Vector84                                          build/obj/stm32_dma.o
                                                  build/obj/vectors.o
Vector88                                          build/obj/irq_handlers.o
                                                  build/obj/vectors.o
Vector8C                                          build/obj/can_lld.o
                                                  build/obj/vectors.o
Vector90                                          build/obj/can_lld.o
                                                  build/obj/vectors.o
Vector94                                          build/obj/can_lld.o
                                                  build/obj/vectors.o
Vector98                                          build/obj/can_lld.o
                                                  build/obj/vectors.o
Vector9C                                          build/obj/vectors.o
VectorA0                                          build/obj/vectors.o
VectorA4                                          build/obj/vectors.o
VectorA8                                          build/obj/vectors.o
VectorAC                                          build/obj/vectors.o
VectorB0                                          build/obj/vectors.o
VectorB4                                          build/obj/icu_lld.o
                                                  build/obj/vectors.o
VectorB8                                          build/obj/irq_handlers.o
                                                  build/obj/vectors.o
VectorBC                                          build/obj/vectors.o
VectorC0                                          build/obj/vectors.o
VectorC4                                          build/obj/i2c_lld.o
                                                  build/obj/vectors.o
VectorC8                                          build/obj/i2c_lld.o
                                                  build/obj/vectors.o
VectorCC                                          build/obj/vectors.o
VectorD0                                          build/obj/vectors.o
VectorD4                                          build/obj/vectors.o
VectorD8                                          build/obj/vectors.o
VectorDC                                          build/obj/uart_lld.o
                                                  build/obj/vectors.o
VectorE0                                          build/obj/irq_handlers.o
                                                  build/obj/vectors.o
VectorE4                                          build/obj/vectors.o
VectorE8                                          build/obj/vectors.o
VectorEC                                          build/obj/vectors.o
VectorF0                                          build/obj/vectors.o
VectorF4                                          build/obj/vectors.o
VectorF8                                          build/obj/vectors.o
VectorFC                                          build/obj/stm32_dma.o
                                                  build/obj/vectors.o
VirtAddVarTab                                     build/obj/conf_general.o
                                                  build/obj/eeprom.o
WWDG_ClearFlag                                    build/obj/stm32f4xx_wwdg.o
WWDG_DeInit                                       build/obj/stm32f4xx_wwdg.o
                                                  build/obj/mcpwm_foc.o
                                                  build/obj/mcpwm.o
WWDG_Enable                                       build/obj/stm32f4xx_wwdg.o
                                                  build/obj/mcpwm_foc.o
                                                  build/obj/mcpwm.o
WWDG_EnableIT                                     build/obj/stm32f4xx_wwdg.o
WWDG_GetFlagStatus                                build/obj/stm32f4xx_wwdg.o
WWDG_SetCounter                                   build/obj/stm32f4xx_wwdg.o
                                                  build/obj/mcpwm_foc.o
                                                  build/obj/mcpwm.o
WWDG_SetPrescaler                                 build/obj/stm32f4xx_wwdg.o
                                                  build/obj/mcpwm_foc.o
                                                  build/obj/mcpwm.o
WWDG_SetWindowValue                               build/obj/stm32f4xx_wwdg.o
                                                  build/obj/mcpwm_foc.o
                                                  build/obj/mcpwm.o
_Balloc                                           /usr/bin/../lib/gcc/arm-none-eabi/4.9.3/../../../../arm-none-eabi/lib/armv7e-m/fpu/libg.a(lib_a-mprec.o)
                                                  /usr/bin/../lib/gcc/arm-none-eabi/4.9.3/../../../../arm-none-eabi/lib/armv7e-m/fpu/libg.a(lib_a-gdtoa-gethex.o)
                                                  /usr/bin/../lib/gcc/arm-none-eabi/4.9.3/../../../../arm-none-eabi/lib/armv7e-m/fpu/libg.a(lib_a-dtoa.o)
                                                  /usr/bin/../lib/gcc/arm-none-eabi/4.9.3/../../../../arm-none-eabi/lib/armv7e-m/fpu/libg.a(lib_a-strtod.o)
_Bfree                                            /usr/bin/../lib/gcc/arm-none-eabi/4.9.3/../../../../arm-none-eabi/lib/armv7e-m/fpu/libg.a(lib_a-mprec.o)
                                                  /usr/bin/../lib/gcc/arm-none-eabi/4.9.3/../../../../arm-none-eabi/lib/armv7e-m/fpu/libg.a(lib_a-gdtoa-gethex.o)
                                                  /usr/bin/../lib/gcc/arm-none-eabi/4.9.3/../../../../arm-none-eabi/lib/armv7e-m/fpu/libg.a(lib_a-dtoa.o)
                                                  /usr/bin/../lib/gcc/arm-none-eabi/4.9.3/../../../../arm-none-eabi/lib/armv7e-m/fpu/libg.a(lib_a-strtod.o)
_PathLocale                                       /usr/bin/../lib/gcc/arm-none-eabi/4.9.3/../../../../arm-none-eabi/lib/armv7e-m/fpu/libg.a(lib_a-locale.o)
__adddf3                                          /usr/bin/../lib/gcc/arm-none-eabi/4.9.3/armv7e-m/fpu/libgcc.a(_arm_addsubdf3.o)
__aeabi_cdcmpeq                                   /usr/bin/../lib/gcc/arm-none-eabi/4.9.3/armv7e-m/fpu/libgcc.a(_arm_cmpdf2.o)
__aeabi_cdcmple                                   /usr/bin/../lib/gcc/arm-none-eabi/4.9.3/armv7e-m/fpu/libgcc.a(_arm_cmpdf2.o)
__aeabi_cdrcmple                                  /usr/bin/../lib/gcc/arm-none-eabi/4.9.3/armv7e-m/fpu/libgcc.a(_arm_cmpdf2.o)
__aeabi_d2f                                       /usr/bin/../lib/gcc/arm-none-eabi/4.9.3/armv7e-m/fpu/libgcc.a(_arm_truncdfsf2.o)
                                                  /usr/bin/../lib/gcc/arm-none-eabi/4.9.3/../../../../arm-none-eabi/lib/armv7e-m/fpu/libg.a(lib_a-strtod.o)
                                                  /usr/bin/../lib/gcc/arm-none-eabi/4.9.3/../../../../arm-none-eabi/lib/armv7e-m/fpu/libg.a(lib_a-svfscanf.o)
                                                  /usr/bin/../lib/gcc/arm-none-eabi/4.9.3/../../../../arm-none-eabi/lib/armv7e-m/fpu/libm.a(lib_a-wf_sqrt.o)
                                                  /usr/bin/../lib/gcc/arm-none-eabi/4.9.3/../../../../arm-none-eabi/lib/armv7e-m/fpu/libm.a(lib_a-wf_pow.o)
                                                  /usr/bin/../lib/gcc/arm-none-eabi/4.9.3/../../../../arm-none-eabi/lib/armv7e-m/fpu/libm.a(lib_a-wf_log.o)
                                                  /usr/bin/../lib/gcc/arm-none-eabi/4.9.3/../../../../arm-none-eabi/lib/armv7e-m/fpu/libm.a(lib_a-wf_fmod.o)
                                                  /usr/bin/../lib/gcc/arm-none-eabi/4.9.3/../../../../arm-none-eabi/lib/armv7e-m/fpu/libm.a(lib_a-wf_asin.o)
                                                  build/obj/digital_filter.o
                                                  build/obj/chprintf.o
__aeabi_d2iz                                      /usr/bin/../lib/gcc/arm-none-eabi/4.9.3/armv7e-m/fpu/libgcc.a(_arm_fixdfsi.o)
                                                  /usr/bin/../lib/gcc/arm-none-eabi/4.9.3/../../../../arm-none-eabi/lib/armv7e-m/fpu/libg.a(lib_a-dtoa.o)
                                                  /usr/bin/../lib/gcc/arm-none-eabi/4.9.3/../../../../arm-none-eabi/lib/armv7e-m/fpu/libg.a(lib_a-strtod.o)
                                                  build/obj/chprintf.o
__aeabi_d2uiz                                     /usr/bin/../lib/gcc/arm-none-eabi/4.9.3/armv7e-m/fpu/libgcc.a(_arm_fixunsdfsi.o)
                                                  /usr/bin/../lib/gcc/arm-none-eabi/4.9.3/../../../../arm-none-eabi/lib/armv7e-m/fpu/libg.a(lib_a-strtod.o)
__aeabi_dadd                                      /usr/bin/../lib/gcc/arm-none-eabi/4.9.3/armv7e-m/fpu/libgcc.a(_arm_addsubdf3.o)
                                                  /usr/bin/../lib/gcc/arm-none-eabi/4.9.3/../../../../arm-none-eabi/lib/armv7e-m/fpu/libg.a(lib_a-dtoa.o)
                                                  /usr/bin/../lib/gcc/arm-none-eabi/4.9.3/../../../../arm-none-eabi/lib/armv7e-m/fpu/libg.a(lib_a-strtod.o)
                                                  /usr/bin/../lib/gcc/arm-none-eabi/4.9.3/../../../../arm-none-eabi/lib/armv7e-m/fpu/libm.a(lib_a-s_rint.o)
                                                  /usr/bin/../lib/gcc/arm-none-eabi/4.9.3/../../../../arm-none-eabi/lib/armv7e-m/fpu/libm.a(lib_a-e_sqrt.o)
__aeabi_dcmpeq                                    /usr/bin/../lib/gcc/arm-none-eabi/4.9.3/armv7e-m/fpu/libgcc.a(_arm_cmpdf2.o)
                                                  /usr/bin/../lib/gcc/arm-none-eabi/4.9.3/../../../../arm-none-eabi/lib/armv7e-m/fpu/libg.a(lib_a-dtoa.o)
                                                  /usr/bin/../lib/gcc/arm-none-eabi/4.9.3/../../../../arm-none-eabi/lib/armv7e-m/fpu/libg.a(lib_a-svfprintf.o)
                                                  /usr/bin/../lib/gcc/arm-none-eabi/4.9.3/../../../../arm-none-eabi/lib/armv7e-m/fpu/libg.a(lib_a-strtod.o)
                                                  /usr/bin/../lib/gcc/arm-none-eabi/4.9.3/../../../../arm-none-eabi/lib/armv7e-m/fpu/libm.a(lib_a-wf_pow.o)
__aeabi_dcmpge                                    /usr/bin/../lib/gcc/arm-none-eabi/4.9.3/armv7e-m/fpu/libgcc.a(_arm_cmpdf2.o)
                                                  /usr/bin/../lib/gcc/arm-none-eabi/4.9.3/../../../../arm-none-eabi/lib/armv7e-m/fpu/libg.a(lib_a-dtoa.o)
__aeabi_dcmpgt                                    /usr/bin/../lib/gcc/arm-none-eabi/4.9.3/armv7e-m/fpu/libgcc.a(_arm_cmpdf2.o)
                                                  /usr/bin/../lib/gcc/arm-none-eabi/4.9.3/../../../../arm-none-eabi/lib/armv7e-m/fpu/libg.a(lib_a-dtoa.o)
                                                  /usr/bin/../lib/gcc/arm-none-eabi/4.9.3/../../../../arm-none-eabi/lib/armv7e-m/fpu/libg.a(lib_a-strtod.o)
__aeabi_dcmple                                    /usr/bin/../lib/gcc/arm-none-eabi/4.9.3/armv7e-m/fpu/libgcc.a(_arm_cmpdf2.o)
                                                  /usr/bin/../lib/gcc/arm-none-eabi/4.9.3/../../../../arm-none-eabi/lib/armv7e-m/fpu/libg.a(lib_a-strtod.o)
__aeabi_dcmplt                                    /usr/bin/../lib/gcc/arm-none-eabi/4.9.3/armv7e-m/fpu/libgcc.a(_arm_cmpdf2.o)
                                                  /usr/bin/../lib/gcc/arm-none-eabi/4.9.3/../../../../arm-none-eabi/lib/armv7e-m/fpu/libg.a(lib_a-dtoa.o)
                                                  /usr/bin/../lib/gcc/arm-none-eabi/4.9.3/../../../../arm-none-eabi/lib/armv7e-m/fpu/libg.a(lib_a-svfprintf.o)
                                                  /usr/bin/../lib/gcc/arm-none-eabi/4.9.3/../../../../arm-none-eabi/lib/armv7e-m/fpu/libg.a(lib_a-strtod.o)
                                                  /usr/bin/../lib/gcc/arm-none-eabi/4.9.3/../../../../arm-none-eabi/lib/armv7e-m/fpu/libm.a(lib_a-w_sqrt.o)
__aeabi_ddiv                                      /usr/bin/../lib/gcc/arm-none-eabi/4.9.3/armv7e-m/fpu/libgcc.a(_arm_muldivdf3.o)
                                                  /usr/bin/../lib/gcc/arm-none-eabi/4.9.3/../../../../arm-none-eabi/lib/armv7e-m/fpu/libg.a(lib_a-mprec.o)
                                                  /usr/bin/../lib/gcc/arm-none-eabi/4.9.3/../../../../arm-none-eabi/lib/armv7e-m/fpu/libg.a(lib_a-dtoa.o)
                                                  /usr/bin/../lib/gcc/arm-none-eabi/4.9.3/../../../../arm-none-eabi/lib/armv7e-m/fpu/libg.a(lib_a-strtod.o)
                                                  /usr/bin/../lib/gcc/arm-none-eabi/4.9.3/../../../../arm-none-eabi/lib/armv7e-m/fpu/libm.a(lib_a-e_sqrt.o)
                                                  /usr/bin/../lib/gcc/arm-none-eabi/4.9.3/../../../../arm-none-eabi/lib/armv7e-m/fpu/libm.a(lib_a-wf_sqrt.o)
                                                  /usr/bin/../lib/gcc/arm-none-eabi/4.9.3/../../../../arm-none-eabi/lib/armv7e-m/fpu/libm.a(lib_a-wf_pow.o)
                                                  /usr/bin/../lib/gcc/arm-none-eabi/4.9.3/../../../../arm-none-eabi/lib/armv7e-m/fpu/libm.a(lib_a-wf_fmod.o)
                                                  /usr/bin/../lib/gcc/arm-none-eabi/4.9.3/../../../../arm-none-eabi/lib/armv7e-m/fpu/libm.a(lib_a-w_sqrt.o)
__aeabi_dmul                                      /usr/bin/../lib/gcc/arm-none-eabi/4.9.3/armv7e-m/fpu/libgcc.a(_arm_muldivdf3.o)
                                                  /usr/bin/../lib/gcc/arm-none-eabi/4.9.3/../../../../arm-none-eabi/lib/armv7e-m/fpu/libg.a(lib_a-mprec.o)
                                                  /usr/bin/../lib/gcc/arm-none-eabi/4.9.3/../../../../arm-none-eabi/lib/armv7e-m/fpu/libg.a(lib_a-dtoa.o)
                                                  /usr/bin/../lib/gcc/arm-none-eabi/4.9.3/../../../../arm-none-eabi/lib/armv7e-m/fpu/libg.a(lib_a-strtod.o)
                                                  /usr/bin/../lib/gcc/arm-none-eabi/4.9.3/../../../../arm-none-eabi/lib/armv7e-m/fpu/libm.a(lib_a-e_sqrt.o)
                                                  build/obj/chprintf.o
__aeabi_drsub                                     /usr/bin/../lib/gcc/arm-none-eabi/4.9.3/armv7e-m/fpu/libgcc.a(_arm_addsubdf3.o)
__aeabi_dsub                                      /usr/bin/../lib/gcc/arm-none-eabi/4.9.3/armv7e-m/fpu/libgcc.a(_arm_addsubdf3.o)
                                                  /usr/bin/../lib/gcc/arm-none-eabi/4.9.3/../../../../arm-none-eabi/lib/armv7e-m/fpu/libg.a(lib_a-dtoa.o)
                                                  /usr/bin/../lib/gcc/arm-none-eabi/4.9.3/../../../../arm-none-eabi/lib/armv7e-m/fpu/libg.a(lib_a-strtod.o)
                                                  /usr/bin/../lib/gcc/arm-none-eabi/4.9.3/../../../../arm-none-eabi/lib/armv7e-m/fpu/libm.a(lib_a-s_rint.o)
                                                  /usr/bin/../lib/gcc/arm-none-eabi/4.9.3/../../../../arm-none-eabi/lib/armv7e-m/fpu/libm.a(lib_a-e_sqrt.o)
                                                  build/obj/chprintf.o
__aeabi_f2d                                       /usr/bin/../lib/gcc/arm-none-eabi/4.9.3/armv7e-m/fpu/libgcc.a(_arm_addsubdf3.o)
                                                  /usr/bin/../lib/gcc/arm-none-eabi/4.9.3/../../../../arm-none-eabi/lib/armv7e-m/fpu/libm.a(lib_a-wf_sqrt.o)
                                                  /usr/bin/../lib/gcc/arm-none-eabi/4.9.3/../../../../arm-none-eabi/lib/armv7e-m/fpu/libm.a(lib_a-wf_pow.o)
                                                  /usr/bin/../lib/gcc/arm-none-eabi/4.9.3/../../../../arm-none-eabi/lib/armv7e-m/fpu/libm.a(lib_a-wf_log.o)
                                                  /usr/bin/../lib/gcc/arm-none-eabi/4.9.3/../../../../arm-none-eabi/lib/armv7e-m/fpu/libm.a(lib_a-wf_fmod.o)
                                                  /usr/bin/../lib/gcc/arm-none-eabi/4.9.3/../../../../arm-none-eabi/lib/armv7e-m/fpu/libm.a(lib_a-wf_asin.o)
                                                  build/obj/mcpwm_foc.o
                                                  build/obj/terminal.o
                                                  build/obj/digital_filter.o
                                                  build/obj/chprintf.o
__aeabi_i2d                                       /usr/bin/../lib/gcc/arm-none-eabi/4.9.3/armv7e-m/fpu/libgcc.a(_arm_addsubdf3.o)
                                                  /usr/bin/../lib/gcc/arm-none-eabi/4.9.3/../../../../arm-none-eabi/lib/armv7e-m/fpu/libg.a(lib_a-dtoa.o)
                                                  /usr/bin/../lib/gcc/arm-none-eabi/4.9.3/../../../../arm-none-eabi/lib/armv7e-m/fpu/libg.a(lib_a-strtod.o)
                                                  build/obj/terminal.o
                                                  build/obj/chprintf.o
__aeabi_idiv0                                     /usr/bin/../lib/gcc/arm-none-eabi/4.9.3/armv7e-m/fpu/libgcc.a(_dvmd_tls.o)
__aeabi_l2d                                       /usr/bin/../lib/gcc/arm-none-eabi/4.9.3/armv7e-m/fpu/libgcc.a(_arm_addsubdf3.o)
__aeabi_ldiv0                                     /usr/bin/../lib/gcc/arm-none-eabi/4.9.3/armv7e-m/fpu/libgcc.a(_dvmd_tls.o)
                                                  /usr/bin/../lib/gcc/arm-none-eabi/4.9.3/armv7e-m/fpu/libgcc.a(_aeabi_uldivmod.o)
__aeabi_ui2d                                      /usr/bin/../lib/gcc/arm-none-eabi/4.9.3/armv7e-m/fpu/libgcc.a(_arm_addsubdf3.o)
                                                  /usr/bin/../lib/gcc/arm-none-eabi/4.9.3/../../../../arm-none-eabi/lib/armv7e-m/fpu/libg.a(lib_a-dtoa.o)
                                                  /usr/bin/../lib/gcc/arm-none-eabi/4.9.3/../../../../arm-none-eabi/lib/armv7e-m/fpu/libg.a(lib_a-strtod.o)
                                                  build/obj/chprintf.o
__aeabi_ul2d                                      /usr/bin/../lib/gcc/arm-none-eabi/4.9.3/armv7e-m/fpu/libgcc.a(_arm_addsubdf3.o)
__aeabi_uldivmod                                  /usr/bin/../lib/gcc/arm-none-eabi/4.9.3/armv7e-m/fpu/libgcc.a(_aeabi_uldivmod.o)
                                                  /usr/bin/../lib/gcc/arm-none-eabi/4.9.3/../../../../arm-none-eabi/lib/armv7e-m/fpu/libg.a(lib_a-svfiprintf.o)
                                                  /usr/bin/../lib/gcc/arm-none-eabi/4.9.3/../../../../arm-none-eabi/lib/armv7e-m/fpu/libg.a(lib_a-svfprintf.o)
                                                  /usr/bin/../lib/gcc/arm-none-eabi/4.9.3/../../../../arm-none-eabi/lib/armv7e-m/fpu/libg.a(lib_a-strtoull_r.o)
                                                  /usr/bin/../lib/gcc/arm-none-eabi/4.9.3/../../../../arm-none-eabi/lib/armv7e-m/fpu/libg.a(lib_a-strtoll_r.o)
__any_on                                          /usr/bin/../lib/gcc/arm-none-eabi/4.9.3/../../../../arm-none-eabi/lib/armv7e-m/fpu/libg.a(lib_a-mprec.o)
                                                  /usr/bin/../lib/gcc/arm-none-eabi/4.9.3/../../../../arm-none-eabi/lib/armv7e-m/fpu/libg.a(lib_a-gdtoa-gethex.o)
__ascii_mbtowc                                    /usr/bin/../lib/gcc/arm-none-eabi/4.9.3/../../../../arm-none-eabi/lib/armv7e-m/fpu/libg.a(lib_a-mbtowc_r.o)
__b2d                                             /usr/bin/../lib/gcc/arm-none-eabi/4.9.3/../../../../arm-none-eabi/lib/armv7e-m/fpu/libg.a(lib_a-mprec.o)
__cmpdf2                                          /usr/bin/../lib/gcc/arm-none-eabi/4.9.3/armv7e-m/fpu/libgcc.a(_arm_cmpdf2.o)
__copybits                                        /usr/bin/../lib/gcc/arm-none-eabi/4.9.3/../../../../arm-none-eabi/lib/armv7e-m/fpu/libg.a(lib_a-mprec.o)
                                                  /usr/bin/../lib/gcc/arm-none-eabi/4.9.3/../../../../arm-none-eabi/lib/armv7e-m/fpu/libg.a(lib_a-strtod.o)
__core_init                                       build/obj/crt1.o
                                                  build/obj/crt0_v7m.o
__ctype_ptr__                                     /usr/bin/../lib/gcc/arm-none-eabi/4.9.3/../../../../arm-none-eabi/lib/armv7e-m/fpu/libg.a(lib_a-ctype_.o)
                                                  /usr/bin/../lib/gcc/arm-none-eabi/4.9.3/../../../../arm-none-eabi/lib/armv7e-m/fpu/libg.a(lib_a-svfiscanf.o)
                                                  /usr/bin/../lib/gcc/arm-none-eabi/4.9.3/../../../../arm-none-eabi/lib/armv7e-m/fpu/libg.a(lib_a-strtoull_r.o)
                                                  /usr/bin/../lib/gcc/arm-none-eabi/4.9.3/../../../../arm-none-eabi/lib/armv7e-m/fpu/libg.a(lib_a-strtoul.o)
                                                  /usr/bin/../lib/gcc/arm-none-eabi/4.9.3/../../../../arm-none-eabi/lib/armv7e-m/fpu/libg.a(lib_a-strtoll_r.o)
                                                  /usr/bin/../lib/gcc/arm-none-eabi/4.9.3/../../../../arm-none-eabi/lib/armv7e-m/fpu/libg.a(lib_a-strtol.o)
                                                  /usr/bin/../lib/gcc/arm-none-eabi/4.9.3/../../../../arm-none-eabi/lib/armv7e-m/fpu/libg.a(lib_a-iswspace.o)
                                                  /usr/bin/../lib/gcc/arm-none-eabi/4.9.3/../../../../arm-none-eabi/lib/armv7e-m/fpu/libg.a(lib_a-svfscanf.o)
__d2b                                             /usr/bin/../lib/gcc/arm-none-eabi/4.9.3/../../../../arm-none-eabi/lib/armv7e-m/fpu/libg.a(lib_a-mprec.o)
                                                  /usr/bin/../lib/gcc/arm-none-eabi/4.9.3/../../../../arm-none-eabi/lib/armv7e-m/fpu/libg.a(lib_a-dtoa.o)
                                                  /usr/bin/../lib/gcc/arm-none-eabi/4.9.3/../../../../arm-none-eabi/lib/armv7e-m/fpu/libg.a(lib_a-strtod.o)
__default_exit                                    build/obj/crt1.o
                                                  build/obj/crt0_v7m.o
__divdf3                                          /usr/bin/../lib/gcc/arm-none-eabi/4.9.3/armv7e-m/fpu/libgcc.a(_arm_muldivdf3.o)
__divdi3                                          /usr/bin/../lib/gcc/arm-none-eabi/4.9.3/armv7e-m/fpu/libgcc.a(_divdi3.o)
                                                  /usr/bin/../lib/gcc/arm-none-eabi/4.9.3/armv7e-m/fpu/libgcc.a(bpabi.o)
__early_init                                      build/obj/board.o
                                                  build/obj/crt1.o
                                                  build/obj/crt0_v7m.o
__eqdf2                                           /usr/bin/../lib/gcc/arm-none-eabi/4.9.3/armv7e-m/fpu/libgcc.a(_arm_cmpdf2.o)
__errno                                           /usr/bin/../lib/gcc/arm-none-eabi/4.9.3/../../../../arm-none-eabi/lib/armv7e-m/fpu/libg.a(lib_a-errno.o)
                                                  /usr/bin/../lib/gcc/arm-none-eabi/4.9.3/../../../../arm-none-eabi/lib/armv7e-m/fpu/libm.a(lib_a-wf_sqrt.o)
                                                  /usr/bin/../lib/gcc/arm-none-eabi/4.9.3/../../../../arm-none-eabi/lib/armv7e-m/fpu/libm.a(lib_a-wf_pow.o)
                                                  /usr/bin/../lib/gcc/arm-none-eabi/4.9.3/../../../../arm-none-eabi/lib/armv7e-m/fpu/libm.a(lib_a-wf_log.o)
                                                  /usr/bin/../lib/gcc/arm-none-eabi/4.9.3/../../../../arm-none-eabi/lib/armv7e-m/fpu/libm.a(lib_a-wf_fmod.o)
                                                  /usr/bin/../lib/gcc/arm-none-eabi/4.9.3/../../../../arm-none-eabi/lib/armv7e-m/fpu/libm.a(lib_a-wf_asin.o)
                                                  /usr/bin/../lib/gcc/arm-none-eabi/4.9.3/../../../../arm-none-eabi/lib/armv7e-m/fpu/libm.a(lib_a-w_sqrt.o)
__extendsfdf2                                     /usr/bin/../lib/gcc/arm-none-eabi/4.9.3/armv7e-m/fpu/libgcc.a(_arm_addsubdf3.o)
__fdlib_version                                   /usr/bin/../lib/gcc/arm-none-eabi/4.9.3/../../../../arm-none-eabi/lib/armv7e-m/fpu/libm.a(lib_a-s_lib_ver.o)
                                                  /usr/bin/../lib/gcc/arm-none-eabi/4.9.3/../../../../arm-none-eabi/lib/armv7e-m/fpu/libm.a(lib_a-wf_sqrt.o)
                                                  /usr/bin/../lib/gcc/arm-none-eabi/4.9.3/../../../../arm-none-eabi/lib/armv7e-m/fpu/libm.a(lib_a-wf_pow.o)
                                                  /usr/bin/../lib/gcc/arm-none-eabi/4.9.3/../../../../arm-none-eabi/lib/armv7e-m/fpu/libm.a(lib_a-wf_log.o)
                                                  /usr/bin/../lib/gcc/arm-none-eabi/4.9.3/../../../../arm-none-eabi/lib/armv7e-m/fpu/libm.a(lib_a-wf_fmod.o)
                                                  /usr/bin/../lib/gcc/arm-none-eabi/4.9.3/../../../../arm-none-eabi/lib/armv7e-m/fpu/libm.a(lib_a-wf_asin.o)
                                                  /usr/bin/../lib/gcc/arm-none-eabi/4.9.3/../../../../arm-none-eabi/lib/armv7e-m/fpu/libm.a(lib_a-w_sqrt.o)
__fini_array_end                                  build/obj/crt0_v7m.o
__fini_array_start                                build/obj/crt0_v7m.o
__fixdfsi                                         /usr/bin/../lib/gcc/arm-none-eabi/4.9.3/armv7e-m/fpu/libgcc.a(_arm_fixdfsi.o)
__fixunsdfsi                                      /usr/bin/../lib/gcc/arm-none-eabi/4.9.3/armv7e-m/fpu/libgcc.a(_arm_fixunsdfsi.o)
__floatdidf                                       /usr/bin/../lib/gcc/arm-none-eabi/4.9.3/armv7e-m/fpu/libgcc.a(_arm_addsubdf3.o)
__floatsidf                                       /usr/bin/../lib/gcc/arm-none-eabi/4.9.3/armv7e-m/fpu/libgcc.a(_arm_addsubdf3.o)
__floatundidf                                     /usr/bin/../lib/gcc/arm-none-eabi/4.9.3/armv7e-m/fpu/libgcc.a(_arm_addsubdf3.o)
__floatunsidf                                     /usr/bin/../lib/gcc/arm-none-eabi/4.9.3/armv7e-m/fpu/libgcc.a(_arm_addsubdf3.o)
__fp_lock_all                                     /usr/bin/../lib/gcc/arm-none-eabi/4.9.3/../../../../arm-none-eabi/lib/armv7e-m/fpu/libg.a(lib_a-findfp.o)
__fp_unlock_all                                   /usr/bin/../lib/gcc/arm-none-eabi/4.9.3/../../../../arm-none-eabi/lib/armv7e-m/fpu/libg.a(lib_a-findfp.o)
__fpclassifyd                                     /usr/bin/../lib/gcc/arm-none-eabi/4.9.3/../../../../arm-none-eabi/lib/armv7e-m/fpu/libm.a(lib_a-s_fpclassify.o)
                                                  /usr/bin/../lib/gcc/arm-none-eabi/4.9.3/../../../../arm-none-eabi/lib/armv7e-m/fpu/libg.a(lib_a-svfprintf.o)
                                                  /usr/bin/../lib/gcc/arm-none-eabi/4.9.3/../../../../arm-none-eabi/lib/armv7e-m/fpu/libg.a(lib_a-strtod.o)
                                                  /usr/bin/../lib/gcc/arm-none-eabi/4.9.3/../../../../arm-none-eabi/lib/armv7e-m/fpu/libg.a(lib_a-svfscanf.o)
                                                  /usr/bin/../lib/gcc/arm-none-eabi/4.9.3/../../../../arm-none-eabi/lib/armv7e-m/fpu/libm.a(lib_a-w_sqrt.o)
__fpclassifyf                                     /usr/bin/../lib/gcc/arm-none-eabi/4.9.3/../../../../arm-none-eabi/lib/armv7e-m/fpu/libm.a(lib_a-sf_fpclassify.o)
                                                  /usr/bin/../lib/gcc/arm-none-eabi/4.9.3/../../../../arm-none-eabi/lib/armv7e-m/fpu/libm.a(lib_a-wf_sqrt.o)
                                                  /usr/bin/../lib/gcc/arm-none-eabi/4.9.3/../../../../arm-none-eabi/lib/armv7e-m/fpu/libm.a(lib_a-wf_pow.o)
                                                  /usr/bin/../lib/gcc/arm-none-eabi/4.9.3/../../../../arm-none-eabi/lib/armv7e-m/fpu/libm.a(lib_a-wf_log.o)
                                                  /usr/bin/../lib/gcc/arm-none-eabi/4.9.3/../../../../arm-none-eabi/lib/armv7e-m/fpu/libm.a(lib_a-wf_fmod.o)
                                                  /usr/bin/../lib/gcc/arm-none-eabi/4.9.3/../../../../arm-none-eabi/lib/armv7e-m/fpu/libm.a(lib_a-wf_asin.o)
__gedf2                                           /usr/bin/../lib/gcc/arm-none-eabi/4.9.3/armv7e-m/fpu/libgcc.a(_arm_cmpdf2.o)
__gethex                                          /usr/bin/../lib/gcc/arm-none-eabi/4.9.3/../../../../arm-none-eabi/lib/armv7e-m/fpu/libg.a(lib_a-gdtoa-gethex.o)
                                                  /usr/bin/../lib/gcc/arm-none-eabi/4.9.3/../../../../arm-none-eabi/lib/armv7e-m/fpu/libg.a(lib_a-strtod.o)
__gnu_ldivmod_helper                              /usr/bin/../lib/gcc/arm-none-eabi/4.9.3/armv7e-m/fpu/libgcc.a(bpabi.o)
__gnu_uldivmod_helper                             /usr/bin/../lib/gcc/arm-none-eabi/4.9.3/armv7e-m/fpu/libgcc.a(bpabi.o)
                                                  /usr/bin/../lib/gcc/arm-none-eabi/4.9.3/armv7e-m/fpu/libgcc.a(_aeabi_uldivmod.o)
__gtdf2                                           /usr/bin/../lib/gcc/arm-none-eabi/4.9.3/armv7e-m/fpu/libgcc.a(_arm_cmpdf2.o)
__heap_base__                                     build/obj/chmemcore.o
__heap_end__                                      build/obj/chmemcore.o
__hexdig                                          /usr/bin/../lib/gcc/arm-none-eabi/4.9.3/../../../../arm-none-eabi/lib/armv7e-m/fpu/libg.a(lib_a-gdtoa-gethex.o)
                                                  /usr/bin/../lib/gcc/arm-none-eabi/4.9.3/../../../../arm-none-eabi/lib/armv7e-m/fpu/libg.a(lib_a-gdtoa-hexnan.o)
__hexnan                                          /usr/bin/../lib/gcc/arm-none-eabi/4.9.3/../../../../arm-none-eabi/lib/armv7e-m/fpu/libg.a(lib_a-gdtoa-hexnan.o)
                                                  /usr/bin/../lib/gcc/arm-none-eabi/4.9.3/../../../../arm-none-eabi/lib/armv7e-m/fpu/libg.a(lib_a-strtod.o)
__hi0bits                                         /usr/bin/../lib/gcc/arm-none-eabi/4.9.3/../../../../arm-none-eabi/lib/armv7e-m/fpu/libg.a(lib_a-mprec.o)
                                                  /usr/bin/../lib/gcc/arm-none-eabi/4.9.3/../../../../arm-none-eabi/lib/armv7e-m/fpu/libg.a(lib_a-gdtoa-gethex.o)
                                                  /usr/bin/../lib/gcc/arm-none-eabi/4.9.3/../../../../arm-none-eabi/lib/armv7e-m/fpu/libg.a(lib_a-dtoa.o)
__i2b                                             /usr/bin/../lib/gcc/arm-none-eabi/4.9.3/../../../../arm-none-eabi/lib/armv7e-m/fpu/libg.a(lib_a-mprec.o)
                                                  /usr/bin/../lib/gcc/arm-none-eabi/4.9.3/../../../../arm-none-eabi/lib/armv7e-m/fpu/libg.a(lib_a-dtoa.o)
                                                  /usr/bin/../lib/gcc/arm-none-eabi/4.9.3/../../../../arm-none-eabi/lib/armv7e-m/fpu/libg.a(lib_a-strtod.o)
__ieee754_asinf                                   /usr/bin/../lib/gcc/arm-none-eabi/4.9.3/../../../../arm-none-eabi/lib/armv7e-m/fpu/libm.a(lib_a-ef_asin.o)
                                                  /usr/bin/../lib/gcc/arm-none-eabi/4.9.3/../../../../arm-none-eabi/lib/armv7e-m/fpu/libm.a(lib_a-wf_asin.o)
__ieee754_atan2f                                  /usr/bin/../lib/gcc/arm-none-eabi/4.9.3/../../../../arm-none-eabi/lib/armv7e-m/fpu/libm.a(lib_a-ef_atan2.o)
                                                  /usr/bin/../lib/gcc/arm-none-eabi/4.9.3/../../../../arm-none-eabi/lib/armv7e-m/fpu/libm.a(lib_a-wf_atan2.o)
__ieee754_fmodf                                   /usr/bin/../lib/gcc/arm-none-eabi/4.9.3/../../../../arm-none-eabi/lib/armv7e-m/fpu/libm.a(lib_a-ef_fmod.o)
                                                  /usr/bin/../lib/gcc/arm-none-eabi/4.9.3/../../../../arm-none-eabi/lib/armv7e-m/fpu/libm.a(lib_a-wf_fmod.o)
__ieee754_logf                                    /usr/bin/../lib/gcc/arm-none-eabi/4.9.3/../../../../arm-none-eabi/lib/armv7e-m/fpu/libm.a(lib_a-ef_log.o)
                                                  /usr/bin/../lib/gcc/arm-none-eabi/4.9.3/../../../../arm-none-eabi/lib/armv7e-m/fpu/libm.a(lib_a-wf_log.o)
__ieee754_powf                                    /usr/bin/../lib/gcc/arm-none-eabi/4.9.3/../../../../arm-none-eabi/lib/armv7e-m/fpu/libm.a(lib_a-ef_pow.o)
                                                  /usr/bin/../lib/gcc/arm-none-eabi/4.9.3/../../../../arm-none-eabi/lib/armv7e-m/fpu/libm.a(lib_a-wf_pow.o)
__ieee754_rem_pio2f                               /usr/bin/../lib/gcc/arm-none-eabi/4.9.3/../../../../arm-none-eabi/lib/armv7e-m/fpu/libm.a(lib_a-ef_rem_pio2.o)
                                                  /usr/bin/../lib/gcc/arm-none-eabi/4.9.3/../../../../arm-none-eabi/lib/armv7e-m/fpu/libm.a(lib_a-sf_sin.o)
                                                  /usr/bin/../lib/gcc/arm-none-eabi/4.9.3/../../../../arm-none-eabi/lib/armv7e-m/fpu/libm.a(lib_a-sf_cos.o)
__ieee754_sqrt                                    /usr/bin/../lib/gcc/arm-none-eabi/4.9.3/../../../../arm-none-eabi/lib/armv7e-m/fpu/libm.a(lib_a-e_sqrt.o)
                                                  /usr/bin/../lib/gcc/arm-none-eabi/4.9.3/../../../../arm-none-eabi/lib/armv7e-m/fpu/libm.a(lib_a-w_sqrt.o)
__ieee754_sqrtf                                   /usr/bin/../lib/gcc/arm-none-eabi/4.9.3/../../../../arm-none-eabi/lib/armv7e-m/fpu/libm.a(lib_a-ef_sqrt.o)
                                                  /usr/bin/../lib/gcc/arm-none-eabi/4.9.3/../../../../arm-none-eabi/lib/armv7e-m/fpu/libm.a(lib_a-ef_pow.o)
                                                  /usr/bin/../lib/gcc/arm-none-eabi/4.9.3/../../../../arm-none-eabi/lib/armv7e-m/fpu/libm.a(lib_a-ef_asin.o)
                                                  /usr/bin/../lib/gcc/arm-none-eabi/4.9.3/../../../../arm-none-eabi/lib/armv7e-m/fpu/libm.a(lib_a-wf_sqrt.o)
__init_array_end                                  build/obj/crt0_v7m.o
__init_array_start                                build/obj/crt0_v7m.o
__kernel_cosf                                     /usr/bin/../lib/gcc/arm-none-eabi/4.9.3/../../../../arm-none-eabi/lib/armv7e-m/fpu/libm.a(lib_a-kf_cos.o)
                                                  /usr/bin/../lib/gcc/arm-none-eabi/4.9.3/../../../../arm-none-eabi/lib/armv7e-m/fpu/libm.a(lib_a-sf_sin.o)
                                                  /usr/bin/../lib/gcc/arm-none-eabi/4.9.3/../../../../arm-none-eabi/lib/armv7e-m/fpu/libm.a(lib_a-sf_cos.o)
__kernel_rem_pio2f                                /usr/bin/../lib/gcc/arm-none-eabi/4.9.3/../../../../arm-none-eabi/lib/armv7e-m/fpu/libm.a(lib_a-kf_rem_pio2.o)
                                                  /usr/bin/../lib/gcc/arm-none-eabi/4.9.3/../../../../arm-none-eabi/lib/armv7e-m/fpu/libm.a(lib_a-ef_rem_pio2.o)
__kernel_sinf                                     /usr/bin/../lib/gcc/arm-none-eabi/4.9.3/../../../../arm-none-eabi/lib/armv7e-m/fpu/libm.a(lib_a-kf_sin.o)
                                                  /usr/bin/../lib/gcc/arm-none-eabi/4.9.3/../../../../arm-none-eabi/lib/armv7e-m/fpu/libm.a(lib_a-sf_sin.o)
                                                  /usr/bin/../lib/gcc/arm-none-eabi/4.9.3/../../../../arm-none-eabi/lib/armv7e-m/fpu/libm.a(lib_a-sf_cos.o)
__late_init                                       build/obj/crt1.o
                                                  build/obj/crt0_v7m.o
__ledf2                                           /usr/bin/../lib/gcc/arm-none-eabi/4.9.3/armv7e-m/fpu/libgcc.a(_arm_cmpdf2.o)
__lo0bits                                         /usr/bin/../lib/gcc/arm-none-eabi/4.9.3/../../../../arm-none-eabi/lib/armv7e-m/fpu/libg.a(lib_a-mprec.o)
__locale_charset                                  /usr/bin/../lib/gcc/arm-none-eabi/4.9.3/../../../../arm-none-eabi/lib/armv7e-m/fpu/libg.a(lib_a-locale.o)
                                                  /usr/bin/../lib/gcc/arm-none-eabi/4.9.3/../../../../arm-none-eabi/lib/armv7e-m/fpu/libg.a(lib_a-mbtowc_r.o)
                                                  /usr/bin/../lib/gcc/arm-none-eabi/4.9.3/../../../../arm-none-eabi/lib/armv7e-m/fpu/libg.a(lib_a-mbrtowc.o)
__locale_cjk_lang                                 /usr/bin/../lib/gcc/arm-none-eabi/4.9.3/../../../../arm-none-eabi/lib/armv7e-m/fpu/libg.a(lib_a-locale.o)
__locale_mb_cur_max                               /usr/bin/../lib/gcc/arm-none-eabi/4.9.3/../../../../arm-none-eabi/lib/armv7e-m/fpu/libg.a(lib_a-locale.o)
                                                  /usr/bin/../lib/gcc/arm-none-eabi/4.9.3/../../../../arm-none-eabi/lib/armv7e-m/fpu/libg.a(lib_a-svfiscanf.o)
                                                  /usr/bin/../lib/gcc/arm-none-eabi/4.9.3/../../../../arm-none-eabi/lib/armv7e-m/fpu/libg.a(lib_a-svfscanf.o)
__locale_msgcharset                               /usr/bin/../lib/gcc/arm-none-eabi/4.9.3/../../../../arm-none-eabi/lib/armv7e-m/fpu/libg.a(lib_a-locale.o)
__lshift                                          /usr/bin/../lib/gcc/arm-none-eabi/4.9.3/../../../../arm-none-eabi/lib/armv7e-m/fpu/libg.a(lib_a-mprec.o)
                                                  /usr/bin/../lib/gcc/arm-none-eabi/4.9.3/../../../../arm-none-eabi/lib/armv7e-m/fpu/libg.a(lib_a-gdtoa-gethex.o)
                                                  /usr/bin/../lib/gcc/arm-none-eabi/4.9.3/../../../../arm-none-eabi/lib/armv7e-m/fpu/libg.a(lib_a-dtoa.o)
                                                  /usr/bin/../lib/gcc/arm-none-eabi/4.9.3/../../../../arm-none-eabi/lib/armv7e-m/fpu/libg.a(lib_a-strtod.o)
__ltdf2                                           /usr/bin/../lib/gcc/arm-none-eabi/4.9.3/armv7e-m/fpu/libgcc.a(_arm_cmpdf2.o)
__main_stack_base__                               build/obj/crt0_v7m.o
__main_stack_end__                                build/obj/vectors.o
                                                  build/obj/crt0_v7m.o
__malloc_av_                                      /usr/bin/../lib/gcc/arm-none-eabi/4.9.3/../../../../arm-none-eabi/lib/armv7e-m/fpu/libg.a(lib_a-mallocr.o)
                                                  /usr/bin/../lib/gcc/arm-none-eabi/4.9.3/../../../../arm-none-eabi/lib/armv7e-m/fpu/libg.a(lib_a-reallocr.o)
                                                  /usr/bin/../lib/gcc/arm-none-eabi/4.9.3/../../../../arm-none-eabi/lib/armv7e-m/fpu/libg.a(lib_a-freer.o)
__malloc_current_mallinfo                         /usr/bin/../lib/gcc/arm-none-eabi/4.9.3/../../../../arm-none-eabi/lib/armv7e-m/fpu/libg.a(lib_a-mallocr.o)
                                                  /usr/bin/../lib/gcc/arm-none-eabi/4.9.3/../../../../arm-none-eabi/lib/armv7e-m/fpu/libg.a(lib_a-freer.o)
__malloc_lock                                     /usr/bin/../lib/gcc/arm-none-eabi/4.9.3/../../../../arm-none-eabi/lib/armv7e-m/fpu/libg.a(lib_a-mlock.o)
                                                  /usr/bin/../lib/gcc/arm-none-eabi/4.9.3/../../../../arm-none-eabi/lib/armv7e-m/fpu/libg.a(lib_a-reallocr.o)
                                                  /usr/bin/../lib/gcc/arm-none-eabi/4.9.3/../../../../arm-none-eabi/lib/armv7e-m/fpu/libg.a(lib_a-mallocr.o)
                                                  /usr/bin/../lib/gcc/arm-none-eabi/4.9.3/../../../../arm-none-eabi/lib/armv7e-m/fpu/libg.a(lib_a-freer.o)
__malloc_max_sbrked_mem                           /usr/bin/../lib/gcc/arm-none-eabi/4.9.3/../../../../arm-none-eabi/lib/armv7e-m/fpu/libg.a(lib_a-mallocr.o)
__malloc_max_total_mem                            /usr/bin/../lib/gcc/arm-none-eabi/4.9.3/../../../../arm-none-eabi/lib/armv7e-m/fpu/libg.a(lib_a-mallocr.o)
__malloc_sbrk_base                                /usr/bin/../lib/gcc/arm-none-eabi/4.9.3/../../../../arm-none-eabi/lib/armv7e-m/fpu/libg.a(lib_a-mallocr.o)
                                                  /usr/bin/../lib/gcc/arm-none-eabi/4.9.3/../../../../arm-none-eabi/lib/armv7e-m/fpu/libg.a(lib_a-freer.o)
__malloc_top_pad                                  /usr/bin/../lib/gcc/arm-none-eabi/4.9.3/../../../../arm-none-eabi/lib/armv7e-m/fpu/libg.a(lib_a-mallocr.o)
                                                  /usr/bin/../lib/gcc/arm-none-eabi/4.9.3/../../../../arm-none-eabi/lib/armv7e-m/fpu/libg.a(lib_a-freer.o)
__malloc_trim_threshold                           /usr/bin/../lib/gcc/arm-none-eabi/4.9.3/../../../../arm-none-eabi/lib/armv7e-m/fpu/libg.a(lib_a-mallocr.o)
                                                  /usr/bin/../lib/gcc/arm-none-eabi/4.9.3/../../../../arm-none-eabi/lib/armv7e-m/fpu/libg.a(lib_a-freer.o)
__malloc_unlock                                   /usr/bin/../lib/gcc/arm-none-eabi/4.9.3/../../../../arm-none-eabi/lib/armv7e-m/fpu/libg.a(lib_a-mlock.o)
                                                  /usr/bin/../lib/gcc/arm-none-eabi/4.9.3/../../../../arm-none-eabi/lib/armv7e-m/fpu/libg.a(lib_a-reallocr.o)
                                                  /usr/bin/../lib/gcc/arm-none-eabi/4.9.3/../../../../arm-none-eabi/lib/armv7e-m/fpu/libg.a(lib_a-mallocr.o)
                                                  /usr/bin/../lib/gcc/arm-none-eabi/4.9.3/../../../../arm-none-eabi/lib/armv7e-m/fpu/libg.a(lib_a-freer.o)
__mb_cur_max                                      /usr/bin/../lib/gcc/arm-none-eabi/4.9.3/../../../../arm-none-eabi/lib/armv7e-m/fpu/libg.a(lib_a-locale.o)
__mbtowc                                          /usr/bin/../lib/gcc/arm-none-eabi/4.9.3/../../../../arm-none-eabi/lib/armv7e-m/fpu/libg.a(lib_a-mbtowc_r.o)
                                                  /usr/bin/../lib/gcc/arm-none-eabi/4.9.3/../../../../arm-none-eabi/lib/armv7e-m/fpu/libg.a(lib_a-mbrtowc.o)
__mcmp                                            /usr/bin/../lib/gcc/arm-none-eabi/4.9.3/../../../../arm-none-eabi/lib/armv7e-m/fpu/libg.a(lib_a-mprec.o)
                                                  /usr/bin/../lib/gcc/arm-none-eabi/4.9.3/../../../../arm-none-eabi/lib/armv7e-m/fpu/libg.a(lib_a-dtoa.o)
                                                  /usr/bin/../lib/gcc/arm-none-eabi/4.9.3/../../../../arm-none-eabi/lib/armv7e-m/fpu/libg.a(lib_a-strtod.o)
__mdiff                                           /usr/bin/../lib/gcc/arm-none-eabi/4.9.3/../../../../arm-none-eabi/lib/armv7e-m/fpu/libg.a(lib_a-mprec.o)
                                                  /usr/bin/../lib/gcc/arm-none-eabi/4.9.3/../../../../arm-none-eabi/lib/armv7e-m/fpu/libg.a(lib_a-dtoa.o)
                                                  /usr/bin/../lib/gcc/arm-none-eabi/4.9.3/../../../../arm-none-eabi/lib/armv7e-m/fpu/libg.a(lib_a-strtod.o)
__mlocale_changed                                 /usr/bin/../lib/gcc/arm-none-eabi/4.9.3/../../../../arm-none-eabi/lib/armv7e-m/fpu/libg.a(lib_a-locale.o)
__mprec_bigtens                                   /usr/bin/../lib/gcc/arm-none-eabi/4.9.3/../../../../arm-none-eabi/lib/armv7e-m/fpu/libg.a(lib_a-mprec.o)
                                                  /usr/bin/../lib/gcc/arm-none-eabi/4.9.3/../../../../arm-none-eabi/lib/armv7e-m/fpu/libg.a(lib_a-dtoa.o)
                                                  /usr/bin/../lib/gcc/arm-none-eabi/4.9.3/../../../../arm-none-eabi/lib/armv7e-m/fpu/libg.a(lib_a-strtod.o)
__mprec_tens                                      /usr/bin/../lib/gcc/arm-none-eabi/4.9.3/../../../../arm-none-eabi/lib/armv7e-m/fpu/libg.a(lib_a-mprec.o)
                                                  /usr/bin/../lib/gcc/arm-none-eabi/4.9.3/../../../../arm-none-eabi/lib/armv7e-m/fpu/libg.a(lib_a-dtoa.o)
                                                  /usr/bin/../lib/gcc/arm-none-eabi/4.9.3/../../../../arm-none-eabi/lib/armv7e-m/fpu/libg.a(lib_a-strtod.o)
__mprec_tinytens                                  /usr/bin/../lib/gcc/arm-none-eabi/4.9.3/../../../../arm-none-eabi/lib/armv7e-m/fpu/libg.a(lib_a-mprec.o)
__muldf3                                          /usr/bin/../lib/gcc/arm-none-eabi/4.9.3/armv7e-m/fpu/libgcc.a(_arm_muldivdf3.o)
__multadd                                         /usr/bin/../lib/gcc/arm-none-eabi/4.9.3/../../../../arm-none-eabi/lib/armv7e-m/fpu/libg.a(lib_a-mprec.o)
                                                  /usr/bin/../lib/gcc/arm-none-eabi/4.9.3/../../../../arm-none-eabi/lib/armv7e-m/fpu/libg.a(lib_a-dtoa.o)
__multiply                                        /usr/bin/../lib/gcc/arm-none-eabi/4.9.3/../../../../arm-none-eabi/lib/armv7e-m/fpu/libg.a(lib_a-mprec.o)
                                                  /usr/bin/../lib/gcc/arm-none-eabi/4.9.3/../../../../arm-none-eabi/lib/armv7e-m/fpu/libg.a(lib_a-dtoa.o)
                                                  /usr/bin/../lib/gcc/arm-none-eabi/4.9.3/../../../../arm-none-eabi/lib/armv7e-m/fpu/libg.a(lib_a-strtod.o)
__nedf2                                           /usr/bin/../lib/gcc/arm-none-eabi/4.9.3/armv7e-m/fpu/libgcc.a(_arm_cmpdf2.o)
__nlocale_changed                                 /usr/bin/../lib/gcc/arm-none-eabi/4.9.3/../../../../arm-none-eabi/lib/armv7e-m/fpu/libg.a(lib_a-locale.o)
__pow5mult                                        /usr/bin/../lib/gcc/arm-none-eabi/4.9.3/../../../../arm-none-eabi/lib/armv7e-m/fpu/libg.a(lib_a-mprec.o)
                                                  /usr/bin/../lib/gcc/arm-none-eabi/4.9.3/../../../../arm-none-eabi/lib/armv7e-m/fpu/libg.a(lib_a-dtoa.o)
                                                  /usr/bin/../lib/gcc/arm-none-eabi/4.9.3/../../../../arm-none-eabi/lib/armv7e-m/fpu/libg.a(lib_a-strtod.o)
__process_stack_base__                            build/obj/crt0_v7m.o
__process_stack_end__                             build/obj/crt0_v7m.o
__ratio                                           /usr/bin/../lib/gcc/arm-none-eabi/4.9.3/../../../../arm-none-eabi/lib/armv7e-m/fpu/libg.a(lib_a-mprec.o)
                                                  /usr/bin/../lib/gcc/arm-none-eabi/4.9.3/../../../../arm-none-eabi/lib/armv7e-m/fpu/libg.a(lib_a-strtod.o)
__s2b                                             /usr/bin/../lib/gcc/arm-none-eabi/4.9.3/../../../../arm-none-eabi/lib/armv7e-m/fpu/libg.a(lib_a-mprec.o)
                                                  /usr/bin/../lib/gcc/arm-none-eabi/4.9.3/../../../../arm-none-eabi/lib/armv7e-m/fpu/libg.a(lib_a-strtod.o)
__sccl                                            /usr/bin/../lib/gcc/arm-none-eabi/4.9.3/../../../../arm-none-eabi/lib/armv7e-m/fpu/libg.a(lib_a-sccl.o)
                                                  /usr/bin/../lib/gcc/arm-none-eabi/4.9.3/../../../../arm-none-eabi/lib/armv7e-m/fpu/libg.a(lib_a-svfiscanf.o)
                                                  /usr/bin/../lib/gcc/arm-none-eabi/4.9.3/../../../../arm-none-eabi/lib/armv7e-m/fpu/libg.a(lib_a-svfscanf.o)
__sclose                                          /usr/bin/../lib/gcc/arm-none-eabi/4.9.3/../../../../arm-none-eabi/lib/armv7e-m/fpu/libg.a(lib_a-stdio.o)
                                                  /usr/bin/../lib/gcc/arm-none-eabi/4.9.3/../../../../arm-none-eabi/lib/armv7e-m/fpu/libg.a(lib_a-findfp.o)
__seofread                                        /usr/bin/../lib/gcc/arm-none-eabi/4.9.3/../../../../arm-none-eabi/lib/armv7e-m/fpu/libg.a(lib_a-stdio.o)
                                                  /usr/bin/../lib/gcc/arm-none-eabi/4.9.3/../../../../arm-none-eabi/lib/armv7e-m/fpu/libg.a(lib_a-sscanf.o)
__sflush_r                                        /usr/bin/../lib/gcc/arm-none-eabi/4.9.3/../../../../arm-none-eabi/lib/armv7e-m/fpu/libg.a(lib_a-fflush.o)
                                                  /usr/bin/../lib/gcc/arm-none-eabi/4.9.3/../../../../arm-none-eabi/lib/armv7e-m/fpu/libg.a(lib_a-fclose.o)
__sfmoreglue                                      /usr/bin/../lib/gcc/arm-none-eabi/4.9.3/../../../../arm-none-eabi/lib/armv7e-m/fpu/libg.a(lib_a-findfp.o)
__sfp                                             /usr/bin/../lib/gcc/arm-none-eabi/4.9.3/../../../../arm-none-eabi/lib/armv7e-m/fpu/libg.a(lib_a-findfp.o)
__sfp_lock_acquire                                /usr/bin/../lib/gcc/arm-none-eabi/4.9.3/../../../../arm-none-eabi/lib/armv7e-m/fpu/libg.a(lib_a-findfp.o)
                                                  /usr/bin/../lib/gcc/arm-none-eabi/4.9.3/../../../../arm-none-eabi/lib/armv7e-m/fpu/libg.a(lib_a-fclose.o)
__sfp_lock_release                                /usr/bin/../lib/gcc/arm-none-eabi/4.9.3/../../../../arm-none-eabi/lib/armv7e-m/fpu/libg.a(lib_a-findfp.o)
                                                  /usr/bin/../lib/gcc/arm-none-eabi/4.9.3/../../../../arm-none-eabi/lib/armv7e-m/fpu/libg.a(lib_a-fclose.o)
__sinit                                           /usr/bin/../lib/gcc/arm-none-eabi/4.9.3/../../../../arm-none-eabi/lib/armv7e-m/fpu/libg.a(lib_a-findfp.o)
                                                  /usr/bin/../lib/gcc/arm-none-eabi/4.9.3/../../../../arm-none-eabi/lib/armv7e-m/fpu/libg.a(lib_a-fclose.o)
                                                  /usr/bin/../lib/gcc/arm-none-eabi/4.9.3/../../../../arm-none-eabi/lib/armv7e-m/fpu/libg.a(lib_a-fflush.o)
                                                  /usr/bin/../lib/gcc/arm-none-eabi/4.9.3/../../../../arm-none-eabi/lib/armv7e-m/fpu/libg.a(lib_a-ungetc.o)
__sinit_lock_acquire                              /usr/bin/../lib/gcc/arm-none-eabi/4.9.3/../../../../arm-none-eabi/lib/armv7e-m/fpu/libg.a(lib_a-findfp.o)
__sinit_lock_release                              /usr/bin/../lib/gcc/arm-none-eabi/4.9.3/../../../../arm-none-eabi/lib/armv7e-m/fpu/libg.a(lib_a-findfp.o)
__sread                                           /usr/bin/../lib/gcc/arm-none-eabi/4.9.3/../../../../arm-none-eabi/lib/armv7e-m/fpu/libg.a(lib_a-stdio.o)
                                                  /usr/bin/../lib/gcc/arm-none-eabi/4.9.3/../../../../arm-none-eabi/lib/armv7e-m/fpu/libg.a(lib_a-findfp.o)
__sseek                                           /usr/bin/../lib/gcc/arm-none-eabi/4.9.3/../../../../arm-none-eabi/lib/armv7e-m/fpu/libg.a(lib_a-stdio.o)
                                                  /usr/bin/../lib/gcc/arm-none-eabi/4.9.3/../../../../arm-none-eabi/lib/armv7e-m/fpu/libg.a(lib_a-findfp.o)
__ssprint_r                                       /usr/bin/../lib/gcc/arm-none-eabi/4.9.3/../../../../arm-none-eabi/lib/armv7e-m/fpu/libg.a(lib_a-svfiprintf.o)
                                                  /usr/bin/../lib/gcc/arm-none-eabi/4.9.3/../../../../arm-none-eabi/lib/armv7e-m/fpu/libg.a(lib_a-svfprintf.o)
__ssrefill_r                                      /usr/bin/../lib/gcc/arm-none-eabi/4.9.3/../../../../arm-none-eabi/lib/armv7e-m/fpu/libg.a(lib_a-svfiscanf.o)
                                                  /usr/bin/../lib/gcc/arm-none-eabi/4.9.3/../../../../arm-none-eabi/lib/armv7e-m/fpu/libg.a(lib_a-svfscanf.o)
__ssvfiscanf_r                                    /usr/bin/../lib/gcc/arm-none-eabi/4.9.3/../../../../arm-none-eabi/lib/armv7e-m/fpu/libg.a(lib_a-svfiscanf.o)
__ssvfscanf_r                                     /usr/bin/../lib/gcc/arm-none-eabi/4.9.3/../../../../arm-none-eabi/lib/armv7e-m/fpu/libg.a(lib_a-svfscanf.o)
                                                  /usr/bin/../lib/gcc/arm-none-eabi/4.9.3/../../../../arm-none-eabi/lib/armv7e-m/fpu/libg.a(lib_a-sscanf.o)
__strtok_r                                        /usr/bin/../lib/gcc/arm-none-eabi/4.9.3/../../../../arm-none-eabi/lib/armv7e-m/fpu/libg.a(lib_a-strtok_r.o)
                                                  /usr/bin/../lib/gcc/arm-none-eabi/4.9.3/../../../../arm-none-eabi/lib/armv7e-m/fpu/libg.a(lib_a-strtok.o)
__subdf3                                          /usr/bin/../lib/gcc/arm-none-eabi/4.9.3/armv7e-m/fpu/libgcc.a(_arm_addsubdf3.o)
__submore                                         /usr/bin/../lib/gcc/arm-none-eabi/4.9.3/../../../../arm-none-eabi/lib/armv7e-m/fpu/libg.a(lib_a-ungetc.o)
                                                  /usr/bin/../lib/gcc/arm-none-eabi/4.9.3/../../../../arm-none-eabi/lib/armv7e-m/fpu/libg.a(lib_a-svfiscanf.o)
__swrite                                          /usr/bin/../lib/gcc/arm-none-eabi/4.9.3/../../../../arm-none-eabi/lib/armv7e-m/fpu/libg.a(lib_a-stdio.o)
                                                  /usr/bin/../lib/gcc/arm-none-eabi/4.9.3/../../../../arm-none-eabi/lib/armv7e-m/fpu/libg.a(lib_a-findfp.o)
__truncdfsf2                                      /usr/bin/../lib/gcc/arm-none-eabi/4.9.3/armv7e-m/fpu/libgcc.a(_arm_truncdfsf2.o)
__udivdi3                                         /usr/bin/../lib/gcc/arm-none-eabi/4.9.3/armv7e-m/fpu/libgcc.a(_udivdi3.o)
                                                  /usr/bin/../lib/gcc/arm-none-eabi/4.9.3/armv7e-m/fpu/libgcc.a(bpabi.o)
__ulp                                             /usr/bin/../lib/gcc/arm-none-eabi/4.9.3/../../../../arm-none-eabi/lib/armv7e-m/fpu/libg.a(lib_a-mprec.o)
                                                  /usr/bin/../lib/gcc/arm-none-eabi/4.9.3/../../../../arm-none-eabi/lib/armv7e-m/fpu/libg.a(lib_a-strtod.o)
_bss_end                                          build/obj/crt0_v7m.o
_bss_start                                        build/obj/crt0_v7m.o
_calloc_r                                         /usr/bin/../lib/gcc/arm-none-eabi/4.9.3/../../../../arm-none-eabi/lib/armv7e-m/fpu/libg.a(lib_a-callocr.o)
                                                  /usr/bin/../lib/gcc/arm-none-eabi/4.9.3/../../../../arm-none-eabi/lib/armv7e-m/fpu/libg.a(lib_a-mprec.o)
_cleanup                                          /usr/bin/../lib/gcc/arm-none-eabi/4.9.3/../../../../arm-none-eabi/lib/armv7e-m/fpu/libg.a(lib_a-findfp.o)
_cleanup_r                                        /usr/bin/../lib/gcc/arm-none-eabi/4.9.3/../../../../arm-none-eabi/lib/armv7e-m/fpu/libg.a(lib_a-findfp.o)
_close_r                                          build/obj/syscalls.o
                                                  /usr/bin/../lib/gcc/arm-none-eabi/4.9.3/../../../../arm-none-eabi/lib/armv7e-m/fpu/libg.a(lib_a-stdio.o)
_core_init                                        build/obj/chmemcore.o
                                                  build/obj/chsys.o
_ctype_                                           /usr/bin/../lib/gcc/arm-none-eabi/4.9.3/../../../../arm-none-eabi/lib/armv7e-m/fpu/libg.a(lib_a-ctype_.o)
_data                                             build/obj/crt0_v7m.o
_dtoa_r                                           /usr/bin/../lib/gcc/arm-none-eabi/4.9.3/../../../../arm-none-eabi/lib/armv7e-m/fpu/libg.a(lib_a-dtoa.o)
                                                  /usr/bin/../lib/gcc/arm-none-eabi/4.9.3/../../../../arm-none-eabi/lib/armv7e-m/fpu/libg.a(lib_a-svfprintf.o)
_edata                                            build/obj/crt0_v7m.o
_fclose_r                                         /usr/bin/../lib/gcc/arm-none-eabi/4.9.3/../../../../arm-none-eabi/lib/armv7e-m/fpu/libg.a(lib_a-fclose.o)
                                                  /usr/bin/../lib/gcc/arm-none-eabi/4.9.3/../../../../arm-none-eabi/lib/armv7e-m/fpu/libg.a(lib_a-findfp.o)
_fflush_r                                         /usr/bin/../lib/gcc/arm-none-eabi/4.9.3/../../../../arm-none-eabi/lib/armv7e-m/fpu/libg.a(lib_a-fflush.o)
                                                  /usr/bin/../lib/gcc/arm-none-eabi/4.9.3/../../../../arm-none-eabi/lib/armv7e-m/fpu/libg.a(lib_a-ungetc.o)
_free_r                                           /usr/bin/../lib/gcc/arm-none-eabi/4.9.3/../../../../arm-none-eabi/lib/armv7e-m/fpu/libg.a(lib_a-freer.o)
                                                  /usr/bin/../lib/gcc/arm-none-eabi/4.9.3/../../../../arm-none-eabi/lib/armv7e-m/fpu/libg.a(lib_a-fclose.o)
                                                  /usr/bin/../lib/gcc/arm-none-eabi/4.9.3/../../../../arm-none-eabi/lib/armv7e-m/fpu/libg.a(lib_a-svfiprintf.o)
                                                  /usr/bin/../lib/gcc/arm-none-eabi/4.9.3/../../../../arm-none-eabi/lib/armv7e-m/fpu/libg.a(lib_a-reallocr.o)
                                                  /usr/bin/../lib/gcc/arm-none-eabi/4.9.3/../../../../arm-none-eabi/lib/armv7e-m/fpu/libg.a(lib_a-mallocr.o)
                                                  /usr/bin/../lib/gcc/arm-none-eabi/4.9.3/../../../../arm-none-eabi/lib/armv7e-m/fpu/libg.a(lib_a-fflush.o)
                                                  /usr/bin/../lib/gcc/arm-none-eabi/4.9.3/../../../../arm-none-eabi/lib/armv7e-m/fpu/libg.a(lib_a-svfiscanf.o)
_fstat_r                                          build/obj/syscalls.o
_fwalk                                            /usr/bin/../lib/gcc/arm-none-eabi/4.9.3/../../../../arm-none-eabi/lib/armv7e-m/fpu/libg.a(lib_a-fwalk.o)
                                                  /usr/bin/../lib/gcc/arm-none-eabi/4.9.3/../../../../arm-none-eabi/lib/armv7e-m/fpu/libg.a(lib_a-findfp.o)
_fwalk_reent                                      /usr/bin/../lib/gcc/arm-none-eabi/4.9.3/../../../../arm-none-eabi/lib/armv7e-m/fpu/libg.a(lib_a-fwalk.o)
                                                  /usr/bin/../lib/gcc/arm-none-eabi/4.9.3/../../../../arm-none-eabi/lib/armv7e-m/fpu/libg.a(lib_a-findfp.o)
                                                  /usr/bin/../lib/gcc/arm-none-eabi/4.9.3/../../../../arm-none-eabi/lib/armv7e-m/fpu/libg.a(lib_a-fflush.o)
_global_impure_ptr                                /usr/bin/../lib/gcc/arm-none-eabi/4.9.3/../../../../arm-none-eabi/lib/armv7e-m/fpu/libg.a(lib_a-impure.o)
                                                  /usr/bin/../lib/gcc/arm-none-eabi/4.9.3/../../../../arm-none-eabi/lib/armv7e-m/fpu/libg.a(lib_a-findfp.o)
                                                  /usr/bin/../lib/gcc/arm-none-eabi/4.9.3/../../../../arm-none-eabi/lib/armv7e-m/fpu/libg.a(lib_a-fflush.o)
_heap_init                                        build/obj/chheap.o
                                                  build/obj/chsys.o
_impure_ptr                                       /usr/bin/../lib/gcc/arm-none-eabi/4.9.3/../../../../arm-none-eabi/lib/armv7e-m/fpu/libg.a(lib_a-impure.o)
                                                  /usr/bin/../lib/gcc/arm-none-eabi/4.9.3/../../../../arm-none-eabi/lib/armv7e-m/fpu/libg.a(lib_a-fclose.o)
                                                  /usr/bin/../lib/gcc/arm-none-eabi/4.9.3/../../../../arm-none-eabi/lib/armv7e-m/fpu/libg.a(lib_a-findfp.o)
                                                  /usr/bin/../lib/gcc/arm-none-eabi/4.9.3/../../../../arm-none-eabi/lib/armv7e-m/fpu/libg.a(lib_a-fflush.o)
                                                  /usr/bin/../lib/gcc/arm-none-eabi/4.9.3/../../../../arm-none-eabi/lib/armv7e-m/fpu/libg.a(lib_a-ungetc.o)
                                                  /usr/bin/../lib/gcc/arm-none-eabi/4.9.3/../../../../arm-none-eabi/lib/armv7e-m/fpu/libg.a(lib_a-strtoul.o)
                                                  /usr/bin/../lib/gcc/arm-none-eabi/4.9.3/../../../../arm-none-eabi/lib/armv7e-m/fpu/libg.a(lib_a-strtol.o)
                                                  /usr/bin/../lib/gcc/arm-none-eabi/4.9.3/../../../../arm-none-eabi/lib/armv7e-m/fpu/libg.a(lib_a-strtod.o)
                                                  /usr/bin/../lib/gcc/arm-none-eabi/4.9.3/../../../../arm-none-eabi/lib/armv7e-m/fpu/libg.a(lib_a-sprintf.o)
                                                  /usr/bin/../lib/gcc/arm-none-eabi/4.9.3/../../../../arm-none-eabi/lib/armv7e-m/fpu/libg.a(lib_a-mbrtowc.o)
                                                  /usr/bin/../lib/gcc/arm-none-eabi/4.9.3/../../../../arm-none-eabi/lib/armv7e-m/fpu/libg.a(lib_a-locale.o)
                                                  /usr/bin/../lib/gcc/arm-none-eabi/4.9.3/../../../../arm-none-eabi/lib/armv7e-m/fpu/libg.a(lib_a-vsnprintf.o)
                                                  /usr/bin/../lib/gcc/arm-none-eabi/4.9.3/../../../../arm-none-eabi/lib/armv7e-m/fpu/libg.a(lib_a-strtok.o)
                                                  /usr/bin/../lib/gcc/arm-none-eabi/4.9.3/../../../../arm-none-eabi/lib/armv7e-m/fpu/libg.a(lib_a-sscanf.o)
                                                  /usr/bin/../lib/gcc/arm-none-eabi/4.9.3/../../../../arm-none-eabi/lib/armv7e-m/fpu/libg.a(lib_a-errno.o)
_isatty_r                                         build/obj/syscalls.o
_localeconv_r                                     /usr/bin/../lib/gcc/arm-none-eabi/4.9.3/../../../../arm-none-eabi/lib/armv7e-m/fpu/libg.a(lib_a-locale.o)
                                                  /usr/bin/../lib/gcc/arm-none-eabi/4.9.3/../../../../arm-none-eabi/lib/armv7e-m/fpu/libg.a(lib_a-gdtoa-gethex.o)
                                                  /usr/bin/../lib/gcc/arm-none-eabi/4.9.3/../../../../arm-none-eabi/lib/armv7e-m/fpu/libg.a(lib_a-svfprintf.o)
                                                  /usr/bin/../lib/gcc/arm-none-eabi/4.9.3/../../../../arm-none-eabi/lib/armv7e-m/fpu/libg.a(lib_a-strtod.o)
                                                  /usr/bin/../lib/gcc/arm-none-eabi/4.9.3/../../../../arm-none-eabi/lib/armv7e-m/fpu/libg.a(lib_a-svfscanf.o)
_lseek_r                                          build/obj/syscalls.o
                                                  /usr/bin/../lib/gcc/arm-none-eabi/4.9.3/../../../../arm-none-eabi/lib/armv7e-m/fpu/libg.a(lib_a-stdio.o)
_malloc_r                                         /usr/bin/../lib/gcc/arm-none-eabi/4.9.3/../../../../arm-none-eabi/lib/armv7e-m/fpu/libg.a(lib_a-mallocr.o)
                                                  /usr/bin/../lib/gcc/arm-none-eabi/4.9.3/../../../../arm-none-eabi/lib/armv7e-m/fpu/libg.a(lib_a-callocr.o)
                                                  /usr/bin/../lib/gcc/arm-none-eabi/4.9.3/../../../../arm-none-eabi/lib/armv7e-m/fpu/libg.a(lib_a-svfiprintf.o)
                                                  /usr/bin/../lib/gcc/arm-none-eabi/4.9.3/../../../../arm-none-eabi/lib/armv7e-m/fpu/libg.a(lib_a-reallocr.o)
                                                  /usr/bin/../lib/gcc/arm-none-eabi/4.9.3/../../../../arm-none-eabi/lib/armv7e-m/fpu/libg.a(lib_a-findfp.o)
                                                  /usr/bin/../lib/gcc/arm-none-eabi/4.9.3/../../../../arm-none-eabi/lib/armv7e-m/fpu/libg.a(lib_a-ungetc.o)
                                                  /usr/bin/../lib/gcc/arm-none-eabi/4.9.3/../../../../arm-none-eabi/lib/armv7e-m/fpu/libg.a(lib_a-svfprintf.o)
_malloc_trim_r                                    /usr/bin/../lib/gcc/arm-none-eabi/4.9.3/../../../../arm-none-eabi/lib/armv7e-m/fpu/libg.a(lib_a-freer.o)
_mbrtowc_r                                        /usr/bin/../lib/gcc/arm-none-eabi/4.9.3/../../../../arm-none-eabi/lib/armv7e-m/fpu/libg.a(lib_a-mbrtowc.o)
                                                  /usr/bin/../lib/gcc/arm-none-eabi/4.9.3/../../../../arm-none-eabi/lib/armv7e-m/fpu/libg.a(lib_a-svfiscanf.o)
                                                  /usr/bin/../lib/gcc/arm-none-eabi/4.9.3/../../../../arm-none-eabi/lib/armv7e-m/fpu/libg.a(lib_a-svfscanf.o)
_mbtowc_r                                         /usr/bin/../lib/gcc/arm-none-eabi/4.9.3/../../../../arm-none-eabi/lib/armv7e-m/fpu/libg.a(lib_a-mbtowc_r.o)
_mprec_log10                                      /usr/bin/../lib/gcc/arm-none-eabi/4.9.3/../../../../arm-none-eabi/lib/armv7e-m/fpu/libg.a(lib_a-mprec.o)
_pal_lld_init                                     build/obj/pal_lld.o
                                                  build/obj/hal.o
_pal_lld_setgroupmode                             build/obj/pal_lld.o
                                                  build/obj/spi_sw.o
                                                  build/obj/app_uartcomm.o
                                                  build/obj/app_adc.o
                                                  build/obj/hw_410.o
                                                  build/obj/flash_helper.o
                                                  build/obj/encoder.o
                                                  build/obj/ws2811.o
                                                  build/obj/comm_can.o
                                                  build/obj/servo_dec.o
                                                  build/obj/pal.o
_port_exit_from_isr                               build/obj/chcoreasm_v7m.o
                                                  build/obj/chcore_v7m.o
_port_irq_epilogue                                build/obj/chcore_v7m.o
                                                  build/obj/irq_handlers.o
                                                  build/obj/uart_lld.o
                                                  build/obj/icu_lld.o
                                                  build/obj/usb_lld.o
                                                  build/obj/i2c_lld.o
                                                  build/obj/can_lld.o
                                                  build/obj/st_lld.o
                                                  build/obj/stm32_dma.o
_port_switch                                      build/obj/chcoreasm_v7m.o
                                                  build/obj/chschd.o
_port_switch_from_isr                             build/obj/chcoreasm_v7m.o
                                                  build/obj/chcore_v7m.o
_port_thread_start                                build/obj/chcoreasm_v7m.o
                                                  build/obj/chthreads.o
_read_r                                           build/obj/syscalls.o
                                                  /usr/bin/../lib/gcc/arm-none-eabi/4.9.3/../../../../arm-none-eabi/lib/armv7e-m/fpu/libg.a(lib_a-stdio.o)
_realloc_r                                        /usr/bin/../lib/gcc/arm-none-eabi/4.9.3/../../../../arm-none-eabi/lib/armv7e-m/fpu/libg.a(lib_a-reallocr.o)
                                                  /usr/bin/../lib/gcc/arm-none-eabi/4.9.3/../../../../arm-none-eabi/lib/armv7e-m/fpu/libg.a(lib_a-svfiprintf.o)
                                                  /usr/bin/../lib/gcc/arm-none-eabi/4.9.3/../../../../arm-none-eabi/lib/armv7e-m/fpu/libg.a(lib_a-ungetc.o)
_sbrk_r                                           build/obj/syscalls.o
                                                  /usr/bin/../lib/gcc/arm-none-eabi/4.9.3/../../../../arm-none-eabi/lib/armv7e-m/fpu/libg.a(lib_a-mallocr.o)
                                                  /usr/bin/../lib/gcc/arm-none-eabi/4.9.3/../../../../arm-none-eabi/lib/armv7e-m/fpu/libg.a(lib_a-freer.o)
_scheduler_init                                   build/obj/chschd.o
                                                  build/obj/chsys.o
_setlocale_r                                      /usr/bin/../lib/gcc/arm-none-eabi/4.9.3/../../../../arm-none-eabi/lib/armv7e-m/fpu/libg.a(lib_a-locale.o)
_sfread_r                                         /usr/bin/../lib/gcc/arm-none-eabi/4.9.3/../../../../arm-none-eabi/lib/armv7e-m/fpu/libg.a(lib_a-svfiscanf.o)
                                                  /usr/bin/../lib/gcc/arm-none-eabi/4.9.3/../../../../arm-none-eabi/lib/armv7e-m/fpu/libg.a(lib_a-svfscanf.o)
_sprintf_r                                        /usr/bin/../lib/gcc/arm-none-eabi/4.9.3/../../../../arm-none-eabi/lib/armv7e-m/fpu/libg.a(lib_a-sprintf.o)
_sscanf_r                                         /usr/bin/../lib/gcc/arm-none-eabi/4.9.3/../../../../arm-none-eabi/lib/armv7e-m/fpu/libg.a(lib_a-sscanf.o)
_stm32_dma_streams                                build/obj/stm32_dma.o
                                                  build/obj/mcpwm_foc.o
                                                  build/obj/mcpwm.o
                                                  build/obj/uart_lld.o
                                                  build/obj/spi_lld.o
                                                  build/obj/i2c_lld.o
_strtod_r                                         /usr/bin/../lib/gcc/arm-none-eabi/4.9.3/../../../../arm-none-eabi/lib/armv7e-m/fpu/libg.a(lib_a-strtod.o)
                                                  /usr/bin/../lib/gcc/arm-none-eabi/4.9.3/../../../../arm-none-eabi/lib/armv7e-m/fpu/libg.a(lib_a-svfscanf.o)
_strtol_r                                         /usr/bin/../lib/gcc/arm-none-eabi/4.9.3/../../../../arm-none-eabi/lib/armv7e-m/fpu/libg.a(lib_a-strtol.o)
                                                  /usr/bin/../lib/gcc/arm-none-eabi/4.9.3/../../../../arm-none-eabi/lib/armv7e-m/fpu/libg.a(lib_a-svfiscanf.o)
                                                  /usr/bin/../lib/gcc/arm-none-eabi/4.9.3/../../../../arm-none-eabi/lib/armv7e-m/fpu/libg.a(lib_a-svfscanf.o)
_strtoll_r                                        /usr/bin/../lib/gcc/arm-none-eabi/4.9.3/../../../../arm-none-eabi/lib/armv7e-m/fpu/libg.a(lib_a-strtoll_r.o)
                                                  /usr/bin/../lib/gcc/arm-none-eabi/4.9.3/../../../../arm-none-eabi/lib/armv7e-m/fpu/libg.a(lib_a-svfiscanf.o)
                                                  /usr/bin/../lib/gcc/arm-none-eabi/4.9.3/../../../../arm-none-eabi/lib/armv7e-m/fpu/libg.a(lib_a-svfscanf.o)
_strtoul_r                                        /usr/bin/../lib/gcc/arm-none-eabi/4.9.3/../../../../arm-none-eabi/lib/armv7e-m/fpu/libg.a(lib_a-strtoul.o)
                                                  /usr/bin/../lib/gcc/arm-none-eabi/4.9.3/../../../../arm-none-eabi/lib/armv7e-m/fpu/libg.a(lib_a-svfiscanf.o)
                                                  /usr/bin/../lib/gcc/arm-none-eabi/4.9.3/../../../../arm-none-eabi/lib/armv7e-m/fpu/libg.a(lib_a-svfscanf.o)
_strtoull_r                                       /usr/bin/../lib/gcc/arm-none-eabi/4.9.3/../../../../arm-none-eabi/lib/armv7e-m/fpu/libg.a(lib_a-strtoull_r.o)
                                                  /usr/bin/../lib/gcc/arm-none-eabi/4.9.3/../../../../arm-none-eabi/lib/armv7e-m/fpu/libg.a(lib_a-svfiscanf.o)
                                                  /usr/bin/../lib/gcc/arm-none-eabi/4.9.3/../../../../arm-none-eabi/lib/armv7e-m/fpu/libg.a(lib_a-svfscanf.o)
_sungetc_r                                        /usr/bin/../lib/gcc/arm-none-eabi/4.9.3/../../../../arm-none-eabi/lib/armv7e-m/fpu/libg.a(lib_a-svfiscanf.o)
                                                  /usr/bin/../lib/gcc/arm-none-eabi/4.9.3/../../../../arm-none-eabi/lib/armv7e-m/fpu/libg.a(lib_a-svfscanf.o)
_svfiprintf_r                                     /usr/bin/../lib/gcc/arm-none-eabi/4.9.3/../../../../arm-none-eabi/lib/armv7e-m/fpu/libg.a(lib_a-svfiprintf.o)
_svfprintf_r                                      /usr/bin/../lib/gcc/arm-none-eabi/4.9.3/../../../../arm-none-eabi/lib/armv7e-m/fpu/libg.a(lib_a-svfprintf.o)
                                                  /usr/bin/../lib/gcc/arm-none-eabi/4.9.3/../../../../arm-none-eabi/lib/armv7e-m/fpu/libg.a(lib_a-sprintf.o)
                                                  /usr/bin/../lib/gcc/arm-none-eabi/4.9.3/../../../../arm-none-eabi/lib/armv7e-m/fpu/libg.a(lib_a-vsnprintf.o)
_textdata                                         build/obj/crt0_v7m.o
_thread_init                                      build/obj/chthreads.o
                                                  build/obj/chsys.o
_tm_init                                          build/obj/chtm.o
                                                  build/obj/chsys.o
_ungetc_r                                         /usr/bin/../lib/gcc/arm-none-eabi/4.9.3/../../../../arm-none-eabi/lib/armv7e-m/fpu/libg.a(lib_a-ungetc.o)
_unhandled_exception                              build/obj/vectors.o
_usb_ep0in                                        build/obj/usb.o
                                                  build/obj/usb_lld.o
_usb_ep0out                                       build/obj/usb.o
                                                  build/obj/usb_lld.o
_usb_ep0setup                                     build/obj/usb.o
                                                  build/obj/usb_lld.o
_usb_reset                                        build/obj/usb.o
                                                  build/obj/usb_lld.o
_vectors                                          build/obj/vectors.o
_vsnprintf_r                                      /usr/bin/../lib/gcc/arm-none-eabi/4.9.3/../../../../arm-none-eabi/lib/armv7e-m/fpu/libg.a(lib_a-vsnprintf.o)
_vt_init                                          build/obj/chvt.o
                                                  build/obj/chsys.o
_write_r                                          build/obj/syscalls.o
                                                  /usr/bin/../lib/gcc/arm-none-eabi/4.9.3/../../../../arm-none-eabi/lib/armv7e-m/fpu/libg.a(lib_a-stdio.o)
app_adc_configure                                 build/obj/app_adc.o
                                                  build/obj/app.o
app_adc_get_decoded_level                         build/obj/app_adc.o
                                                  build/obj/commands.o
app_adc_get_decoded_level2                        build/obj/app_adc.o
                                                  build/obj/commands.o
app_adc_get_voltage                               build/obj/app_adc.o
                                                  build/obj/commands.o
app_adc_get_voltage2                              build/obj/app_adc.o
                                                  build/obj/commands.o
app_adc_start                                     build/obj/app_adc.o
                                                  build/obj/app.o
app_get_configuration                             build/obj/app.o
                                                  build/obj/comm_can.o
                                                  build/obj/commands.o
app_init                                          build/obj/app.o
                                                  build/obj/main.o
app_nunchuk_configure                             build/obj/app_nunchuk.o
                                                  build/obj/app.o
app_nunchuk_get_decoded_chuk                      build/obj/app_nunchuk.o
                                                  build/obj/commands.o
app_nunchuk_start                                 build/obj/app_nunchuk.o
                                                  build/obj/app.o
app_nunchuk_update_output                         build/obj/app_nunchuk.o
                                                  build/obj/nrf_driver.o
                                                  build/obj/commands.o
app_ppm_configure                                 build/obj/app_ppm.o
                                                  build/obj/app.o
app_ppm_start                                     build/obj/app_ppm.o
                                                  build/obj/app.o
app_set_configuration                             build/obj/app.o
                                                  build/obj/commands.o
app_uartcomm_configure                            build/obj/app_uartcomm.o
                                                  build/obj/app.o
app_uartcomm_start                                build/obj/app_uartcomm.o
                                                  build/obj/app.o
asinf                                             /usr/bin/../lib/gcc/arm-none-eabi/4.9.3/../../../../arm-none-eabi/lib/armv7e-m/fpu/libm.a(lib_a-wf_asin.o)
                                                  build/obj/mcpwm.o
atan2f                                            /usr/bin/../lib/gcc/arm-none-eabi/4.9.3/../../../../arm-none-eabi/lib/armv7e-m/fpu/libm.a(lib_a-wf_atan2.o)
                                                  build/obj/mcpwm_foc.o
atanf                                             /usr/bin/../lib/gcc/arm-none-eabi/4.9.3/../../../../arm-none-eabi/lib/armv7e-m/fpu/libm.a(lib_a-sf_atan.o)
                                                  /usr/bin/../lib/gcc/arm-none-eabi/4.9.3/../../../../arm-none-eabi/lib/armv7e-m/fpu/libm.a(lib_a-ef_atan2.o)
boardInit                                         build/obj/board.o
                                                  build/obj/hal.o
buffer_append_float16                             build/obj/buffer.o
                                                  build/obj/commands.o
buffer_append_float32                             build/obj/buffer.o
                                                  build/obj/commands.o
buffer_append_int16                               build/obj/buffer.o
                                                  build/obj/comm_can.o
                                                  build/obj/commands.o
buffer_append_int32                               build/obj/buffer.o
                                                  build/obj/comm_can.o
                                                  build/obj/commands.o
buffer_append_uint16                              build/obj/buffer.o
                                                  build/obj/commands.o
buffer_append_uint32                              build/obj/buffer.o
                                                  build/obj/commands.o
buffer_get_float16                                build/obj/buffer.o
                                                  build/obj/commands.o
buffer_get_float32                                build/obj/buffer.o
                                                  build/obj/commands.o
buffer_get_int16                                  build/obj/buffer.o
                                                  build/obj/nrf_driver.o
                                                  build/obj/comm_can.o
                                                  build/obj/commands.o
buffer_get_int32                                  build/obj/buffer.o
                                                  build/obj/comm_can.o
                                                  build/obj/commands.o
buffer_get_uint16                                 build/obj/buffer.o
                                                  build/obj/commands.o
buffer_get_uint32                                 build/obj/buffer.o
                                                  build/obj/commands.o
calculate_throttle_curve_chuk                     build/obj/app_nunchuk.o
calculate_throttle_curve_ppm                      build/obj/app_ppm.o
canInit                                           build/obj/can.o
                                                  build/obj/hal.o
canObjectInit                                     build/obj/can.o
                                                  build/obj/can_lld.o
canReceive                                        build/obj/can.o
                                                  build/obj/comm_can.o
canSTM32SetFilters                                build/obj/can_lld.o
canSleep                                          build/obj/can.o
canStart                                          build/obj/can.o
                                                  build/obj/comm_can.o
canStop                                           build/obj/can.o
canTransmit                                       build/obj/can.o
                                                  build/obj/comm_can.o
canWakeup                                         build/obj/can.o
can_lld_init                                      build/obj/can_lld.o
                                                  build/obj/can.o
can_lld_is_rx_nonempty                            build/obj/can_lld.o
                                                  build/obj/can.o
can_lld_is_tx_empty                               build/obj/can_lld.o
                                                  build/obj/can.o
can_lld_receive                                   build/obj/can_lld.o
                                                  build/obj/can.o
can_lld_sleep                                     build/obj/can_lld.o
                                                  build/obj/can.o
can_lld_start                                     build/obj/can_lld.o
                                                  build/obj/can.o
can_lld_stop                                      build/obj/can_lld.o
                                                  build/obj/can.o
can_lld_transmit                                  build/obj/can_lld.o
                                                  build/obj/can.o
can_lld_wakeup                                    build/obj/can_lld.o
                                                  build/obj/can.o
ch                                                build/obj/chschd.o
                                                  build/obj/nrf_driver.o
                                                  build/obj/app_nunchuk.o
                                                  build/obj/app_uartcomm.o
                                                  build/obj/app_adc.o
                                                  build/obj/app_ppm.o
                                                  build/obj/mcpwm_foc.o
                                                  build/obj/mc_interface.o
                                                  build/obj/led_external.o
                                                  build/obj/comm_can.o
                                                  build/obj/timeout.o
                                                  build/obj/commands.o
                                                  build/obj/terminal.o
                                                  build/obj/servo_dec.o
                                                  build/obj/mcpwm.o
                                                  build/obj/comm_usb.o
                                                  build/obj/main.o
                                                  build/obj/usb_lld.o
                                                  build/obj/i2c_lld.o
                                                  build/obj/chmsg.o
                                                  build/obj/chevents.o
                                                  build/obj/chcond.o
                                                  build/obj/chmtx.o
                                                  build/obj/chsem.o
                                                  build/obj/chregistry.o
                                                  build/obj/chtm.o
                                                  build/obj/chthreads.o
                                                  build/obj/chvt.o
                                                  build/obj/chsys.o
chCondBroadcast                                   build/obj/chcond.o
chCondBroadcastI                                  build/obj/chcond.o
chCondObjectInit                                  build/obj/chcond.o
chCondSignal                                      build/obj/chcond.o
chCondSignalI                                     build/obj/chcond.o
chCondWait                                        build/obj/chcond.o
chCondWaitS                                       build/obj/chcond.o
chCondWaitTimeout                                 build/obj/chcond.o
chCondWaitTimeoutS                                build/obj/chcond.o
chCoreAlloc                                       build/obj/chmemcore.o
                                                  build/obj/syscalls.o
                                                  build/obj/chheap.o
chCoreAllocI                                      build/obj/chmemcore.o
chCoreGetStatusX                                  build/obj/chmemcore.o
                                                  build/obj/terminal.o
chEvtAddEvents                                    build/obj/chevents.o
chEvtBroadcastFlags                               build/obj/chevents.o
chEvtBroadcastFlagsI                              build/obj/chevents.o
                                                  build/obj/can_lld.o
                                                  build/obj/serial_usb.o
                                                  build/obj/can.o
chEvtDispatch                                     build/obj/chevents.o
chEvtGetAndClearEvents                            build/obj/chevents.o
chEvtGetAndClearFlags                             build/obj/chevents.o
chEvtGetAndClearFlagsI                            build/obj/chevents.o
chEvtRegisterMaskWithFlags                        build/obj/chevents.o
                                                  build/obj/comm_can.o
chEvtSignal                                       build/obj/chevents.o
                                                  build/obj/comm_can.o
                                                  build/obj/commands.o
                                                  build/obj/comm_usb.o
chEvtSignalI                                      build/obj/chevents.o
                                                  build/obj/app_uartcomm.o
                                                  build/obj/app_ppm.o
                                                  build/obj/mc_interface.o
chEvtUnregister                                   build/obj/chevents.o
                                                  build/obj/comm_can.o
chEvtWaitAll                                      build/obj/chevents.o
chEvtWaitAllTimeout                               build/obj/chevents.o
chEvtWaitAny                                      build/obj/chevents.o
                                                  build/obj/app_uartcomm.o
                                                  build/obj/app_ppm.o
                                                  build/obj/mc_interface.o
                                                  build/obj/comm_can.o
                                                  build/obj/commands.o
                                                  build/obj/comm_usb.o
chEvtWaitAnyTimeout                               build/obj/chevents.o
                                                  build/obj/comm_can.o
chEvtWaitOne                                      build/obj/chevents.o
chEvtWaitOneTimeout                               build/obj/chevents.o
chHeapAlloc                                       build/obj/chheap.o
                                                  build/obj/chdynamic.o
chHeapFree                                        build/obj/chheap.o
                                                  build/obj/chdynamic.o
chHeapObjectInit                                  build/obj/chheap.o
chHeapStatus                                      build/obj/chheap.o
                                                  build/obj/terminal.o
chIQGetTimeout                                    build/obj/chqueues.o
                                                  build/obj/serial_usb.o
chIQObjectInit                                    build/obj/chqueues.o
                                                  build/obj/serial_usb.o
chIQPutI                                          build/obj/chqueues.o
chIQReadTimeout                                   build/obj/chqueues.o
                                                  build/obj/serial_usb.o
chIQResetI                                        build/obj/chqueues.o
                                                  build/obj/serial_usb.o
chMBFetch                                         build/obj/chmboxes.o
chMBFetchI                                        build/obj/chmboxes.o
chMBFetchS                                        build/obj/chmboxes.o
chMBObjectInit                                    build/obj/chmboxes.o
chMBPost                                          build/obj/chmboxes.o
chMBPostAhead                                     build/obj/chmboxes.o
chMBPostAheadI                                    build/obj/chmboxes.o
chMBPostAheadS                                    build/obj/chmboxes.o
chMBPostI                                         build/obj/chmboxes.o
chMBPostS                                         build/obj/chmboxes.o
chMBReset                                         build/obj/chmboxes.o
chMBResetI                                        build/obj/chmboxes.o
chMsgRelease                                      build/obj/chmsg.o
chMsgSend                                         build/obj/chmsg.o
chMsgWait                                         build/obj/chmsg.o
chMtxLock                                         build/obj/chmtx.o
                                                  build/obj/rfhelp.o
                                                  build/obj/comm_can.o
                                                  build/obj/comm_usb.o
                                                  build/obj/spi.o
                                                  build/obj/i2c.o
                                                  build/obj/chheap.o
chMtxLockS                                        build/obj/chmtx.o
                                                  build/obj/chcond.o
chMtxObjectInit                                   build/obj/chmtx.o
                                                  build/obj/rfhelp.o
                                                  build/obj/comm_can.o
                                                  build/obj/comm_usb.o
                                                  build/obj/spi.o
                                                  build/obj/i2c.o
                                                  build/obj/chheap.o
chMtxTryLock                                      build/obj/chmtx.o
chMtxTryLockS                                     build/obj/chmtx.o
chMtxUnlock                                       build/obj/chmtx.o
                                                  build/obj/rfhelp.o
                                                  build/obj/comm_can.o
                                                  build/obj/comm_usb.o
                                                  build/obj/spi.o
                                                  build/obj/i2c.o
                                                  build/obj/chheap.o
chMtxUnlockAll                                    build/obj/chmtx.o
chMtxUnlockS                                      build/obj/chmtx.o
                                                  build/obj/chcond.o
chOQGetI                                          build/obj/chqueues.o
chOQObjectInit                                    build/obj/chqueues.o
                                                  build/obj/serial_usb.o
chOQPutTimeout                                    build/obj/chqueues.o
                                                  build/obj/serial_usb.o
chOQResetI                                        build/obj/chqueues.o
                                                  build/obj/serial_usb.o
chOQWriteTimeout                                  build/obj/chqueues.o
                                                  build/obj/serial_usb.o
chPoolAlloc                                       build/obj/chmempools.o
                                                  build/obj/chdynamic.o
chPoolAllocI                                      build/obj/chmempools.o
chPoolFree                                        build/obj/chmempools.o
                                                  build/obj/chdynamic.o
chPoolFreeI                                       build/obj/chmempools.o
chPoolLoadArray                                   build/obj/chmempools.o
chPoolObjectInit                                  build/obj/chmempools.o
chRegFirstThread                                  build/obj/chregistry.o
                                                  build/obj/terminal.o
chRegNextThread                                   build/obj/chregistry.o
                                                  build/obj/terminal.o
chSchDoReschedule                                 build/obj/chschd.o
                                                  build/obj/chcoreasm_v7m.o
chSchDoRescheduleAhead                            build/obj/chschd.o
chSchDoRescheduleBehind                           build/obj/chschd.o
                                                  build/obj/chthreads.o
chSchGoSleepS                                     build/obj/chschd.o
                                                  build/obj/chmsg.o
                                                  build/obj/chevents.o
                                                  build/obj/chcond.o
                                                  build/obj/chmtx.o
                                                  build/obj/chsem.o
                                                  build/obj/chthreads.o
chSchGoSleepTimeoutS                              build/obj/chschd.o
                                                  build/obj/can_lld.o
                                                  build/obj/chevents.o
                                                  build/obj/chcond.o
                                                  build/obj/chsem.o
                                                  build/obj/chthreads.o
chSchIsPreemptionRequired                         build/obj/chschd.o
                                                  build/obj/chcore_v7m.o
chSchReadyI                                       build/obj/chschd.o
                                                  build/obj/usb_lld.o
                                                  build/obj/chmsg.o
                                                  build/obj/chevents.o
                                                  build/obj/chcond.o
                                                  build/obj/chmtx.o
                                                  build/obj/chsem.o
                                                  build/obj/chthreads.o
chSchRescheduleS                                  build/obj/chschd.o
                                                  build/obj/usb_lld.o
                                                  build/obj/serial_usb.o
                                                  build/obj/can.o
                                                  build/obj/chmboxes.o
                                                  build/obj/chevents.o
                                                  build/obj/chcond.o
                                                  build/obj/chmtx.o
                                                  build/obj/chsem.o
                                                  build/obj/chthreads.o
                                                  build/obj/chsys.o
chSchWakeupS                                      build/obj/chschd.o
                                                  build/obj/chmsg.o
                                                  build/obj/chcond.o
                                                  build/obj/chsem.o
                                                  build/obj/chdynamic.o
                                                  build/obj/chthreads.o
chSemAddCounterI                                  build/obj/chsem.o
chSemObjectInit                                   build/obj/chsem.o
                                                  build/obj/chmboxes.o
chSemReset                                        build/obj/chsem.o
chSemResetI                                       build/obj/chsem.o
                                                  build/obj/chmboxes.o
chSemSignal                                       build/obj/chsem.o
chSemSignalI                                      build/obj/chsem.o
                                                  build/obj/chmboxes.o
chSemSignalWait                                   build/obj/chsem.o
chSemWait                                         build/obj/chsem.o
chSemWaitS                                        build/obj/chsem.o
chSemWaitTimeout                                  build/obj/chsem.o
chSemWaitTimeoutS                                 build/obj/chsem.o
                                                  build/obj/chmboxes.o
chSysGetStatusAndLockX                            build/obj/chsys.o
chSysHalt                                         build/obj/chsys.o
                                                  build/obj/uart_lld.o
                                                  build/obj/spi_lld.o
                                                  build/obj/i2c_lld.o
chSysInit                                         build/obj/chsys.o
                                                  build/obj/main.o
chSysIntegrityCheckI                              build/obj/chsys.o
chSysIsCounterWithinX                             build/obj/chsys.o
chSysPolledDelayX                                 build/obj/chsys.o
                                                  build/obj/usb_lld.o
chSysRestoreStatusX                               build/obj/chsys.o
chSysTimerHandlerI                                build/obj/chsys.o
                                                  build/obj/st_lld.o
chTMChainMeasurementToX                           build/obj/chtm.o
chTMObjectInit                                    build/obj/chtm.o
chTMStartMeasurementX                             build/obj/chtm.o
chTMStopMeasurementX                              build/obj/chtm.o
chThdAddRef                                       build/obj/chdynamic.o
chThdCreateFromHeap                               build/obj/chdynamic.o
chThdCreateFromMemoryPool                         build/obj/chdynamic.o
chThdCreateI                                      build/obj/chthreads.o
                                                  build/obj/usb_lld.o
                                                  build/obj/chdynamic.o
chThdCreateStatic                                 build/obj/chthreads.o
                                                  build/obj/nrf_driver.o
                                                  build/obj/app_nunchuk.o
                                                  build/obj/app_uartcomm.o
                                                  build/obj/app_adc.o
                                                  build/obj/app_ppm.o
                                                  build/obj/mcpwm_foc.o
                                                  build/obj/mc_interface.o
                                                  build/obj/led_external.o
                                                  build/obj/comm_can.o
                                                  build/obj/timeout.o
                                                  build/obj/commands.o
                                                  build/obj/mcpwm.o
                                                  build/obj/comm_usb.o
                                                  build/obj/main.o
                                                  build/obj/chsys.o
chThdDequeueAllI                                  build/obj/chthreads.o
                                                  build/obj/usb_lld.o
                                                  build/obj/can_lld.o
                                                  build/obj/can.o
                                                  build/obj/chqueues.o
chThdDequeueNextI                                 build/obj/chthreads.o
                                                  build/obj/chqueues.o
chThdEnqueueTimeoutS                              build/obj/chthreads.o
                                                  build/obj/can.o
                                                  build/obj/chqueues.o
chThdExit                                         build/obj/chthreads.o
                                                  build/obj/chcoreasm_v7m.o
chThdExitS                                        build/obj/chthreads.o
chThdRelease                                      build/obj/chdynamic.o
                                                  build/obj/chregistry.o
                                                  build/obj/chthreads.o
chThdResume                                       build/obj/chthreads.o
chThdResumeI                                      build/obj/chthreads.o
                                                  build/obj/spi_lld.o
                                                  build/obj/usb_lld.o
                                                  build/obj/i2c_lld.o
chThdResumeS                                      build/obj/chthreads.o
chThdSetPriority                                  build/obj/chthreads.o
chThdSleep                                        build/obj/chthreads.o
                                                  build/obj/nrf_driver.o
                                                  build/obj/rfhelp.o
                                                  build/obj/app_nunchuk.o
                                                  build/obj/app_uartcomm.o
                                                  build/obj/app_adc.o
                                                  build/obj/hw_410.o
                                                  build/obj/mcpwm_foc.o
                                                  build/obj/mc_interface.o
                                                  build/obj/led_external.o
                                                  build/obj/comm_can.o
                                                  build/obj/timeout.o
                                                  build/obj/conf_general.o
                                                  build/obj/terminal.o
                                                  build/obj/mcpwm.o
                                                  build/obj/comm_usb_serial.o
                                                  build/obj/main.o
chThdSleepUntil                                   build/obj/chthreads.o
chThdSleepUntilWindowed                           build/obj/chthreads.o
chThdStart                                        build/obj/chthreads.o
chThdSuspendS                                     build/obj/chthreads.o
                                                  build/obj/usb_lld.o
                                                  build/obj/spi.o
chThdSuspendTimeoutS                              build/obj/chthreads.o
                                                  build/obj/i2c_lld.o
chThdTerminate                                    build/obj/chthreads.o
chThdWait                                         build/obj/chthreads.o
chThdYield                                        build/obj/chthreads.o
chVTDoResetI                                      build/obj/chvt.o
                                                  build/obj/app_ppm.o
                                                  build/obj/chschd.o
chVTDoSetI                                        build/obj/chvt.o
                                                  build/obj/app_ppm.o
                                                  build/obj/chschd.o
ch_debug                                          build/obj/chregistry.o
                                                  build/obj/chsys.o
chsnprintf                                        build/obj/chprintf.o
chvprintf                                         build/obj/chprintf.o
comm_can_get_status_msg_id                        build/obj/comm_can.o
comm_can_get_status_msg_index                     build/obj/comm_can.o
                                                  build/obj/app_nunchuk.o
                                                  build/obj/app_adc.o
                                                  build/obj/app_ppm.o
                                                  build/obj/commands.o
                                                  build/obj/terminal.o
comm_can_init                                     build/obj/comm_can.o
                                                  build/obj/main.o
comm_can_send_buffer                              build/obj/comm_can.o
                                                  build/obj/commands.o
comm_can_set_current                              build/obj/comm_can.o
                                                  build/obj/app_nunchuk.o
                                                  build/obj/app_adc.o
                                                  build/obj/app_ppm.o
comm_can_set_current_brake                        build/obj/comm_can.o
                                                  build/obj/app_nunchuk.o
                                                  build/obj/app_adc.o
                                                  build/obj/app_ppm.o
comm_can_set_duty                                 build/obj/comm_can.o
                                                  build/obj/app_nunchuk.o
                                                  build/obj/app_adc.o
                                                  build/obj/app_ppm.o
comm_can_set_pos                                  build/obj/comm_can.o
comm_can_set_rpm                                  build/obj/comm_can.o
comm_can_set_rpm_and_watt                         build/obj/comm_can.o
                                                  build/obj/app_ppm.o
comm_can_transmit                                 build/obj/comm_can.o
comm_usb_init                                     build/obj/comm_usb.o
                                                  build/obj/main.o
comm_usb_serial_init                              build/obj/comm_usb_serial.o
                                                  build/obj/comm_usb.o
comm_usb_serial_is_active                         build/obj/comm_usb_serial.o
commands_get_disp_pos_mode                        build/obj/commands.o
                                                  build/obj/main.o
commands_init                                     build/obj/commands.o
                                                  build/obj/main.o
commands_printf                                   build/obj/commands.o
                                                  build/obj/mcpwm_foc.o
                                                  build/obj/terminal.o
commands_process_packet                           build/obj/commands.o
                                                  build/obj/nrf_driver.o
                                                  build/obj/app_uartcomm.o
                                                  build/obj/comm_can.o
                                                  build/obj/comm_usb.o
commands_send_app_data                            build/obj/commands.o
commands_send_experiment_samples                  build/obj/commands.o
commands_send_packet                              build/obj/commands.o
                                                  build/obj/comm_can.o
commands_send_rotor_pos                           build/obj/commands.o
                                                  build/obj/main.o
commands_send_samples                             build/obj/commands.o
                                                  build/obj/mc_interface.o
commands_set_app_data_handler                     build/obj/commands.o
commands_set_send_func                            build/obj/commands.o
                                                  build/obj/nrf_driver.o
                                                  build/obj/app_uartcomm.o
                                                  build/obj/comm_can.o
                                                  build/obj/comm_usb.o
conf_general_detect_motor_param                   build/obj/conf_general.o
                                                  build/obj/commands.o
                                                  build/obj/terminal.o
conf_general_get_default_app_configuration        build/obj/conf_general.o
                                                  build/obj/commands.o
conf_general_get_default_mc_configuration         build/obj/conf_general.o
                                                  build/obj/commands.o
conf_general_init                                 build/obj/conf_general.o
                                                  build/obj/main.o
conf_general_measure_flux_linkage                 build/obj/conf_general.o
                                                  build/obj/commands.o
                                                  build/obj/terminal.o
conf_general_read_app_configuration               build/obj/conf_general.o
                                                  build/obj/commands.o
                                                  build/obj/main.o
conf_general_read_mc_configuration                build/obj/conf_general.o
                                                  build/obj/commands.o
                                                  build/obj/main.o
conf_general_store_app_configuration              build/obj/conf_general.o
                                                  build/obj/commands.o
conf_general_store_mc_configuration               build/obj/conf_general.o
                                                  build/obj/commands.o
copysignf                                         /usr/bin/../lib/gcc/arm-none-eabi/4.9.3/../../../../arm-none-eabi/lib/armv7e-m/fpu/libm.a(lib_a-sf_copysign.o)
                                                  /usr/bin/../lib/gcc/arm-none-eabi/4.9.3/../../../../arm-none-eabi/lib/armv7e-m/fpu/libm.a(lib_a-sf_scalbn.o)
cosf                                              /usr/bin/../lib/gcc/arm-none-eabi/4.9.3/../../../../arm-none-eabi/lib/armv7e-m/fpu/libm.a(lib_a-sf_cos.o)
                                                  /usr/bin/../lib/gcc/arm-none-eabi/4.9.3/../../../../arm-none-eabi/lib/armv7e-m/fpu/libm.a(lib_a-wf_sincos.o)
                                                  build/obj/digital_filter.o
crc16                                             build/obj/crc.o
                                                  build/obj/nrf_driver.o
                                                  build/obj/rfhelp.o
                                                  build/obj/comm_can.o
                                                  build/obj/packet.o
crc16_tab                                         build/obj/crc.o
dmaInit                                           build/obj/stm32_dma.o
                                                  build/obj/hal_lld.o
dmaStreamAllocate                                 build/obj/stm32_dma.o
                                                  build/obj/mcpwm.o
                                                  build/obj/uart_lld.o
                                                  build/obj/spi_lld.o
                                                  build/obj/i2c_lld.o
dmaStreamRelease                                  build/obj/stm32_dma.o
                                                  build/obj/mcpwm_foc.o
                                                  build/obj/mcpwm.o
                                                  build/obj/uart_lld.o
                                                  build/obj/spi_lld.o
                                                  build/obj/i2c_lld.o
encoder_deinit                                    build/obj/encoder.o
                                                  build/obj/mc_interface.o
encoder_index_found                               build/obj/encoder.o
                                                  build/obj/mcpwm_foc.o
encoder_init_abi                                  build/obj/encoder.o
                                                  build/obj/mc_interface.o
encoder_init_as5047p_spi                          build/obj/encoder.o
                                                  build/obj/mc_interface.o
encoder_is_configured                             build/obj/encoder.o
                                                  build/obj/mcpwm_foc.o
                                                  build/obj/commands.o
                                                  build/obj/terminal.o
                                                  build/obj/mcpwm.o
                                                  build/obj/main.o
encoder_read_deg                                  build/obj/encoder.o
                                                  build/obj/mcpwm_foc.o
                                                  build/obj/mc_interface.o
                                                  build/obj/mcpwm.o
                                                  build/obj/main.o
encoder_reset                                     build/obj/encoder.o
                                                  build/obj/irq_handlers.o
encoder_set_counts                                build/obj/encoder.o
                                                  build/obj/mc_interface.o
encoder_tim_isr                                   build/obj/encoder.o
                                                  build/obj/irq_handlers.o
fabsf                                             /usr/bin/../lib/gcc/arm-none-eabi/4.9.3/../../../../arm-none-eabi/lib/armv7e-m/fpu/libm.a(lib_a-sf_fabs.o)
                                                  /usr/bin/../lib/gcc/arm-none-eabi/4.9.3/../../../../arm-none-eabi/lib/armv7e-m/fpu/libm.a(lib_a-sf_atan.o)
                                                  /usr/bin/../lib/gcc/arm-none-eabi/4.9.3/../../../../arm-none-eabi/lib/armv7e-m/fpu/libm.a(lib_a-ef_rem_pio2.o)
                                                  /usr/bin/../lib/gcc/arm-none-eabi/4.9.3/../../../../arm-none-eabi/lib/armv7e-m/fpu/libm.a(lib_a-ef_pow.o)
                                                  /usr/bin/../lib/gcc/arm-none-eabi/4.9.3/../../../../arm-none-eabi/lib/armv7e-m/fpu/libm.a(lib_a-ef_atan2.o)
                                                  /usr/bin/../lib/gcc/arm-none-eabi/4.9.3/../../../../arm-none-eabi/lib/armv7e-m/fpu/libm.a(lib_a-ef_asin.o)
                                                  /usr/bin/../lib/gcc/arm-none-eabi/4.9.3/../../../../arm-none-eabi/lib/armv7e-m/fpu/libm.a(lib_a-wf_asin.o)
fclose                                            /usr/bin/../lib/gcc/arm-none-eabi/4.9.3/../../../../arm-none-eabi/lib/armv7e-m/fpu/libg.a(lib_a-fclose.o)
fflush                                            /usr/bin/../lib/gcc/arm-none-eabi/4.9.3/../../../../arm-none-eabi/lib/armv7e-m/fpu/libg.a(lib_a-fflush.o)
filter_add_sample                                 build/obj/digital_filter.o
                                                  build/obj/mcpwm.o
filter_create_fir_lowpass                         build/obj/digital_filter.o
                                                  build/obj/mcpwm.o
filter_dft                                        build/obj/digital_filter.o
filter_fft                                        build/obj/digital_filter.o
filter_fftshift                                   build/obj/digital_filter.o
filter_hamming                                    build/obj/digital_filter.o
filter_run_fir_iteration                          build/obj/digital_filter.o
                                                  build/obj/mcpwm.o
filter_zeroPad                                    build/obj/digital_filter.o
finitef                                           /usr/bin/../lib/gcc/arm-none-eabi/4.9.3/../../../../arm-none-eabi/lib/armv7e-m/fpu/libm.a(lib_a-sf_finite.o)
                                                  /usr/bin/../lib/gcc/arm-none-eabi/4.9.3/../../../../arm-none-eabi/lib/armv7e-m/fpu/libm.a(lib_a-wf_pow.o)
flash_helper_erase_new_app                        build/obj/flash_helper.o
                                                  build/obj/commands.o
flash_helper_get_sector_address                   build/obj/flash_helper.o
                                                  build/obj/eeprom.o
flash_helper_jump_to_bootloader                   build/obj/flash_helper.o
                                                  build/obj/commands.o
flash_helper_write_new_app_data                   build/obj/flash_helper.o
                                                  build/obj/commands.o
floorf                                            /usr/bin/../lib/gcc/arm-none-eabi/4.9.3/../../../../arm-none-eabi/lib/armv7e-m/fpu/libm.a(lib_a-sf_floor.o)
                                                  /usr/bin/../lib/gcc/arm-none-eabi/4.9.3/../../../../arm-none-eabi/lib/armv7e-m/fpu/libm.a(lib_a-kf_rem_pio2.o)
fmodf                                             /usr/bin/../lib/gcc/arm-none-eabi/4.9.3/../../../../arm-none-eabi/lib/armv7e-m/fpu/libm.a(lib_a-wf_fmod.o)
                                                  build/obj/utils.o
halInit                                           build/obj/hal.o
                                                  build/obj/main.o
hal_lld_init                                      build/obj/hal_lld.o
                                                  build/obj/hal.o
hw_init_gpio                                      build/obj/hw_410.o
                                                  build/obj/main.o
hw_setup_adc_channels                             build/obj/hw_410.o
                                                  build/obj/mcpwm_foc.o
                                                  build/obj/mcpwm.o
hw_setup_servo_outputs                            build/obj/hw_410.o
hw_start_i2c                                      build/obj/hw_410.o
                                                  build/obj/app_nunchuk.o
hw_stop_i2c                                       build/obj/hw_410.o
                                                  build/obj/app.o
hw_try_restore_i2c                                build/obj/hw_410.o
                                                  build/obj/app_nunchuk.o
i2cAcquireBus                                     build/obj/i2c.o
                                                  build/obj/app_nunchuk.o
                                                  build/obj/hw_410.o
i2cGetErrors                                      build/obj/i2c.o
i2cInit                                           build/obj/i2c.o
                                                  build/obj/hal.o
i2cMasterReceiveTimeout                           build/obj/i2c.o
                                                  build/obj/app_nunchuk.o
i2cMasterTransmitTimeout                          build/obj/i2c.o
                                                  build/obj/app_nunchuk.o
i2cObjectInit                                     build/obj/i2c.o
                                                  build/obj/i2c_lld.o
i2cReleaseBus                                     build/obj/i2c.o
                                                  build/obj/app_nunchuk.o
                                                  build/obj/hw_410.o
i2cStart                                          build/obj/i2c.o
                                                  build/obj/hw_410.o
i2cStop                                           build/obj/i2c.o
                                                  build/obj/hw_410.o
i2c_lld_init                                      build/obj/i2c_lld.o
                                                  build/obj/i2c.o
i2c_lld_master_receive_timeout                    build/obj/i2c_lld.o
                                                  build/obj/i2c.o
i2c_lld_master_transmit_timeout                   build/obj/i2c_lld.o
                                                  build/obj/i2c.o
i2c_lld_start                                     build/obj/i2c_lld.o
                                                  build/obj/i2c.o
i2c_lld_stop                                      build/obj/i2c_lld.o
                                                  build/obj/i2c.o
icuDisableNotifications                           build/obj/icu.o
icuEnableNotifications                            build/obj/icu.o
                                                  build/obj/servo_dec.o
icuInit                                           build/obj/icu.o
                                                  build/obj/hal.o
icuObjectInit                                     build/obj/icu.o
                                                  build/obj/icu_lld.o
icuStart                                          build/obj/icu.o
                                                  build/obj/servo_dec.o
icuStartCapture                                   build/obj/icu.o
                                                  build/obj/servo_dec.o
icuStop                                           build/obj/icu.o
icuStopCapture                                    build/obj/icu.o
icuWaitCapture                                    build/obj/icu.o
icu_lld_disable_notifications                     build/obj/icu_lld.o
                                                  build/obj/icu.o
icu_lld_enable_notifications                      build/obj/icu_lld.o
                                                  build/obj/icu.o
icu_lld_init                                      build/obj/icu_lld.o
                                                  build/obj/icu.o
icu_lld_start                                     build/obj/icu_lld.o
                                                  build/obj/icu.o
icu_lld_start_capture                             build/obj/icu_lld.o
                                                  build/obj/icu.o
icu_lld_stop                                      build/obj/icu_lld.o
                                                  build/obj/icu.o
icu_lld_stop_capture                              build/obj/icu_lld.o
                                                  build/obj/icu.o
icu_lld_wait_capture                              build/obj/icu_lld.o
                                                  build/obj/icu.o
iswspace                                          /usr/bin/../lib/gcc/arm-none-eabi/4.9.3/../../../../arm-none-eabi/lib/armv7e-m/fpu/libg.a(lib_a-iswspace.o)
                                                  /usr/bin/../lib/gcc/arm-none-eabi/4.9.3/../../../../arm-none-eabi/lib/armv7e-m/fpu/libg.a(lib_a-svfiscanf.o)
                                                  /usr/bin/../lib/gcc/arm-none-eabi/4.9.3/../../../../arm-none-eabi/lib/armv7e-m/fpu/libg.a(lib_a-svfscanf.o)
led_external_init                                 build/obj/led_external.o
led_external_set_reversed                         build/obj/led_external.o
                                                  build/obj/app_nunchuk.o
led_external_set_state                            build/obj/led_external.o
                                                  build/obj/app_nunchuk.o
ledpwm_init                                       build/obj/ledpwm.o
                                                  build/obj/main.o
ledpwm_led_off                                    build/obj/ledpwm.o
ledpwm_led_on                                     build/obj/ledpwm.o
ledpwm_set_intensity                              build/obj/ledpwm.o
                                                  build/obj/main.o
ledpwm_update_pwm                                 build/obj/ledpwm.o
                                                  build/obj/mc_interface.o
localeconv                                        /usr/bin/../lib/gcc/arm-none-eabi/4.9.3/../../../../arm-none-eabi/lib/armv7e-m/fpu/libg.a(lib_a-locale.o)
logf                                              /usr/bin/../lib/gcc/arm-none-eabi/4.9.3/../../../../arm-none-eabi/lib/armv7e-m/fpu/libm.a(lib_a-wf_log.o)
                                                  build/obj/mc_interface.o
                                                  build/obj/commands.o
main                                              build/obj/main.o
                                                  build/obj/crt0_v7m.o
matherr                                           /usr/bin/../lib/gcc/arm-none-eabi/4.9.3/../../../../arm-none-eabi/lib/armv7e-m/fpu/libm.a(lib_a-s_matherr.o)
                                                  /usr/bin/../lib/gcc/arm-none-eabi/4.9.3/../../../../arm-none-eabi/lib/armv7e-m/fpu/libm.a(lib_a-wf_sqrt.o)
                                                  /usr/bin/../lib/gcc/arm-none-eabi/4.9.3/../../../../arm-none-eabi/lib/armv7e-m/fpu/libm.a(lib_a-wf_pow.o)
                                                  /usr/bin/../lib/gcc/arm-none-eabi/4.9.3/../../../../arm-none-eabi/lib/armv7e-m/fpu/libm.a(lib_a-wf_log.o)
                                                  /usr/bin/../lib/gcc/arm-none-eabi/4.9.3/../../../../arm-none-eabi/lib/armv7e-m/fpu/libm.a(lib_a-wf_fmod.o)
                                                  /usr/bin/../lib/gcc/arm-none-eabi/4.9.3/../../../../arm-none-eabi/lib/armv7e-m/fpu/libm.a(lib_a-wf_asin.o)
                                                  /usr/bin/../lib/gcc/arm-none-eabi/4.9.3/../../../../arm-none-eabi/lib/armv7e-m/fpu/libm.a(lib_a-w_sqrt.o)
mbrtowc                                           /usr/bin/../lib/gcc/arm-none-eabi/4.9.3/../../../../arm-none-eabi/lib/armv7e-m/fpu/libg.a(lib_a-mbrtowc.o)
mc_interface_adc_inj_int_handler                  build/obj/mc_interface.o
                                                  build/obj/irq_handlers.o
mc_interface_brake_now                            build/obj/mc_interface.o
mc_interface_dccal_done                           build/obj/mc_interface.o
mc_interface_fault_stop                           build/obj/mc_interface.o
mc_interface_fault_to_string                      build/obj/mc_interface.o
                                                  build/obj/terminal.o
mc_interface_get_amp_hours                        build/obj/mc_interface.o
                                                  build/obj/commands.o
mc_interface_get_amp_hours_charged                build/obj/mc_interface.o
                                                  build/obj/commands.o
mc_interface_get_configuration                    build/obj/mc_interface.o
                                                  build/obj/app_nunchuk.o
                                                  build/obj/app_adc.o
                                                  build/obj/app_ppm.o
                                                  build/obj/commands.o
                                                  build/obj/conf_general.o
                                                  build/obj/terminal.o
                                                  build/obj/main.o
mc_interface_get_cruise_control_status            build/obj/mc_interface.o
                                                  build/obj/comm_can.o
mc_interface_get_duty_cycle_now                   build/obj/mc_interface.o
                                                  build/obj/app_nunchuk.o
                                                  build/obj/app_adc.o
                                                  build/obj/app_ppm.o
                                                  build/obj/commands.o
                                                  build/obj/conf_general.o
mc_interface_get_duty_cycle_set                   build/obj/mc_interface.o
mc_interface_get_fault                            build/obj/mc_interface.o
                                                  build/obj/app_adc.o
                                                  build/obj/app_ppm.o
                                                  build/obj/led_external.o
                                                  build/obj/commands.o
                                                  build/obj/terminal.o
                                                  build/obj/main.o
mc_interface_get_last_inj_adc_isr_duration        build/obj/mc_interface.o
                                                  build/obj/terminal.o
mc_interface_get_last_sample_adc_isr_duration     build/obj/mc_interface.o
                                                  build/obj/terminal.o
mc_interface_get_max_current_at_current_motor_voltage build/obj/mc_interface.o
                                                  build/obj/app_nunchuk.o
                                                  build/obj/app_ppm.o
mc_interface_get_max_watt                         build/obj/mc_interface.o
mc_interface_get_motor_voltage                    build/obj/mc_interface.o
                                                  build/obj/app_nunchuk.o
                                                  build/obj/app_ppm.o
mc_interface_get_pid_pos_now                      build/obj/mc_interface.o
                                                  build/obj/main.o
mc_interface_get_pid_pos_set                      build/obj/mc_interface.o
                                                  build/obj/main.o
mc_interface_get_rpm                              build/obj/mc_interface.o
                                                  build/obj/app_nunchuk.o
                                                  build/obj/app_adc.o
                                                  build/obj/app_ppm.o
                                                  build/obj/comm_can.o
                                                  build/obj/commands.o
                                                  build/obj/conf_general.o
                                                  build/obj/terminal.o
mc_interface_get_sampling_frequency_now           build/obj/mc_interface.o
mc_interface_get_state                            build/obj/mc_interface.o
                                                  build/obj/main.o
mc_interface_get_tachometer_abs_value             build/obj/mc_interface.o
                                                  build/obj/commands.o
mc_interface_get_tachometer_value                 build/obj/mc_interface.o
                                                  build/obj/commands.o
                                                  build/obj/terminal.o
mc_interface_get_tot_current                      build/obj/mc_interface.o
                                                  build/obj/comm_can.o
                                                  build/obj/conf_general.o
mc_interface_get_tot_current_directional          build/obj/mc_interface.o
                                                  build/obj/terminal.o
mc_interface_get_tot_current_directional_filtered build/obj/mc_interface.o
                                                  build/obj/app_nunchuk.o
mc_interface_get_tot_current_filtered             build/obj/mc_interface.o
mc_interface_get_tot_current_in                   build/obj/mc_interface.o
mc_interface_get_tot_current_in_filtered          build/obj/mc_interface.o
mc_interface_get_watt_hours                       build/obj/mc_interface.o
                                                  build/obj/commands.o
mc_interface_get_watt_hours_charged               build/obj/mc_interface.o
                                                  build/obj/commands.o
mc_interface_init                                 build/obj/mc_interface.o
                                                  build/obj/main.o
mc_interface_lock                                 build/obj/mc_interface.o
                                                  build/obj/mcpwm_foc.o
                                                  build/obj/conf_general.o
mc_interface_lock_override_once                   build/obj/mc_interface.o
                                                  build/obj/conf_general.o
mc_interface_mc_timer_isr                         build/obj/mc_interface.o
                                                  build/obj/mcpwm_foc.o
                                                  build/obj/mcpwm.o
mc_interface_read_reset_avg_input_current         build/obj/mc_interface.o
                                                  build/obj/commands.o
mc_interface_read_reset_avg_motor_current         build/obj/mc_interface.o
                                                  build/obj/commands.o
mc_interface_release_motor                        build/obj/mc_interface.o
                                                  build/obj/flash_helper.o
                                                  build/obj/commands.o
                                                  build/obj/conf_general.o
                                                  build/obj/terminal.o
mc_interface_sample_print_data                    build/obj/mc_interface.o
                                                  build/obj/commands.o
mc_interface_set_brake_current                    build/obj/mc_interface.o
                                                  build/obj/app_nunchuk.o
                                                  build/obj/app_adc.o
                                                  build/obj/app_ppm.o
                                                  build/obj/comm_can.o
                                                  build/obj/timeout.o
                                                  build/obj/commands.o
mc_interface_set_configuration                    build/obj/mc_interface.o
                                                  build/obj/commands.o
                                                  build/obj/conf_general.o
                                                  build/obj/terminal.o
mc_interface_set_cruise_control_status            build/obj/mc_interface.o
                                                  build/obj/app_ppm.o
mc_interface_set_current                          build/obj/mc_interface.o
                                                  build/obj/app_nunchuk.o
                                                  build/obj/app_adc.o
                                                  build/obj/app_ppm.o
                                                  build/obj/comm_can.o
                                                  build/obj/commands.o
                                                  build/obj/conf_general.o
mc_interface_set_duty                             build/obj/mc_interface.o
                                                  build/obj/app_adc.o
                                                  build/obj/app_ppm.o
                                                  build/obj/comm_can.o
                                                  build/obj/commands.o
                                                  build/obj/conf_general.o
                                                  build/obj/terminal.o
mc_interface_set_duty_noramp                      build/obj/mc_interface.o
mc_interface_set_pid_pos                          build/obj/mc_interface.o
                                                  build/obj/comm_can.o
                                                  build/obj/commands.o
mc_interface_set_pid_speed                        build/obj/mc_interface.o
                                                  build/obj/app_nunchuk.o
                                                  build/obj/app_adc.o
                                                  build/obj/app_ppm.o
                                                  build/obj/comm_can.o
                                                  build/obj/commands.o
mc_interface_set_pid_speed_and_watt               build/obj/mc_interface.o
                                                  build/obj/app_nunchuk.o
                                                  build/obj/app_ppm.o
                                                  build/obj/comm_can.o
mc_interface_set_pwm_callback                     build/obj/mc_interface.o
mc_interface_try_input                            build/obj/mc_interface.o
                                                  build/obj/mcpwm.o
mc_interface_unlock                               build/obj/mc_interface.o
                                                  build/obj/mcpwm_foc.o
                                                  build/obj/flash_helper.o
                                                  build/obj/timeout.o
                                                  build/obj/conf_general.o
mcconf                                            build/obj/conf_general.o
mcconf_old                                        build/obj/conf_general.o
mcpwm_adc_inj_int_handler                         build/obj/mcpwm.o
                                                  build/obj/mc_interface.o
mcpwm_adc_int_handler                             build/obj/mcpwm.o
mcpwm_deinit                                      build/obj/mcpwm.o
                                                  build/obj/mc_interface.o
mcpwm_detect_currents                             build/obj/mcpwm.o
                                                  build/obj/mc_interface.o
mcpwm_detect_currents_diff                        build/obj/mcpwm.o
                                                  build/obj/mc_interface.o
mcpwm_detect_voltages                             build/obj/mcpwm.o
                                                  build/obj/mc_interface.o
mcpwm_foc_adc_inj_int_handler                     build/obj/mcpwm_foc.o
                                                  build/obj/mc_interface.o
mcpwm_foc_deinit                                  build/obj/mcpwm_foc.o
                                                  build/obj/mc_interface.o
mcpwm_foc_encoder_detect                          build/obj/mcpwm_foc.o
                                                  build/obj/commands.o
                                                  build/obj/terminal.o
mcpwm_foc_get_abs_motor_current                   build/obj/mcpwm_foc.o
                                                  build/obj/mc_interface.o
mcpwm_foc_get_abs_motor_current_filtered          build/obj/mcpwm_foc.o
                                                  build/obj/mc_interface.o
mcpwm_foc_get_duty_cycle_now                      build/obj/mcpwm_foc.o
                                                  build/obj/mc_interface.o
mcpwm_foc_get_duty_cycle_set                      build/obj/mcpwm_foc.o
                                                  build/obj/mc_interface.o
mcpwm_foc_get_last_inj_adc_isr_duration           build/obj/mcpwm_foc.o
                                                  build/obj/mc_interface.o
mcpwm_foc_get_phase                               build/obj/mcpwm_foc.o
mcpwm_foc_get_phase_encoder                       build/obj/mcpwm_foc.o
                                                  build/obj/main.o
mcpwm_foc_get_phase_observer                      build/obj/mcpwm_foc.o
                                                  build/obj/main.o
mcpwm_foc_get_pid_pos_now                         build/obj/mcpwm_foc.o
                                                  build/obj/mc_interface.o
mcpwm_foc_get_pid_pos_set                         build/obj/mcpwm_foc.o
mcpwm_foc_get_rpm                                 build/obj/mcpwm_foc.o
                                                  build/obj/mc_interface.o
mcpwm_foc_get_state                               build/obj/mcpwm_foc.o
                                                  build/obj/mc_interface.o
mcpwm_foc_get_switching_frequency_now             build/obj/mcpwm_foc.o
                                                  build/obj/mc_interface.o
mcpwm_foc_get_tachometer_abs_value                build/obj/mcpwm_foc.o
                                                  build/obj/mc_interface.o
mcpwm_foc_get_tachometer_value                    build/obj/mcpwm_foc.o
                                                  build/obj/mc_interface.o
mcpwm_foc_get_tot_current                         build/obj/mcpwm_foc.o
                                                  build/obj/mc_interface.o
mcpwm_foc_get_tot_current_directional             build/obj/mcpwm_foc.o
                                                  build/obj/mc_interface.o
mcpwm_foc_get_tot_current_directional_filtered    build/obj/mcpwm_foc.o
                                                  build/obj/mc_interface.o
mcpwm_foc_get_tot_current_filtered                build/obj/mcpwm_foc.o
                                                  build/obj/mc_interface.o
mcpwm_foc_get_tot_current_in                      build/obj/mcpwm_foc.o
                                                  build/obj/mc_interface.o
mcpwm_foc_get_tot_current_in_filtered             build/obj/mcpwm_foc.o
                                                  build/obj/mc_interface.o
mcpwm_foc_get_vd                                  build/obj/mcpwm_foc.o
mcpwm_foc_get_vq                                  build/obj/mcpwm_foc.o
                                                  build/obj/terminal.o
mcpwm_foc_hall_detect                             build/obj/mcpwm_foc.o
                                                  build/obj/commands.o
mcpwm_foc_init                                    build/obj/mcpwm_foc.o
                                                  build/obj/mc_interface.o
mcpwm_foc_is_dccal_done                           build/obj/mcpwm_foc.o
                                                  build/obj/mc_interface.o
mcpwm_foc_measure_inductance                      build/obj/mcpwm_foc.o
                                                  build/obj/terminal.o
mcpwm_foc_measure_res_ind                         build/obj/mcpwm_foc.o
                                                  build/obj/commands.o
                                                  build/obj/terminal.o
mcpwm_foc_measure_resistance                      build/obj/mcpwm_foc.o
                                                  build/obj/terminal.o
mcpwm_foc_print_state                             build/obj/mcpwm_foc.o
                                                  build/obj/terminal.o
mcpwm_foc_set_brake_current                       build/obj/mcpwm_foc.o
                                                  build/obj/mc_interface.o
mcpwm_foc_set_configuration                       build/obj/mcpwm_foc.o
                                                  build/obj/mc_interface.o
mcpwm_foc_set_current                             build/obj/mcpwm_foc.o
                                                  build/obj/mc_interface.o
mcpwm_foc_set_duty                                build/obj/mcpwm_foc.o
                                                  build/obj/mc_interface.o
mcpwm_foc_set_duty_noramp                         build/obj/mcpwm_foc.o
                                                  build/obj/mc_interface.o
mcpwm_foc_set_pid_pos                             build/obj/mcpwm_foc.o
                                                  build/obj/mc_interface.o
mcpwm_foc_set_pid_speed                           build/obj/mcpwm_foc.o
                                                  build/obj/mc_interface.o
mcpwm_foc_set_pid_speed_and_watt                  build/obj/mcpwm_foc.o
                                                  build/obj/mc_interface.o
mcpwm_foc_stop_pwm                                build/obj/mcpwm_foc.o
                                                  build/obj/mc_interface.o
mcpwm_get_comm_mode                               build/obj/mcpwm.o
mcpwm_get_comm_step                               build/obj/mcpwm.o
                                                  build/obj/mc_interface.o
mcpwm_get_detect_pos                              build/obj/mcpwm.o
                                                  build/obj/main.o
mcpwm_get_duty_cycle_now                          build/obj/mcpwm.o
                                                  build/obj/mc_interface.o
mcpwm_get_duty_cycle_set                          build/obj/mcpwm.o
                                                  build/obj/mc_interface.o
mcpwm_get_hall_detect_result                      build/obj/mcpwm.o
                                                  build/obj/conf_general.o
mcpwm_get_kv                                      build/obj/mcpwm.o
mcpwm_get_kv_filtered                             build/obj/mcpwm.o
                                                  build/obj/terminal.o
mcpwm_get_last_adc_isr_duration                   build/obj/mcpwm.o
                                                  build/obj/mc_interface.o
                                                  build/obj/terminal.o
mcpwm_get_last_inj_adc_isr_duration               build/obj/mcpwm.o
                                                  build/obj/mc_interface.o
mcpwm_get_rpm                                     build/obj/mcpwm.o
                                                  build/obj/mc_interface.o
mcpwm_get_rpm_dep                                 build/obj/mcpwm.o
                                                  build/obj/terminal.o
mcpwm_get_state                                   build/obj/mcpwm.o
                                                  build/obj/mc_interface.o
mcpwm_get_switching_frequency_now                 build/obj/mcpwm.o
                                                  build/obj/mc_interface.o
mcpwm_get_tachometer_abs_value                    build/obj/mcpwm.o
                                                  build/obj/mc_interface.o
mcpwm_get_tachometer_value                        build/obj/mcpwm.o
                                                  build/obj/mc_interface.o
                                                  build/obj/conf_general.o
mcpwm_get_tot_current                             build/obj/mcpwm.o
                                                  build/obj/mc_interface.o
mcpwm_get_tot_current_directional                 build/obj/mcpwm.o
                                                  build/obj/mc_interface.o
mcpwm_get_tot_current_directional_filtered        build/obj/mcpwm.o
                                                  build/obj/mc_interface.o
mcpwm_get_tot_current_filtered                    build/obj/mcpwm.o
                                                  build/obj/mc_interface.o
mcpwm_get_tot_current_in                          build/obj/mcpwm.o
                                                  build/obj/mc_interface.o
mcpwm_get_tot_current_in_filtered                 build/obj/mcpwm.o
                                                  build/obj/mc_interface.o
mcpwm_init                                        build/obj/mcpwm.o
                                                  build/obj/mc_interface.o
mcpwm_init_hall_table                             build/obj/mcpwm.o
mcpwm_is_dccal_done                               build/obj/mcpwm.o
                                                  build/obj/mc_interface.o
mcpwm_read_hall_phase                             build/obj/mcpwm.o
                                                  build/obj/mc_interface.o
mcpwm_read_reset_avg_cycle_integrator             build/obj/mcpwm.o
                                                  build/obj/conf_general.o
mcpwm_reset_hall_detect_table                     build/obj/mcpwm.o
                                                  build/obj/conf_general.o
mcpwm_set_brake_current                           build/obj/mcpwm.o
                                                  build/obj/mc_interface.o
mcpwm_set_comm_mode                               build/obj/mcpwm.o
mcpwm_set_configuration                           build/obj/mcpwm.o
                                                  build/obj/mc_interface.o
mcpwm_set_current                                 build/obj/mcpwm.o
                                                  build/obj/mc_interface.o
mcpwm_set_detect                                  build/obj/mcpwm.o
                                                  build/obj/commands.o
mcpwm_set_duty                                    build/obj/mcpwm.o
                                                  build/obj/mc_interface.o
mcpwm_set_duty_noramp                             build/obj/mcpwm.o
                                                  build/obj/mc_interface.o
mcpwm_set_pid_pos                                 build/obj/mcpwm.o
                                                  build/obj/mc_interface.o
mcpwm_set_pid_speed                               build/obj/mcpwm.o
                                                  build/obj/mc_interface.o
mcpwm_set_pid_speed_and_watt                      build/obj/mcpwm.o
                                                  build/obj/mc_interface.o
mcpwm_stop_pwm                                    build/obj/mcpwm.o
                                                  build/obj/mc_interface.o
mcpwm_vzero                                       build/obj/mcpwm.o
                                                  build/obj/mc_interface.o
memchr                                            /usr/bin/../lib/gcc/arm-none-eabi/4.9.3/../../../../arm-none-eabi/lib/armv7e-m/fpu/libg.a(lib_a-memchr.o)
                                                  /usr/bin/../lib/gcc/arm-none-eabi/4.9.3/../../../../arm-none-eabi/lib/armv7e-m/fpu/libg.a(lib_a-svfiprintf.o)
                                                  /usr/bin/../lib/gcc/arm-none-eabi/4.9.3/../../../../arm-none-eabi/lib/armv7e-m/fpu/libg.a(lib_a-svfprintf.o)
memcmp                                            /usr/bin/../lib/gcc/arm-none-eabi/4.9.3/../../../../arm-none-eabi/lib/armv7e-m/fpu/libg.a(lib_a-memcmp.o)
                                                  build/obj/rfhelp.o
memcpy                                            /usr/bin/../lib/gcc/arm-none-eabi/4.9.3/../../../../arm-none-eabi/lib/armv7e-m/fpu/libg.a(lib_a-memcpy.o)
                                                  /usr/bin/../lib/gcc/arm-none-eabi/4.9.3/../../../../arm-none-eabi/lib/armv7e-m/fpu/libg.a(lib_a-svfiprintf.o)
                                                  /usr/bin/../lib/gcc/arm-none-eabi/4.9.3/../../../../arm-none-eabi/lib/armv7e-m/fpu/libg.a(lib_a-mprec.o)
                                                  /usr/bin/../lib/gcc/arm-none-eabi/4.9.3/../../../../arm-none-eabi/lib/armv7e-m/fpu/libg.a(lib_a-gdtoa-gethex.o)
                                                  /usr/bin/../lib/gcc/arm-none-eabi/4.9.3/../../../../arm-none-eabi/lib/armv7e-m/fpu/libg.a(lib_a-dtoa.o)
                                                  /usr/bin/../lib/gcc/arm-none-eabi/4.9.3/../../../../arm-none-eabi/lib/armv7e-m/fpu/libg.a(lib_a-ungetc.o)
                                                  /usr/bin/../lib/gcc/arm-none-eabi/4.9.3/../../../../arm-none-eabi/lib/armv7e-m/fpu/libg.a(lib_a-svfiscanf.o)
                                                  /usr/bin/../lib/gcc/arm-none-eabi/4.9.3/../../../../arm-none-eabi/lib/armv7e-m/fpu/libg.a(lib_a-strtod.o)
                                                  build/obj/nrf_driver.o
                                                  build/obj/rfhelp.o
                                                  build/obj/app_uartcomm.o
                                                  build/obj/app.o
                                                  build/obj/mc_interface.o
                                                  build/obj/comm_can.o
                                                  build/obj/commands.o
                                                  build/obj/conf_general.o
                                                  build/obj/terminal.o
                                                  build/obj/packet.o
memmove                                           /usr/bin/../lib/gcc/arm-none-eabi/4.9.3/../../../../arm-none-eabi/lib/armv7e-m/fpu/libg.a(lib_a-memmove.o)
                                                  /usr/bin/../lib/gcc/arm-none-eabi/4.9.3/../../../../arm-none-eabi/lib/armv7e-m/fpu/libg.a(lib_a-svfiprintf.o)
                                                  /usr/bin/../lib/gcc/arm-none-eabi/4.9.3/../../../../arm-none-eabi/lib/armv7e-m/fpu/libg.a(lib_a-reallocr.o)
memset                                            /usr/bin/../lib/gcc/arm-none-eabi/4.9.3/../../../../arm-none-eabi/lib/armv7e-m/fpu/libg.a(lib_a-memset.o)
                                                  /usr/bin/../lib/gcc/arm-none-eabi/4.9.3/../../../../arm-none-eabi/lib/armv7e-m/fpu/libg.a(lib_a-callocr.o)
                                                  /usr/bin/../lib/gcc/arm-none-eabi/4.9.3/../../../../arm-none-eabi/lib/armv7e-m/fpu/libg.a(lib_a-findfp.o)
                                                  /usr/bin/../lib/gcc/arm-none-eabi/4.9.3/../../../../arm-none-eabi/lib/armv7e-m/fpu/libg.a(lib_a-svfiscanf.o)
                                                  /usr/bin/../lib/gcc/arm-none-eabi/4.9.3/../../../../arm-none-eabi/lib/armv7e-m/fpu/libg.a(lib_a-svfscanf.o)
                                                  build/obj/mcpwm_foc.o
                                                  build/obj/commands.o
                                                  build/obj/conf_general.o
                                                  build/obj/mcpwm.o
                                                  build/obj/syscalls.o
                                                  build/obj/usb.o
msObjectInit                                      build/obj/chprintf.o
nan                                               /usr/bin/../lib/gcc/arm-none-eabi/4.9.3/../../../../arm-none-eabi/lib/armv7e-m/fpu/libm.a(lib_a-s_nan.o)
                                                  /usr/bin/../lib/gcc/arm-none-eabi/4.9.3/../../../../arm-none-eabi/lib/armv7e-m/fpu/libm.a(lib_a-wf_log.o)
                                                  /usr/bin/../lib/gcc/arm-none-eabi/4.9.3/../../../../arm-none-eabi/lib/armv7e-m/fpu/libm.a(lib_a-wf_asin.o)
nanf                                              /usr/bin/../lib/gcc/arm-none-eabi/4.9.3/../../../../arm-none-eabi/lib/armv7e-m/fpu/libm.a(lib_a-sf_nan.o)
                                                  /usr/bin/../lib/gcc/arm-none-eabi/4.9.3/../../../../arm-none-eabi/lib/armv7e-m/fpu/libg.a(lib_a-strtod.o)
                                                  /usr/bin/../lib/gcc/arm-none-eabi/4.9.3/../../../../arm-none-eabi/lib/armv7e-m/fpu/libg.a(lib_a-svfscanf.o)
                                                  /usr/bin/../lib/gcc/arm-none-eabi/4.9.3/../../../../arm-none-eabi/lib/armv7e-m/fpu/libm.a(lib_a-ef_pow.o)
nrf_driver_init                                   build/obj/nrf_driver.o
                                                  build/obj/app.o
nrf_driver_send_buffer                            build/obj/nrf_driver.o
nvicClearPending                                  build/obj/nvic.o
nvicDisableVector                                 build/obj/nvic.o
                                                  build/obj/mcpwm_foc.o
                                                  build/obj/encoder.o
                                                  build/obj/mcpwm.o
                                                  build/obj/uart_lld.o
                                                  build/obj/icu_lld.o
                                                  build/obj/usb_lld.o
                                                  build/obj/i2c_lld.o
                                                  build/obj/can_lld.o
                                                  build/obj/stm32_dma.o
nvicEnableVector                                  build/obj/nvic.o
                                                  build/obj/mcpwm_foc.o
                                                  build/obj/encoder.o
                                                  build/obj/mcpwm.o
                                                  build/obj/uart_lld.o
                                                  build/obj/icu_lld.o
                                                  build/obj/usb_lld.o
                                                  build/obj/i2c_lld.o
                                                  build/obj/can_lld.o
                                                  build/obj/stm32_dma.o
nvicSetSystemHandlerPriority                      build/obj/nvic.o
                                                  build/obj/st_lld.o
observer_update                                   build/obj/mcpwm_foc.o
packet_init                                       build/obj/packet.o
                                                  build/obj/app_uartcomm.o
                                                  build/obj/comm_usb.o
packet_process_byte                               build/obj/packet.o
                                                  build/obj/app_uartcomm.o
                                                  build/obj/comm_usb.o
packet_send_packet                                build/obj/packet.o
                                                  build/obj/app_uartcomm.o
                                                  build/obj/comm_usb.o
packet_timerfunc                                  build/obj/packet.o
                                                  build/obj/main.o
palReadBus                                        build/obj/pal.o
palSetBusMode                                     build/obj/pal.o
palWriteBus                                       build/obj/pal.o
pal_default_config                                build/obj/board.o
                                                  build/obj/hal.o
powf                                              /usr/bin/../lib/gcc/arm-none-eabi/4.9.3/../../../../arm-none-eabi/lib/armv7e-m/fpu/libm.a(lib_a-wf_pow.o)
                                                  build/obj/ws2811.o
                                                  build/obj/ledpwm.o
rf_clear_irq                                      build/obj/rf.o
                                                  build/obj/rfhelp.o
rf_clear_maxrt_irq                                build/obj/rf.o
                                                  build/obj/rfhelp.o
rf_clear_rx_irq                                   build/obj/rf.o
                                                  build/obj/rfhelp.o
rf_clear_tx_irq                                   build/obj/rf.o
rf_enable_features                                build/obj/rf.o
                                                  build/obj/rfhelp.o
rf_enable_pipe_address                            build/obj/rf.o
                                                  build/obj/rfhelp.o
rf_enable_pipe_autoack                            build/obj/rf.o
                                                  build/obj/rfhelp.o
rf_enable_pipe_dlp                                build/obj/rf.o
                                                  build/obj/rfhelp.o
rf_fifo_status                                    build/obj/rf.o
rf_flush_all                                      build/obj/rf.o
                                                  build/obj/rfhelp.o
rf_flush_rx                                       build/obj/rf.o
rf_flush_tx                                       build/obj/rf.o
rf_get_address_width                              build/obj/rf.o
rf_get_frequency                                  build/obj/rf.o
rf_get_payload_width                              build/obj/rf.o
                                                  build/obj/rfhelp.o
rf_init                                           build/obj/rf.o
                                                  build/obj/rfhelp.o
rf_mode_rx                                        build/obj/rf.o
                                                  build/obj/rfhelp.o
rf_mode_tx                                        build/obj/rf.o
                                                  build/obj/rfhelp.o
rf_power_down                                     build/obj/rf.o
                                                  build/obj/rfhelp.o
rf_power_up                                       build/obj/rf.o
                                                  build/obj/rfhelp.o
rf_read_reg                                       build/obj/rf.o
                                                  build/obj/rfhelp.o
rf_read_reg_byte                                  build/obj/rf.o
rf_read_rx_payload                                build/obj/rf.o
                                                  build/obj/rfhelp.o
rf_rx_power_detect                                build/obj/rf.o
rf_set_address_width                              build/obj/rf.o
                                                  build/obj/rfhelp.o
rf_set_crc_type                                   build/obj/rf.o
                                                  build/obj/rfhelp.o
rf_set_frequency                                  build/obj/rf.o
                                                  build/obj/rfhelp.o
rf_set_power                                      build/obj/rf.o
                                                  build/obj/rfhelp.o
rf_set_retr_delay                                 build/obj/rf.o
                                                  build/obj/rfhelp.o
rf_set_retr_retries                               build/obj/rf.o
                                                  build/obj/rfhelp.o
rf_set_rx_addr                                    build/obj/rf.o
                                                  build/obj/rfhelp.o
rf_set_speed                                      build/obj/rf.o
                                                  build/obj/rfhelp.o
rf_set_tx_addr                                    build/obj/rf.o
                                                  build/obj/rfhelp.o
rf_status                                         build/obj/rf.o
                                                  build/obj/rfhelp.o
rf_write_ack_payload                              build/obj/rf.o
rf_write_reg                                      build/obj/rf.o
rf_write_reg_byte                                 build/obj/rf.o
                                                  build/obj/rfhelp.o
rf_write_tx_payload                               build/obj/rf.o
                                                  build/obj/rfhelp.o
rf_write_tx_payload_no_ack                        build/obj/rf.o
                                                  build/obj/rfhelp.o
rfhelp_init                                       build/obj/rfhelp.o
                                                  build/obj/nrf_driver.o
rfhelp_power_down                                 build/obj/rfhelp.o
rfhelp_power_up                                   build/obj/rfhelp.o
                                                  build/obj/nrf_driver.o
rfhelp_read_rx_data                               build/obj/rfhelp.o
rfhelp_read_rx_data_crc                           build/obj/rfhelp.o
                                                  build/obj/nrf_driver.o
rfhelp_restart                                    build/obj/rfhelp.o
                                                  build/obj/nrf_driver.o
                                                  build/obj/app.o
rfhelp_rf_status                                  build/obj/rfhelp.o
rfhelp_send_data                                  build/obj/rfhelp.o
rfhelp_send_data_crc                              build/obj/rfhelp.o
                                                  build/obj/nrf_driver.o
rfhelp_set_rx_addr                                build/obj/rfhelp.o
rfhelp_set_tx_addr                                build/obj/rfhelp.o
rfhelp_update_conf                                build/obj/rfhelp.o
                                                  build/obj/app.o
rint                                              /usr/bin/../lib/gcc/arm-none-eabi/4.9.3/../../../../arm-none-eabi/lib/armv7e-m/fpu/libm.a(lib_a-s_rint.o)
                                                  /usr/bin/../lib/gcc/arm-none-eabi/4.9.3/../../../../arm-none-eabi/lib/armv7e-m/fpu/libm.a(lib_a-wf_pow.o)
roundf                                            /usr/bin/../lib/gcc/arm-none-eabi/4.9.3/../../../../arm-none-eabi/lib/armv7e-m/fpu/libm.a(lib_a-sf_round.o)
                                                  build/obj/mcpwm_foc.o
                                                  build/obj/ws2811.o
                                                  build/obj/ledpwm.o
scalbnf                                           /usr/bin/../lib/gcc/arm-none-eabi/4.9.3/../../../../arm-none-eabi/lib/armv7e-m/fpu/libm.a(lib_a-sf_scalbn.o)
                                                  /usr/bin/../lib/gcc/arm-none-eabi/4.9.3/../../../../arm-none-eabi/lib/armv7e-m/fpu/libm.a(lib_a-kf_rem_pio2.o)
                                                  /usr/bin/../lib/gcc/arm-none-eabi/4.9.3/../../../../arm-none-eabi/lib/armv7e-m/fpu/libm.a(lib_a-ef_pow.o)
sduConfigureHookI                                 build/obj/serial_usb.o
                                                  build/obj/comm_usb_serial.o
sduDataReceived                                   build/obj/serial_usb.o
                                                  build/obj/comm_usb_serial.o
sduDataTransmitted                                build/obj/serial_usb.o
                                                  build/obj/comm_usb_serial.o
sduInit                                           build/obj/serial_usb.o
                                                  build/obj/hal.o
sduInterruptTransmitted                           build/obj/serial_usb.o
                                                  build/obj/comm_usb_serial.o
sduObjectInit                                     build/obj/serial_usb.o
                                                  build/obj/comm_usb_serial.o
sduRequestsHook                                   build/obj/serial_usb.o
                                                  build/obj/comm_usb_serial.o
sduStart                                          build/obj/serial_usb.o
                                                  build/obj/comm_usb_serial.o
sduStop                                           build/obj/serial_usb.o
serusbcfg                                         build/obj/comm_usb_serial.o
servodec_get_last_pulse_len                       build/obj/servo_dec.o
                                                  build/obj/commands.o
servodec_get_servo                                build/obj/servo_dec.o
                                                  build/obj/app_ppm.o
                                                  build/obj/commands.o
servodec_get_time_since_update                    build/obj/servo_dec.o
                                                  build/obj/app_ppm.o
servodec_init                                     build/obj/servo_dec.o
                                                  build/obj/app_ppm.o
servodec_set_pulse_options                        build/obj/servo_dec.o
                                                  build/obj/app_ppm.o
servos                                            build/obj/hw_410.o
setlocale                                         /usr/bin/../lib/gcc/arm-none-eabi/4.9.3/../../../../arm-none-eabi/lib/armv7e-m/fpu/libg.a(lib_a-locale.o)
sincosf                                           /usr/bin/../lib/gcc/arm-none-eabi/4.9.3/../../../../arm-none-eabi/lib/armv7e-m/fpu/libm.a(lib_a-wf_sincos.o)
                                                  build/obj/mcpwm_foc.o
sinf                                              /usr/bin/../lib/gcc/arm-none-eabi/4.9.3/../../../../arm-none-eabi/lib/armv7e-m/fpu/libm.a(lib_a-sf_sin.o)
                                                  /usr/bin/../lib/gcc/arm-none-eabi/4.9.3/../../../../arm-none-eabi/lib/armv7e-m/fpu/libm.a(lib_a-wf_sincos.o)
                                                  build/obj/digital_filter.o
spiAcquireBus                                     build/obj/spi.o
spiExchange                                       build/obj/spi.o
spiIgnore                                         build/obj/spi.o
spiInit                                           build/obj/spi.o
                                                  build/obj/hal.o
spiObjectInit                                     build/obj/spi.o
                                                  build/obj/spi_lld.o
spiReceive                                        build/obj/spi.o
spiReleaseBus                                     build/obj/spi.o
spiSelect                                         build/obj/spi.o
spiSend                                           build/obj/spi.o
spiStart                                          build/obj/spi.o
spiStartExchange                                  build/obj/spi.o
spiStartIgnore                                    build/obj/spi.o
spiStartReceive                                   build/obj/spi.o
spiStartSend                                      build/obj/spi.o
spiStop                                           build/obj/spi.o
spiUnselect                                       build/obj/spi.o
spi_exchange                                      build/obj/encoder.o
spi_lld_exchange                                  build/obj/spi_lld.o
                                                  build/obj/spi.o
spi_lld_ignore                                    build/obj/spi_lld.o
                                                  build/obj/spi.o
spi_lld_init                                      build/obj/spi_lld.o
                                                  build/obj/spi.o
spi_lld_polled_exchange                           build/obj/spi_lld.o
spi_lld_receive                                   build/obj/spi_lld.o
                                                  build/obj/spi.o
spi_lld_select                                    build/obj/spi_lld.o
                                                  build/obj/spi.o
spi_lld_send                                      build/obj/spi_lld.o
                                                  build/obj/spi.o
spi_lld_start                                     build/obj/spi_lld.o
                                                  build/obj/spi.o
spi_lld_stop                                      build/obj/spi_lld.o
                                                  build/obj/spi.o
spi_lld_unselect                                  build/obj/spi_lld.o
                                                  build/obj/spi.o
spi_sw_begin                                      build/obj/spi_sw.o
                                                  build/obj/rf.o
spi_sw_end                                        build/obj/spi_sw.o
                                                  build/obj/rf.o
spi_sw_init                                       build/obj/spi_sw.o
                                                  build/obj/rf.o
spi_sw_transfer                                   build/obj/spi_sw.o
                                                  build/obj/rf.o
sprintf                                           /usr/bin/../lib/gcc/arm-none-eabi/4.9.3/../../../../arm-none-eabi/lib/armv7e-m/fpu/libg.a(lib_a-sprintf.o)
                                                  /usr/bin/../lib/gcc/arm-none-eabi/4.9.3/../../../../arm-none-eabi/lib/armv7e-m/fpu/libg.a(lib_a-svfscanf.o)
sqrt                                              /usr/bin/../lib/gcc/arm-none-eabi/4.9.3/../../../../arm-none-eabi/lib/armv7e-m/fpu/libm.a(lib_a-w_sqrt.o)
                                                  build/obj/digital_filter.o
sqrtf                                             /usr/bin/../lib/gcc/arm-none-eabi/4.9.3/../../../../arm-none-eabi/lib/armv7e-m/fpu/libm.a(lib_a-wf_sqrt.o)
                                                  build/obj/mcpwm_foc.o
                                                  build/obj/utils.o
                                                  build/obj/mcpwm.o
sscanf                                            /usr/bin/../lib/gcc/arm-none-eabi/4.9.3/../../../../arm-none-eabi/lib/armv7e-m/fpu/libg.a(lib_a-sscanf.o)
                                                  build/obj/terminal.o
stGetAlarm                                        build/obj/st.o
stInit                                            build/obj/st.o
                                                  build/obj/hal.o
stSetAlarm                                        build/obj/st.o
stStartAlarm                                      build/obj/st.o
stStopAlarm                                       build/obj/st.o
st_lld_init                                       build/obj/st_lld.o
                                                  build/obj/st.o
stm32_clock_init                                  build/obj/hal_lld.o
                                                  build/obj/board.o
strcmp                                            /usr/bin/../lib/gcc/arm-none-eabi/4.9.3/../../../../arm-none-eabi/lib/armv7e-m/fpu/libg.a(lib_a-strcmp.o)
                                                  /usr/bin/../lib/gcc/arm-none-eabi/4.9.3/../../../../arm-none-eabi/lib/armv7e-m/fpu/libg.a(lib_a-locale.o)
                                                  build/obj/terminal.o
strlen                                            /usr/bin/../lib/gcc/arm-none-eabi/4.9.3/../../../../arm-none-eabi/lib/armv7e-m/fpu/libg.a(lib_a-strlen.o)
                                                  /usr/bin/../lib/gcc/arm-none-eabi/4.9.3/../../../../arm-none-eabi/lib/armv7e-m/fpu/libg.a(lib_a-svfiprintf.o)
                                                  /usr/bin/../lib/gcc/arm-none-eabi/4.9.3/../../../../arm-none-eabi/lib/armv7e-m/fpu/libg.a(lib_a-gdtoa-gethex.o)
                                                  /usr/bin/../lib/gcc/arm-none-eabi/4.9.3/../../../../arm-none-eabi/lib/armv7e-m/fpu/libg.a(lib_a-svfprintf.o)
                                                  /usr/bin/../lib/gcc/arm-none-eabi/4.9.3/../../../../arm-none-eabi/lib/armv7e-m/fpu/libg.a(lib_a-strtod.o)
                                                  /usr/bin/../lib/gcc/arm-none-eabi/4.9.3/../../../../arm-none-eabi/lib/armv7e-m/fpu/libg.a(lib_a-sscanf.o)
strncmp                                           /usr/bin/../lib/gcc/arm-none-eabi/4.9.3/../../../../arm-none-eabi/lib/armv7e-m/fpu/libg.a(lib_a-strncmp.o)
                                                  /usr/bin/../lib/gcc/arm-none-eabi/4.9.3/../../../../arm-none-eabi/lib/armv7e-m/fpu/libg.a(lib_a-gdtoa-gethex.o)
                                                  /usr/bin/../lib/gcc/arm-none-eabi/4.9.3/../../../../arm-none-eabi/lib/armv7e-m/fpu/libg.a(lib_a-strtod.o)
strtod                                            /usr/bin/../lib/gcc/arm-none-eabi/4.9.3/../../../../arm-none-eabi/lib/armv7e-m/fpu/libg.a(lib_a-strtod.o)
strtof                                            /usr/bin/../lib/gcc/arm-none-eabi/4.9.3/../../../../arm-none-eabi/lib/armv7e-m/fpu/libg.a(lib_a-strtod.o)
strtok                                            /usr/bin/../lib/gcc/arm-none-eabi/4.9.3/../../../../arm-none-eabi/lib/armv7e-m/fpu/libg.a(lib_a-strtok.o)
                                                  build/obj/terminal.o
strtok_r                                          /usr/bin/../lib/gcc/arm-none-eabi/4.9.3/../../../../arm-none-eabi/lib/armv7e-m/fpu/libg.a(lib_a-strtok_r.o)
strtol                                            /usr/bin/../lib/gcc/arm-none-eabi/4.9.3/../../../../arm-none-eabi/lib/armv7e-m/fpu/libg.a(lib_a-strtol.o)
strtoul                                           /usr/bin/../lib/gcc/arm-none-eabi/4.9.3/../../../../arm-none-eabi/lib/armv7e-m/fpu/libg.a(lib_a-strtoul.o)
terminal_add_fault_data                           build/obj/terminal.o
                                                  build/obj/mc_interface.o
terminal_process_string                           build/obj/terminal.o
                                                  build/obj/commands.o
timeout_configure                                 build/obj/timeout.o
                                                  build/obj/mcpwm_foc.o
                                                  build/obj/commands.o
                                                  build/obj/conf_general.o
                                                  build/obj/terminal.o
                                                  build/obj/main.o
timeout_get_brake_current                         build/obj/timeout.o
                                                  build/obj/app_adc.o
                                                  build/obj/app_ppm.o
                                                  build/obj/mcpwm_foc.o
                                                  build/obj/conf_general.o
                                                  build/obj/terminal.o
timeout_get_timeout_msec                          build/obj/timeout.o
                                                  build/obj/app_ppm.o
                                                  build/obj/mcpwm_foc.o
                                                  build/obj/conf_general.o
                                                  build/obj/terminal.o
timeout_has_timeout                               build/obj/timeout.o
                                                  build/obj/app_nunchuk.o
                                                  build/obj/app_ppm.o
timeout_init                                      build/obj/timeout.o
                                                  build/obj/main.o
timeout_reset                                     build/obj/timeout.o
                                                  build/obj/app_nunchuk.o
                                                  build/obj/app_adc.o
                                                  build/obj/app_ppm.o
                                                  build/obj/comm_can.o
                                                  build/obj/commands.o
uartInit                                          build/obj/uart.o
                                                  build/obj/hal.o
uartObjectInit                                    build/obj/uart.o
                                                  build/obj/uart_lld.o
uartStart                                         build/obj/uart.o
                                                  build/obj/app_uartcomm.o
uartStartReceive                                  build/obj/uart.o
uartStartReceiveI                                 build/obj/uart.o
uartStartSend                                     build/obj/uart.o
                                                  build/obj/app_uartcomm.o
uartStartSendI                                    build/obj/uart.o
uartStop                                          build/obj/uart.o
                                                  build/obj/flash_helper.o
uartStopReceive                                   build/obj/uart.o
uartStopReceiveI                                  build/obj/uart.o
uartStopSend                                      build/obj/uart.o
uartStopSendI                                     build/obj/uart.o
uart_lld_init                                     build/obj/uart_lld.o
                                                  build/obj/uart.o
uart_lld_start                                    build/obj/uart_lld.o
                                                  build/obj/uart.o
uart_lld_start_receive                            build/obj/uart_lld.o
                                                  build/obj/uart.o
uart_lld_start_send                               build/obj/uart_lld.o
                                                  build/obj/uart.o
uart_lld_stop                                     build/obj/uart_lld.o
                                                  build/obj/uart.o
uart_lld_stop_receive                             build/obj/uart_lld.o
                                                  build/obj/uart.o
uart_lld_stop_send                                build/obj/uart_lld.o
                                                  build/obj/uart.o
ungetc                                            /usr/bin/../lib/gcc/arm-none-eabi/4.9.3/../../../../arm-none-eabi/lib/armv7e-m/fpu/libg.a(lib_a-ungetc.o)
usbDisableEndpointsI                              build/obj/usb.o
usbInit                                           build/obj/usb.o
                                                  build/obj/hal.o
usbInitEndpointI                                  build/obj/usb.o
                                                  build/obj/comm_usb_serial.o
usbObjectInit                                     build/obj/usb.o
                                                  build/obj/usb_lld.o
usbPrepareQueuedReceive                           build/obj/usb.o
                                                  build/obj/serial_usb.o
usbPrepareQueuedTransmit                          build/obj/usb.o
                                                  build/obj/serial_usb.o
usbPrepareReceive                                 build/obj/usb.o
usbPrepareTransmit                                build/obj/usb.o
usbStallReceiveI                                  build/obj/usb.o
usbStallTransmitI                                 build/obj/usb.o
usbStart                                          build/obj/usb.o
                                                  build/obj/comm_usb_serial.o
usbStartReceiveI                                  build/obj/usb.o
                                                  build/obj/serial_usb.o
usbStartTransmitI                                 build/obj/usb.o
                                                  build/obj/serial_usb.o
usbStop                                           build/obj/usb.o
                                                  build/obj/flash_helper.o
usb_lld_clear_in                                  build/obj/usb_lld.o
                                                  build/obj/usb.o
usb_lld_clear_out                                 build/obj/usb_lld.o
                                                  build/obj/usb.o
usb_lld_disable_endpoints                         build/obj/usb_lld.o
                                                  build/obj/usb.o
usb_lld_get_status_in                             build/obj/usb_lld.o
                                                  build/obj/usb.o
usb_lld_get_status_out                            build/obj/usb_lld.o
                                                  build/obj/usb.o
usb_lld_init                                      build/obj/usb_lld.o
                                                  build/obj/usb.o
usb_lld_init_endpoint                             build/obj/usb_lld.o
                                                  build/obj/usb.o
usb_lld_prepare_receive                           build/obj/usb_lld.o
                                                  build/obj/usb.o
usb_lld_prepare_transmit                          build/obj/usb_lld.o
                                                  build/obj/usb.o
usb_lld_pump                                      build/obj/usb_lld.o
usb_lld_read_setup                                build/obj/usb_lld.o
                                                  build/obj/usb.o
usb_lld_reset                                     build/obj/usb_lld.o
                                                  build/obj/usb.o
usb_lld_set_address                               build/obj/usb_lld.o
                                                  build/obj/usb.o
usb_lld_stall_in                                  build/obj/usb_lld.o
                                                  build/obj/usb.o
usb_lld_stall_out                                 build/obj/usb_lld.o
                                                  build/obj/usb.o
usb_lld_start                                     build/obj/usb_lld.o
                                                  build/obj/usb.o
usb_lld_start_in                                  build/obj/usb_lld.o
                                                  build/obj/usb.o
usb_lld_start_out                                 build/obj/usb_lld.o
                                                  build/obj/usb.o
usb_lld_stop                                      build/obj/usb_lld.o
                                                  build/obj/usb.o
utils_angle_difference                            build/obj/utils.o
                                                  build/obj/mcpwm_foc.o
                                                  build/obj/mcpwm.o
                                                  build/obj/main.o
utils_angle_difference_rad                        build/obj/utils.o
                                                  build/obj/mcpwm_foc.o
utils_avg_angles_rad_fast                         build/obj/utils.o
utils_calc_ratio                                  build/obj/utils.o
utils_deadband                                    build/obj/utils.o
                                                  build/obj/app_nunchuk.o
                                                  build/obj/app_adc.o
                                                  build/obj/app_ppm.o
utils_fast_atan2                                  build/obj/utils.o
                                                  build/obj/mcpwm_foc.o
utils_fast_inv_sqrt                               build/obj/utils.o
utils_fast_sincos                                 build/obj/utils.o
utils_fast_sincos_better                          build/obj/utils.o
                                                  build/obj/mcpwm_foc.o
utils_map                                         build/obj/utils.o
                                                  build/obj/app_nunchuk.o
                                                  build/obj/app_adc.o
                                                  build/obj/app_ppm.o
                                                  build/obj/mcpwm_foc.o
                                                  build/obj/mc_interface.o
                                                  build/obj/led_external.o
                                                  build/obj/mcpwm.o
utils_map_int                                     build/obj/utils.o
utils_middle_of_3                                 build/obj/utils.o
                                                  build/obj/servo_dec.o
utils_middle_of_3_int                             build/obj/utils.o
utils_norm_angle                                  build/obj/utils.o
                                                  build/obj/mcpwm_foc.o
                                                  build/obj/mcpwm.o
utils_norm_angle_rad                              build/obj/utils.o
                                                  build/obj/mcpwm_foc.o
utils_saturate_vector_2d                          build/obj/utils.o
                                                  build/obj/mcpwm_foc.o
utils_step_towards                                build/obj/utils.o
                                                  build/obj/app_nunchuk.o
                                                  build/obj/mcpwm.o
utils_sys_lock_cnt                                build/obj/utils.o
                                                  build/obj/mcpwm_foc.o
                                                  build/obj/flash_helper.o
                                                  build/obj/conf_general.o
                                                  build/obj/mcpwm.o
utils_sys_unlock_cnt                              build/obj/utils.o
                                                  build/obj/mcpwm_foc.o
                                                  build/obj/flash_helper.o
                                                  build/obj/conf_general.o
                                                  build/obj/mcpwm.o
utils_truncate_number                             build/obj/utils.o
                                                  build/obj/app_adc.o
                                                  build/obj/mcpwm_foc.o
                                                  build/obj/mcpwm.o
vsnprintf                                         /usr/bin/../lib/gcc/arm-none-eabi/4.9.3/../../../../arm-none-eabi/lib/armv7e-m/fpu/libg.a(lib_a-vsnprintf.o)
                                                  build/obj/commands.o
vt                                                build/obj/app_ppm.o
ws2811_all_off                                    build/obj/ws2811.o
ws2811_get_led_color                              build/obj/ws2811.o
ws2811_init                                       build/obj/ws2811.o
ws2811_set_all                                    build/obj/ws2811.o
                                                  build/obj/led_external.o
ws2811_set_led_color                              build/obj/ws2811.o
                                                  build/obj/led_external.o
